
RTOS_SDIO_Sema_TEST_F207ZG.elf:     file format elf32-littlearm

Sections:
Idx Name          Size      VMA       LMA       File off  Algn
  0 .isr_vector   00000184  08000000  08000000  00010000  2**0
                  CONTENTS, ALLOC, LOAD, READONLY, DATA
  1 .text         000098b4  08000190  08000190  00010190  2**4
                  CONTENTS, ALLOC, LOAD, READONLY, CODE
  2 .rodata       00021950  08009a44  08009a44  00019a44  2**2
                  CONTENTS, ALLOC, LOAD, READONLY, DATA
  3 .ARM.extab    00000000  0802b394  0802b394  00040078  2**0
                  CONTENTS
  4 .ARM          00000008  0802b394  0802b394  0003b394  2**2
                  CONTENTS, ALLOC, LOAD, READONLY, DATA
  5 .preinit_array 00000000  0802b39c  0802b39c  00040078  2**0
                  CONTENTS, ALLOC, LOAD, DATA
  6 .init_array   00000004  0802b39c  0802b39c  0003b39c  2**2
                  CONTENTS, ALLOC, LOAD, DATA
  7 .fini_array   00000004  0802b3a0  0802b3a0  0003b3a0  2**2
                  CONTENTS, ALLOC, LOAD, DATA
  8 .data         00000078  20000000  0802b3a4  00040000  2**2
                  CONTENTS, ALLOC, LOAD, DATA
  9 .bss          00004cdc  20000078  0802b41c  00040078  2**2
                  ALLOC
 10 ._user_heap_stack 00002004  20004d54  0802b41c  00044d54  2**0
                  ALLOC
 11 .ARM.attributes 00000029  00000000  00000000  00040078  2**0
                  CONTENTS, READONLY
 12 .debug_info   00031cbe  00000000  00000000  000400a1  2**0
                  CONTENTS, READONLY, DEBUGGING
 13 .debug_abbrev 00005459  00000000  00000000  00071d5f  2**0
                  CONTENTS, READONLY, DEBUGGING
 14 .debug_aranges 00001430  00000000  00000000  000771b8  2**3
                  CONTENTS, READONLY, DEBUGGING
 15 .debug_ranges 00006ba0  00000000  00000000  000785e8  2**3
                  CONTENTS, READONLY, DEBUGGING
 16 .debug_macro  000248b2  00000000  00000000  0007f188  2**0
                  CONTENTS, READONLY, DEBUGGING
 17 .debug_line   0001a8e6  00000000  00000000  000a3a3a  2**0
                  CONTENTS, READONLY, DEBUGGING
 18 .debug_str    000d1c95  00000000  00000000  000be320  2**0
                  CONTENTS, READONLY, DEBUGGING
 19 .comment      0000007b  00000000  00000000  0018ffb5  2**0
                  CONTENTS, READONLY
 20 .debug_frame  00004b7c  00000000  00000000  00190030  2**2
                  CONTENTS, READONLY, DEBUGGING
 21 .debug_loc    00032929  00000000  00000000  00194bac  2**0
                  CONTENTS, READONLY, DEBUGGING

Disassembly of section .text:

08000190 <__do_global_dtors_aux>:
 8000190:	b510      	push	{r4, lr}
 8000192:	4c05      	ldr	r4, [pc, #20]	; (80001a8 <__do_global_dtors_aux+0x18>)
 8000194:	7823      	ldrb	r3, [r4, #0]
 8000196:	b933      	cbnz	r3, 80001a6 <__do_global_dtors_aux+0x16>
 8000198:	4b04      	ldr	r3, [pc, #16]	; (80001ac <__do_global_dtors_aux+0x1c>)
 800019a:	b113      	cbz	r3, 80001a2 <__do_global_dtors_aux+0x12>
 800019c:	4804      	ldr	r0, [pc, #16]	; (80001b0 <__do_global_dtors_aux+0x20>)
 800019e:	f3af 8000 	nop.w
 80001a2:	2301      	movs	r3, #1
 80001a4:	7023      	strb	r3, [r4, #0]
 80001a6:	bd10      	pop	{r4, pc}
 80001a8:	20000078 	.word	0x20000078
 80001ac:	00000000 	.word	0x00000000
 80001b0:	08009a2c 	.word	0x08009a2c

080001b4 <frame_dummy>:
 80001b4:	b508      	push	{r3, lr}
 80001b6:	4b03      	ldr	r3, [pc, #12]	; (80001c4 <frame_dummy+0x10>)
 80001b8:	b11b      	cbz	r3, 80001c2 <frame_dummy+0xe>
 80001ba:	4903      	ldr	r1, [pc, #12]	; (80001c8 <frame_dummy+0x14>)
 80001bc:	4803      	ldr	r0, [pc, #12]	; (80001cc <frame_dummy+0x18>)
 80001be:	f3af 8000 	nop.w
 80001c2:	bd08      	pop	{r3, pc}
 80001c4:	00000000 	.word	0x00000000
 80001c8:	2000007c 	.word	0x2000007c
 80001cc:	08009a2c 	.word	0x08009a2c

080001d0 <__aeabi_uldivmod>:
 80001d0:	b953      	cbnz	r3, 80001e8 <__aeabi_uldivmod+0x18>
 80001d2:	b94a      	cbnz	r2, 80001e8 <__aeabi_uldivmod+0x18>
 80001d4:	2900      	cmp	r1, #0
 80001d6:	bf08      	it	eq
 80001d8:	2800      	cmpeq	r0, #0
 80001da:	bf1c      	itt	ne
 80001dc:	f04f 31ff 	movne.w	r1, #4294967295
 80001e0:	f04f 30ff 	movne.w	r0, #4294967295
 80001e4:	f000 b974 	b.w	80004d0 <__aeabi_idiv0>
 80001e8:	f1ad 0c08 	sub.w	ip, sp, #8
 80001ec:	e96d ce04 	strd	ip, lr, [sp, #-16]!
 80001f0:	f000 f806 	bl	8000200 <__udivmoddi4>
 80001f4:	f8dd e004 	ldr.w	lr, [sp, #4]
 80001f8:	e9dd 2302 	ldrd	r2, r3, [sp, #8]
 80001fc:	b004      	add	sp, #16
 80001fe:	4770      	bx	lr

08000200 <__udivmoddi4>:
 8000200:	e92d 47f0 	stmdb	sp!, {r4, r5, r6, r7, r8, r9, sl, lr}
 8000204:	468c      	mov	ip, r1
 8000206:	4604      	mov	r4, r0
 8000208:	9e08      	ldr	r6, [sp, #32]
 800020a:	2b00      	cmp	r3, #0
 800020c:	d14b      	bne.n	80002a6 <__udivmoddi4+0xa6>
 800020e:	428a      	cmp	r2, r1
 8000210:	4615      	mov	r5, r2
 8000212:	d967      	bls.n	80002e4 <__udivmoddi4+0xe4>
 8000214:	fab2 f282 	clz	r2, r2
 8000218:	b14a      	cbz	r2, 800022e <__udivmoddi4+0x2e>
 800021a:	f1c2 0720 	rsb	r7, r2, #32
 800021e:	fa01 f302 	lsl.w	r3, r1, r2
 8000222:	fa20 f707 	lsr.w	r7, r0, r7
 8000226:	4095      	lsls	r5, r2
 8000228:	ea47 0c03 	orr.w	ip, r7, r3
 800022c:	4094      	lsls	r4, r2
 800022e:	ea4f 4e15 	mov.w	lr, r5, lsr #16
 8000232:	fbbc f7fe 	udiv	r7, ip, lr
 8000236:	fa1f f885 	uxth.w	r8, r5
 800023a:	fb0e c317 	mls	r3, lr, r7, ip
 800023e:	fb07 f908 	mul.w	r9, r7, r8
 8000242:	0c21      	lsrs	r1, r4, #16
 8000244:	ea41 4303 	orr.w	r3, r1, r3, lsl #16
 8000248:	4599      	cmp	r9, r3
 800024a:	d909      	bls.n	8000260 <__udivmoddi4+0x60>
 800024c:	18eb      	adds	r3, r5, r3
 800024e:	f107 31ff 	add.w	r1, r7, #4294967295
 8000252:	f080 811c 	bcs.w	800048e <__udivmoddi4+0x28e>
 8000256:	4599      	cmp	r9, r3
 8000258:	f240 8119 	bls.w	800048e <__udivmoddi4+0x28e>
 800025c:	3f02      	subs	r7, #2
 800025e:	442b      	add	r3, r5
 8000260:	eba3 0309 	sub.w	r3, r3, r9
 8000264:	fbb3 f0fe 	udiv	r0, r3, lr
 8000268:	fb0e 3310 	mls	r3, lr, r0, r3
 800026c:	fb00 f108 	mul.w	r1, r0, r8
 8000270:	b2a4      	uxth	r4, r4
 8000272:	ea44 4403 	orr.w	r4, r4, r3, lsl #16
 8000276:	42a1      	cmp	r1, r4
 8000278:	d909      	bls.n	800028e <__udivmoddi4+0x8e>
 800027a:	192c      	adds	r4, r5, r4
 800027c:	f100 33ff 	add.w	r3, r0, #4294967295
 8000280:	f080 8107 	bcs.w	8000492 <__udivmoddi4+0x292>
 8000284:	42a1      	cmp	r1, r4
 8000286:	f240 8104 	bls.w	8000492 <__udivmoddi4+0x292>
 800028a:	3802      	subs	r0, #2
 800028c:	442c      	add	r4, r5
 800028e:	ea40 4007 	orr.w	r0, r0, r7, lsl #16
 8000292:	2700      	movs	r7, #0
 8000294:	1a64      	subs	r4, r4, r1
 8000296:	b11e      	cbz	r6, 80002a0 <__udivmoddi4+0xa0>
 8000298:	2300      	movs	r3, #0
 800029a:	40d4      	lsrs	r4, r2
 800029c:	e9c6 4300 	strd	r4, r3, [r6]
 80002a0:	4639      	mov	r1, r7
 80002a2:	e8bd 87f0 	ldmia.w	sp!, {r4, r5, r6, r7, r8, r9, sl, pc}
 80002a6:	428b      	cmp	r3, r1
 80002a8:	d909      	bls.n	80002be <__udivmoddi4+0xbe>
 80002aa:	2e00      	cmp	r6, #0
 80002ac:	f000 80ec 	beq.w	8000488 <__udivmoddi4+0x288>
 80002b0:	2700      	movs	r7, #0
 80002b2:	e9c6 0100 	strd	r0, r1, [r6]
 80002b6:	4638      	mov	r0, r7
 80002b8:	4639      	mov	r1, r7
 80002ba:	e8bd 87f0 	ldmia.w	sp!, {r4, r5, r6, r7, r8, r9, sl, pc}
 80002be:	fab3 f783 	clz	r7, r3
 80002c2:	2f00      	cmp	r7, #0
 80002c4:	d148      	bne.n	8000358 <__udivmoddi4+0x158>
 80002c6:	428b      	cmp	r3, r1
 80002c8:	d302      	bcc.n	80002d0 <__udivmoddi4+0xd0>
 80002ca:	4282      	cmp	r2, r0
 80002cc:	f200 80fb 	bhi.w	80004c6 <__udivmoddi4+0x2c6>
 80002d0:	1a84      	subs	r4, r0, r2
 80002d2:	eb61 0303 	sbc.w	r3, r1, r3
 80002d6:	2001      	movs	r0, #1
 80002d8:	469c      	mov	ip, r3
 80002da:	2e00      	cmp	r6, #0
 80002dc:	d0e0      	beq.n	80002a0 <__udivmoddi4+0xa0>
 80002de:	e9c6 4c00 	strd	r4, ip, [r6]
 80002e2:	e7dd      	b.n	80002a0 <__udivmoddi4+0xa0>
 80002e4:	b902      	cbnz	r2, 80002e8 <__udivmoddi4+0xe8>
 80002e6:	deff      	udf	#255	; 0xff
 80002e8:	fab2 f282 	clz	r2, r2
 80002ec:	2a00      	cmp	r2, #0
 80002ee:	f040 808f 	bne.w	8000410 <__udivmoddi4+0x210>
 80002f2:	2701      	movs	r7, #1
 80002f4:	1b49      	subs	r1, r1, r5
 80002f6:	ea4f 4815 	mov.w	r8, r5, lsr #16
 80002fa:	fa1f f985 	uxth.w	r9, r5
 80002fe:	fbb1 fef8 	udiv	lr, r1, r8
 8000302:	fb08 111e 	mls	r1, r8, lr, r1
 8000306:	fb09 f00e 	mul.w	r0, r9, lr
 800030a:	ea4f 4c14 	mov.w	ip, r4, lsr #16
 800030e:	ea4c 4301 	orr.w	r3, ip, r1, lsl #16
 8000312:	4298      	cmp	r0, r3
 8000314:	d907      	bls.n	8000326 <__udivmoddi4+0x126>
 8000316:	18eb      	adds	r3, r5, r3
 8000318:	f10e 31ff 	add.w	r1, lr, #4294967295
 800031c:	d202      	bcs.n	8000324 <__udivmoddi4+0x124>
 800031e:	4298      	cmp	r0, r3
 8000320:	f200 80cd 	bhi.w	80004be <__udivmoddi4+0x2be>
 8000324:	468e      	mov	lr, r1
 8000326:	1a1b      	subs	r3, r3, r0
 8000328:	fbb3 f0f8 	udiv	r0, r3, r8
 800032c:	fb08 3310 	mls	r3, r8, r0, r3
 8000330:	fb09 f900 	mul.w	r9, r9, r0
 8000334:	b2a4      	uxth	r4, r4
 8000336:	ea44 4403 	orr.w	r4, r4, r3, lsl #16
 800033a:	45a1      	cmp	r9, r4
 800033c:	d907      	bls.n	800034e <__udivmoddi4+0x14e>
 800033e:	192c      	adds	r4, r5, r4
 8000340:	f100 33ff 	add.w	r3, r0, #4294967295
 8000344:	d202      	bcs.n	800034c <__udivmoddi4+0x14c>
 8000346:	45a1      	cmp	r9, r4
 8000348:	f200 80b6 	bhi.w	80004b8 <__udivmoddi4+0x2b8>
 800034c:	4618      	mov	r0, r3
 800034e:	eba4 0409 	sub.w	r4, r4, r9
 8000352:	ea40 400e 	orr.w	r0, r0, lr, lsl #16
 8000356:	e79e      	b.n	8000296 <__udivmoddi4+0x96>
 8000358:	f1c7 0520 	rsb	r5, r7, #32
 800035c:	40bb      	lsls	r3, r7
 800035e:	fa22 fc05 	lsr.w	ip, r2, r5
 8000362:	ea4c 0c03 	orr.w	ip, ip, r3
 8000366:	fa21 f405 	lsr.w	r4, r1, r5
 800036a:	ea4f 4e1c 	mov.w	lr, ip, lsr #16
 800036e:	fbb4 f9fe 	udiv	r9, r4, lr
 8000372:	fa1f f88c 	uxth.w	r8, ip
 8000376:	fb0e 4419 	mls	r4, lr, r9, r4
 800037a:	fa20 f305 	lsr.w	r3, r0, r5
 800037e:	40b9      	lsls	r1, r7
 8000380:	fb09 fa08 	mul.w	sl, r9, r8
 8000384:	4319      	orrs	r1, r3
 8000386:	0c0b      	lsrs	r3, r1, #16
 8000388:	ea43 4404 	orr.w	r4, r3, r4, lsl #16
 800038c:	45a2      	cmp	sl, r4
 800038e:	fa02 f207 	lsl.w	r2, r2, r7
 8000392:	fa00 f307 	lsl.w	r3, r0, r7
 8000396:	d90b      	bls.n	80003b0 <__udivmoddi4+0x1b0>
 8000398:	eb1c 0404 	adds.w	r4, ip, r4
 800039c:	f109 30ff 	add.w	r0, r9, #4294967295
 80003a0:	f080 8088 	bcs.w	80004b4 <__udivmoddi4+0x2b4>
 80003a4:	45a2      	cmp	sl, r4
 80003a6:	f240 8085 	bls.w	80004b4 <__udivmoddi4+0x2b4>
 80003aa:	f1a9 0902 	sub.w	r9, r9, #2
 80003ae:	4464      	add	r4, ip
 80003b0:	eba4 040a 	sub.w	r4, r4, sl
 80003b4:	fbb4 f0fe 	udiv	r0, r4, lr
 80003b8:	fb0e 4410 	mls	r4, lr, r0, r4
 80003bc:	fb00 fa08 	mul.w	sl, r0, r8
 80003c0:	b289      	uxth	r1, r1
 80003c2:	ea41 4404 	orr.w	r4, r1, r4, lsl #16
 80003c6:	45a2      	cmp	sl, r4
 80003c8:	d908      	bls.n	80003dc <__udivmoddi4+0x1dc>
 80003ca:	eb1c 0404 	adds.w	r4, ip, r4
 80003ce:	f100 31ff 	add.w	r1, r0, #4294967295
 80003d2:	d26b      	bcs.n	80004ac <__udivmoddi4+0x2ac>
 80003d4:	45a2      	cmp	sl, r4
 80003d6:	d969      	bls.n	80004ac <__udivmoddi4+0x2ac>
 80003d8:	3802      	subs	r0, #2
 80003da:	4464      	add	r4, ip
 80003dc:	ea40 4009 	orr.w	r0, r0, r9, lsl #16
 80003e0:	fba0 8902 	umull	r8, r9, r0, r2
 80003e4:	eba4 040a 	sub.w	r4, r4, sl
 80003e8:	454c      	cmp	r4, r9
 80003ea:	4641      	mov	r1, r8
 80003ec:	46ce      	mov	lr, r9
 80003ee:	d354      	bcc.n	800049a <__udivmoddi4+0x29a>
 80003f0:	d051      	beq.n	8000496 <__udivmoddi4+0x296>
 80003f2:	2e00      	cmp	r6, #0
 80003f4:	d069      	beq.n	80004ca <__udivmoddi4+0x2ca>
 80003f6:	1a5a      	subs	r2, r3, r1
 80003f8:	eb64 040e 	sbc.w	r4, r4, lr
 80003fc:	fa04 f505 	lsl.w	r5, r4, r5
 8000400:	fa22 f307 	lsr.w	r3, r2, r7
 8000404:	40fc      	lsrs	r4, r7
 8000406:	431d      	orrs	r5, r3
 8000408:	e9c6 5400 	strd	r5, r4, [r6]
 800040c:	2700      	movs	r7, #0
 800040e:	e747      	b.n	80002a0 <__udivmoddi4+0xa0>
 8000410:	4095      	lsls	r5, r2
 8000412:	f1c2 0320 	rsb	r3, r2, #32
 8000416:	fa21 f003 	lsr.w	r0, r1, r3
 800041a:	ea4f 4815 	mov.w	r8, r5, lsr #16
 800041e:	fbb0 f7f8 	udiv	r7, r0, r8
 8000422:	fa1f f985 	uxth.w	r9, r5
 8000426:	fb08 0017 	mls	r0, r8, r7, r0
 800042a:	fa24 f303 	lsr.w	r3, r4, r3
 800042e:	4091      	lsls	r1, r2
 8000430:	fb07 fc09 	mul.w	ip, r7, r9
 8000434:	430b      	orrs	r3, r1
 8000436:	0c19      	lsrs	r1, r3, #16
 8000438:	ea41 4100 	orr.w	r1, r1, r0, lsl #16
 800043c:	458c      	cmp	ip, r1
 800043e:	fa04 f402 	lsl.w	r4, r4, r2
 8000442:	d907      	bls.n	8000454 <__udivmoddi4+0x254>
 8000444:	1869      	adds	r1, r5, r1
 8000446:	f107 30ff 	add.w	r0, r7, #4294967295
 800044a:	d231      	bcs.n	80004b0 <__udivmoddi4+0x2b0>
 800044c:	458c      	cmp	ip, r1
 800044e:	d92f      	bls.n	80004b0 <__udivmoddi4+0x2b0>
 8000450:	3f02      	subs	r7, #2
 8000452:	4429      	add	r1, r5
 8000454:	eba1 010c 	sub.w	r1, r1, ip
 8000458:	fbb1 f0f8 	udiv	r0, r1, r8
 800045c:	fb08 1c10 	mls	ip, r8, r0, r1
 8000460:	fb00 fe09 	mul.w	lr, r0, r9
 8000464:	b299      	uxth	r1, r3
 8000466:	ea41 410c 	orr.w	r1, r1, ip, lsl #16
 800046a:	458e      	cmp	lr, r1
 800046c:	d907      	bls.n	800047e <__udivmoddi4+0x27e>
 800046e:	1869      	adds	r1, r5, r1
 8000470:	f100 33ff 	add.w	r3, r0, #4294967295
 8000474:	d218      	bcs.n	80004a8 <__udivmoddi4+0x2a8>
 8000476:	458e      	cmp	lr, r1
 8000478:	d916      	bls.n	80004a8 <__udivmoddi4+0x2a8>
 800047a:	3802      	subs	r0, #2
 800047c:	4429      	add	r1, r5
 800047e:	eba1 010e 	sub.w	r1, r1, lr
 8000482:	ea40 4707 	orr.w	r7, r0, r7, lsl #16
 8000486:	e73a      	b.n	80002fe <__udivmoddi4+0xfe>
 8000488:	4637      	mov	r7, r6
 800048a:	4630      	mov	r0, r6
 800048c:	e708      	b.n	80002a0 <__udivmoddi4+0xa0>
 800048e:	460f      	mov	r7, r1
 8000490:	e6e6      	b.n	8000260 <__udivmoddi4+0x60>
 8000492:	4618      	mov	r0, r3
 8000494:	e6fb      	b.n	800028e <__udivmoddi4+0x8e>
 8000496:	4543      	cmp	r3, r8
 8000498:	d2ab      	bcs.n	80003f2 <__udivmoddi4+0x1f2>
 800049a:	ebb8 0102 	subs.w	r1, r8, r2
 800049e:	eb69 020c 	sbc.w	r2, r9, ip
 80004a2:	3801      	subs	r0, #1
 80004a4:	4696      	mov	lr, r2
 80004a6:	e7a4      	b.n	80003f2 <__udivmoddi4+0x1f2>
 80004a8:	4618      	mov	r0, r3
 80004aa:	e7e8      	b.n	800047e <__udivmoddi4+0x27e>
 80004ac:	4608      	mov	r0, r1
 80004ae:	e795      	b.n	80003dc <__udivmoddi4+0x1dc>
 80004b0:	4607      	mov	r7, r0
 80004b2:	e7cf      	b.n	8000454 <__udivmoddi4+0x254>
 80004b4:	4681      	mov	r9, r0
 80004b6:	e77b      	b.n	80003b0 <__udivmoddi4+0x1b0>
 80004b8:	3802      	subs	r0, #2
 80004ba:	442c      	add	r4, r5
 80004bc:	e747      	b.n	800034e <__udivmoddi4+0x14e>
 80004be:	f1ae 0e02 	sub.w	lr, lr, #2
 80004c2:	442b      	add	r3, r5
 80004c4:	e72f      	b.n	8000326 <__udivmoddi4+0x126>
 80004c6:	4638      	mov	r0, r7
 80004c8:	e707      	b.n	80002da <__udivmoddi4+0xda>
 80004ca:	4637      	mov	r7, r6
 80004cc:	e6e8      	b.n	80002a0 <__udivmoddi4+0xa0>
 80004ce:	bf00      	nop

080004d0 <__aeabi_idiv0>:
 80004d0:	4770      	bx	lr
 80004d2:	bf00      	nop

080004d4 <vApplicationIdleHook>:
   specified, or call vTaskDelay()). If the application makes use of the
   vTaskDelete() API function (as this demo application does) then it is also
   important that vApplicationIdleHook() is permitted to return to its calling
   function, because it is the responsibility of the idle task to clean up
   memory allocated by the kernel to any task that has since been deleted. */
}
 80004d4:	4770      	bx	lr
 80004d6:	bf00      	nop

080004d8 <vApplicationStackOverflowHook>:
__weak void vApplicationStackOverflowHook(xTaskHandle xTask, signed char *pcTaskName)
{
   /* Run time stack overflow checking is performed if
   configCHECK_FOR_STACK_OVERFLOW is defined to 1 or 2. This hook function is
   called if a stack overflow is detected. */
}
 80004d8:	4770      	bx	lr
 80004da:	bf00      	nop

080004dc <vApplicationMallocFailedHook>:
 80004dc:	4770      	bx	lr
 80004de:	bf00      	nop

080004e0 <StartSdReadTask>:
 * @param argument: Not used
 * @retval None
 */
/* USER CODE END Header_StartSdReadTask */
void StartSdReadTask(void const *argument)
{
 80004e0:	e92d 4ff0 	stmdb	sp!, {r4, r5, r6, r7, r8, r9, sl, fp, lr}
	uint16_t readDataIdx;
	uint16_t buffIdx;
	uint16_t sendBuffIdx;
	HAL_StatusTypeDef status;

	osSemaphoreWait(sdReadBinarySemHandle, 0);
 80004e4:	4b33      	ldr	r3, [pc, #204]	; (80005b4 <StartSdReadTask+0xd4>)
{
 80004e6:	b085      	sub	sp, #20
	osSemaphoreWait(sdReadBinarySemHandle, 0);
 80004e8:	6818      	ldr	r0, [r3, #0]
 80004ea:	2100      	movs	r1, #0
 80004ec:	f007 fb26 	bl	8007b3c <osSemaphoreWait>
	for (;;)
	{
		osSemaphoreWait(sdReadBinarySemHandle, osWaitForever);

		/*## Open the text file object with read access ###############*/
		f_open(&MyFile, "STM32.TXT", FA_WRITE | FA_CREATE_ALWAYS);
 80004f0:	f8df a0cc 	ldr.w	sl, [pc, #204]	; 80005c0 <StartSdReadTask+0xe0>
 80004f4:	4f30      	ldr	r7, [pc, #192]	; (80005b8 <StartSdReadTask+0xd8>)
 * @retval None
 */
void Error_Handler(void)
{
	/* USER CODE BEGIN Error_Handler_Debug */
	HAL_GPIO_WritePin(LD1_GPIO_Port, LD1_Pin, GPIO_PIN_SET);
 80004f6:	f8df 80d0 	ldr.w	r8, [pc, #208]	; 80005c8 <StartSdReadTask+0xe8>
		buffIdx = 0;
 80004fa:	2600      	movs	r6, #0
		osSemaphoreWait(sdReadBinarySemHandle, osWaitForever);
 80004fc:	4b2d      	ldr	r3, [pc, #180]	; (80005b4 <StartSdReadTask+0xd4>)
 80004fe:	f04f 31ff 	mov.w	r1, #4294967295
 8000502:	6818      	ldr	r0, [r3, #0]
 8000504:	f007 fb1a 	bl	8007b3c <osSemaphoreWait>
		f_open(&MyFile, "STM32.TXT", FA_WRITE | FA_CREATE_ALWAYS);
 8000508:	220a      	movs	r2, #10
 800050a:	492c      	ldr	r1, [pc, #176]	; (80005bc <StartSdReadTask+0xdc>)
 800050c:	4650      	mov	r0, sl
 800050e:	f006 f9a1 	bl	8006854 <f_open>
		fileSize = MyFile.fsize; //.obj.objsize;
 8000512:	4b2b      	ldr	r3, [pc, #172]	; (80005c0 <StartSdReadTask+0xe0>)
		readDataIdx = 0;
 8000514:	4635      	mov	r5, r6
		fileSize = MyFile.fsize; //.obj.objsize;
 8000516:	f8d3 420c 	ldr.w	r4, [r3, #524]	; 0x20c
		tickRec[3] = HAL_GetTick();
 800051a:	f000 fd6b 	bl	8000ff4 <HAL_GetTick>
		fileSize = MyFile.fsize; //.obj.objsize;
 800051e:	fa1f fb84 	uxth.w	fp, r4
 8000522:	f8cd b004 	str.w	fp, [sp, #4]
		tickRec[3] = HAL_GetTick();
 8000526:	60f8      	str	r0, [r7, #12]
					((fileSize - readDataIdx) > _MAX_SS) ?
 8000528:	9b01      	ldr	r3, [sp, #4]
 800052a:	1b5c      	subs	r4, r3, r5
							_MAX_SS : fileSize - readDataIdx;
 800052c:	f5b4 7f00 	cmp.w	r4, #512	; 0x200
 8000530:	bfa8      	it	ge
 8000532:	f44f 7400 	movge.w	r4, #512	; 0x200
			tickRec[5] = HAL_GetTick();
 8000536:	f000 fd5d 	bl	8000ff4 <HAL_GetTick>
			res = f_read(&MyFile, &workBuffer[buffIdx], readSize,
 800053a:	4922      	ldr	r1, [pc, #136]	; (80005c4 <StartSdReadTask+0xe4>)
 800053c:	b2a2      	uxth	r2, r4
 800053e:	ab03      	add	r3, sp, #12
			tickRec[5] = HAL_GetTick();
 8000540:	6178      	str	r0, [r7, #20]
			res = f_read(&MyFile, &workBuffer[buffIdx], readSize,
 8000542:	4431      	add	r1, r6
 8000544:	4650      	mov	r0, sl
 8000546:	f006 fdf9 	bl	800713c <f_read>
 800054a:	4681      	mov	r9, r0
			tickRec[6] = HAL_GetTick();
 800054c:	f000 fd52 	bl	8000ff4 <HAL_GetTick>
			if ((bytesread == 0) || (res != FR_OK))
 8000550:	9b03      	ldr	r3, [sp, #12]
			readSize =
 8000552:	b2a4      	uxth	r4, r4
			tickRec[6] = HAL_GetTick();
 8000554:	61b8      	str	r0, [r7, #24]
			if ((bytesread == 0) || (res != FR_OK))
 8000556:	b113      	cbz	r3, 800055e <StartSdReadTask+0x7e>
 8000558:	f1b9 0f00 	cmp.w	r9, #0
 800055c:	d00f      	beq.n	800057e <StartSdReadTask+0x9e>
	HAL_GPIO_WritePin(LD1_GPIO_Port, LD1_Pin, GPIO_PIN_SET);
 800055e:	2201      	movs	r2, #1
 8000560:	4640      	mov	r0, r8
 8000562:	4611      	mov	r1, r2
 8000564:	f001 f84c 	bl	8001600 <HAL_GPIO_WritePin>
	HAL_GPIO_WritePin(LD2_GPIO_Port, LD2_Pin, GPIO_PIN_SET);
 8000568:	2201      	movs	r2, #1
 800056a:	2180      	movs	r1, #128	; 0x80
 800056c:	4640      	mov	r0, r8
 800056e:	f001 f847 	bl	8001600 <HAL_GPIO_WritePin>
	HAL_GPIO_WritePin(LD3_GPIO_Port, LD3_Pin, GPIO_PIN_SET);
 8000572:	2201      	movs	r2, #1
 8000574:	f44f 4180 	mov.w	r1, #16384	; 0x4000
 8000578:	4640      	mov	r0, r8
 800057a:	f001 f841 	bl	8001600 <HAL_GPIO_WritePin>
			buffIdx += readSize;
 800057e:	4426      	add	r6, r4
			if (buffIdx > _MAX_SS)
 8000580:	b2b6      	uxth	r6, r6
			readDataIdx += readSize;
 8000582:	442c      	add	r4, r5
				buffIdx = 0;
 8000584:	f5b6 7f00 	cmp.w	r6, #512	; 0x200
			readDataIdx += readSize;
 8000588:	b2a5      	uxth	r5, r4
				buffIdx = 0;
 800058a:	bf94      	ite	ls
 800058c:	f44f 7600 	movls.w	r6, #512	; 0x200
 8000590:	2600      	movhi	r6, #0
		} while (readDataIdx < fileSize);
 8000592:	45ab      	cmp	fp, r5
 8000594:	d8c8      	bhi.n	8000528 <StartSdReadTask+0x48>
		tickRec[4] = HAL_GetTick();
 8000596:	f000 fd2d 	bl	8000ff4 <HAL_GetTick>
 800059a:	6138      	str	r0, [r7, #16]
		f_close(&MyFile);
 800059c:	4650      	mov	r0, sl
 800059e:	f006 ffa9 	bl	80074f4 <f_close>
		HAL_GPIO_WritePin(LD1_GPIO_Port, LD1_Pin, GPIO_PIN_SET);
 80005a2:	2201      	movs	r2, #1
 80005a4:	4640      	mov	r0, r8
 80005a6:	4611      	mov	r1, r2
 80005a8:	f001 f82a 	bl	8001600 <HAL_GPIO_WritePin>
		osDelay(1);
 80005ac:	2001      	movs	r0, #1
 80005ae:	f007 faa9 	bl	8007b04 <osDelay>
		osSemaphoreWait(sdReadBinarySemHandle, osWaitForever);
 80005b2:	e7a2      	b.n	80004fa <StartSdReadTask+0x1a>
 80005b4:	20004850 	.word	0x20004850
 80005b8:	20004824 	.word	0x20004824
 80005bc:	08009a8c 	.word	0x08009a8c
 80005c0:	200045f8 	.word	0x200045f8
 80005c4:	20003ed4 	.word	0x20003ed4
 80005c8:	40020400 	.word	0x40020400

080005cc <StartSdWriteTask>:
{
 80005cc:	e92d 4ff0 	stmdb	sp!, {r4, r5, r6, r7, r8, r9, sl, fp, lr}
	char tmpFileName[] = "1234567890\0";
 80005d0:	4b36      	ldr	r3, [pc, #216]	; (80006ac <StartSdWriteTask+0xe0>)
{
 80005d2:	b087      	sub	sp, #28
	osSemaphoreWait(sdWriteBinarySemHandle, 0);
 80005d4:	f8df a0ec 	ldr.w	sl, [pc, #236]	; 80006c4 <StartSdWriteTask+0xf8>
	char tmpFileName[] = "1234567890\0";
 80005d8:	ad03      	add	r5, sp, #12
 80005da:	e893 0007 	ldmia.w	r3, {r0, r1, r2}
 80005de:	e885 0007 	stmia.w	r5, {r0, r1, r2}
	osSemaphoreWait(sdWriteBinarySemHandle, 0);
 80005e2:	f8da 0000 	ldr.w	r0, [sl]
 80005e6:	2100      	movs	r1, #0
 80005e8:	f007 faa8 	bl	8007b3c <osSemaphoreWait>
 80005ec:	4e30      	ldr	r6, [pc, #192]	; (80006b0 <StartSdWriteTask+0xe4>)
 80005ee:	f8df 90d8 	ldr.w	r9, [pc, #216]	; 80006c8 <StartSdWriteTask+0xfc>
 80005f2:	f8df 80d8 	ldr.w	r8, [pc, #216]	; 80006cc <StartSdWriteTask+0x100>
		if (strstr(tmpFileName, ".txt") != NULL)
 80005f6:	f8df b0d8 	ldr.w	fp, [pc, #216]	; 80006d0 <StartSdWriteTask+0x104>
			res = f_open(&MyFile, fileName, FA_OPEN_ALWAYS | FA_WRITE);
 80005fa:	4f2e      	ldr	r7, [pc, #184]	; (80006b4 <StartSdWriteTask+0xe8>)
				HAL_GPIO_WritePin(LD2_GPIO_Port, LD2_Pin, GPIO_PIN_SET);
 80005fc:	4c2e      	ldr	r4, [pc, #184]	; (80006b8 <StartSdWriteTask+0xec>)
		osSemaphoreWait(sdWriteBinarySemHandle, osWaitForever);
 80005fe:	f04f 31ff 	mov.w	r1, #4294967295
 8000602:	f8da 0000 	ldr.w	r0, [sl]
 8000606:	f007 fa99 	bl	8007b3c <osSemaphoreWait>
		tickRec[0] = HAL_GetTick();
 800060a:	f000 fcf3 	bl	8000ff4 <HAL_GetTick>
		strncpy(tmpFileName, (char*) &workBuffer[writedataIdx], 10);
 800060e:	f8b9 1000 	ldrh.w	r1, [r9]
		tickRec[0] = HAL_GetTick();
 8000612:	6030      	str	r0, [r6, #0]
		strncpy(tmpFileName, (char*) &workBuffer[writedataIdx], 10);
 8000614:	4441      	add	r1, r8
 8000616:	220a      	movs	r2, #10
 8000618:	4628      	mov	r0, r5
 800061a:	f009 f9d5 	bl	80099c8 <strncpy>
		if (strstr(tmpFileName, ".txt") != NULL)
 800061e:	4659      	mov	r1, fp
 8000620:	4628      	mov	r0, r5
 8000622:	f009 f9e6 	bl	80099f2 <strstr>
 8000626:	b388      	cbz	r0, 800068c <StartSdWriteTask+0xc0>
			strcpy(fileName, tmpFileName);
 8000628:	4629      	mov	r1, r5
 800062a:	4638      	mov	r0, r7
 800062c:	f009 f9c4 	bl	80099b8 <strcpy>
			res = f_open(&MyFile, fileName, FA_CREATE_ALWAYS | FA_WRITE);
 8000630:	220a      	movs	r2, #10
 8000632:	4639      	mov	r1, r7
 8000634:	4821      	ldr	r0, [pc, #132]	; (80006bc <StartSdWriteTask+0xf0>)
 8000636:	f006 f90d 	bl	8006854 <f_open>
		if (res != FR_OK)
 800063a:	b998      	cbnz	r0, 8000664 <StartSdWriteTask+0x98>
			tickRec[1] = HAL_GetTick();
 800063c:	f000 fcda 	bl	8000ff4 <HAL_GetTick>
			res = f_write(&MyFile, &workBuffer[writedataIdx], writeSize,
 8000640:	f8b9 1000 	ldrh.w	r1, [r9]
 8000644:	4a1e      	ldr	r2, [pc, #120]	; (80006c0 <StartSdWriteTask+0xf4>)
 8000646:	ab02      	add	r3, sp, #8
			tickRec[1] = HAL_GetTick();
 8000648:	6070      	str	r0, [r6, #4]
			res = f_write(&MyFile, &workBuffer[writedataIdx], writeSize,
 800064a:	4441      	add	r1, r8
 800064c:	8812      	ldrh	r2, [r2, #0]
 800064e:	481b      	ldr	r0, [pc, #108]	; (80006bc <StartSdWriteTask+0xf0>)
 8000650:	f006 fef6 	bl	8007440 <f_write>
 8000654:	9001      	str	r0, [sp, #4]
			tickRec[2] = HAL_GetTick();
 8000656:	f000 fccd 	bl	8000ff4 <HAL_GetTick>
			if ((byteswritten == 0) || (res != FR_OK))
 800065a:	9b02      	ldr	r3, [sp, #8]
			tickRec[2] = HAL_GetTick();
 800065c:	60b0      	str	r0, [r6, #8]
			if ((byteswritten == 0) || (res != FR_OK))
 800065e:	b10b      	cbz	r3, 8000664 <StartSdWriteTask+0x98>
 8000660:	9b01      	ldr	r3, [sp, #4]
 8000662:	b1cb      	cbz	r3, 8000698 <StartSdWriteTask+0xcc>
	HAL_GPIO_WritePin(LD1_GPIO_Port, LD1_Pin, GPIO_PIN_SET);
 8000664:	2201      	movs	r2, #1
 8000666:	4620      	mov	r0, r4
 8000668:	4611      	mov	r1, r2
 800066a:	f000 ffc9 	bl	8001600 <HAL_GPIO_WritePin>
	HAL_GPIO_WritePin(LD2_GPIO_Port, LD2_Pin, GPIO_PIN_SET);
 800066e:	2201      	movs	r2, #1
 8000670:	2180      	movs	r1, #128	; 0x80
 8000672:	4620      	mov	r0, r4
 8000674:	f000 ffc4 	bl	8001600 <HAL_GPIO_WritePin>
	HAL_GPIO_WritePin(LD3_GPIO_Port, LD3_Pin, GPIO_PIN_SET);
 8000678:	2201      	movs	r2, #1
 800067a:	f44f 4180 	mov.w	r1, #16384	; 0x4000
 800067e:	4620      	mov	r0, r4
 8000680:	f000 ffbe 	bl	8001600 <HAL_GPIO_WritePin>
		osDelay(1);
 8000684:	2001      	movs	r0, #1
 8000686:	f007 fa3d 	bl	8007b04 <osDelay>
		osSemaphoreWait(sdWriteBinarySemHandle, osWaitForever);
 800068a:	e7b8      	b.n	80005fe <StartSdWriteTask+0x32>
			res = f_open(&MyFile, fileName, FA_OPEN_ALWAYS | FA_WRITE);
 800068c:	2212      	movs	r2, #18
 800068e:	4639      	mov	r1, r7
 8000690:	480a      	ldr	r0, [pc, #40]	; (80006bc <StartSdWriteTask+0xf0>)
 8000692:	f006 f8df 	bl	8006854 <f_open>
 8000696:	e7d0      	b.n	800063a <StartSdWriteTask+0x6e>
				f_close(&MyFile);
 8000698:	4808      	ldr	r0, [pc, #32]	; (80006bc <StartSdWriteTask+0xf0>)
 800069a:	f006 ff2b 	bl	80074f4 <f_close>
				HAL_GPIO_WritePin(LD2_GPIO_Port, LD2_Pin, GPIO_PIN_SET);
 800069e:	2201      	movs	r2, #1
 80006a0:	2180      	movs	r1, #128	; 0x80
 80006a2:	4620      	mov	r0, r4
 80006a4:	f000 ffac 	bl	8001600 <HAL_GPIO_WritePin>
 80006a8:	e7ec      	b.n	8000684 <StartSdWriteTask+0xb8>
 80006aa:	bf00      	nop
 80006ac:	08009a44 	.word	0x08009a44
 80006b0:	20004824 	.word	0x20004824
 80006b4:	20003ec0 	.word	0x20003ec0
 80006b8:	40020400 	.word	0x40020400
 80006bc:	200045f8 	.word	0x200045f8
 80006c0:	20004856 	.word	0x20004856
 80006c4:	2000484c 	.word	0x2000484c
 80006c8:	20003e18 	.word	0x20003e18
 80006cc:	20003ed4 	.word	0x20003ed4
 80006d0:	08009a98 	.word	0x08009a98

080006d4 <HAL_GPIO_EXTI_Callback>:
	if (GPIO_Pin == GPIO_PIN_13)
 80006d4:	f5b0 5f00 	cmp.w	r0, #8192	; 0x2000
 80006d8:	d000      	beq.n	80006dc <HAL_GPIO_EXTI_Callback+0x8>
 80006da:	4770      	bx	lr
{
 80006dc:	b410      	push	{r4}
		b1PushCounter = B1SWITCH_SLICE_PUSH_TIME;
 80006de:	f44f 64fa 	mov.w	r4, #2000	; 0x7d0
 80006e2:	4b04      	ldr	r3, [pc, #16]	; (80006f4 <HAL_GPIO_EXTI_Callback+0x20>)
		HAL_GPIO_WritePin(GPIOG, GPIO_PIN_6, GPIO_PIN_RESET);
 80006e4:	2200      	movs	r2, #0
		b1PushCounter = B1SWITCH_SLICE_PUSH_TIME;
 80006e6:	801c      	strh	r4, [r3, #0]
		HAL_GPIO_WritePin(GPIOG, GPIO_PIN_6, GPIO_PIN_RESET);
 80006e8:	2140      	movs	r1, #64	; 0x40
 80006ea:	4803      	ldr	r0, [pc, #12]	; (80006f8 <HAL_GPIO_EXTI_Callback+0x24>)
}
 80006ec:	bc10      	pop	{r4}
		HAL_GPIO_WritePin(GPIOG, GPIO_PIN_6, GPIO_PIN_RESET);
 80006ee:	f000 bf87 	b.w	8001600 <HAL_GPIO_WritePin>
 80006f2:	bf00      	nop
 80006f4:	20004854 	.word	0x20004854
 80006f8:	40021800 	.word	0x40021800

080006fc <SystemClock_Config>:
{
 80006fc:	b570      	push	{r4, r5, r6, lr}
	RCC_OscInitStruct.HSICalibrationValue = RCC_HSICALIBRATION_DEFAULT;
 80006fe:	2010      	movs	r0, #16
	RCC_OscInitStruct.HSIState = RCC_HSI_ON;
 8000700:	2401      	movs	r4, #1
	RCC_OscInitTypeDef RCC_OscInitStruct =
 8000702:	2300      	movs	r3, #0
	RCC_OscInitStruct.OscillatorType = RCC_OSCILLATORTYPE_HSI;
 8000704:	2202      	movs	r2, #2
	RCC_OscInitStruct.PLL.PLLM = 13;
 8000706:	260d      	movs	r6, #13
	RCC_OscInitStruct.PLL.PLLN = 195;
 8000708:	25c3      	movs	r5, #195	; 0xc3
	RCC_OscInitStruct.PLL.PLLQ = 5;
 800070a:	2105      	movs	r1, #5
{
 800070c:	b092      	sub	sp, #72	; 0x48
	RCC_OscInitStruct.HSICalibrationValue = RCC_HSICALIBRATION_DEFAULT;
 800070e:	e9cd 4009 	strd	r4, r0, [sp, #36]	; 0x24
	if (HAL_RCC_OscConfig(&RCC_OscInitStruct) != HAL_OK)
 8000712:	a806      	add	r0, sp, #24
	RCC_OscInitTypeDef RCC_OscInitStruct =
 8000714:	9307      	str	r3, [sp, #28]
	RCC_ClkInitTypeDef RCC_ClkInitStruct =
 8000716:	9301      	str	r3, [sp, #4]
	RCC_OscInitTypeDef RCC_OscInitStruct =
 8000718:	9308      	str	r3, [sp, #32]
 800071a:	930b      	str	r3, [sp, #44]	; 0x2c
 800071c:	930d      	str	r3, [sp, #52]	; 0x34
	RCC_ClkInitTypeDef RCC_ClkInitStruct =
 800071e:	e9cd 3302 	strd	r3, r3, [sp, #8]
 8000722:	e9cd 3304 	strd	r3, r3, [sp, #16]
	RCC_OscInitStruct.OscillatorType = RCC_OSCILLATORTYPE_HSI;
 8000726:	9206      	str	r2, [sp, #24]
	RCC_OscInitStruct.PLL.PLLState = RCC_PLL_ON;
 8000728:	920c      	str	r2, [sp, #48]	; 0x30
	RCC_OscInitStruct.PLL.PLLP = RCC_PLLP_DIV2;
 800072a:	9210      	str	r2, [sp, #64]	; 0x40
	RCC_OscInitStruct.PLL.PLLN = 195;
 800072c:	e9cd 650e 	strd	r6, r5, [sp, #56]	; 0x38
	RCC_OscInitStruct.PLL.PLLQ = 5;
 8000730:	9111      	str	r1, [sp, #68]	; 0x44
	if (HAL_RCC_OscConfig(&RCC_OscInitStruct) != HAL_OK)
 8000732:	f000 ff75 	bl	8001620 <HAL_RCC_OscConfig>
 8000736:	bb10      	cbnz	r0, 800077e <SystemClock_Config+0x82>
	RCC_ClkInitStruct.ClockType = RCC_CLOCKTYPE_HCLK | RCC_CLOCKTYPE_SYSCLK
 8000738:	210f      	movs	r1, #15
	RCC_ClkInitStruct.SYSCLKSource = RCC_SYSCLKSOURCE_PLLCLK;
 800073a:	2502      	movs	r5, #2
	RCC_ClkInitStruct.AHBCLKDivider = RCC_SYSCLK_DIV1;
 800073c:	2400      	movs	r4, #0
	RCC_ClkInitStruct.APB1CLKDivider = RCC_HCLK_DIV4;
 800073e:	f44f 52a0 	mov.w	r2, #5120	; 0x1400
	RCC_ClkInitStruct.APB2CLKDivider = RCC_HCLK_DIV2;
 8000742:	f44f 5380 	mov.w	r3, #4096	; 0x1000
	RCC_ClkInitStruct.ClockType = RCC_CLOCKTYPE_HCLK | RCC_CLOCKTYPE_SYSCLK
 8000746:	9101      	str	r1, [sp, #4]
	if (HAL_RCC_ClockConfig(&RCC_ClkInitStruct, FLASH_LATENCY_3) != HAL_OK)
 8000748:	a801      	add	r0, sp, #4
 800074a:	2103      	movs	r1, #3
	RCC_ClkInitStruct.AHBCLKDivider = RCC_SYSCLK_DIV1;
 800074c:	e9cd 5402 	strd	r5, r4, [sp, #8]
	RCC_ClkInitStruct.APB2CLKDivider = RCC_HCLK_DIV2;
 8000750:	e9cd 2304 	strd	r2, r3, [sp, #16]
	if (HAL_RCC_ClockConfig(&RCC_ClkInitStruct, FLASH_LATENCY_3) != HAL_OK)
 8000754:	f001 f926 	bl	80019a4 <HAL_RCC_ClockConfig>
 8000758:	b178      	cbz	r0, 800077a <SystemClock_Config+0x7e>
	HAL_GPIO_WritePin(LD1_GPIO_Port, LD1_Pin, GPIO_PIN_SET);
 800075a:	2201      	movs	r2, #1
 800075c:	4810      	ldr	r0, [pc, #64]	; (80007a0 <SystemClock_Config+0xa4>)
 800075e:	4611      	mov	r1, r2
 8000760:	f000 ff4e 	bl	8001600 <HAL_GPIO_WritePin>
	HAL_GPIO_WritePin(LD2_GPIO_Port, LD2_Pin, GPIO_PIN_SET);
 8000764:	2201      	movs	r2, #1
 8000766:	2180      	movs	r1, #128	; 0x80
 8000768:	480d      	ldr	r0, [pc, #52]	; (80007a0 <SystemClock_Config+0xa4>)
 800076a:	f000 ff49 	bl	8001600 <HAL_GPIO_WritePin>
	HAL_GPIO_WritePin(LD3_GPIO_Port, LD3_Pin, GPIO_PIN_SET);
 800076e:	2201      	movs	r2, #1
 8000770:	f44f 4180 	mov.w	r1, #16384	; 0x4000
 8000774:	480a      	ldr	r0, [pc, #40]	; (80007a0 <SystemClock_Config+0xa4>)
 8000776:	f000 ff43 	bl	8001600 <HAL_GPIO_WritePin>
}
 800077a:	b012      	add	sp, #72	; 0x48
 800077c:	bd70      	pop	{r4, r5, r6, pc}
	HAL_GPIO_WritePin(LD1_GPIO_Port, LD1_Pin, GPIO_PIN_SET);
 800077e:	4622      	mov	r2, r4
 8000780:	4621      	mov	r1, r4
 8000782:	4807      	ldr	r0, [pc, #28]	; (80007a0 <SystemClock_Config+0xa4>)
 8000784:	f000 ff3c 	bl	8001600 <HAL_GPIO_WritePin>
	HAL_GPIO_WritePin(LD2_GPIO_Port, LD2_Pin, GPIO_PIN_SET);
 8000788:	4622      	mov	r2, r4
 800078a:	2180      	movs	r1, #128	; 0x80
 800078c:	4804      	ldr	r0, [pc, #16]	; (80007a0 <SystemClock_Config+0xa4>)
 800078e:	f000 ff37 	bl	8001600 <HAL_GPIO_WritePin>
	HAL_GPIO_WritePin(LD3_GPIO_Port, LD3_Pin, GPIO_PIN_SET);
 8000792:	4622      	mov	r2, r4
 8000794:	f44f 4180 	mov.w	r1, #16384	; 0x4000
 8000798:	4801      	ldr	r0, [pc, #4]	; (80007a0 <SystemClock_Config+0xa4>)
 800079a:	f000 ff31 	bl	8001600 <HAL_GPIO_WritePin>
 800079e:	e7cb      	b.n	8000738 <SystemClock_Config+0x3c>
 80007a0:	40020400 	.word	0x40020400

080007a4 <HAL_TIM_PeriodElapsedCallback>:
	if (htim->Instance == TIM9)
 80007a4:	6802      	ldr	r2, [r0, #0]
 80007a6:	4b03      	ldr	r3, [pc, #12]	; (80007b4 <HAL_TIM_PeriodElapsedCallback+0x10>)
 80007a8:	429a      	cmp	r2, r3
 80007aa:	d000      	beq.n	80007ae <HAL_TIM_PeriodElapsedCallback+0xa>
}
 80007ac:	4770      	bx	lr
		HAL_IncTick();
 80007ae:	f000 bc15 	b.w	8000fdc <HAL_IncTick>
 80007b2:	bf00      	nop
 80007b4:	40014000 	.word	0x40014000

080007b8 <Error_Handler>:
	HAL_GPIO_WritePin(LD1_GPIO_Port, LD1_Pin, GPIO_PIN_SET);
 80007b8:	2201      	movs	r2, #1
{
 80007ba:	b510      	push	{r4, lr}
	HAL_GPIO_WritePin(LD1_GPIO_Port, LD1_Pin, GPIO_PIN_SET);
 80007bc:	4c08      	ldr	r4, [pc, #32]	; (80007e0 <Error_Handler+0x28>)
 80007be:	4611      	mov	r1, r2
 80007c0:	4620      	mov	r0, r4
 80007c2:	f000 ff1d 	bl	8001600 <HAL_GPIO_WritePin>
	HAL_GPIO_WritePin(LD2_GPIO_Port, LD2_Pin, GPIO_PIN_SET);
 80007c6:	4620      	mov	r0, r4
 80007c8:	2201      	movs	r2, #1
 80007ca:	2180      	movs	r1, #128	; 0x80
 80007cc:	f000 ff18 	bl	8001600 <HAL_GPIO_WritePin>
	HAL_GPIO_WritePin(LD3_GPIO_Port, LD3_Pin, GPIO_PIN_SET);
 80007d0:	4620      	mov	r0, r4
	/* User can add his own implementation to report the HAL error return state */

	/* USER CODE END Error_Handler_Debug */
}
 80007d2:	e8bd 4010 	ldmia.w	sp!, {r4, lr}
	HAL_GPIO_WritePin(LD3_GPIO_Port, LD3_Pin, GPIO_PIN_SET);
 80007d6:	2201      	movs	r2, #1
 80007d8:	f44f 4180 	mov.w	r1, #16384	; 0x4000
 80007dc:	f000 bf10 	b.w	8001600 <HAL_GPIO_WritePin>
 80007e0:	40020400 	.word	0x40020400

080007e4 <main>:
	GPIO_InitTypeDef GPIO_InitStruct =
 80007e4:	2400      	movs	r4, #0
{
 80007e6:	e92d 4880 	stmdb	sp!, {r7, fp, lr}
 80007ea:	b09b      	sub	sp, #108	; 0x6c
	GPIO_InitStruct.Mode = GPIO_MODE_AF_PP;
 80007ec:	2702      	movs	r7, #2
	HAL_Init();
 80007ee:	f000 fbdb 	bl	8000fa8 <HAL_Init>
	SystemClock_Config();
 80007f2:	f7ff ff83 	bl	80006fc <SystemClock_Config>
	GPIO_InitTypeDef GPIO_InitStruct =
 80007f6:	e9cd 4416 	strd	r4, r4, [sp, #88]	; 0x58
 80007fa:	e9cd 4418 	strd	r4, r4, [sp, #96]	; 0x60
	__HAL_RCC_GPIOC_CLK_ENABLE();
 80007fe:	4db1      	ldr	r5, [pc, #708]	; (8000ac4 <main+0x2e0>)
 8000800:	9404      	str	r4, [sp, #16]
	GPIO_InitTypeDef GPIO_InitStruct =
 8000802:	9415      	str	r4, [sp, #84]	; 0x54
	__HAL_RCC_GPIOC_CLK_ENABLE();
 8000804:	6b2b      	ldr	r3, [r5, #48]	; 0x30
	HAL_GPIO_WritePin(GPIOB, LD1_Pin | LD3_Pin | LD2_Pin, GPIO_PIN_RESET);
 8000806:	4622      	mov	r2, r4
	__HAL_RCC_GPIOC_CLK_ENABLE();
 8000808:	f043 0304 	orr.w	r3, r3, #4
 800080c:	632b      	str	r3, [r5, #48]	; 0x30
 800080e:	6b2b      	ldr	r3, [r5, #48]	; 0x30
	HAL_GPIO_WritePin(GPIOB, LD1_Pin | LD3_Pin | LD2_Pin, GPIO_PIN_RESET);
 8000810:	f244 0181 	movw	r1, #16513	; 0x4081
	__HAL_RCC_GPIOC_CLK_ENABLE();
 8000814:	f003 0304 	and.w	r3, r3, #4
 8000818:	9304      	str	r3, [sp, #16]
 800081a:	9b04      	ldr	r3, [sp, #16]
	__HAL_RCC_GPIOH_CLK_ENABLE();
 800081c:	9405      	str	r4, [sp, #20]
 800081e:	6b2b      	ldr	r3, [r5, #48]	; 0x30
	HAL_GPIO_WritePin(GPIOB, LD1_Pin | LD3_Pin | LD2_Pin, GPIO_PIN_RESET);
 8000820:	48a9      	ldr	r0, [pc, #676]	; (8000ac8 <main+0x2e4>)
	__HAL_RCC_GPIOH_CLK_ENABLE();
 8000822:	f043 0380 	orr.w	r3, r3, #128	; 0x80
 8000826:	632b      	str	r3, [r5, #48]	; 0x30
 8000828:	6b2b      	ldr	r3, [r5, #48]	; 0x30
	GPIO_InitStruct.Mode = GPIO_MODE_IT_RISING;
 800082a:	f8df b2e0 	ldr.w	fp, [pc, #736]	; 8000b0c <main+0x328>
	__HAL_RCC_GPIOH_CLK_ENABLE();
 800082e:	f003 0380 	and.w	r3, r3, #128	; 0x80
 8000832:	9305      	str	r3, [sp, #20]
 8000834:	9b05      	ldr	r3, [sp, #20]
	__HAL_RCC_GPIOA_CLK_ENABLE();
 8000836:	9406      	str	r4, [sp, #24]
 8000838:	6b2b      	ldr	r3, [r5, #48]	; 0x30
	GPIO_InitStruct.Speed = GPIO_SPEED_FREQ_VERY_HIGH;
 800083a:	2603      	movs	r6, #3
	__HAL_RCC_GPIOA_CLK_ENABLE();
 800083c:	f043 0301 	orr.w	r3, r3, #1
 8000840:	632b      	str	r3, [r5, #48]	; 0x30
 8000842:	6b2b      	ldr	r3, [r5, #48]	; 0x30
	GPIO_InitStruct.Alternate = GPIO_AF11_ETH;
 8000844:	f04f 080b 	mov.w	r8, #11
	__HAL_RCC_GPIOA_CLK_ENABLE();
 8000848:	f003 0301 	and.w	r3, r3, #1
 800084c:	9306      	str	r3, [sp, #24]
 800084e:	9b06      	ldr	r3, [sp, #24]
	__HAL_RCC_GPIOB_CLK_ENABLE();
 8000850:	9407      	str	r4, [sp, #28]
 8000852:	6b2b      	ldr	r3, [r5, #48]	; 0x30
	GPIO_InitStruct.Pin = RMII_REF_CLK_Pin | RMII_MDIO_Pin;
 8000854:	f04f 0906 	mov.w	r9, #6
	__HAL_RCC_GPIOB_CLK_ENABLE();
 8000858:	433b      	orrs	r3, r7
 800085a:	632b      	str	r3, [r5, #48]	; 0x30
 800085c:	6b2b      	ldr	r3, [r5, #48]	; 0x30
	GPIO_InitStruct.Mode = GPIO_MODE_OUTPUT_PP;
 800085e:	f04f 0a01 	mov.w	sl, #1
	__HAL_RCC_GPIOB_CLK_ENABLE();
 8000862:	403b      	ands	r3, r7
 8000864:	9307      	str	r3, [sp, #28]
 8000866:	9b07      	ldr	r3, [sp, #28]
	__HAL_RCC_GPIOE_CLK_ENABLE();
 8000868:	9408      	str	r4, [sp, #32]
 800086a:	6b2b      	ldr	r3, [r5, #48]	; 0x30
 800086c:	f043 0310 	orr.w	r3, r3, #16
 8000870:	632b      	str	r3, [r5, #48]	; 0x30
 8000872:	6b2b      	ldr	r3, [r5, #48]	; 0x30
 8000874:	f003 0310 	and.w	r3, r3, #16
 8000878:	9308      	str	r3, [sp, #32]
 800087a:	9b08      	ldr	r3, [sp, #32]
	__HAL_RCC_GPIOD_CLK_ENABLE();
 800087c:	9409      	str	r4, [sp, #36]	; 0x24
 800087e:	6b2b      	ldr	r3, [r5, #48]	; 0x30
 8000880:	f043 0308 	orr.w	r3, r3, #8
 8000884:	632b      	str	r3, [r5, #48]	; 0x30
 8000886:	6b2b      	ldr	r3, [r5, #48]	; 0x30
 8000888:	f003 0308 	and.w	r3, r3, #8
 800088c:	9309      	str	r3, [sp, #36]	; 0x24
 800088e:	9b09      	ldr	r3, [sp, #36]	; 0x24
	__HAL_RCC_GPIOG_CLK_ENABLE();
 8000890:	940a      	str	r4, [sp, #40]	; 0x28
 8000892:	6b2b      	ldr	r3, [r5, #48]	; 0x30
 8000894:	f043 0340 	orr.w	r3, r3, #64	; 0x40
 8000898:	632b      	str	r3, [r5, #48]	; 0x30
 800089a:	6b2b      	ldr	r3, [r5, #48]	; 0x30
 800089c:	f003 0340 	and.w	r3, r3, #64	; 0x40
 80008a0:	930a      	str	r3, [sp, #40]	; 0x28
 80008a2:	9b0a      	ldr	r3, [sp, #40]	; 0x28
	HAL_GPIO_WritePin(GPIOB, LD1_Pin | LD3_Pin | LD2_Pin, GPIO_PIN_RESET);
 80008a4:	f000 feac 	bl	8001600 <HAL_GPIO_WritePin>
	HAL_GPIO_WritePin(USB_PowerSwitchOn_GPIO_Port, USB_PowerSwitchOn_Pin,
 80008a8:	4622      	mov	r2, r4
 80008aa:	2140      	movs	r1, #64	; 0x40
 80008ac:	4887      	ldr	r0, [pc, #540]	; (8000acc <main+0x2e8>)
 80008ae:	f000 fea7 	bl	8001600 <HAL_GPIO_WritePin>
	GPIO_InitStruct.Pin = USER_Btn_Pin | GPIO_PIN_6 | GPIO_PIN_7;
 80008b2:	f44f 5303 	mov.w	r3, #8384	; 0x20c0
	HAL_GPIO_Init(GPIOC, &GPIO_InitStruct);
 80008b6:	a915      	add	r1, sp, #84	; 0x54
 80008b8:	4885      	ldr	r0, [pc, #532]	; (8000ad0 <main+0x2ec>)
	GPIO_InitStruct.Mode = GPIO_MODE_IT_RISING;
 80008ba:	e9cd 3b15 	strd	r3, fp, [sp, #84]	; 0x54
	GPIO_InitStruct.Pull = GPIO_NOPULL;
 80008be:	9417      	str	r4, [sp, #92]	; 0x5c
	HAL_GPIO_Init(GPIOC, &GPIO_InitStruct);
 80008c0:	f000 fd90 	bl	80013e4 <HAL_GPIO_Init>
	GPIO_InitStruct.Pin = RMII_MDC_Pin | RMII_RXD0_Pin | RMII_RXD1_Pin;
 80008c4:	2332      	movs	r3, #50	; 0x32
	HAL_GPIO_Init(GPIOC, &GPIO_InitStruct);
 80008c6:	a915      	add	r1, sp, #84	; 0x54
 80008c8:	4881      	ldr	r0, [pc, #516]	; (8000ad0 <main+0x2ec>)
	GPIO_InitStruct.Mode = GPIO_MODE_AF_PP;
 80008ca:	e9cd 3715 	strd	r3, r7, [sp, #84]	; 0x54
	GPIO_InitStruct.Pull = GPIO_NOPULL;
 80008ce:	9417      	str	r4, [sp, #92]	; 0x5c
	GPIO_InitStruct.Alternate = GPIO_AF11_ETH;
 80008d0:	e9cd 6818 	strd	r6, r8, [sp, #96]	; 0x60
	HAL_GPIO_Init(GPIOC, &GPIO_InitStruct);
 80008d4:	f000 fd86 	bl	80013e4 <HAL_GPIO_Init>
	HAL_GPIO_Init(GPIOA, &GPIO_InitStruct);
 80008d8:	a915      	add	r1, sp, #84	; 0x54
 80008da:	487e      	ldr	r0, [pc, #504]	; (8000ad4 <main+0x2f0>)
	GPIO_InitStruct.Pull = GPIO_NOPULL;
 80008dc:	e9cd 7416 	strd	r7, r4, [sp, #88]	; 0x58
	GPIO_InitStruct.Alternate = GPIO_AF11_ETH;
 80008e0:	e9cd 6818 	strd	r6, r8, [sp, #96]	; 0x60
	GPIO_InitStruct.Pin = RMII_REF_CLK_Pin | RMII_MDIO_Pin;
 80008e4:	f8cd 9054 	str.w	r9, [sp, #84]	; 0x54
	HAL_GPIO_Init(GPIOA, &GPIO_InitStruct);
 80008e8:	f000 fd7c 	bl	80013e4 <HAL_GPIO_Init>
	GPIO_InitStruct.Pin = LD1_Pin | LD3_Pin | LD2_Pin;
 80008ec:	f244 0381 	movw	r3, #16513	; 0x4081
	HAL_GPIO_Init(GPIOB, &GPIO_InitStruct);
 80008f0:	a915      	add	r1, sp, #84	; 0x54
 80008f2:	4875      	ldr	r0, [pc, #468]	; (8000ac8 <main+0x2e4>)
	GPIO_InitStruct.Mode = GPIO_MODE_OUTPUT_PP;
 80008f4:	e9cd 3a15 	strd	r3, sl, [sp, #84]	; 0x54
	GPIO_InitStruct.Speed = GPIO_SPEED_FREQ_LOW;
 80008f8:	e9cd 4417 	strd	r4, r4, [sp, #92]	; 0x5c
	HAL_GPIO_Init(GPIOB, &GPIO_InitStruct);
 80008fc:	f000 fd72 	bl	80013e4 <HAL_GPIO_Init>
	GPIO_InitStruct.Pin = GPIO_PIN_10 | GPIO_PIN_11 | GPIO_PIN_14;
 8000900:	f44f 4398 	mov.w	r3, #19456	; 0x4c00
	HAL_GPIO_Init(GPIOE, &GPIO_InitStruct);
 8000904:	a915      	add	r1, sp, #84	; 0x54
 8000906:	4874      	ldr	r0, [pc, #464]	; (8000ad8 <main+0x2f4>)
	GPIO_InitStruct.Pin = GPIO_PIN_10 | GPIO_PIN_11 | GPIO_PIN_14;
 8000908:	9315      	str	r3, [sp, #84]	; 0x54
	GPIO_InitStruct.Pull = GPIO_NOPULL;
 800090a:	e9cd b416 	strd	fp, r4, [sp, #88]	; 0x58
	HAL_GPIO_Init(GPIOE, &GPIO_InitStruct);
 800090e:	f000 fd69 	bl	80013e4 <HAL_GPIO_Init>
	GPIO_InitStruct.Pin = RMII_TXD1_Pin;
 8000912:	f44f 5300 	mov.w	r3, #8192	; 0x2000
	HAL_GPIO_Init(RMII_TXD1_GPIO_Port, &GPIO_InitStruct);
 8000916:	a915      	add	r1, sp, #84	; 0x54
 8000918:	486b      	ldr	r0, [pc, #428]	; (8000ac8 <main+0x2e4>)
	GPIO_InitStruct.Pin = RMII_TXD1_Pin;
 800091a:	9315      	str	r3, [sp, #84]	; 0x54
	GPIO_InitStruct.Pull = GPIO_NOPULL;
 800091c:	e9cd 7416 	strd	r7, r4, [sp, #88]	; 0x58
	GPIO_InitStruct.Alternate = GPIO_AF11_ETH;
 8000920:	e9cd 6818 	strd	r6, r8, [sp, #96]	; 0x60
	HAL_GPIO_Init(RMII_TXD1_GPIO_Port, &GPIO_InitStruct);
 8000924:	f000 fd5e 	bl	80013e4 <HAL_GPIO_Init>
	GPIO_InitStruct.Pin = GPIO_PIN_2;
 8000928:	2304      	movs	r3, #4
	HAL_GPIO_Init(GPIOG, &GPIO_InitStruct);
 800092a:	a915      	add	r1, sp, #84	; 0x54
 800092c:	4867      	ldr	r0, [pc, #412]	; (8000acc <main+0x2e8>)
	GPIO_InitStruct.Pin = GPIO_PIN_2;
 800092e:	9315      	str	r3, [sp, #84]	; 0x54
	GPIO_InitStruct.Pull = GPIO_PULLUP;
 8000930:	e9cd 4a16 	strd	r4, sl, [sp, #88]	; 0x58
	HAL_GPIO_Init(GPIOG, &GPIO_InitStruct);
 8000934:	f000 fd56 	bl	80013e4 <HAL_GPIO_Init>
	GPIO_InitStruct.Pin = USB_PowerSwitchOn_Pin;
 8000938:	2340      	movs	r3, #64	; 0x40
	HAL_GPIO_Init(USB_PowerSwitchOn_GPIO_Port, &GPIO_InitStruct);
 800093a:	a915      	add	r1, sp, #84	; 0x54
 800093c:	4863      	ldr	r0, [pc, #396]	; (8000acc <main+0x2e8>)
	GPIO_InitStruct.Pin = USB_PowerSwitchOn_Pin;
 800093e:	9315      	str	r3, [sp, #84]	; 0x54
	GPIO_InitStruct.Pull = GPIO_NOPULL;
 8000940:	e9cd a416 	strd	sl, r4, [sp, #88]	; 0x58
	GPIO_InitStruct.Speed = GPIO_SPEED_FREQ_LOW;
 8000944:	9418      	str	r4, [sp, #96]	; 0x60
	HAL_GPIO_Init(USB_PowerSwitchOn_GPIO_Port, &GPIO_InitStruct);
 8000946:	f000 fd4d 	bl	80013e4 <HAL_GPIO_Init>
	GPIO_InitStruct.Pin = USB_OverCurrent_Pin;
 800094a:	2380      	movs	r3, #128	; 0x80
	HAL_GPIO_Init(USB_OverCurrent_GPIO_Port, &GPIO_InitStruct);
 800094c:	a915      	add	r1, sp, #84	; 0x54
 800094e:	485f      	ldr	r0, [pc, #380]	; (8000acc <main+0x2e8>)
	GPIO_InitStruct.Pin = USB_OverCurrent_Pin;
 8000950:	9315      	str	r3, [sp, #84]	; 0x54
	GPIO_InitStruct.Pull = GPIO_NOPULL;
 8000952:	e9cd 4416 	strd	r4, r4, [sp, #88]	; 0x58
	HAL_GPIO_Init(USB_OverCurrent_GPIO_Port, &GPIO_InitStruct);
 8000956:	f000 fd45 	bl	80013e4 <HAL_GPIO_Init>
	GPIO_InitStruct.Pin = USB_SOF_Pin | USB_ID_Pin | USB_DM_Pin | USB_DP_Pin;
 800095a:	f44f 52e8 	mov.w	r2, #7424	; 0x1d00
	GPIO_InitStruct.Alternate = GPIO_AF10_OTG_FS;
 800095e:	230a      	movs	r3, #10
	HAL_GPIO_Init(GPIOA, &GPIO_InitStruct);
 8000960:	a915      	add	r1, sp, #84	; 0x54
 8000962:	485c      	ldr	r0, [pc, #368]	; (8000ad4 <main+0x2f0>)
	GPIO_InitStruct.Pin = USB_SOF_Pin | USB_ID_Pin | USB_DM_Pin | USB_DP_Pin;
 8000964:	9215      	str	r2, [sp, #84]	; 0x54
	GPIO_InitStruct.Alternate = GPIO_AF10_OTG_FS;
 8000966:	9319      	str	r3, [sp, #100]	; 0x64
	GPIO_InitStruct.Pull = GPIO_NOPULL;
 8000968:	e9cd 7416 	strd	r7, r4, [sp, #88]	; 0x58
	GPIO_InitStruct.Speed = GPIO_SPEED_FREQ_VERY_HIGH;
 800096c:	9618      	str	r6, [sp, #96]	; 0x60
	HAL_GPIO_Init(GPIOA, &GPIO_InitStruct);
 800096e:	f000 fd39 	bl	80013e4 <HAL_GPIO_Init>
	GPIO_InitStruct.Pin = USB_VBUS_Pin;
 8000972:	f44f 7300 	mov.w	r3, #512	; 0x200
	HAL_GPIO_Init(USB_VBUS_GPIO_Port, &GPIO_InitStruct);
 8000976:	a915      	add	r1, sp, #84	; 0x54
 8000978:	4856      	ldr	r0, [pc, #344]	; (8000ad4 <main+0x2f0>)
	GPIO_InitStruct.Pin = USB_VBUS_Pin;
 800097a:	9315      	str	r3, [sp, #84]	; 0x54
	GPIO_InitStruct.Pull = GPIO_NOPULL;
 800097c:	e9cd 4416 	strd	r4, r4, [sp, #88]	; 0x58
	HAL_GPIO_Init(USB_VBUS_GPIO_Port, &GPIO_InitStruct);
 8000980:	f000 fd30 	bl	80013e4 <HAL_GPIO_Init>
	GPIO_InitStruct.Pin = RMII_TX_EN_Pin | RMII_TXD0_Pin;
 8000984:	f44f 5320 	mov.w	r3, #10240	; 0x2800
	HAL_GPIO_Init(GPIOG, &GPIO_InitStruct);
 8000988:	a915      	add	r1, sp, #84	; 0x54
 800098a:	4850      	ldr	r0, [pc, #320]	; (8000acc <main+0x2e8>)
	GPIO_InitStruct.Pin = RMII_TX_EN_Pin | RMII_TXD0_Pin;
 800098c:	9315      	str	r3, [sp, #84]	; 0x54
	GPIO_InitStruct.Alternate = GPIO_AF11_ETH;
 800098e:	f8cd 8064 	str.w	r8, [sp, #100]	; 0x64
	GPIO_InitStruct.Pull = GPIO_NOPULL;
 8000992:	e9cd 7416 	strd	r7, r4, [sp, #88]	; 0x58
	GPIO_InitStruct.Speed = GPIO_SPEED_FREQ_VERY_HIGH;
 8000996:	9618      	str	r6, [sp, #96]	; 0x60
	HAL_GPIO_Init(GPIOG, &GPIO_InitStruct);
 8000998:	f000 fd24 	bl	80013e4 <HAL_GPIO_Init>
	HAL_NVIC_SetPriority(EXTI9_5_IRQn, 5, 0);
 800099c:	4622      	mov	r2, r4
 800099e:	2105      	movs	r1, #5
 80009a0:	2017      	movs	r0, #23
 80009a2:	f000 fb55 	bl	8001050 <HAL_NVIC_SetPriority>
	HAL_NVIC_EnableIRQ(EXTI9_5_IRQn);
 80009a6:	2017      	movs	r0, #23
 80009a8:	f000 fb88 	bl	80010bc <HAL_NVIC_EnableIRQ>
	HAL_NVIC_SetPriority(EXTI15_10_IRQn, 5, 0);
 80009ac:	4622      	mov	r2, r4
 80009ae:	2105      	movs	r1, #5
 80009b0:	2028      	movs	r0, #40	; 0x28
 80009b2:	f000 fb4d 	bl	8001050 <HAL_NVIC_SetPriority>
	HAL_NVIC_EnableIRQ(EXTI15_10_IRQn);
 80009b6:	2028      	movs	r0, #40	; 0x28
 80009b8:	f000 fb80 	bl	80010bc <HAL_NVIC_EnableIRQ>
	__HAL_RCC_DMA2_CLK_ENABLE();
 80009bc:	9403      	str	r4, [sp, #12]
 80009be:	6b2b      	ldr	r3, [r5, #48]	; 0x30
	HAL_NVIC_SetPriority(DMA2_Stream3_IRQn, 6, 0);
 80009c0:	4622      	mov	r2, r4
	__HAL_RCC_DMA2_CLK_ENABLE();
 80009c2:	f443 0380 	orr.w	r3, r3, #4194304	; 0x400000
 80009c6:	632b      	str	r3, [r5, #48]	; 0x30
 80009c8:	6b2b      	ldr	r3, [r5, #48]	; 0x30
	HAL_NVIC_SetPriority(DMA2_Stream3_IRQn, 6, 0);
 80009ca:	4649      	mov	r1, r9
	__HAL_RCC_DMA2_CLK_ENABLE();
 80009cc:	f403 0380 	and.w	r3, r3, #4194304	; 0x400000
 80009d0:	9303      	str	r3, [sp, #12]
	HAL_NVIC_SetPriority(DMA2_Stream3_IRQn, 6, 0);
 80009d2:	203b      	movs	r0, #59	; 0x3b
	__HAL_RCC_DMA2_CLK_ENABLE();
 80009d4:	9b03      	ldr	r3, [sp, #12]
	HAL_NVIC_SetPriority(DMA2_Stream3_IRQn, 6, 0);
 80009d6:	f000 fb3b 	bl	8001050 <HAL_NVIC_SetPriority>
	HAL_NVIC_EnableIRQ(DMA2_Stream3_IRQn);
 80009da:	203b      	movs	r0, #59	; 0x3b
 80009dc:	f000 fb6e 	bl	80010bc <HAL_NVIC_EnableIRQ>
	HAL_NVIC_SetPriority(DMA2_Stream6_IRQn, 6, 0);
 80009e0:	4622      	mov	r2, r4
 80009e2:	4649      	mov	r1, r9
 80009e4:	2045      	movs	r0, #69	; 0x45
 80009e6:	f000 fb33 	bl	8001050 <HAL_NVIC_SetPriority>
	HAL_NVIC_EnableIRQ(DMA2_Stream6_IRQn);
 80009ea:	2045      	movs	r0, #69	; 0x45
 80009ec:	f000 fb66 	bl	80010bc <HAL_NVIC_EnableIRQ>
	huart3.Init.BaudRate = 115200;
 80009f0:	f44f 31e1 	mov.w	r1, #115200	; 0x1c200
	huart3.Init.Mode = UART_MODE_TX_RX;
 80009f4:	220c      	movs	r2, #12
	huart3.Instance = USART3;
 80009f6:	4b39      	ldr	r3, [pc, #228]	; (8000adc <main+0x2f8>)
 80009f8:	f5a5 35f8 	sub.w	r5, r5, #126976	; 0x1f000
	if (HAL_UART_Init(&huart3) != HAL_OK)
 80009fc:	4618      	mov	r0, r3
	huart3.Init.StopBits = UART_STOPBITS_1;
 80009fe:	e9c3 4402 	strd	r4, r4, [r3, #8]
	huart3.Init.Parity = UART_PARITY_NONE;
 8000a02:	611c      	str	r4, [r3, #16]
	huart3.Init.OverSampling = UART_OVERSAMPLING_16;
 8000a04:	e9c3 4406 	strd	r4, r4, [r3, #24]
	huart3.Init.BaudRate = 115200;
 8000a08:	e9c3 5100 	strd	r5, r1, [r3]
	huart3.Init.Mode = UART_MODE_TX_RX;
 8000a0c:	615a      	str	r2, [r3, #20]
	if (HAL_UART_Init(&huart3) != HAL_OK)
 8000a0e:	f002 f93d 	bl	8002c8c <HAL_UART_Init>
 8000a12:	2800      	cmp	r0, #0
 8000a14:	d152      	bne.n	8000abc <main+0x2d8>
	hsd.Init.ClockEdge = SDIO_CLOCK_EDGE_RISING;
 8000a16:	2500      	movs	r5, #0
	hsd.Init.ClockDiv = 3;
 8000a18:	2203      	movs	r2, #3
	hsd.Instance = SDIO;
 8000a1a:	4b31      	ldr	r3, [pc, #196]	; (8000ae0 <main+0x2fc>)
 8000a1c:	4931      	ldr	r1, [pc, #196]	; (8000ae4 <main+0x300>)
	hsd.Init.ClockDiv = 3;
 8000a1e:	619a      	str	r2, [r3, #24]
	hsd.Instance = SDIO;
 8000a20:	6019      	str	r1, [r3, #0]
	hsd.Init.ClockBypass = SDIO_CLOCK_BYPASS_DISABLE;
 8000a22:	e9c3 5501 	strd	r5, r5, [r3, #4]
	hsd.Init.BusWide = SDIO_BUS_WIDE_1B;
 8000a26:	e9c3 5503 	strd	r5, r5, [r3, #12]
	hsd.Init.HardwareFlowControl = SDIO_HARDWARE_FLOW_CONTROL_DISABLE;
 8000a2a:	615d      	str	r5, [r3, #20]
	MX_FATFS_Init();
 8000a2c:	f002 fea0 	bl	8003770 <MX_FATFS_Init>
	b1PushCounter = 0;
 8000a30:	4a2d      	ldr	r2, [pc, #180]	; (8000ae8 <main+0x304>)
	dataIdx = 0;
 8000a32:	4b2e      	ldr	r3, [pc, #184]	; (8000aec <main+0x308>)
	osSemaphoreDef(sdReadBinarySem);
 8000a34:	a81a      	add	r0, sp, #104	; 0x68
	sdReadBinarySemHandle = osSemaphoreCreate(osSemaphore(sdReadBinarySem), 1);
 8000a36:	2101      	movs	r1, #1
	osSemaphoreDef(sdReadBinarySem);
 8000a38:	f840 5d68 	str.w	r5, [r0, #-104]!
	b1PushCounter = 0;
 8000a3c:	8015      	strh	r5, [r2, #0]
	dataIdx = 0;
 8000a3e:	801d      	strh	r5, [r3, #0]
	sdReadBinarySemHandle = osSemaphoreCreate(osSemaphore(sdReadBinarySem), 1);
 8000a40:	f007 f868 	bl	8007b14 <osSemaphoreCreate>
	osSemaphoreDef(sdWriteBinarySem);
 8000a44:	ab1a      	add	r3, sp, #104	; 0x68
	sdReadBinarySemHandle = osSemaphoreCreate(osSemaphore(sdReadBinarySem), 1);
 8000a46:	4a2a      	ldr	r2, [pc, #168]	; (8000af0 <main+0x30c>)
	osSemaphoreDef(sdWriteBinarySem);
 8000a48:	f843 5d64 	str.w	r5, [r3, #-100]!
	sdReadBinarySemHandle = osSemaphoreCreate(osSemaphore(sdReadBinarySem), 1);
 8000a4c:	6010      	str	r0, [r2, #0]
	sdWriteBinarySemHandle = osSemaphoreCreate(osSemaphore(sdWriteBinarySem),
 8000a4e:	2101      	movs	r1, #1
 8000a50:	4618      	mov	r0, r3
 8000a52:	f007 f85f 	bl	8007b14 <osSemaphoreCreate>
	osSemaphoreDef(sdFormatBinarySem);
 8000a56:	ab1a      	add	r3, sp, #104	; 0x68
	sdWriteBinarySemHandle = osSemaphoreCreate(osSemaphore(sdWriteBinarySem),
 8000a58:	4a26      	ldr	r2, [pc, #152]	; (8000af4 <main+0x310>)
	osSemaphoreDef(sdFormatBinarySem);
 8000a5a:	f843 5d60 	str.w	r5, [r3, #-96]!
	sdWriteBinarySemHandle = osSemaphoreCreate(osSemaphore(sdWriteBinarySem),
 8000a5e:	6010      	str	r0, [r2, #0]
	sdFormatBinarySemHandle = osSemaphoreCreate(osSemaphore(sdFormatBinarySem),
 8000a60:	2101      	movs	r1, #1
 8000a62:	4618      	mov	r0, r3
 8000a64:	f007 f856 	bl	8007b14 <osSemaphoreCreate>
	osThreadDef(defaultTask, StartDefaultTask, osPriorityNormal, 0, 1024);
 8000a68:	4c23      	ldr	r4, [pc, #140]	; (8000af8 <main+0x314>)
	sdFormatBinarySemHandle = osSemaphoreCreate(osSemaphore(sdFormatBinarySem),
 8000a6a:	4b24      	ldr	r3, [pc, #144]	; (8000afc <main+0x318>)
	osThreadDef(defaultTask, StartDefaultTask, osPriorityNormal, 0, 1024);
 8000a6c:	af0b      	add	r7, sp, #44	; 0x2c
	sdFormatBinarySemHandle = osSemaphoreCreate(osSemaphore(sdFormatBinarySem),
 8000a6e:	6018      	str	r0, [r3, #0]
	osThreadDef(defaultTask, StartDefaultTask, osPriorityNormal, 0, 1024);
 8000a70:	cc0f      	ldmia	r4!, {r0, r1, r2, r3}
 8000a72:	4626      	mov	r6, r4
 8000a74:	c70f      	stmia	r7!, {r0, r1, r2, r3}
 8000a76:	f856 3b04 	ldr.w	r3, [r6], #4
	defaultTaskHandle = osThreadCreate(osThread(defaultTask), NULL);
 8000a7a:	4629      	mov	r1, r5
 8000a7c:	a80b      	add	r0, sp, #44	; 0x2c
	osThreadDef(defaultTask, StartDefaultTask, osPriorityNormal, 0, 1024);
 8000a7e:	603b      	str	r3, [r7, #0]
	defaultTaskHandle = osThreadCreate(osThread(defaultTask), NULL);
 8000a80:	f007 f826 	bl	8007ad0 <osThreadCreate>
 8000a84:	4b1e      	ldr	r3, [pc, #120]	; (8000b00 <main+0x31c>)
	osThreadDef(sdReadTask, StartSdReadTask, osPriorityIdle, 0, 256);
 8000a86:	af10      	add	r7, sp, #64	; 0x40
	defaultTaskHandle = osThreadCreate(osThread(defaultTask), NULL);
 8000a88:	6018      	str	r0, [r3, #0]
	osThreadDef(sdReadTask, StartSdReadTask, osPriorityIdle, 0, 256);
 8000a8a:	ce0f      	ldmia	r6!, {r0, r1, r2, r3}
 8000a8c:	c70f      	stmia	r7!, {r0, r1, r2, r3}
 8000a8e:	6833      	ldr	r3, [r6, #0]
	sdReadTaskHandle = osThreadCreate(osThread(sdReadTask), NULL);
 8000a90:	4629      	mov	r1, r5
 8000a92:	a810      	add	r0, sp, #64	; 0x40
	osThreadDef(sdReadTask, StartSdReadTask, osPriorityIdle, 0, 256);
 8000a94:	603b      	str	r3, [r7, #0]
	sdReadTaskHandle = osThreadCreate(osThread(sdReadTask), NULL);
 8000a96:	f007 f81b 	bl	8007ad0 <osThreadCreate>
 8000a9a:	4b1a      	ldr	r3, [pc, #104]	; (8000b04 <main+0x320>)
	osThreadDef(sdWriteTask, StartSdWriteTask, osPriorityIdle, 0, 256);
 8000a9c:	ae15      	add	r6, sp, #84	; 0x54
 8000a9e:	3418      	adds	r4, #24
	sdReadTaskHandle = osThreadCreate(osThread(sdReadTask), NULL);
 8000aa0:	6018      	str	r0, [r3, #0]
	osThreadDef(sdWriteTask, StartSdWriteTask, osPriorityIdle, 0, 256);
 8000aa2:	cc0f      	ldmia	r4!, {r0, r1, r2, r3}
 8000aa4:	c60f      	stmia	r6!, {r0, r1, r2, r3}
 8000aa6:	6823      	ldr	r3, [r4, #0]
	sdWriteTaskHandle = osThreadCreate(osThread(sdWriteTask), NULL);
 8000aa8:	4629      	mov	r1, r5
 8000aaa:	a815      	add	r0, sp, #84	; 0x54
	osThreadDef(sdWriteTask, StartSdWriteTask, osPriorityIdle, 0, 256);
 8000aac:	6033      	str	r3, [r6, #0]
	sdWriteTaskHandle = osThreadCreate(osThread(sdWriteTask), NULL);
 8000aae:	f007 f80f 	bl	8007ad0 <osThreadCreate>
 8000ab2:	4b15      	ldr	r3, [pc, #84]	; (8000b08 <main+0x324>)
 8000ab4:	6018      	str	r0, [r3, #0]
	osKernelStart();
 8000ab6:	f007 f805 	bl	8007ac4 <osKernelStart>
 8000aba:	e7fe      	b.n	8000aba <main+0x2d6>
		Error_Handler();
 8000abc:	f7ff fe7c 	bl	80007b8 <Error_Handler>
 8000ac0:	e7a9      	b.n	8000a16 <main+0x232>
 8000ac2:	bf00      	nop
 8000ac4:	40023800 	.word	0x40023800
 8000ac8:	40020400 	.word	0x40020400
 8000acc:	40021800 	.word	0x40021800
 8000ad0:	40020800 	.word	0x40020800
 8000ad4:	40020000 	.word	0x40020000
 8000ad8:	40021000 	.word	0x40021000
 8000adc:	20003e80 	.word	0x20003e80
 8000ae0:	20004574 	.word	0x20004574
 8000ae4:	40012c00 	.word	0x40012c00
 8000ae8:	20004854 	.word	0x20004854
 8000aec:	2000485c 	.word	0x2000485c
 8000af0:	20004850 	.word	0x20004850
 8000af4:	2000484c 	.word	0x2000484c
 8000af8:	08009a50 	.word	0x08009a50
 8000afc:	20004858 	.word	0x20004858
 8000b00:	20003e7c 	.word	0x20003e7c
 8000b04:	20003ed0 	.word	0x20003ed0
 8000b08:	20003ecc 	.word	0x20003ecc
 8000b0c:	10110000 	.word	0x10110000

08000b10 <StartDefaultTask>:
{
 8000b10:	b580      	push	{r7, lr}
	if (f_mount(&SDFatFs, (TCHAR const*) SDPath, 0) != FR_OK)
 8000b12:	2200      	movs	r2, #0
 8000b14:	4919      	ldr	r1, [pc, #100]	; (8000b7c <StartDefaultTask+0x6c>)
 8000b16:	481a      	ldr	r0, [pc, #104]	; (8000b80 <StartDefaultTask+0x70>)
 8000b18:	f005 fc00 	bl	800631c <f_mount>
 8000b1c:	b340      	cbz	r0, 8000b70 <StartDefaultTask+0x60>
		Error_Handler();
 8000b1e:	f7ff fe4b 	bl	80007b8 <Error_Handler>
			if (--b1PushCounter
 8000b22:	f240 75c5 	movw	r5, #1989	; 0x7c5
 8000b26:	4c17      	ldr	r4, [pc, #92]	; (8000b84 <StartDefaultTask+0x74>)
 8000b28:	4f17      	ldr	r7, [pc, #92]	; (8000b88 <StartDefaultTask+0x78>)
 8000b2a:	f8df 8068 	ldr.w	r8, [pc, #104]	; 8000b94 <StartDefaultTask+0x84>
				if (HAL_GPIO_ReadPin(USER_Btn_GPIO_Port, USER_Btn_Pin)
 8000b2e:	4e17      	ldr	r6, [pc, #92]	; (8000b8c <StartDefaultTask+0x7c>)
		osDelay(1);
 8000b30:	2001      	movs	r0, #1
 8000b32:	f006 ffe7 	bl	8007b04 <osDelay>
		if (b1PushCounter > 0)
 8000b36:	8823      	ldrh	r3, [r4, #0]
 8000b38:	2b00      	cmp	r3, #0
 8000b3a:	d0f9      	beq.n	8000b30 <StartDefaultTask+0x20>
			if (--b1PushCounter
 8000b3c:	3b01      	subs	r3, #1
 8000b3e:	b29b      	uxth	r3, r3
 8000b40:	42ab      	cmp	r3, r5
 8000b42:	8023      	strh	r3, [r4, #0]
 8000b44:	d8f4      	bhi.n	8000b30 <StartDefaultTask+0x20>
				if (HAL_GPIO_ReadPin(USER_Btn_GPIO_Port, USER_Btn_Pin)
 8000b46:	f44f 5100 	mov.w	r1, #8192	; 0x2000
 8000b4a:	4630      	mov	r0, r6
 8000b4c:	f000 fd52 	bl	80015f4 <HAL_GPIO_ReadPin>
 8000b50:	4681      	mov	r9, r0
 8000b52:	b138      	cbz	r0, 8000b64 <StartDefaultTask+0x54>
					if (b1PushCounter == 0)
 8000b54:	8823      	ldrh	r3, [r4, #0]
 8000b56:	2b00      	cmp	r3, #0
 8000b58:	d1ea      	bne.n	8000b30 <StartDefaultTask+0x20>
						osSemaphoreRelease(sdFormatBinarySemHandle);
 8000b5a:	f8d8 0000 	ldr.w	r0, [r8]
 8000b5e:	f007 f819 	bl	8007b94 <osSemaphoreRelease>
 8000b62:	e7e5      	b.n	8000b30 <StartDefaultTask+0x20>
					osSemaphoreRelease(sdReadBinarySemHandle);
 8000b64:	6838      	ldr	r0, [r7, #0]
 8000b66:	f007 f815 	bl	8007b94 <osSemaphoreRelease>
					b1PushCounter = 0;
 8000b6a:	f8a4 9000 	strh.w	r9, [r4]
 8000b6e:	e7df      	b.n	8000b30 <StartDefaultTask+0x20>
		HAL_GPIO_WritePin(GPIOG, GPIO_PIN_6, GPIO_PIN_SET);
 8000b70:	2201      	movs	r2, #1
 8000b72:	2140      	movs	r1, #64	; 0x40
 8000b74:	4806      	ldr	r0, [pc, #24]	; (8000b90 <StartDefaultTask+0x80>)
 8000b76:	f000 fd43 	bl	8001600 <HAL_GPIO_WritePin>
 8000b7a:	e7d2      	b.n	8000b22 <StartDefaultTask+0x12>
 8000b7c:	200042d4 	.word	0x200042d4
 8000b80:	200042d8 	.word	0x200042d8
 8000b84:	20004854 	.word	0x20004854
 8000b88:	20004850 	.word	0x20004850
 8000b8c:	40020800 	.word	0x40020800
 8000b90:	40021800 	.word	0x40021800
 8000b94:	20004858 	.word	0x20004858

08000b98 <HAL_MspInit>:
{
  /* USER CODE BEGIN MspInit 0 */

  /* USER CODE END MspInit 0 */

  __HAL_RCC_SYSCFG_CLK_ENABLE();
 8000b98:	2000      	movs	r0, #0
{
 8000b9a:	b410      	push	{r4}
  __HAL_RCC_SYSCFG_CLK_ENABLE();
 8000b9c:	4b0e      	ldr	r3, [pc, #56]	; (8000bd8 <HAL_MspInit+0x40>)
{
 8000b9e:	b083      	sub	sp, #12
  __HAL_RCC_SYSCFG_CLK_ENABLE();
 8000ba0:	9000      	str	r0, [sp, #0]
 8000ba2:	6c59      	ldr	r1, [r3, #68]	; 0x44
  __HAL_RCC_PWR_CLK_ENABLE();

  /* System interrupt init*/
  /* PendSV_IRQn interrupt configuration */
  HAL_NVIC_SetPriority(PendSV_IRQn, 15, 0);
 8000ba4:	4602      	mov	r2, r0
  __HAL_RCC_SYSCFG_CLK_ENABLE();
 8000ba6:	f441 4180 	orr.w	r1, r1, #16384	; 0x4000
 8000baa:	6459      	str	r1, [r3, #68]	; 0x44
 8000bac:	6c5c      	ldr	r4, [r3, #68]	; 0x44
  HAL_NVIC_SetPriority(PendSV_IRQn, 15, 0);
 8000bae:	210f      	movs	r1, #15
  __HAL_RCC_SYSCFG_CLK_ENABLE();
 8000bb0:	f404 4480 	and.w	r4, r4, #16384	; 0x4000
 8000bb4:	9400      	str	r4, [sp, #0]
 8000bb6:	9c00      	ldr	r4, [sp, #0]
  __HAL_RCC_PWR_CLK_ENABLE();
 8000bb8:	9001      	str	r0, [sp, #4]
  HAL_NVIC_SetPriority(PendSV_IRQn, 15, 0);
 8000bba:	f06f 0001 	mvn.w	r0, #1
  __HAL_RCC_PWR_CLK_ENABLE();
 8000bbe:	6c1c      	ldr	r4, [r3, #64]	; 0x40
 8000bc0:	f044 5480 	orr.w	r4, r4, #268435456	; 0x10000000
 8000bc4:	641c      	str	r4, [r3, #64]	; 0x40
 8000bc6:	6c1b      	ldr	r3, [r3, #64]	; 0x40
 8000bc8:	f003 5380 	and.w	r3, r3, #268435456	; 0x10000000
 8000bcc:	9301      	str	r3, [sp, #4]
 8000bce:	9b01      	ldr	r3, [sp, #4]

  /* USER CODE BEGIN MspInit 1 */

  /* USER CODE END MspInit 1 */
}
 8000bd0:	b003      	add	sp, #12
 8000bd2:	bc10      	pop	{r4}
  HAL_NVIC_SetPriority(PendSV_IRQn, 15, 0);
 8000bd4:	f000 ba3c 	b.w	8001050 <HAL_NVIC_SetPriority>
 8000bd8:	40023800 	.word	0x40023800

08000bdc <HAL_SD_MspInit>:
* This function configures the hardware resources used in this example
* @param hsd: SD handle pointer
* @retval None
*/
void HAL_SD_MspInit(SD_HandleTypeDef* hsd)
{
 8000bdc:	e92d 47f0 	stmdb	sp!, {r4, r5, r6, r7, r8, r9, sl, lr}
  GPIO_InitTypeDef GPIO_InitStruct = {0};
 8000be0:	2400      	movs	r4, #0
  if(hsd->Instance==SDIO)
 8000be2:	6802      	ldr	r2, [r0, #0]
 8000be4:	4b54      	ldr	r3, [pc, #336]	; (8000d38 <HAL_SD_MspInit+0x15c>)
{
 8000be6:	b088      	sub	sp, #32
  if(hsd->Instance==SDIO)
 8000be8:	429a      	cmp	r2, r3
  GPIO_InitTypeDef GPIO_InitStruct = {0};
 8000bea:	e9cd 4403 	strd	r4, r4, [sp, #12]
 8000bee:	e9cd 4405 	strd	r4, r4, [sp, #20]
 8000bf2:	9407      	str	r4, [sp, #28]
  if(hsd->Instance==SDIO)
 8000bf4:	d002      	beq.n	8000bfc <HAL_SD_MspInit+0x20>
  /* USER CODE BEGIN SDIO_MspInit 1 */

  /* USER CODE END SDIO_MspInit 1 */
  }

}
 8000bf6:	b008      	add	sp, #32
 8000bf8:	e8bd 87f0 	ldmia.w	sp!, {r4, r5, r6, r7, r8, r9, sl, pc}
    GPIO_InitStruct.Pin = GPIO_PIN_2;
 8000bfc:	f04f 0804 	mov.w	r8, #4
    GPIO_InitStruct.Alternate = GPIO_AF12_SDIO;
 8000c00:	250c      	movs	r5, #12
    GPIO_InitStruct.Pin = GPIO_PIN_8|GPIO_PIN_9|GPIO_PIN_10|GPIO_PIN_11
 8000c02:	f44f 51f8 	mov.w	r1, #7936	; 0x1f00
    GPIO_InitStruct.Mode = GPIO_MODE_AF_PP;
 8000c06:	f04f 0902 	mov.w	r9, #2
    GPIO_InitStruct.Speed = GPIO_SPEED_FREQ_VERY_HIGH;
 8000c0a:	2703      	movs	r7, #3
    __HAL_RCC_SDIO_CLK_ENABLE();
 8000c0c:	9400      	str	r4, [sp, #0]
 8000c0e:	f503 3386 	add.w	r3, r3, #68608	; 0x10c00
 8000c12:	6c5a      	ldr	r2, [r3, #68]	; 0x44
 8000c14:	4606      	mov	r6, r0
 8000c16:	f442 6200 	orr.w	r2, r2, #2048	; 0x800
 8000c1a:	645a      	str	r2, [r3, #68]	; 0x44
 8000c1c:	6c5a      	ldr	r2, [r3, #68]	; 0x44
    HAL_GPIO_Init(GPIOC, &GPIO_InitStruct);
 8000c1e:	4847      	ldr	r0, [pc, #284]	; (8000d3c <HAL_SD_MspInit+0x160>)
    __HAL_RCC_SDIO_CLK_ENABLE();
 8000c20:	f402 6200 	and.w	r2, r2, #2048	; 0x800
 8000c24:	9200      	str	r2, [sp, #0]
 8000c26:	9a00      	ldr	r2, [sp, #0]
    __HAL_RCC_GPIOC_CLK_ENABLE();
 8000c28:	9401      	str	r4, [sp, #4]
 8000c2a:	6b1a      	ldr	r2, [r3, #48]	; 0x30
    hdma_sdio_tx.Init.Channel = DMA_CHANNEL_4;
 8000c2c:	f04f 6a00 	mov.w	sl, #134217728	; 0x8000000
    __HAL_RCC_GPIOC_CLK_ENABLE();
 8000c30:	ea42 0208 	orr.w	r2, r2, r8
 8000c34:	631a      	str	r2, [r3, #48]	; 0x30
 8000c36:	6b1a      	ldr	r2, [r3, #48]	; 0x30
 8000c38:	ea02 0208 	and.w	r2, r2, r8
 8000c3c:	9201      	str	r2, [sp, #4]
 8000c3e:	9a01      	ldr	r2, [sp, #4]
    __HAL_RCC_GPIOD_CLK_ENABLE();
 8000c40:	9402      	str	r4, [sp, #8]
 8000c42:	6b1a      	ldr	r2, [r3, #48]	; 0x30
 8000c44:	f042 0208 	orr.w	r2, r2, #8
 8000c48:	631a      	str	r2, [r3, #48]	; 0x30
 8000c4a:	6b1b      	ldr	r3, [r3, #48]	; 0x30
    GPIO_InitStruct.Pin = GPIO_PIN_8|GPIO_PIN_9|GPIO_PIN_10|GPIO_PIN_11
 8000c4c:	9103      	str	r1, [sp, #12]
    __HAL_RCC_GPIOD_CLK_ENABLE();
 8000c4e:	f003 0308 	and.w	r3, r3, #8
    HAL_GPIO_Init(GPIOC, &GPIO_InitStruct);
 8000c52:	eb0d 0105 	add.w	r1, sp, r5
    __HAL_RCC_GPIOD_CLK_ENABLE();
 8000c56:	9302      	str	r3, [sp, #8]
 8000c58:	9b02      	ldr	r3, [sp, #8]
    GPIO_InitStruct.Mode = GPIO_MODE_AF_PP;
 8000c5a:	f8cd 9010 	str.w	r9, [sp, #16]
    GPIO_InitStruct.Alternate = GPIO_AF12_SDIO;
 8000c5e:	e9cd 7506 	strd	r7, r5, [sp, #24]
    HAL_GPIO_Init(GPIOC, &GPIO_InitStruct);
 8000c62:	f000 fbbf 	bl	80013e4 <HAL_GPIO_Init>
    HAL_GPIO_Init(GPIOD, &GPIO_InitStruct);
 8000c66:	eb0d 0105 	add.w	r1, sp, r5
 8000c6a:	4835      	ldr	r0, [pc, #212]	; (8000d40 <HAL_SD_MspInit+0x164>)
    GPIO_InitStruct.Mode = GPIO_MODE_AF_PP;
 8000c6c:	f8cd 9010 	str.w	r9, [sp, #16]
    GPIO_InitStruct.Alternate = GPIO_AF12_SDIO;
 8000c70:	e9cd 7506 	strd	r7, r5, [sp, #24]
    GPIO_InitStruct.Pull = GPIO_NOPULL;
 8000c74:	9405      	str	r4, [sp, #20]
    GPIO_InitStruct.Pin = GPIO_PIN_2;
 8000c76:	f8cd 800c 	str.w	r8, [sp, #12]
    HAL_GPIO_Init(GPIOD, &GPIO_InitStruct);
 8000c7a:	f000 fbb3 	bl	80013e4 <HAL_GPIO_Init>
    hdma_sdio_tx.Init.Direction = DMA_MEMORY_TO_PERIPH;
 8000c7e:	2040      	movs	r0, #64	; 0x40
    hdma_sdio_tx.Init.MemInc = DMA_MINC_ENABLE;
 8000c80:	f44f 6980 	mov.w	r9, #1024	; 0x400
    hdma_sdio_tx.Init.PeriphDataAlignment = DMA_PDATAALIGN_WORD;
 8000c84:	f44f 5e80 	mov.w	lr, #4096	; 0x1000
    hdma_sdio_tx.Init.MemDataAlignment = DMA_MDATAALIGN_WORD;
 8000c88:	f44f 4c80 	mov.w	ip, #16384	; 0x4000
    hdma_sdio_tx.Init.Mode = DMA_PFCTRL;
 8000c8c:	2120      	movs	r1, #32
    hdma_sdio_tx.Init.MemBurst = DMA_MBURST_INC4;
 8000c8e:	f44f 0200 	mov.w	r2, #8388608	; 0x800000
    hdma_sdio_tx.Init.PeriphBurst = DMA_PBURST_INC4;
 8000c92:	f44f 1300 	mov.w	r3, #2097152	; 0x200000
    hdma_sdio_tx.Instance = DMA2_Stream6;
 8000c96:	4d2b      	ldr	r5, [pc, #172]	; (8000d44 <HAL_SD_MspInit+0x168>)
    hdma_sdio_tx.Init.PeriphInc = DMA_PINC_DISABLE;
 8000c98:	60ec      	str	r4, [r5, #12]
    hdma_sdio_tx.Init.Priority = DMA_PRIORITY_LOW;
 8000c9a:	622c      	str	r4, [r5, #32]
    hdma_sdio_tx.Instance = DMA2_Stream6;
 8000c9c:	4c2a      	ldr	r4, [pc, #168]	; (8000d48 <HAL_SD_MspInit+0x16c>)
    hdma_sdio_tx.Init.Direction = DMA_MEMORY_TO_PERIPH;
 8000c9e:	60a8      	str	r0, [r5, #8]
    if (HAL_DMA_Init(&hdma_sdio_tx) != HAL_OK)
 8000ca0:	4628      	mov	r0, r5
    hdma_sdio_tx.Init.FIFOMode = DMA_FIFOMODE_ENABLE;
 8000ca2:	f8c5 8024 	str.w	r8, [r5, #36]	; 0x24
    hdma_sdio_tx.Init.FIFOThreshold = DMA_FIFO_THRESHOLD_FULL;
 8000ca6:	62af      	str	r7, [r5, #40]	; 0x28
    hdma_sdio_tx.Instance = DMA2_Stream6;
 8000ca8:	e9c5 4a00 	strd	r4, sl, [r5]
    hdma_sdio_tx.Init.PeriphDataAlignment = DMA_PDATAALIGN_WORD;
 8000cac:	e9c5 9e04 	strd	r9, lr, [r5, #16]
    hdma_sdio_tx.Init.Mode = DMA_PFCTRL;
 8000cb0:	e9c5 c106 	strd	ip, r1, [r5, #24]
    hdma_sdio_tx.Init.PeriphBurst = DMA_PBURST_INC4;
 8000cb4:	e9c5 230b 	strd	r2, r3, [r5, #44]	; 0x2c
    if (HAL_DMA_Init(&hdma_sdio_tx) != HAL_OK)
 8000cb8:	f000 fa0e 	bl	80010d8 <HAL_DMA_Init>
 8000cbc:	bba8      	cbnz	r0, 8000d2a <HAL_SD_MspInit+0x14e>
    hdma_sdio_rx.Init.FIFOThreshold = DMA_FIFO_THRESHOLD_FULL;
 8000cbe:	2003      	movs	r0, #3
    hdma_sdio_rx.Init.FIFOMode = DMA_FIFOMODE_ENABLE;
 8000cc0:	2704      	movs	r7, #4
    hdma_sdio_rx.Init.Direction = DMA_PERIPH_TO_MEMORY;
 8000cc2:	2300      	movs	r3, #0
    hdma_sdio_rx.Init.Channel = DMA_CHANNEL_4;
 8000cc4:	f04f 6a00 	mov.w	sl, #134217728	; 0x8000000
    hdma_sdio_rx.Init.MemInc = DMA_MINC_ENABLE;
 8000cc8:	f44f 6980 	mov.w	r9, #1024	; 0x400
    hdma_sdio_rx.Init.PeriphDataAlignment = DMA_PDATAALIGN_WORD;
 8000ccc:	f44f 5880 	mov.w	r8, #4096	; 0x1000
    hdma_sdio_rx.Init.MemDataAlignment = DMA_MDATAALIGN_WORD;
 8000cd0:	f44f 4e80 	mov.w	lr, #16384	; 0x4000
    hdma_sdio_rx.Init.Mode = DMA_PFCTRL;
 8000cd4:	f04f 0c20 	mov.w	ip, #32
    hdma_sdio_rx.Init.MemBurst = DMA_MBURST_INC4;
 8000cd8:	f44f 0100 	mov.w	r1, #8388608	; 0x800000
    hdma_sdio_rx.Init.PeriphBurst = DMA_PBURST_INC4;
 8000cdc:	f44f 1200 	mov.w	r2, #2097152	; 0x200000
    hdma_sdio_rx.Instance = DMA2_Stream3;
 8000ce0:	4c1a      	ldr	r4, [pc, #104]	; (8000d4c <HAL_SD_MspInit+0x170>)
    __HAL_LINKDMA(hsd,hdmatx,hdma_sdio_tx);
 8000ce2:	63f5      	str	r5, [r6, #60]	; 0x3c
 8000ce4:	63ae      	str	r6, [r5, #56]	; 0x38
    hdma_sdio_rx.Instance = DMA2_Stream3;
 8000ce6:	4d1a      	ldr	r5, [pc, #104]	; (8000d50 <HAL_SD_MspInit+0x174>)
    hdma_sdio_rx.Init.FIFOThreshold = DMA_FIFO_THRESHOLD_FULL;
 8000ce8:	e9c4 7009 	strd	r7, r0, [r4, #36]	; 0x24
    if (HAL_DMA_Init(&hdma_sdio_rx) != HAL_OK)
 8000cec:	4620      	mov	r0, r4
    hdma_sdio_rx.Init.Channel = DMA_CHANNEL_4;
 8000cee:	f8c4 a004 	str.w	sl, [r4, #4]
    hdma_sdio_rx.Init.MemInc = DMA_MINC_ENABLE;
 8000cf2:	f8c4 9010 	str.w	r9, [r4, #16]
    hdma_sdio_rx.Instance = DMA2_Stream3;
 8000cf6:	6025      	str	r5, [r4, #0]
    hdma_sdio_rx.Init.MemDataAlignment = DMA_MDATAALIGN_WORD;
 8000cf8:	e9c4 8e05 	strd	r8, lr, [r4, #20]
    hdma_sdio_rx.Init.Mode = DMA_PFCTRL;
 8000cfc:	f8c4 c01c 	str.w	ip, [r4, #28]
    hdma_sdio_rx.Init.PeriphBurst = DMA_PBURST_INC4;
 8000d00:	e9c4 120b 	strd	r1, r2, [r4, #44]	; 0x2c
    hdma_sdio_rx.Init.PeriphInc = DMA_PINC_DISABLE;
 8000d04:	e9c4 3302 	strd	r3, r3, [r4, #8]
    hdma_sdio_rx.Init.Priority = DMA_PRIORITY_LOW;
 8000d08:	6223      	str	r3, [r4, #32]
    if (HAL_DMA_Init(&hdma_sdio_rx) != HAL_OK)
 8000d0a:	f000 f9e5 	bl	80010d8 <HAL_DMA_Init>
 8000d0e:	b978      	cbnz	r0, 8000d30 <HAL_SD_MspInit+0x154>
    HAL_NVIC_SetPriority(SDIO_IRQn, 5, 0);
 8000d10:	2200      	movs	r2, #0
 8000d12:	2105      	movs	r1, #5
    __HAL_LINKDMA(hsd,hdmarx,hdma_sdio_rx);
 8000d14:	6434      	str	r4, [r6, #64]	; 0x40
    HAL_NVIC_SetPriority(SDIO_IRQn, 5, 0);
 8000d16:	2031      	movs	r0, #49	; 0x31
    __HAL_LINKDMA(hsd,hdmarx,hdma_sdio_rx);
 8000d18:	63a6      	str	r6, [r4, #56]	; 0x38
    HAL_NVIC_SetPriority(SDIO_IRQn, 5, 0);
 8000d1a:	f000 f999 	bl	8001050 <HAL_NVIC_SetPriority>
    HAL_NVIC_EnableIRQ(SDIO_IRQn);
 8000d1e:	2031      	movs	r0, #49	; 0x31
 8000d20:	f000 f9cc 	bl	80010bc <HAL_NVIC_EnableIRQ>
}
 8000d24:	b008      	add	sp, #32
 8000d26:	e8bd 87f0 	ldmia.w	sp!, {r4, r5, r6, r7, r8, r9, sl, pc}
      Error_Handler();
 8000d2a:	f7ff fd45 	bl	80007b8 <Error_Handler>
 8000d2e:	e7c6      	b.n	8000cbe <HAL_SD_MspInit+0xe2>
      Error_Handler();
 8000d30:	f7ff fd42 	bl	80007b8 <Error_Handler>
 8000d34:	e7ec      	b.n	8000d10 <HAL_SD_MspInit+0x134>
 8000d36:	bf00      	nop
 8000d38:	40012c00 	.word	0x40012c00
 8000d3c:	40020800 	.word	0x40020800
 8000d40:	40020c00 	.word	0x40020c00
 8000d44:	20004510 	.word	0x20004510
 8000d48:	400264a0 	.word	0x400264a0
 8000d4c:	20003e1c 	.word	0x20003e1c
 8000d50:	40026458 	.word	0x40026458

08000d54 <HAL_UART_MspInit>:
* @param huart: UART handle pointer
* @retval None
*/
void HAL_UART_MspInit(UART_HandleTypeDef* huart)
{
  GPIO_InitTypeDef GPIO_InitStruct = {0};
 8000d54:	2300      	movs	r3, #0
{
 8000d56:	b5f0      	push	{r4, r5, r6, r7, lr}
  if(huart->Instance==USART3)
 8000d58:	6801      	ldr	r1, [r0, #0]
 8000d5a:	4a18      	ldr	r2, [pc, #96]	; (8000dbc <HAL_UART_MspInit+0x68>)
{
 8000d5c:	b089      	sub	sp, #36	; 0x24
  if(huart->Instance==USART3)
 8000d5e:	4291      	cmp	r1, r2
  GPIO_InitTypeDef GPIO_InitStruct = {0};
 8000d60:	e9cd 3303 	strd	r3, r3, [sp, #12]
 8000d64:	e9cd 3305 	strd	r3, r3, [sp, #20]
 8000d68:	9307      	str	r3, [sp, #28]
  if(huart->Instance==USART3)
 8000d6a:	d001      	beq.n	8000d70 <HAL_UART_MspInit+0x1c>
  /* USER CODE BEGIN USART3_MspInit 1 */

  /* USER CODE END USART3_MspInit 1 */
  }

}
 8000d6c:	b009      	add	sp, #36	; 0x24
 8000d6e:	bdf0      	pop	{r4, r5, r6, r7, pc}
    GPIO_InitStruct.Pin = STLK_RX_Pin|STLK_TX_Pin;
 8000d70:	f44f 7740 	mov.w	r7, #768	; 0x300
    GPIO_InitStruct.Mode = GPIO_MODE_AF_PP;
 8000d74:	2602      	movs	r6, #2
    GPIO_InitStruct.Speed = GPIO_SPEED_FREQ_VERY_HIGH;
 8000d76:	2503      	movs	r5, #3
    GPIO_InitStruct.Alternate = GPIO_AF7_USART3;
 8000d78:	2407      	movs	r4, #7
    __HAL_RCC_USART3_CLK_ENABLE();
 8000d7a:	9301      	str	r3, [sp, #4]
 8000d7c:	f502 32f8 	add.w	r2, r2, #126976	; 0x1f000
 8000d80:	6c10      	ldr	r0, [r2, #64]	; 0x40
    HAL_GPIO_Init(GPIOD, &GPIO_InitStruct);
 8000d82:	a903      	add	r1, sp, #12
    __HAL_RCC_USART3_CLK_ENABLE();
 8000d84:	f440 2080 	orr.w	r0, r0, #262144	; 0x40000
 8000d88:	6410      	str	r0, [r2, #64]	; 0x40
 8000d8a:	6c10      	ldr	r0, [r2, #64]	; 0x40
 8000d8c:	f400 2080 	and.w	r0, r0, #262144	; 0x40000
 8000d90:	9001      	str	r0, [sp, #4]
 8000d92:	9801      	ldr	r0, [sp, #4]
    __HAL_RCC_GPIOD_CLK_ENABLE();
 8000d94:	9302      	str	r3, [sp, #8]
 8000d96:	6b13      	ldr	r3, [r2, #48]	; 0x30
    HAL_GPIO_Init(GPIOD, &GPIO_InitStruct);
 8000d98:	4809      	ldr	r0, [pc, #36]	; (8000dc0 <HAL_UART_MspInit+0x6c>)
    __HAL_RCC_GPIOD_CLK_ENABLE();
 8000d9a:	f043 0308 	orr.w	r3, r3, #8
 8000d9e:	6313      	str	r3, [r2, #48]	; 0x30
 8000da0:	6b13      	ldr	r3, [r2, #48]	; 0x30
    GPIO_InitStruct.Pin = STLK_RX_Pin|STLK_TX_Pin;
 8000da2:	9703      	str	r7, [sp, #12]
    __HAL_RCC_GPIOD_CLK_ENABLE();
 8000da4:	f003 0308 	and.w	r3, r3, #8
 8000da8:	9302      	str	r3, [sp, #8]
 8000daa:	9b02      	ldr	r3, [sp, #8]
    GPIO_InitStruct.Mode = GPIO_MODE_AF_PP;
 8000dac:	9604      	str	r6, [sp, #16]
    GPIO_InitStruct.Alternate = GPIO_AF7_USART3;
 8000dae:	e9cd 5406 	strd	r5, r4, [sp, #24]
    HAL_GPIO_Init(GPIOD, &GPIO_InitStruct);
 8000db2:	f000 fb17 	bl	80013e4 <HAL_GPIO_Init>
}
 8000db6:	b009      	add	sp, #36	; 0x24
 8000db8:	bdf0      	pop	{r4, r5, r6, r7, pc}
 8000dba:	bf00      	nop
 8000dbc:	40004800 	.word	0x40004800
 8000dc0:	40020c00 	.word	0x40020c00

08000dc4 <HAL_InitTick>:
  *         reset by HAL_Init() or at any time when clock is configured, by HAL_RCC_ClockConfig().
  * @param  TickPriority: Tick interrupt priority.
  * @retval HAL status
  */
HAL_StatusTypeDef HAL_InitTick(uint32_t TickPriority)
{
 8000dc4:	b530      	push	{r4, r5, lr}
  HAL_NVIC_SetPriority(TIM1_BRK_TIM9_IRQn, TickPriority ,0);

  /* Enable the TIM9 global Interrupt */
  HAL_NVIC_EnableIRQ(TIM1_BRK_TIM9_IRQn);
  /* Enable TIM9 clock */
  __HAL_RCC_TIM9_CLK_ENABLE();
 8000dc6:	2500      	movs	r5, #0
{
 8000dc8:	b089      	sub	sp, #36	; 0x24
  HAL_NVIC_SetPriority(TIM1_BRK_TIM9_IRQn, TickPriority ,0);
 8000dca:	4601      	mov	r1, r0
 8000dcc:	462a      	mov	r2, r5
 8000dce:	2018      	movs	r0, #24
 8000dd0:	f000 f93e 	bl	8001050 <HAL_NVIC_SetPriority>
  HAL_NVIC_EnableIRQ(TIM1_BRK_TIM9_IRQn);
 8000dd4:	2018      	movs	r0, #24
 8000dd6:	f000 f971 	bl	80010bc <HAL_NVIC_EnableIRQ>
  __HAL_RCC_TIM9_CLK_ENABLE();
 8000dda:	4b16      	ldr	r3, [pc, #88]	; (8000e34 <HAL_InitTick+0x70>)
 8000ddc:	9502      	str	r5, [sp, #8]
 8000dde:	6c5a      	ldr	r2, [r3, #68]	; 0x44

  /* Get clock configuration */
  HAL_RCC_GetClockConfig(&clkconfig, &pFLatency);
 8000de0:	a901      	add	r1, sp, #4
  __HAL_RCC_TIM9_CLK_ENABLE();
 8000de2:	f442 3280 	orr.w	r2, r2, #65536	; 0x10000
 8000de6:	645a      	str	r2, [r3, #68]	; 0x44
 8000de8:	6c5b      	ldr	r3, [r3, #68]	; 0x44
  HAL_RCC_GetClockConfig(&clkconfig, &pFLatency);
 8000dea:	a803      	add	r0, sp, #12
  __HAL_RCC_TIM9_CLK_ENABLE();
 8000dec:	f403 3380 	and.w	r3, r3, #65536	; 0x10000
 8000df0:	9302      	str	r3, [sp, #8]
 8000df2:	9b02      	ldr	r3, [sp, #8]
  HAL_RCC_GetClockConfig(&clkconfig, &pFLatency);
 8000df4:	f000 fed4 	bl	8001ba0 <HAL_RCC_GetClockConfig>

  /* Compute TIM9 clock */
  uwTimclock = 2*HAL_RCC_GetPCLK2Freq();
 8000df8:	f000 feba 	bl	8001b70 <HAL_RCC_GetPCLK2Freq>
  + Period = [(TIM9CLK/1000) - 1]. to have a (1/1000) s time base.
  + Prescaler = (uwTimclock/1000000 - 1) to have a 1MHz counter clock.
  + ClockDivision = 0
  + Counter direction = Up
  */
  htim9.Init.Period = (1000000U / 1000U) - 1U;
 8000dfc:	f240 32e7 	movw	r2, #999	; 0x3e7
  uwPrescalerValue = (uint32_t) ((uwTimclock / 1000000U) - 1U);
 8000e00:	490d      	ldr	r1, [pc, #52]	; (8000e38 <HAL_InitTick+0x74>)
  uwTimclock = 2*HAL_RCC_GetPCLK2Freq();
 8000e02:	0043      	lsls	r3, r0, #1
  uwPrescalerValue = (uint32_t) ((uwTimclock / 1000000U) - 1U);
 8000e04:	fba1 1303 	umull	r1, r3, r1, r3
  htim9.Instance = TIM9;
 8000e08:	4c0c      	ldr	r4, [pc, #48]	; (8000e3c <HAL_InitTick+0x78>)
  uwPrescalerValue = (uint32_t) ((uwTimclock / 1000000U) - 1U);
 8000e0a:	0c9b      	lsrs	r3, r3, #18
  htim9.Instance = TIM9;
 8000e0c:	490c      	ldr	r1, [pc, #48]	; (8000e40 <HAL_InitTick+0x7c>)
  uwPrescalerValue = (uint32_t) ((uwTimclock / 1000000U) - 1U);
 8000e0e:	3b01      	subs	r3, #1
  htim9.Init.Prescaler = uwPrescalerValue;
  htim9.Init.ClockDivision = 0;
  htim9.Init.CounterMode = TIM_COUNTERMODE_UP;
  if(HAL_TIM_Base_Init(&htim9) == HAL_OK)
 8000e10:	4620      	mov	r0, r4
  htim9.Init.Prescaler = uwPrescalerValue;
 8000e12:	6063      	str	r3, [r4, #4]
  htim9.Init.ClockDivision = 0;
 8000e14:	6125      	str	r5, [r4, #16]
  htim9.Init.CounterMode = TIM_COUNTERMODE_UP;
 8000e16:	60a5      	str	r5, [r4, #8]
  htim9.Instance = TIM9;
 8000e18:	6021      	str	r1, [r4, #0]
  htim9.Init.Period = (1000000U / 1000U) - 1U;
 8000e1a:	60e2      	str	r2, [r4, #12]
  if(HAL_TIM_Base_Init(&htim9) == HAL_OK)
 8000e1c:	f001 fdb0 	bl	8002980 <HAL_TIM_Base_Init>
 8000e20:	b110      	cbz	r0, 8000e28 <HAL_InitTick+0x64>
    /* Start the TIM time Base generation in interrupt mode */
    return HAL_TIM_Base_Start_IT(&htim9);
  }

  /* Return function status */
  return HAL_ERROR;
 8000e22:	2001      	movs	r0, #1
}
 8000e24:	b009      	add	sp, #36	; 0x24
 8000e26:	bd30      	pop	{r4, r5, pc}
    return HAL_TIM_Base_Start_IT(&htim9);
 8000e28:	4620      	mov	r0, r4
 8000e2a:	f001 fe3d 	bl	8002aa8 <HAL_TIM_Base_Start_IT>
}
 8000e2e:	b009      	add	sp, #36	; 0x24
 8000e30:	bd30      	pop	{r4, r5, pc}
 8000e32:	bf00      	nop
 8000e34:	40023800 	.word	0x40023800
 8000e38:	431bde83 	.word	0x431bde83
 8000e3c:	20004860 	.word	0x20004860
 8000e40:	40014000 	.word	0x40014000

08000e44 <NMI_Handler>:

	/* USER CODE END NonMaskableInt_IRQn 0 */
	/* USER CODE BEGIN NonMaskableInt_IRQn 1 */

	/* USER CODE END NonMaskableInt_IRQn 1 */
}
 8000e44:	4770      	bx	lr
 8000e46:	bf00      	nop

08000e48 <HardFault_Handler>:

/**
 * @brief This function handles Hard fault interrupt.
 */
void HardFault_Handler(void)
{
 8000e48:	e7fe      	b.n	8000e48 <HardFault_Handler>
 8000e4a:	bf00      	nop

08000e4c <MemManage_Handler>:

/**
 * @brief This function handles Memory management fault.
 */
void MemManage_Handler(void)
{
 8000e4c:	e7fe      	b.n	8000e4c <MemManage_Handler>
 8000e4e:	bf00      	nop

08000e50 <BusFault_Handler>:

/**
 * @brief This function handles Pre-fetch fault, memory access fault.
 */
void BusFault_Handler(void)
{
 8000e50:	e7fe      	b.n	8000e50 <BusFault_Handler>
 8000e52:	bf00      	nop

08000e54 <UsageFault_Handler>:

/**
 * @brief This function handles Undefined instruction or illegal state.
 */
void UsageFault_Handler(void)
{
 8000e54:	e7fe      	b.n	8000e54 <UsageFault_Handler>
 8000e56:	bf00      	nop

08000e58 <DebugMon_Handler>:
 8000e58:	4770      	bx	lr
 8000e5a:	bf00      	nop

08000e5c <EXTI9_5_IRQHandler>:

/**
 * @brief This function handles EXTI line[9:5] interrupts.
 */
void EXTI9_5_IRQHandler(void)
{
 8000e5c:	b508      	push	{r3, lr}
	/* USER CODE BEGIN EXTI9_5_IRQn 0 */

	/* USER CODE END EXTI9_5_IRQn 0 */
	HAL_GPIO_EXTI_IRQHandler(GPIO_PIN_6);
 8000e5e:	2040      	movs	r0, #64	; 0x40
 8000e60:	f000 fbd2 	bl	8001608 <HAL_GPIO_EXTI_IRQHandler>
	HAL_GPIO_EXTI_IRQHandler(GPIO_PIN_7);
	/* USER CODE BEGIN EXTI9_5_IRQn 1 */

	/* USER CODE END EXTI9_5_IRQn 1 */
}
 8000e64:	e8bd 4008 	ldmia.w	sp!, {r3, lr}
	HAL_GPIO_EXTI_IRQHandler(GPIO_PIN_7);
 8000e68:	2080      	movs	r0, #128	; 0x80
 8000e6a:	f000 bbcd 	b.w	8001608 <HAL_GPIO_EXTI_IRQHandler>
 8000e6e:	bf00      	nop

08000e70 <TIM1_BRK_TIM9_IRQHandler>:
void TIM1_BRK_TIM9_IRQHandler(void)
{
	/* USER CODE BEGIN TIM1_BRK_TIM9_IRQn 0 */

	/* USER CODE END TIM1_BRK_TIM9_IRQn 0 */
	HAL_TIM_IRQHandler(&htim9);
 8000e70:	4801      	ldr	r0, [pc, #4]	; (8000e78 <TIM1_BRK_TIM9_IRQHandler+0x8>)
 8000e72:	f001 be5d 	b.w	8002b30 <HAL_TIM_IRQHandler>
 8000e76:	bf00      	nop
 8000e78:	20004860 	.word	0x20004860

08000e7c <EXTI15_10_IRQHandler>:

/**
 * @brief This function handles EXTI Line[15:10] interrupts.
 */
void EXTI15_10_IRQHandler(void)
{
 8000e7c:	b508      	push	{r3, lr}
	/* USER CODE BEGIN EXTI15_10_IRQn 0 */

	/* USER CODE END EXTI15_10_IRQn 0 */
	HAL_GPIO_EXTI_IRQHandler(GPIO_PIN_10);
 8000e7e:	f44f 6080 	mov.w	r0, #1024	; 0x400
 8000e82:	f000 fbc1 	bl	8001608 <HAL_GPIO_EXTI_IRQHandler>
	HAL_GPIO_EXTI_IRQHandler(GPIO_PIN_11);
 8000e86:	f44f 6000 	mov.w	r0, #2048	; 0x800
 8000e8a:	f000 fbbd 	bl	8001608 <HAL_GPIO_EXTI_IRQHandler>
	HAL_GPIO_EXTI_IRQHandler(GPIO_PIN_13);
 8000e8e:	f44f 5000 	mov.w	r0, #8192	; 0x2000
 8000e92:	f000 fbb9 	bl	8001608 <HAL_GPIO_EXTI_IRQHandler>
	HAL_GPIO_EXTI_IRQHandler(GPIO_PIN_14);
	/* USER CODE BEGIN EXTI15_10_IRQn 1 */

	/* USER CODE END EXTI15_10_IRQn 1 */
}
 8000e96:	e8bd 4008 	ldmia.w	sp!, {r3, lr}
	HAL_GPIO_EXTI_IRQHandler(GPIO_PIN_14);
 8000e9a:	f44f 4080 	mov.w	r0, #16384	; 0x4000
 8000e9e:	f000 bbb3 	b.w	8001608 <HAL_GPIO_EXTI_IRQHandler>
 8000ea2:	bf00      	nop

08000ea4 <SDIO_IRQHandler>:
void SDIO_IRQHandler(void)
{
	/* USER CODE BEGIN SDIO_IRQn 0 */

	/* USER CODE END SDIO_IRQn 0 */
	HAL_SD_IRQHandler(&hsd);
 8000ea4:	4801      	ldr	r0, [pc, #4]	; (8000eac <SDIO_IRQHandler+0x8>)
 8000ea6:	f001 b97d 	b.w	80021a4 <HAL_SD_IRQHandler>
 8000eaa:	bf00      	nop
 8000eac:	20004574 	.word	0x20004574

08000eb0 <DMA2_Stream3_IRQHandler>:
void DMA2_Stream3_IRQHandler(void)
{
	/* USER CODE BEGIN DMA2_Stream3_IRQn 0 */

	/* USER CODE END DMA2_Stream3_IRQn 0 */
	HAL_DMA_IRQHandler(&hdma_sdio_rx);
 8000eb0:	4801      	ldr	r0, [pc, #4]	; (8000eb8 <DMA2_Stream3_IRQHandler+0x8>)
 8000eb2:	f000 b9c1 	b.w	8001238 <HAL_DMA_IRQHandler>
 8000eb6:	bf00      	nop
 8000eb8:	20003e1c 	.word	0x20003e1c

08000ebc <DMA2_Stream6_IRQHandler>:
void DMA2_Stream6_IRQHandler(void)
{
	/* USER CODE BEGIN DMA2_Stream6_IRQn 0 */

	/* USER CODE END DMA2_Stream6_IRQn 0 */
	HAL_DMA_IRQHandler(&hdma_sdio_tx);
 8000ebc:	4801      	ldr	r0, [pc, #4]	; (8000ec4 <DMA2_Stream6_IRQHandler+0x8>)
 8000ebe:	f000 b9bb 	b.w	8001238 <HAL_DMA_IRQHandler>
 8000ec2:	bf00      	nop
 8000ec4:	20004510 	.word	0x20004510

08000ec8 <_sbrk>:
  const uint32_t stack_limit = (uint32_t)&_estack - (uint32_t)&_Min_Stack_Size;
  const uint8_t *max_heap = (uint8_t *)stack_limit;
  uint8_t *prev_heap_end;

  /* Initalize heap end at first call */
  if (NULL == __sbrk_heap_end)
 8000ec8:	490d      	ldr	r1, [pc, #52]	; (8000f00 <_sbrk+0x38>)
{
 8000eca:	b510      	push	{r4, lr}
  const uint32_t stack_limit = (uint32_t)&_estack - (uint32_t)&_Min_Stack_Size;
 8000ecc:	4a0d      	ldr	r2, [pc, #52]	; (8000f04 <_sbrk+0x3c>)
 8000ece:	4c0e      	ldr	r4, [pc, #56]	; (8000f08 <_sbrk+0x40>)
  if (NULL == __sbrk_heap_end)
 8000ed0:	680b      	ldr	r3, [r1, #0]
  const uint32_t stack_limit = (uint32_t)&_estack - (uint32_t)&_Min_Stack_Size;
 8000ed2:	1b12      	subs	r2, r2, r4
  if (NULL == __sbrk_heap_end)
 8000ed4:	b12b      	cbz	r3, 8000ee2 <_sbrk+0x1a>
  {
    __sbrk_heap_end = &_end;
  }

  /* Protect heap from growing into the reserved MSP stack */
  if (__sbrk_heap_end + incr > max_heap)
 8000ed6:	4418      	add	r0, r3
 8000ed8:	4290      	cmp	r0, r2
 8000eda:	d808      	bhi.n	8000eee <_sbrk+0x26>
    errno = ENOMEM;
    return (void *)-1;
  }

  prev_heap_end = __sbrk_heap_end;
  __sbrk_heap_end += incr;
 8000edc:	6008      	str	r0, [r1, #0]

  return (void *)prev_heap_end;
}
 8000ede:	4618      	mov	r0, r3
 8000ee0:	bd10      	pop	{r4, pc}
    __sbrk_heap_end = &_end;
 8000ee2:	4c0a      	ldr	r4, [pc, #40]	; (8000f0c <_sbrk+0x44>)
 8000ee4:	4623      	mov	r3, r4
  if (__sbrk_heap_end + incr > max_heap)
 8000ee6:	4418      	add	r0, r3
 8000ee8:	4290      	cmp	r0, r2
    __sbrk_heap_end = &_end;
 8000eea:	600c      	str	r4, [r1, #0]
  if (__sbrk_heap_end + incr > max_heap)
 8000eec:	d9f6      	bls.n	8000edc <_sbrk+0x14>
    errno = ENOMEM;
 8000eee:	f008 fc5f 	bl	80097b0 <__errno>
 8000ef2:	220c      	movs	r2, #12
    return (void *)-1;
 8000ef4:	f04f 33ff 	mov.w	r3, #4294967295
    errno = ENOMEM;
 8000ef8:	6002      	str	r2, [r0, #0]
}
 8000efa:	4618      	mov	r0, r3
 8000efc:	bd10      	pop	{r4, pc}
 8000efe:	bf00      	nop
 8000f00:	20000094 	.word	0x20000094
 8000f04:	20020000 	.word	0x20020000
 8000f08:	00001000 	.word	0x00001000
 8000f0c:	20004d58 	.word	0x20004d58

08000f10 <SystemInit>:
  /* Reset the RCC clock configuration to the default reset state ------------*/
  /* Set HSION bit */
  RCC->CR |= (uint32_t)0x00000001;

  /* Reset CFGR register */
  RCC->CFGR = 0x00000000;
 8000f10:	2100      	movs	r1, #0
{
 8000f12:	b430      	push	{r4, r5}

  /* Configure the Vector Table location add offset address ------------------*/
#ifdef VECT_TAB_SRAM
  SCB->VTOR = SRAM_BASE | VECT_TAB_OFFSET; /* Vector Table Relocation in Internal SRAM */
#else
  SCB->VTOR = FLASH_BASE | VECT_TAB_OFFSET; /* Vector Table Relocation in Internal FLASH */
 8000f14:	f04f 6400 	mov.w	r4, #134217728	; 0x8000000
  RCC->CR |= (uint32_t)0x00000001;
 8000f18:	4b0b      	ldr	r3, [pc, #44]	; (8000f48 <SystemInit+0x38>)
  RCC->PLLCFGR = 0x24003010;
 8000f1a:	4d0c      	ldr	r5, [pc, #48]	; (8000f4c <SystemInit+0x3c>)
  RCC->CR |= (uint32_t)0x00000001;
 8000f1c:	681a      	ldr	r2, [r3, #0]
  SCB->VTOR = FLASH_BASE | VECT_TAB_OFFSET; /* Vector Table Relocation in Internal FLASH */
 8000f1e:	480c      	ldr	r0, [pc, #48]	; (8000f50 <SystemInit+0x40>)
  RCC->CR |= (uint32_t)0x00000001;
 8000f20:	f042 0201 	orr.w	r2, r2, #1
 8000f24:	601a      	str	r2, [r3, #0]
  RCC->CFGR = 0x00000000;
 8000f26:	6099      	str	r1, [r3, #8]
  RCC->CR &= (uint32_t)0xFEF6FFFF;
 8000f28:	681a      	ldr	r2, [r3, #0]
 8000f2a:	f022 7284 	bic.w	r2, r2, #17301504	; 0x1080000
 8000f2e:	f422 3280 	bic.w	r2, r2, #65536	; 0x10000
 8000f32:	601a      	str	r2, [r3, #0]
  RCC->PLLCFGR = 0x24003010;
 8000f34:	605d      	str	r5, [r3, #4]
  RCC->CR &= (uint32_t)0xFFFBFFFF;
 8000f36:	681a      	ldr	r2, [r3, #0]
 8000f38:	f422 2280 	bic.w	r2, r2, #262144	; 0x40000
 8000f3c:	601a      	str	r2, [r3, #0]
  RCC->CIR = 0x00000000;
 8000f3e:	60d9      	str	r1, [r3, #12]
  SCB->VTOR = FLASH_BASE | VECT_TAB_OFFSET; /* Vector Table Relocation in Internal FLASH */
 8000f40:	6084      	str	r4, [r0, #8]
#endif
}
 8000f42:	bc30      	pop	{r4, r5}
 8000f44:	4770      	bx	lr
 8000f46:	bf00      	nop
 8000f48:	40023800 	.word	0x40023800
 8000f4c:	24003010 	.word	0x24003010
 8000f50:	e000ed00 	.word	0xe000ed00

08000f54 <Reset_Handler>:

    .section  .text.Reset_Handler
  .weak  Reset_Handler
  .type  Reset_Handler, %function
Reset_Handler:  
  ldr   sp, =_estack     /* set stack pointer */
 8000f54:	f8df d034 	ldr.w	sp, [pc, #52]	; 8000f8c <LoopFillZerobss+0x14>

/* Copy the data segment initializers from flash to SRAM */
  movs  r1, #0
 8000f58:	2100      	movs	r1, #0
  b  LoopCopyDataInit
 8000f5a:	e003      	b.n	8000f64 <LoopCopyDataInit>

08000f5c <CopyDataInit>:

CopyDataInit:
  ldr  r3, =_sidata
 8000f5c:	4b0c      	ldr	r3, [pc, #48]	; (8000f90 <LoopFillZerobss+0x18>)
  ldr  r3, [r3, r1]
 8000f5e:	585b      	ldr	r3, [r3, r1]
  str  r3, [r0, r1]
 8000f60:	5043      	str	r3, [r0, r1]
  adds  r1, r1, #4
 8000f62:	3104      	adds	r1, #4

08000f64 <LoopCopyDataInit>:

LoopCopyDataInit:
  ldr  r0, =_sdata
 8000f64:	480b      	ldr	r0, [pc, #44]	; (8000f94 <LoopFillZerobss+0x1c>)
  ldr  r3, =_edata
 8000f66:	4b0c      	ldr	r3, [pc, #48]	; (8000f98 <LoopFillZerobss+0x20>)
  adds  r2, r0, r1
 8000f68:	1842      	adds	r2, r0, r1
  cmp  r2, r3
 8000f6a:	429a      	cmp	r2, r3
  bcc  CopyDataInit
 8000f6c:	d3f6      	bcc.n	8000f5c <CopyDataInit>
  ldr  r2, =_sbss
 8000f6e:	4a0b      	ldr	r2, [pc, #44]	; (8000f9c <LoopFillZerobss+0x24>)
  b  LoopFillZerobss
 8000f70:	e002      	b.n	8000f78 <LoopFillZerobss>

08000f72 <FillZerobss>:
/* Zero fill the bss segment. */
FillZerobss:
  movs  r3, #0
 8000f72:	2300      	movs	r3, #0
  str  r3, [r2], #4
 8000f74:	f842 3b04 	str.w	r3, [r2], #4

08000f78 <LoopFillZerobss>:

LoopFillZerobss:
  ldr  r3, = _ebss
 8000f78:	4b09      	ldr	r3, [pc, #36]	; (8000fa0 <LoopFillZerobss+0x28>)
  cmp  r2, r3
 8000f7a:	429a      	cmp	r2, r3
  bcc  FillZerobss
 8000f7c:	d3f9      	bcc.n	8000f72 <FillZerobss>

/* Call the clock system initialization function.*/
  bl  SystemInit
 8000f7e:	f7ff ffc7 	bl	8000f10 <SystemInit>
/* Call static constructors */
    bl __libc_init_array
 8000f82:	f008 fc1b 	bl	80097bc <__libc_init_array>
/* Call the application's entry point.*/
  bl  main
 8000f86:	f7ff fc2d 	bl	80007e4 <main>
  bx  lr
 8000f8a:	4770      	bx	lr
  ldr   sp, =_estack     /* set stack pointer */
 8000f8c:	20020000 	.word	0x20020000
  ldr  r3, =_sidata
 8000f90:	0802b3a4 	.word	0x0802b3a4
  ldr  r0, =_sdata
 8000f94:	20000000 	.word	0x20000000
  ldr  r3, =_edata
 8000f98:	20000078 	.word	0x20000078
  ldr  r2, =_sbss
 8000f9c:	20000078 	.word	0x20000078
  ldr  r3, = _ebss
 8000fa0:	20004d54 	.word	0x20004d54

08000fa4 <ADC_IRQHandler>:
 * @retval None       
*/
    .section  .text.Default_Handler,"ax",%progbits
Default_Handler:
Infinite_Loop:
  b  Infinite_Loop
 8000fa4:	e7fe      	b.n	8000fa4 <ADC_IRQHandler>
	...

08000fa8 <HAL_Init>:
  *         need to ensure that the SysTick time base is always set to 1 millisecond
  *         to have correct HAL operation.
  * @retval HAL status
  */
HAL_StatusTypeDef HAL_Init(void)
{
 8000fa8:	b508      	push	{r3, lr}
  /* Configure Flash prefetch, Instruction cache, Data cache */ 
#if (INSTRUCTION_CACHE_ENABLE != 0U)
   __HAL_FLASH_INSTRUCTION_CACHE_ENABLE();
 8000faa:	4b0b      	ldr	r3, [pc, #44]	; (8000fd8 <HAL_Init+0x30>)
#if (PREFETCH_ENABLE != 0U)
  __HAL_FLASH_PREFETCH_BUFFER_ENABLE();
#endif /* PREFETCH_ENABLE */

  /* Set Interrupt Group Priority */
  HAL_NVIC_SetPriorityGrouping(NVIC_PRIORITYGROUP_4);
 8000fac:	2003      	movs	r0, #3
   __HAL_FLASH_INSTRUCTION_CACHE_ENABLE();
 8000fae:	681a      	ldr	r2, [r3, #0]
 8000fb0:	f442 7200 	orr.w	r2, r2, #512	; 0x200
 8000fb4:	601a      	str	r2, [r3, #0]
   __HAL_FLASH_DATA_CACHE_ENABLE();
 8000fb6:	681a      	ldr	r2, [r3, #0]
 8000fb8:	f442 6280 	orr.w	r2, r2, #1024	; 0x400
 8000fbc:	601a      	str	r2, [r3, #0]
  __HAL_FLASH_PREFETCH_BUFFER_ENABLE();
 8000fbe:	681a      	ldr	r2, [r3, #0]
 8000fc0:	f442 7280 	orr.w	r2, r2, #256	; 0x100
 8000fc4:	601a      	str	r2, [r3, #0]
  HAL_NVIC_SetPriorityGrouping(NVIC_PRIORITYGROUP_4);
 8000fc6:	f000 f831 	bl	800102c <HAL_NVIC_SetPriorityGrouping>

  /* Use systick as time base source and configure 1ms tick (default clock after Reset is HSI) */
  HAL_InitTick(TICK_INT_PRIORITY);
 8000fca:	2000      	movs	r0, #0
 8000fcc:	f7ff fefa 	bl	8000dc4 <HAL_InitTick>
  
  /* Init the low level hardware */
  HAL_MspInit();
 8000fd0:	f7ff fde2 	bl	8000b98 <HAL_MspInit>
  
  /* Return function status */
  return HAL_OK;
}
 8000fd4:	2000      	movs	r0, #0
 8000fd6:	bd08      	pop	{r3, pc}
 8000fd8:	40023c00 	.word	0x40023c00

08000fdc <HAL_IncTick>:
  *      implementations in user file.
  * @retval None
  */
__weak void HAL_IncTick(void)
{
  uwTick += uwTickFreq;
 8000fdc:	4a03      	ldr	r2, [pc, #12]	; (8000fec <HAL_IncTick+0x10>)
 8000fde:	4b04      	ldr	r3, [pc, #16]	; (8000ff0 <HAL_IncTick+0x14>)
 8000fe0:	6811      	ldr	r1, [r2, #0]
 8000fe2:	781b      	ldrb	r3, [r3, #0]
 8000fe4:	440b      	add	r3, r1
 8000fe6:	6013      	str	r3, [r2, #0]
}
 8000fe8:	4770      	bx	lr
 8000fea:	bf00      	nop
 8000fec:	200048a8 	.word	0x200048a8
 8000ff0:	20000004 	.word	0x20000004

08000ff4 <HAL_GetTick>:
  *       implementations in user file.
  * @retval tick value
  */
__weak uint32_t HAL_GetTick(void)
{
  return uwTick;
 8000ff4:	4b01      	ldr	r3, [pc, #4]	; (8000ffc <HAL_GetTick+0x8>)
 8000ff6:	6818      	ldr	r0, [r3, #0]
}
 8000ff8:	4770      	bx	lr
 8000ffa:	bf00      	nop
 8000ffc:	200048a8 	.word	0x200048a8

08001000 <HAL_Delay>:
  *       implementations in user file.
  * @param  Delay specifies the delay time length, in milliseconds.
  * @retval None
  */
__weak void HAL_Delay(__IO uint32_t Delay)
{
 8001000:	b530      	push	{r4, r5, lr}
 8001002:	b083      	sub	sp, #12
 8001004:	9001      	str	r0, [sp, #4]
  uint32_t tickstart = HAL_GetTick();
 8001006:	f7ff fff5 	bl	8000ff4 <HAL_GetTick>
  uint32_t wait = Delay;
 800100a:	9c01      	ldr	r4, [sp, #4]
  uint32_t tickstart = HAL_GetTick();
 800100c:	4605      	mov	r5, r0

  /* Add a freq to guarantee minimum wait */
  if (wait < HAL_MAX_DELAY)
 800100e:	1c63      	adds	r3, r4, #1
 8001010:	d002      	beq.n	8001018 <HAL_Delay+0x18>
  {
    wait += (uint32_t)(uwTickFreq);
 8001012:	4b05      	ldr	r3, [pc, #20]	; (8001028 <HAL_Delay+0x28>)
 8001014:	781b      	ldrb	r3, [r3, #0]
 8001016:	441c      	add	r4, r3
  }

  while ((HAL_GetTick() - tickstart) < wait)
 8001018:	f7ff ffec 	bl	8000ff4 <HAL_GetTick>
 800101c:	1b40      	subs	r0, r0, r5
 800101e:	42a0      	cmp	r0, r4
 8001020:	d3fa      	bcc.n	8001018 <HAL_Delay+0x18>
  {
  }
}
 8001022:	b003      	add	sp, #12
 8001024:	bd30      	pop	{r4, r5, pc}
 8001026:	bf00      	nop
 8001028:	20000004 	.word	0x20000004

0800102c <HAL_NVIC_SetPriorityGrouping>:
{
  uint32_t reg_value;
  uint32_t PriorityGroupTmp = (PriorityGroup & (uint32_t)0x07UL);             /* only values 0..7 are used          */

  reg_value  =  SCB->AIRCR;                                                   /* read old register configuration    */
  reg_value &= ~((uint32_t)(SCB_AIRCR_VECTKEY_Msk | SCB_AIRCR_PRIGROUP_Msk)); /* clear bits to change               */
 800102c:	f64f 01ff 	movw	r1, #63743	; 0xf8ff
  reg_value  =  SCB->AIRCR;                                                   /* read old register configuration    */
 8001030:	4a06      	ldr	r2, [pc, #24]	; (800104c <HAL_NVIC_SetPriorityGrouping+0x20>)
  reg_value  =  (reg_value                                   |
                ((uint32_t)0x5FAUL << SCB_AIRCR_VECTKEY_Pos) |
                (PriorityGroupTmp << SCB_AIRCR_PRIGROUP_Pos) );               /* Insert write key and priority group */
 8001032:	0200      	lsls	r0, r0, #8
  reg_value  =  SCB->AIRCR;                                                   /* read old register configuration    */
 8001034:	68d3      	ldr	r3, [r2, #12]
                (PriorityGroupTmp << SCB_AIRCR_PRIGROUP_Pos) );               /* Insert write key and priority group */
 8001036:	f400 60e0 	and.w	r0, r0, #1792	; 0x700
  reg_value &= ~((uint32_t)(SCB_AIRCR_VECTKEY_Msk | SCB_AIRCR_PRIGROUP_Msk)); /* clear bits to change               */
 800103a:	400b      	ands	r3, r1
 800103c:	f043 63bf 	orr.w	r3, r3, #100139008	; 0x5f80000
 8001040:	f443 3300 	orr.w	r3, r3, #131072	; 0x20000
  reg_value  =  (reg_value                                   |
 8001044:	4303      	orrs	r3, r0
  SCB->AIRCR =  reg_value;
 8001046:	60d3      	str	r3, [r2, #12]
  /* Check the parameters */
  assert_param(IS_NVIC_PRIORITY_GROUP(PriorityGroup));
  
  /* Set the PRIGROUP[10:8] bits according to the PriorityGroup parameter value */
  NVIC_SetPriorityGrouping(PriorityGroup);
}
 8001048:	4770      	bx	lr
 800104a:	bf00      	nop
 800104c:	e000ed00 	.word	0xe000ed00

08001050 <HAL_NVIC_SetPriority>:
  \details Reads the priority grouping field from the NVIC Interrupt Controller.
  \return                Priority grouping field (SCB->AIRCR [10:8] PRIGROUP field).
 */
__STATIC_INLINE uint32_t __NVIC_GetPriorityGrouping(void)
{
  return ((uint32_t)((SCB->AIRCR & SCB_AIRCR_PRIGROUP_Msk) >> SCB_AIRCR_PRIGROUP_Pos));
 8001050:	4b18      	ldr	r3, [pc, #96]	; (80010b4 <HAL_NVIC_SetPriority+0x64>)
  *         This parameter can be a value between 0 and 15
  *         A lower priority value indicates a higher priority.          
  * @retval None
  */
void HAL_NVIC_SetPriority(IRQn_Type IRQn, uint32_t PreemptPriority, uint32_t SubPriority)
{ 
 8001052:	b430      	push	{r4, r5}
 8001054:	68db      	ldr	r3, [r3, #12]
 8001056:	f3c3 2302 	ubfx	r3, r3, #8, #3
{
  uint32_t PriorityGroupTmp = (PriorityGroup & (uint32_t)0x07UL);   /* only values 0..7 are used          */
  uint32_t PreemptPriorityBits;
  uint32_t SubPriorityBits;

  PreemptPriorityBits = ((7UL - PriorityGroupTmp) > (uint32_t)(__NVIC_PRIO_BITS)) ? (uint32_t)(__NVIC_PRIO_BITS) : (uint32_t)(7UL - PriorityGroupTmp);
 800105a:	f1c3 0507 	rsb	r5, r3, #7
 800105e:	2d04      	cmp	r5, #4
  SubPriorityBits     = ((PriorityGroupTmp + (uint32_t)(__NVIC_PRIO_BITS)) < (uint32_t)7UL) ? (uint32_t)0UL : (uint32_t)((PriorityGroupTmp - 7UL) + (uint32_t)(__NVIC_PRIO_BITS));
 8001060:	f103 0404 	add.w	r4, r3, #4
  PreemptPriorityBits = ((7UL - PriorityGroupTmp) > (uint32_t)(__NVIC_PRIO_BITS)) ? (uint32_t)(__NVIC_PRIO_BITS) : (uint32_t)(7UL - PriorityGroupTmp);
 8001064:	bf28      	it	cs
 8001066:	2504      	movcs	r5, #4
  SubPriorityBits     = ((PriorityGroupTmp + (uint32_t)(__NVIC_PRIO_BITS)) < (uint32_t)7UL) ? (uint32_t)0UL : (uint32_t)((PriorityGroupTmp - 7UL) + (uint32_t)(__NVIC_PRIO_BITS));
 8001068:	2c06      	cmp	r4, #6
 800106a:	d919      	bls.n	80010a0 <HAL_NVIC_SetPriority+0x50>
 800106c:	f04f 34ff 	mov.w	r4, #4294967295
 8001070:	3b03      	subs	r3, #3
 8001072:	409c      	lsls	r4, r3
 8001074:	ea22 0404 	bic.w	r4, r2, r4

  return (
           ((PreemptPriority & (uint32_t)((1UL << (PreemptPriorityBits)) - 1UL)) << SubPriorityBits) |
 8001078:	f04f 32ff 	mov.w	r2, #4294967295
 800107c:	40aa      	lsls	r2, r5
 800107e:	ea21 0102 	bic.w	r1, r1, r2
 8001082:	fa01 f203 	lsl.w	r2, r1, r3
 8001086:	4322      	orrs	r2, r4
 8001088:	0112      	lsls	r2, r2, #4
  if ((int32_t)(IRQn) >= 0)
 800108a:	2800      	cmp	r0, #0
 800108c:	b2d2      	uxtb	r2, r2
 800108e:	db0a      	blt.n	80010a6 <HAL_NVIC_SetPriority+0x56>
    NVIC->IP[((uint32_t)IRQn)]               = (uint8_t)((priority << (8U - __NVIC_PRIO_BITS)) & (uint32_t)0xFFUL);
 8001090:	f100 4060 	add.w	r0, r0, #3758096384	; 0xe0000000
 8001094:	f500 4061 	add.w	r0, r0, #57600	; 0xe100
 8001098:	f880 2300 	strb.w	r2, [r0, #768]	; 0x300
  assert_param(IS_NVIC_PREEMPTION_PRIORITY(PreemptPriority));
  
  prioritygroup = NVIC_GetPriorityGrouping();
  
  NVIC_SetPriority(IRQn, NVIC_EncodePriority(prioritygroup, PreemptPriority, SubPriority));
}
 800109c:	bc30      	pop	{r4, r5}
 800109e:	4770      	bx	lr
  SubPriorityBits     = ((PriorityGroupTmp + (uint32_t)(__NVIC_PRIO_BITS)) < (uint32_t)7UL) ? (uint32_t)0UL : (uint32_t)((PriorityGroupTmp - 7UL) + (uint32_t)(__NVIC_PRIO_BITS));
 80010a0:	2400      	movs	r4, #0
 80010a2:	4623      	mov	r3, r4
 80010a4:	e7e8      	b.n	8001078 <HAL_NVIC_SetPriority+0x28>
    SCB->SHP[(((uint32_t)IRQn) & 0xFUL)-4UL] = (uint8_t)((priority << (8U - __NVIC_PRIO_BITS)) & (uint32_t)0xFFUL);
 80010a6:	4b04      	ldr	r3, [pc, #16]	; (80010b8 <HAL_NVIC_SetPriority+0x68>)
 80010a8:	f000 000f 	and.w	r0, r0, #15
 80010ac:	4403      	add	r3, r0
 80010ae:	761a      	strb	r2, [r3, #24]
 80010b0:	bc30      	pop	{r4, r5}
 80010b2:	4770      	bx	lr
 80010b4:	e000ed00 	.word	0xe000ed00
 80010b8:	e000ecfc 	.word	0xe000ecfc

080010bc <HAL_NVIC_EnableIRQ>:
  if ((int32_t)(IRQn) >= 0)
 80010bc:	2800      	cmp	r0, #0
 80010be:	db07      	blt.n	80010d0 <HAL_NVIC_EnableIRQ+0x14>
    NVIC->ISER[(((uint32_t)IRQn) >> 5UL)] = (uint32_t)(1UL << (((uint32_t)IRQn) & 0x1FUL));
 80010c0:	2301      	movs	r3, #1
 80010c2:	f000 011f 	and.w	r1, r0, #31
 80010c6:	4a03      	ldr	r2, [pc, #12]	; (80010d4 <HAL_NVIC_EnableIRQ+0x18>)
 80010c8:	408b      	lsls	r3, r1
 80010ca:	0940      	lsrs	r0, r0, #5
 80010cc:	f842 3020 	str.w	r3, [r2, r0, lsl #2]
  /* Check the parameters */
  assert_param(IS_NVIC_DEVICE_IRQ(IRQn));
  
  /* Enable interrupt */
  NVIC_EnableIRQ(IRQn);
}
 80010d0:	4770      	bx	lr
 80010d2:	bf00      	nop
 80010d4:	e000e100 	.word	0xe000e100

080010d8 <HAL_DMA_Init>:
  * @param  hdma Pointer to a DMA_HandleTypeDef structure that contains
  *               the configuration information for the specified DMA Stream.  
  * @retval HAL status
  */
HAL_StatusTypeDef HAL_DMA_Init(DMA_HandleTypeDef *hdma)
{
 80010d8:	b5f8      	push	{r3, r4, r5, r6, r7, lr}
 80010da:	4604      	mov	r4, r0
  uint32_t tmp = 0U;
  uint32_t tickstart = HAL_GetTick();
 80010dc:	f7ff ff8a 	bl	8000ff4 <HAL_GetTick>
  DMA_Base_Registers *regs;

  /* Check the DMA peripheral state */
  if(hdma == NULL)
 80010e0:	2c00      	cmp	r4, #0
 80010e2:	d056      	beq.n	8001192 <HAL_DMA_Init+0xba>
  
  /* Allocate lock resource */
  __HAL_UNLOCK(hdma);

  /* Change DMA peripheral state */
  hdma->State = HAL_DMA_STATE_BUSY;
 80010e4:	2202      	movs	r2, #2
  __HAL_UNLOCK(hdma);
 80010e6:	2100      	movs	r1, #0
  
  /* Disable the peripheral */
  __HAL_DMA_DISABLE(hdma);
 80010e8:	6823      	ldr	r3, [r4, #0]
  hdma->State = HAL_DMA_STATE_BUSY;
 80010ea:	f884 2035 	strb.w	r2, [r4, #53]	; 0x35
  __HAL_DMA_DISABLE(hdma);
 80010ee:	681a      	ldr	r2, [r3, #0]
 80010f0:	4605      	mov	r5, r0
 80010f2:	f022 0201 	bic.w	r2, r2, #1
  __HAL_UNLOCK(hdma);
 80010f6:	f884 1034 	strb.w	r1, [r4, #52]	; 0x34
  __HAL_DMA_DISABLE(hdma);
 80010fa:	601a      	str	r2, [r3, #0]
  
  /* Check if the DMA Stream is effectively disabled */
  while((hdma->Instance->CR & DMA_SxCR_EN) != RESET)
 80010fc:	e005      	b.n	800110a <HAL_DMA_Init+0x32>
  {
    /* Check for the Timeout */
    if((HAL_GetTick() - tickstart ) > HAL_TIMEOUT_DMA_ABORT)
 80010fe:	f7ff ff79 	bl	8000ff4 <HAL_GetTick>
 8001102:	1b40      	subs	r0, r0, r5
 8001104:	2805      	cmp	r0, #5
 8001106:	d83d      	bhi.n	8001184 <HAL_DMA_Init+0xac>
 8001108:	6823      	ldr	r3, [r4, #0]
  while((hdma->Instance->CR & DMA_SxCR_EN) != RESET)
 800110a:	681a      	ldr	r2, [r3, #0]
 800110c:	07d1      	lsls	r1, r2, #31
 800110e:	d4f6      	bmi.n	80010fe <HAL_DMA_Init+0x26>
                      DMA_SxCR_PL    | DMA_SxCR_MSIZE  | DMA_SxCR_PSIZE  | \
                      DMA_SxCR_MINC  | DMA_SxCR_PINC   | DMA_SxCR_CIRC   | \
                      DMA_SxCR_DIR   | DMA_SxCR_CT     | DMA_SxCR_DBM));

  /* Prepare the DMA Stream configuration */
  tmp |=  hdma->Init.Channel             | hdma->Init.Direction        |
 8001110:	68e1      	ldr	r1, [r4, #12]
 8001112:	e9d4 2001 	ldrd	r2, r0, [r4, #4]
 8001116:	4302      	orrs	r2, r0
          hdma->Init.PeriphInc           | hdma->Init.MemInc           |
 8001118:	6920      	ldr	r0, [r4, #16]
  tmp |=  hdma->Init.Channel             | hdma->Init.Direction        |
 800111a:	430a      	orrs	r2, r1
          hdma->Init.PeriphInc           | hdma->Init.MemInc           |
 800111c:	6961      	ldr	r1, [r4, #20]
 800111e:	4302      	orrs	r2, r0
          hdma->Init.PeriphDataAlignment | hdma->Init.MemDataAlignment |
 8001120:	69a5      	ldr	r5, [r4, #24]
          hdma->Init.PeriphInc           | hdma->Init.MemInc           |
 8001122:	430a      	orrs	r2, r1
          hdma->Init.PeriphDataAlignment | hdma->Init.MemDataAlignment |
 8001124:	69e0      	ldr	r0, [r4, #28]
          hdma->Init.Mode                | hdma->Init.Priority;
 8001126:	6a21      	ldr	r1, [r4, #32]
          hdma->Init.PeriphDataAlignment | hdma->Init.MemDataAlignment |
 8001128:	432a      	orrs	r2, r5
 800112a:	4302      	orrs	r2, r0
          hdma->Init.Mode                | hdma->Init.Priority;
 800112c:	430a      	orrs	r2, r1
  tmp = hdma->Instance->CR;
 800112e:	681e      	ldr	r6, [r3, #0]
  tmp &= ((uint32_t)~(DMA_SxCR_CHSEL | DMA_SxCR_MBURST | DMA_SxCR_PBURST | \
 8001130:	4834      	ldr	r0, [pc, #208]	; (8001204 <HAL_DMA_Init+0x12c>)

  /* the Memory burst and peripheral burst are not used when the FIFO is disabled */
  if(hdma->Init.FIFOMode == DMA_FIFOMODE_ENABLE)
 8001132:	6a61      	ldr	r1, [r4, #36]	; 0x24
  tmp &= ((uint32_t)~(DMA_SxCR_CHSEL | DMA_SxCR_MBURST | DMA_SxCR_PBURST | \
 8001134:	4030      	ands	r0, r6
  if(hdma->Init.FIFOMode == DMA_FIFOMODE_ENABLE)
 8001136:	2904      	cmp	r1, #4
  tmp |=  hdma->Init.Channel             | hdma->Init.Direction        |
 8001138:	ea42 0200 	orr.w	r2, r2, r0
  if(hdma->Init.FIFOMode == DMA_FIFOMODE_ENABLE)
 800113c:	d02b      	beq.n	8001196 <HAL_DMA_Init+0xbe>
    /* Get memory burst and peripheral burst */
    tmp |=  hdma->Init.MemBurst | hdma->Init.PeriphBurst;
  }
  
  /* Write to DMA Stream CR register */
  hdma->Instance->CR = tmp;  
 800113e:	601a      	str	r2, [r3, #0]

  /* Get the FCR register value */
  tmp = hdma->Instance->FCR;
 8001140:	6958      	ldr	r0, [r3, #20]

  /* Clear Direct mode and FIFO threshold bits */
  tmp &= (uint32_t)~(DMA_SxFCR_DMDIS | DMA_SxFCR_FTH);
 8001142:	f020 0007 	bic.w	r0, r0, #7

  /* Prepare the DMA Stream FIFO configuration */
  tmp |= hdma->Init.FIFOMode;
 8001146:	4308      	orrs	r0, r1
  *                     the configuration information for the specified DMA Stream. 
  * @retval Stream base address
  */
static uint32_t DMA_CalcBaseAndBitshift(DMA_HandleTypeDef *hdma)
{
  uint32_t stream_number = (((uint32_t)hdma->Instance & 0xFFU) - 16U) / 24U;
 8001148:	b2da      	uxtb	r2, r3
 800114a:	492f      	ldr	r1, [pc, #188]	; (8001208 <HAL_DMA_Init+0x130>)
 800114c:	3a10      	subs	r2, #16
 800114e:	fba1 1202 	umull	r1, r2, r1, r2
  
  /* lookup table for necessary bitshift of flags within status registers */
  static const uint8_t flagBitshiftOffset[8U] = {0U, 6U, 16U, 22U, 0U, 6U, 16U, 22U};
  hdma->StreamIndex = flagBitshiftOffset[stream_number];
 8001152:	492e      	ldr	r1, [pc, #184]	; (800120c <HAL_DMA_Init+0x134>)
  uint32_t stream_number = (((uint32_t)hdma->Instance & 0xFFU) - 16U) / 24U;
 8001154:	0912      	lsrs	r2, r2, #4
  hdma->Instance->FCR = tmp;
 8001156:	6158      	str	r0, [r3, #20]
  hdma->StreamIndex = flagBitshiftOffset[stream_number];
 8001158:	5c8d      	ldrb	r5, [r1, r2]
 800115a:	f423 717f 	bic.w	r1, r3, #1020	; 0x3fc
  regs->IFCR = 0x3FU << hdma->StreamIndex;
 800115e:	233f      	movs	r3, #63	; 0x3f
  
  if (stream_number > 3U)
 8001160:	2a03      	cmp	r2, #3
  hdma->State = HAL_DMA_STATE_READY;
 8001162:	f04f 0601 	mov.w	r6, #1
  hdma->ErrorCode = HAL_DMA_ERROR_NONE;
 8001166:	f04f 0200 	mov.w	r2, #0
 800116a:	f021 0103 	bic.w	r1, r1, #3
  {
    /* return pointer to HISR and HIFCR */
    hdma->StreamBaseAddress = (((uint32_t)hdma->Instance & (uint32_t)(~0x3FFU)) + 4U);
 800116e:	bf88      	it	hi
 8001170:	3104      	addhi	r1, #4
  regs->IFCR = 0x3FU << hdma->StreamIndex;
 8001172:	40ab      	lsls	r3, r5
  hdma->StreamIndex = flagBitshiftOffset[stream_number];
 8001174:	65e5      	str	r5, [r4, #92]	; 0x5c
 8001176:	65a1      	str	r1, [r4, #88]	; 0x58
  return HAL_OK;
 8001178:	4610      	mov	r0, r2
  regs->IFCR = 0x3FU << hdma->StreamIndex;
 800117a:	608b      	str	r3, [r1, #8]
  hdma->ErrorCode = HAL_DMA_ERROR_NONE;
 800117c:	6562      	str	r2, [r4, #84]	; 0x54
  hdma->State = HAL_DMA_STATE_READY;
 800117e:	f884 6035 	strb.w	r6, [r4, #53]	; 0x35
}
 8001182:	bdf8      	pop	{r3, r4, r5, r6, r7, pc}
      hdma->State = HAL_DMA_STATE_TIMEOUT;
 8001184:	2303      	movs	r3, #3
      hdma->ErrorCode = HAL_DMA_ERROR_TIMEOUT;
 8001186:	2220      	movs	r2, #32
      return HAL_TIMEOUT;
 8001188:	4618      	mov	r0, r3
      hdma->ErrorCode = HAL_DMA_ERROR_TIMEOUT;
 800118a:	6562      	str	r2, [r4, #84]	; 0x54
      hdma->State = HAL_DMA_STATE_TIMEOUT;
 800118c:	f884 3035 	strb.w	r3, [r4, #53]	; 0x35
}
 8001190:	bdf8      	pop	{r3, r4, r5, r6, r7, pc}
    return HAL_ERROR;
 8001192:	2001      	movs	r0, #1
}
 8001194:	bdf8      	pop	{r3, r4, r5, r6, r7, pc}
    tmp |=  hdma->Init.MemBurst | hdma->Init.PeriphBurst;
 8001196:	e9d4 610b 	ldrd	r6, r1, [r4, #44]	; 0x2c
 800119a:	4331      	orrs	r1, r6
 800119c:	430a      	orrs	r2, r1
    tmp |= hdma->Init.FIFOThreshold;
 800119e:	6aa7      	ldr	r7, [r4, #40]	; 0x28
  hdma->Instance->CR = tmp;  
 80011a0:	601a      	str	r2, [r3, #0]
  tmp = hdma->Instance->FCR;
 80011a2:	6958      	ldr	r0, [r3, #20]
    tmp |= hdma->Init.FIFOThreshold;
 80011a4:	f047 0104 	orr.w	r1, r7, #4
  tmp &= (uint32_t)~(DMA_SxFCR_DMDIS | DMA_SxFCR_FTH);
 80011a8:	f020 0007 	bic.w	r0, r0, #7
    tmp |= hdma->Init.FIFOThreshold;
 80011ac:	4308      	orrs	r0, r1
    if (hdma->Init.MemBurst != DMA_MBURST_SINGLE)
 80011ae:	2e00      	cmp	r6, #0
 80011b0:	d0ca      	beq.n	8001148 <HAL_DMA_Init+0x70>
{
  HAL_StatusTypeDef status = HAL_OK;
  uint32_t tmp = hdma->Init.FIFOThreshold;
  
  /* Memory Data size equal to Byte */
  if(hdma->Init.MemDataAlignment == DMA_MDATAALIGN_BYTE)
 80011b2:	b17d      	cbz	r5, 80011d4 <HAL_DMA_Init+0xfc>
      break;
    }
  }
  
  /* Memory Data size equal to Half-Word */
  else if (hdma->Init.MemDataAlignment == DMA_MDATAALIGN_HALFWORD)
 80011b4:	f5b5 5f00 	cmp.w	r5, #8192	; 0x2000
 80011b8:	d016      	beq.n	80011e8 <HAL_DMA_Init+0x110>
  }
  
  /* Memory Data size equal to Word */
  else
  {
    switch (tmp)
 80011ba:	2f02      	cmp	r7, #2
 80011bc:	d903      	bls.n	80011c6 <HAL_DMA_Init+0xee>
 80011be:	2f03      	cmp	r7, #3
 80011c0:	d1c2      	bne.n	8001148 <HAL_DMA_Init+0x70>
    case DMA_FIFO_THRESHOLD_HALFFULL:
    case DMA_FIFO_THRESHOLD_3QUARTERSFULL:
      status = HAL_ERROR;
      break;
    case DMA_FIFO_THRESHOLD_FULL:
      if ((hdma->Init.MemBurst & DMA_SxCR_MBURST_1) == DMA_SxCR_MBURST_1)
 80011c2:	01f2      	lsls	r2, r6, #7
 80011c4:	d5c0      	bpl.n	8001148 <HAL_DMA_Init+0x70>
        hdma->State = HAL_DMA_STATE_READY;
 80011c6:	2301      	movs	r3, #1
        hdma->ErrorCode = HAL_DMA_ERROR_PARAM;
 80011c8:	2240      	movs	r2, #64	; 0x40
        return HAL_ERROR; 
 80011ca:	4618      	mov	r0, r3
        hdma->ErrorCode = HAL_DMA_ERROR_PARAM;
 80011cc:	6562      	str	r2, [r4, #84]	; 0x54
        hdma->State = HAL_DMA_STATE_READY;
 80011ce:	f884 3035 	strb.w	r3, [r4, #53]	; 0x35
}
 80011d2:	bdf8      	pop	{r3, r4, r5, r6, r7, pc}
    switch (tmp)
 80011d4:	2f01      	cmp	r7, #1
 80011d6:	d003      	beq.n	80011e0 <HAL_DMA_Init+0x108>
 80011d8:	d3f3      	bcc.n	80011c2 <HAL_DMA_Init+0xea>
 80011da:	2f02      	cmp	r7, #2
 80011dc:	d1b4      	bne.n	8001148 <HAL_DMA_Init+0x70>
 80011de:	e7f0      	b.n	80011c2 <HAL_DMA_Init+0xea>
      if (hdma->Init.MemBurst == DMA_MBURST_INC16)
 80011e0:	f1b6 7fc0 	cmp.w	r6, #25165824	; 0x1800000
 80011e4:	d1b0      	bne.n	8001148 <HAL_DMA_Init+0x70>
 80011e6:	e7ee      	b.n	80011c6 <HAL_DMA_Init+0xee>
    switch (tmp)
 80011e8:	2f03      	cmp	r7, #3
 80011ea:	d8ad      	bhi.n	8001148 <HAL_DMA_Init+0x70>
 80011ec:	a201      	add	r2, pc, #4	; (adr r2, 80011f4 <HAL_DMA_Init+0x11c>)
 80011ee:	f852 f027 	ldr.w	pc, [r2, r7, lsl #2]
 80011f2:	bf00      	nop
 80011f4:	080011c7 	.word	0x080011c7
 80011f8:	080011c3 	.word	0x080011c3
 80011fc:	080011c7 	.word	0x080011c7
 8001200:	080011e1 	.word	0x080011e1
 8001204:	f010803f 	.word	0xf010803f
 8001208:	aaaaaaab 	.word	0xaaaaaaab
 800120c:	08009adc 	.word	0x08009adc

08001210 <HAL_DMA_Abort_IT>:
  if(hdma->State != HAL_DMA_STATE_BUSY)
 8001210:	f890 2035 	ldrb.w	r2, [r0, #53]	; 0x35
{
 8001214:	4603      	mov	r3, r0
  if(hdma->State != HAL_DMA_STATE_BUSY)
 8001216:	2a02      	cmp	r2, #2
 8001218:	d003      	beq.n	8001222 <HAL_DMA_Abort_IT+0x12>
    hdma->ErrorCode = HAL_DMA_ERROR_NO_XFER;
 800121a:	2280      	movs	r2, #128	; 0x80
    return HAL_ERROR;
 800121c:	2001      	movs	r0, #1
    hdma->ErrorCode = HAL_DMA_ERROR_NO_XFER;
 800121e:	655a      	str	r2, [r3, #84]	; 0x54
    return HAL_ERROR;
 8001220:	4770      	bx	lr
    hdma->State = HAL_DMA_STATE_ABORT;
 8001222:	2105      	movs	r1, #5
    __HAL_DMA_DISABLE(hdma);
 8001224:	681a      	ldr	r2, [r3, #0]
    hdma->State = HAL_DMA_STATE_ABORT;
 8001226:	f883 1035 	strb.w	r1, [r3, #53]	; 0x35
    __HAL_DMA_DISABLE(hdma);
 800122a:	6813      	ldr	r3, [r2, #0]
  return HAL_OK;
 800122c:	2000      	movs	r0, #0
    __HAL_DMA_DISABLE(hdma);
 800122e:	f023 0301 	bic.w	r3, r3, #1
 8001232:	6013      	str	r3, [r2, #0]
}
 8001234:	4770      	bx	lr
 8001236:	bf00      	nop

08001238 <HAL_DMA_IRQHandler>:
  __IO uint32_t count = 0U;
 8001238:	2300      	movs	r3, #0
  if ((tmpisr & (DMA_FLAG_TEIF0_4 << hdma->StreamIndex)) != RESET)
 800123a:	2208      	movs	r2, #8
{
 800123c:	b5f0      	push	{r4, r5, r6, r7, lr}
  DMA_Base_Registers *regs = (DMA_Base_Registers *)hdma->StreamBaseAddress;
 800123e:	6d87      	ldr	r7, [r0, #88]	; 0x58
{
 8001240:	b083      	sub	sp, #12
  __IO uint32_t count = 0U;
 8001242:	9301      	str	r3, [sp, #4]
  if ((tmpisr & (DMA_FLAG_TEIF0_4 << hdma->StreamIndex)) != RESET)
 8001244:	6dc3      	ldr	r3, [r0, #92]	; 0x5c
  tmpisr = regs->ISR;
 8001246:	683d      	ldr	r5, [r7, #0]
  uint32_t timeout = SystemCoreClock / 9600U;
 8001248:	4964      	ldr	r1, [pc, #400]	; (80013dc <HAL_DMA_IRQHandler+0x1a4>)
  if ((tmpisr & (DMA_FLAG_TEIF0_4 << hdma->StreamIndex)) != RESET)
 800124a:	409a      	lsls	r2, r3
 800124c:	422a      	tst	r2, r5
{
 800124e:	4604      	mov	r4, r0
  uint32_t timeout = SystemCoreClock / 9600U;
 8001250:	680e      	ldr	r6, [r1, #0]
  if ((tmpisr & (DMA_FLAG_TEIF0_4 << hdma->StreamIndex)) != RESET)
 8001252:	d003      	beq.n	800125c <HAL_DMA_IRQHandler+0x24>
    if(__HAL_DMA_GET_IT_SOURCE(hdma, DMA_IT_TE) != RESET)
 8001254:	6801      	ldr	r1, [r0, #0]
 8001256:	6808      	ldr	r0, [r1, #0]
 8001258:	0740      	lsls	r0, r0, #29
 800125a:	d459      	bmi.n	8001310 <HAL_DMA_IRQHandler+0xd8>
  if ((tmpisr & (DMA_FLAG_FEIF0_4 << hdma->StreamIndex)) != RESET)
 800125c:	2201      	movs	r2, #1
 800125e:	409a      	lsls	r2, r3
 8001260:	422a      	tst	r2, r5
 8001262:	d003      	beq.n	800126c <HAL_DMA_IRQHandler+0x34>
    if(__HAL_DMA_GET_IT_SOURCE(hdma, DMA_IT_FE) != RESET)
 8001264:	6821      	ldr	r1, [r4, #0]
 8001266:	6949      	ldr	r1, [r1, #20]
 8001268:	0608      	lsls	r0, r1, #24
 800126a:	d474      	bmi.n	8001356 <HAL_DMA_IRQHandler+0x11e>
  if ((tmpisr & (DMA_FLAG_DMEIF0_4 << hdma->StreamIndex)) != RESET)
 800126c:	2204      	movs	r2, #4
 800126e:	409a      	lsls	r2, r3
 8001270:	422a      	tst	r2, r5
 8001272:	d003      	beq.n	800127c <HAL_DMA_IRQHandler+0x44>
    if(__HAL_DMA_GET_IT_SOURCE(hdma, DMA_IT_DME) != RESET)
 8001274:	6821      	ldr	r1, [r4, #0]
 8001276:	6809      	ldr	r1, [r1, #0]
 8001278:	0789      	lsls	r1, r1, #30
 800127a:	d466      	bmi.n	800134a <HAL_DMA_IRQHandler+0x112>
  if ((tmpisr & (DMA_FLAG_HTIF0_4 << hdma->StreamIndex)) != RESET)
 800127c:	2210      	movs	r2, #16
 800127e:	409a      	lsls	r2, r3
 8001280:	422a      	tst	r2, r5
 8001282:	d003      	beq.n	800128c <HAL_DMA_IRQHandler+0x54>
    if(__HAL_DMA_GET_IT_SOURCE(hdma, DMA_IT_HT) != RESET)
 8001284:	6821      	ldr	r1, [r4, #0]
 8001286:	6808      	ldr	r0, [r1, #0]
 8001288:	0700      	lsls	r0, r0, #28
 800128a:	d44b      	bmi.n	8001324 <HAL_DMA_IRQHandler+0xec>
  if ((tmpisr & (DMA_FLAG_TCIF0_4 << hdma->StreamIndex)) != RESET)
 800128c:	2220      	movs	r2, #32
 800128e:	409a      	lsls	r2, r3
 8001290:	422a      	tst	r2, r5
 8001292:	d014      	beq.n	80012be <HAL_DMA_IRQHandler+0x86>
    if(__HAL_DMA_GET_IT_SOURCE(hdma, DMA_IT_TC) != RESET)
 8001294:	6821      	ldr	r1, [r4, #0]
 8001296:	6808      	ldr	r0, [r1, #0]
 8001298:	06c0      	lsls	r0, r0, #27
 800129a:	d510      	bpl.n	80012be <HAL_DMA_IRQHandler+0x86>
      regs->IFCR = DMA_FLAG_TCIF0_4 << hdma->StreamIndex;
 800129c:	60ba      	str	r2, [r7, #8]
      if(HAL_DMA_STATE_ABORT == hdma->State)
 800129e:	f894 2035 	ldrb.w	r2, [r4, #53]	; 0x35
 80012a2:	2a05      	cmp	r2, #5
 80012a4:	d063      	beq.n	800136e <HAL_DMA_IRQHandler+0x136>
      if(((hdma->Instance->CR) & (uint32_t)(DMA_SxCR_DBM)) != RESET)
 80012a6:	680b      	ldr	r3, [r1, #0]
 80012a8:	f413 2f80 	tst.w	r3, #262144	; 0x40000
        if((hdma->Instance->CR & DMA_SxCR_CT) == RESET)
 80012ac:	680b      	ldr	r3, [r1, #0]
      if(((hdma->Instance->CR) & (uint32_t)(DMA_SxCR_DBM)) != RESET)
 80012ae:	d07e      	beq.n	80013ae <HAL_DMA_IRQHandler+0x176>
        if((hdma->Instance->CR & DMA_SxCR_CT) == RESET)
 80012b0:	0319      	lsls	r1, r3, #12
 80012b2:	f140 8089 	bpl.w	80013c8 <HAL_DMA_IRQHandler+0x190>
        if(hdma->XferCpltCallback != NULL)
 80012b6:	6be3      	ldr	r3, [r4, #60]	; 0x3c
 80012b8:	b10b      	cbz	r3, 80012be <HAL_DMA_IRQHandler+0x86>
          hdma->XferCpltCallback(hdma);
 80012ba:	4620      	mov	r0, r4
 80012bc:	4798      	blx	r3
  if(hdma->ErrorCode != HAL_DMA_ERROR_NONE)
 80012be:	6d63      	ldr	r3, [r4, #84]	; 0x54
 80012c0:	b323      	cbz	r3, 800130c <HAL_DMA_IRQHandler+0xd4>
    if((hdma->ErrorCode & HAL_DMA_ERROR_TE) != RESET)
 80012c2:	6d63      	ldr	r3, [r4, #84]	; 0x54
 80012c4:	07da      	lsls	r2, r3, #31
 80012c6:	d51a      	bpl.n	80012fe <HAL_DMA_IRQHandler+0xc6>
      hdma->State = HAL_DMA_STATE_ABORT;
 80012c8:	2105      	movs	r1, #5
  uint32_t timeout = SystemCoreClock / 9600U;
 80012ca:	4b45      	ldr	r3, [pc, #276]	; (80013e0 <HAL_DMA_IRQHandler+0x1a8>)
      __HAL_DMA_DISABLE(hdma);
 80012cc:	6822      	ldr	r2, [r4, #0]
      hdma->State = HAL_DMA_STATE_ABORT;
 80012ce:	f884 1035 	strb.w	r1, [r4, #53]	; 0x35
  uint32_t timeout = SystemCoreClock / 9600U;
 80012d2:	fba3 3606 	umull	r3, r6, r3, r6
      __HAL_DMA_DISABLE(hdma);
 80012d6:	6813      	ldr	r3, [r2, #0]
  uint32_t timeout = SystemCoreClock / 9600U;
 80012d8:	0ab6      	lsrs	r6, r6, #10
      __HAL_DMA_DISABLE(hdma);
 80012da:	f023 0301 	bic.w	r3, r3, #1
 80012de:	6013      	str	r3, [r2, #0]
 80012e0:	e002      	b.n	80012e8 <HAL_DMA_IRQHandler+0xb0>
      while((hdma->Instance->CR & DMA_SxCR_EN) != RESET);
 80012e2:	6813      	ldr	r3, [r2, #0]
 80012e4:	07db      	lsls	r3, r3, #31
 80012e6:	d504      	bpl.n	80012f2 <HAL_DMA_IRQHandler+0xba>
        if (++count > timeout)
 80012e8:	9b01      	ldr	r3, [sp, #4]
 80012ea:	3301      	adds	r3, #1
 80012ec:	42b3      	cmp	r3, r6
 80012ee:	9301      	str	r3, [sp, #4]
 80012f0:	d9f7      	bls.n	80012e2 <HAL_DMA_IRQHandler+0xaa>
      __HAL_UNLOCK(hdma);
 80012f2:	2200      	movs	r2, #0
      hdma->State = HAL_DMA_STATE_READY;
 80012f4:	2301      	movs	r3, #1
      __HAL_UNLOCK(hdma);
 80012f6:	f884 2034 	strb.w	r2, [r4, #52]	; 0x34
      hdma->State = HAL_DMA_STATE_READY;
 80012fa:	f884 3035 	strb.w	r3, [r4, #53]	; 0x35
    if(hdma->XferErrorCallback != NULL)
 80012fe:	6ce3      	ldr	r3, [r4, #76]	; 0x4c
 8001300:	b123      	cbz	r3, 800130c <HAL_DMA_IRQHandler+0xd4>
      hdma->XferErrorCallback(hdma);
 8001302:	4620      	mov	r0, r4
}
 8001304:	b003      	add	sp, #12
 8001306:	e8bd 40f0 	ldmia.w	sp!, {r4, r5, r6, r7, lr}
      hdma->XferErrorCallback(hdma);
 800130a:	4718      	bx	r3
}
 800130c:	b003      	add	sp, #12
 800130e:	bdf0      	pop	{r4, r5, r6, r7, pc}
      hdma->Instance->CR  &= ~(DMA_IT_TE);
 8001310:	6808      	ldr	r0, [r1, #0]
 8001312:	f020 0004 	bic.w	r0, r0, #4
 8001316:	6008      	str	r0, [r1, #0]
      regs->IFCR = DMA_FLAG_TEIF0_4 << hdma->StreamIndex;
 8001318:	60ba      	str	r2, [r7, #8]
      hdma->ErrorCode |= HAL_DMA_ERROR_TE;
 800131a:	6d62      	ldr	r2, [r4, #84]	; 0x54
 800131c:	f042 0201 	orr.w	r2, r2, #1
 8001320:	6562      	str	r2, [r4, #84]	; 0x54
 8001322:	e79b      	b.n	800125c <HAL_DMA_IRQHandler+0x24>
      regs->IFCR = DMA_FLAG_HTIF0_4 << hdma->StreamIndex;
 8001324:	60ba      	str	r2, [r7, #8]
      if(((hdma->Instance->CR) & (uint32_t)(DMA_SxCR_DBM)) != RESET)
 8001326:	680a      	ldr	r2, [r1, #0]
 8001328:	f412 2f80 	tst.w	r2, #262144	; 0x40000
        if((hdma->Instance->CR & DMA_SxCR_CT) == RESET)
 800132c:	680a      	ldr	r2, [r1, #0]
      if(((hdma->Instance->CR) & (uint32_t)(DMA_SxCR_DBM)) != RESET)
 800132e:	d118      	bne.n	8001362 <HAL_DMA_IRQHandler+0x12a>
        if((hdma->Instance->CR & DMA_SxCR_CIRC) == RESET)
 8001330:	05d2      	lsls	r2, r2, #23
 8001332:	d403      	bmi.n	800133c <HAL_DMA_IRQHandler+0x104>
          hdma->Instance->CR  &= ~(DMA_IT_HT);
 8001334:	680a      	ldr	r2, [r1, #0]
 8001336:	f022 0208 	bic.w	r2, r2, #8
 800133a:	600a      	str	r2, [r1, #0]
        if(hdma->XferHalfCpltCallback != NULL)
 800133c:	6c22      	ldr	r2, [r4, #64]	; 0x40
 800133e:	2a00      	cmp	r2, #0
 8001340:	d0a4      	beq.n	800128c <HAL_DMA_IRQHandler+0x54>
          hdma->XferHalfCpltCallback(hdma);
 8001342:	4620      	mov	r0, r4
 8001344:	4790      	blx	r2
 8001346:	6de3      	ldr	r3, [r4, #92]	; 0x5c
 8001348:	e7a0      	b.n	800128c <HAL_DMA_IRQHandler+0x54>
      regs->IFCR = DMA_FLAG_DMEIF0_4 << hdma->StreamIndex;
 800134a:	60ba      	str	r2, [r7, #8]
      hdma->ErrorCode |= HAL_DMA_ERROR_DME;
 800134c:	6d62      	ldr	r2, [r4, #84]	; 0x54
 800134e:	f042 0204 	orr.w	r2, r2, #4
 8001352:	6562      	str	r2, [r4, #84]	; 0x54
 8001354:	e792      	b.n	800127c <HAL_DMA_IRQHandler+0x44>
      regs->IFCR = DMA_FLAG_FEIF0_4 << hdma->StreamIndex;
 8001356:	60ba      	str	r2, [r7, #8]
      hdma->ErrorCode |= HAL_DMA_ERROR_FE;
 8001358:	6d62      	ldr	r2, [r4, #84]	; 0x54
 800135a:	f042 0202 	orr.w	r2, r2, #2
 800135e:	6562      	str	r2, [r4, #84]	; 0x54
 8001360:	e784      	b.n	800126c <HAL_DMA_IRQHandler+0x34>
        if((hdma->Instance->CR & DMA_SxCR_CT) == RESET)
 8001362:	0311      	lsls	r1, r2, #12
 8001364:	d5ea      	bpl.n	800133c <HAL_DMA_IRQHandler+0x104>
          if(hdma->XferM1HalfCpltCallback != NULL)
 8001366:	6ca2      	ldr	r2, [r4, #72]	; 0x48
 8001368:	2a00      	cmp	r2, #0
 800136a:	d1ea      	bne.n	8001342 <HAL_DMA_IRQHandler+0x10a>
 800136c:	e78e      	b.n	800128c <HAL_DMA_IRQHandler+0x54>
        hdma->Instance->CR  &= ~(DMA_IT_TC | DMA_IT_TE | DMA_IT_DME);
 800136e:	680a      	ldr	r2, [r1, #0]
        if((hdma->XferHalfCpltCallback != NULL) || (hdma->XferM1HalfCpltCallback != NULL))
 8001370:	6c20      	ldr	r0, [r4, #64]	; 0x40
        hdma->Instance->CR  &= ~(DMA_IT_TC | DMA_IT_TE | DMA_IT_DME);
 8001372:	f022 0216 	bic.w	r2, r2, #22
 8001376:	600a      	str	r2, [r1, #0]
        hdma->Instance->FCR &= ~(DMA_IT_FE);
 8001378:	694a      	ldr	r2, [r1, #20]
 800137a:	f022 0280 	bic.w	r2, r2, #128	; 0x80
 800137e:	614a      	str	r2, [r1, #20]
        if((hdma->XferHalfCpltCallback != NULL) || (hdma->XferM1HalfCpltCallback != NULL))
 8001380:	b338      	cbz	r0, 80013d2 <HAL_DMA_IRQHandler+0x19a>
          hdma->Instance->CR  &= ~(DMA_IT_HT);
 8001382:	680a      	ldr	r2, [r1, #0]
 8001384:	f022 0208 	bic.w	r2, r2, #8
 8001388:	600a      	str	r2, [r1, #0]
        regs->IFCR = 0x3FU << hdma->StreamIndex;
 800138a:	223f      	movs	r2, #63	; 0x3f
        __HAL_UNLOCK(hdma);
 800138c:	2000      	movs	r0, #0
        hdma->State = HAL_DMA_STATE_READY;
 800138e:	2101      	movs	r1, #1
        regs->IFCR = 0x3FU << hdma->StreamIndex;
 8001390:	fa02 f303 	lsl.w	r3, r2, r3
        if(hdma->XferAbortCallback != NULL)
 8001394:	6d22      	ldr	r2, [r4, #80]	; 0x50
        regs->IFCR = 0x3FU << hdma->StreamIndex;
 8001396:	60bb      	str	r3, [r7, #8]
        __HAL_UNLOCK(hdma);
 8001398:	f884 0034 	strb.w	r0, [r4, #52]	; 0x34
        hdma->State = HAL_DMA_STATE_READY;
 800139c:	f884 1035 	strb.w	r1, [r4, #53]	; 0x35
        if(hdma->XferAbortCallback != NULL)
 80013a0:	2a00      	cmp	r2, #0
 80013a2:	d0b3      	beq.n	800130c <HAL_DMA_IRQHandler+0xd4>
          hdma->XferAbortCallback(hdma);
 80013a4:	4620      	mov	r0, r4
}
 80013a6:	b003      	add	sp, #12
 80013a8:	e8bd 40f0 	ldmia.w	sp!, {r4, r5, r6, r7, lr}
          hdma->XferAbortCallback(hdma);
 80013ac:	4710      	bx	r2
        if((hdma->Instance->CR & DMA_SxCR_CIRC) == RESET)
 80013ae:	f413 7380 	ands.w	r3, r3, #256	; 0x100
 80013b2:	d180      	bne.n	80012b6 <HAL_DMA_IRQHandler+0x7e>
          hdma->State = HAL_DMA_STATE_READY;
 80013b4:	2001      	movs	r0, #1
          hdma->Instance->CR  &= ~(DMA_IT_TC);
 80013b6:	680a      	ldr	r2, [r1, #0]
 80013b8:	f022 0210 	bic.w	r2, r2, #16
 80013bc:	600a      	str	r2, [r1, #0]
          __HAL_UNLOCK(hdma);
 80013be:	f884 3034 	strb.w	r3, [r4, #52]	; 0x34
          hdma->State = HAL_DMA_STATE_READY;
 80013c2:	f884 0035 	strb.w	r0, [r4, #53]	; 0x35
 80013c6:	e776      	b.n	80012b6 <HAL_DMA_IRQHandler+0x7e>
          if(hdma->XferM1CpltCallback != NULL)
 80013c8:	6c63      	ldr	r3, [r4, #68]	; 0x44
 80013ca:	2b00      	cmp	r3, #0
 80013cc:	f47f af75 	bne.w	80012ba <HAL_DMA_IRQHandler+0x82>
 80013d0:	e775      	b.n	80012be <HAL_DMA_IRQHandler+0x86>
        if((hdma->XferHalfCpltCallback != NULL) || (hdma->XferM1HalfCpltCallback != NULL))
 80013d2:	6ca2      	ldr	r2, [r4, #72]	; 0x48
 80013d4:	2a00      	cmp	r2, #0
 80013d6:	d1d4      	bne.n	8001382 <HAL_DMA_IRQHandler+0x14a>
 80013d8:	e7d7      	b.n	800138a <HAL_DMA_IRQHandler+0x152>
 80013da:	bf00      	nop
 80013dc:	20000000 	.word	0x20000000
 80013e0:	1b4e81b5 	.word	0x1b4e81b5

080013e4 <HAL_GPIO_Init>:
  * @param  GPIO_Init pointer to a GPIO_InitTypeDef structure that contains
  *         the configuration information for the specified GPIO peripheral.
  * @retval None
  */
void HAL_GPIO_Init(GPIO_TypeDef  *GPIOx, GPIO_InitTypeDef *GPIO_Init)
{
 80013e4:	e92d 4ff0 	stmdb	sp!, {r4, r5, r6, r7, r8, r9, sl, fp, lr}
  assert_param(IS_GPIO_PIN(GPIO_Init->Pin));
  assert_param(IS_GPIO_MODE(GPIO_Init->Mode));
  assert_param(IS_GPIO_PULL(GPIO_Init->Pull));

  /* Configure the port pins */
  while (((GPIO_Init->Pin) >> position) != 0x00u)
 80013e8:	f8d1 e000 	ldr.w	lr, [r1]
{
 80013ec:	b083      	sub	sp, #12
  while (((GPIO_Init->Pin) >> position) != 0x00u)
 80013ee:	f1be 0f00 	cmp.w	lr, #0
 80013f2:	f000 8091 	beq.w	8001518 <HAL_GPIO_Init+0x134>
 80013f6:	4688      	mov	r8, r1
  uint32_t position = 0x00u;
 80013f8:	2600      	movs	r6, #0
        temp &= ~(0x0FuL << (4u * (position & 0x03u)));
        temp |= (GPIO_GET_INDEX(GPIOx) << (4u * (position & 0x03u)));
        SYSCFG->EXTICR[position >> 2u] = temp;

        /* Clear EXTI line configuration */
        temp = EXTI->IMR;
 80013fa:	f8df 91f4 	ldr.w	r9, [pc, #500]	; 80015f0 <HAL_GPIO_Init+0x20c>
    iocurrent = (GPIO_Init->Pin) & (1uL << position);
 80013fe:	2301      	movs	r3, #1
 8001400:	40b3      	lsls	r3, r6
    if (iocurrent != 0x00u)
 8001402:	ea13 070e 	ands.w	r7, r3, lr
 8001406:	f000 8082 	beq.w	800150e <HAL_GPIO_Init+0x12a>
 800140a:	2203      	movs	r2, #3
      if((GPIO_Init->Mode == GPIO_MODE_OUTPUT_PP) || (GPIO_Init->Mode == GPIO_MODE_AF_PP) ||
 800140c:	f8d8 1004 	ldr.w	r1, [r8, #4]
 8001410:	ea4f 0c46 	mov.w	ip, r6, lsl #1
 8001414:	f021 0a10 	bic.w	sl, r1, #16
 8001418:	f8d8 4008 	ldr.w	r4, [r8, #8]
 800141c:	f10a 35ff 	add.w	r5, sl, #4294967295
 8001420:	fa02 f20c 	lsl.w	r2, r2, ip
 8001424:	2d01      	cmp	r5, #1
 8001426:	ea6f 0202 	mvn.w	r2, r2
 800142a:	fa04 f40c 	lsl.w	r4, r4, ip
 800142e:	d976      	bls.n	800151e <HAL_GPIO_Init+0x13a>
      temp = GPIOx->PUPDR;
 8001430:	68c3      	ldr	r3, [r0, #12]
      temp &= ~(GPIO_PUPDR_PUPD0 << (position * 2u));
 8001432:	4013      	ands	r3, r2
      temp |= ((GPIO_Init->Pull) << (position * 2u));
 8001434:	431c      	orrs	r4, r3
      GPIOx->PUPDR = temp;
 8001436:	60c4      	str	r4, [r0, #12]
      temp = GPIOx->MODER;
 8001438:	6804      	ldr	r4, [r0, #0]
      temp |= ((GPIO_Init->Mode & GPIO_MODE) << (position * 2u));
 800143a:	f001 0303 	and.w	r3, r1, #3
      temp &= ~(GPIO_MODER_MODE0 << (position * 2u));
 800143e:	4014      	ands	r4, r2
      temp |= ((GPIO_Init->Mode & GPIO_MODE) << (position * 2u));
 8001440:	fa03 f20c 	lsl.w	r2, r3, ip
 8001444:	4322      	orrs	r2, r4
      if((GPIO_Init->Mode & EXTI_MODE) == EXTI_MODE)
 8001446:	00cd      	lsls	r5, r1, #3
      GPIOx->MODER = temp;
 8001448:	6002      	str	r2, [r0, #0]
      if((GPIO_Init->Mode & EXTI_MODE) == EXTI_MODE)
 800144a:	d560      	bpl.n	800150e <HAL_GPIO_Init+0x12a>
        __HAL_RCC_SYSCFG_CLK_ENABLE();
 800144c:	2300      	movs	r3, #0
        temp &= ~(0x0FuL << (4u * (position & 0x03u)));
 800144e:	240f      	movs	r4, #15
        __HAL_RCC_SYSCFG_CLK_ENABLE();
 8001450:	4d5e      	ldr	r5, [pc, #376]	; (80015cc <HAL_GPIO_Init+0x1e8>)
 8001452:	9301      	str	r3, [sp, #4]
 8001454:	6c6a      	ldr	r2, [r5, #68]	; 0x44
 8001456:	f026 0303 	bic.w	r3, r6, #3
 800145a:	f442 4280 	orr.w	r2, r2, #16384	; 0x4000
 800145e:	646a      	str	r2, [r5, #68]	; 0x44
 8001460:	6c6a      	ldr	r2, [r5, #68]	; 0x44
 8001462:	f103 4380 	add.w	r3, r3, #1073741824	; 0x40000000
 8001466:	f402 4280 	and.w	r2, r2, #16384	; 0x4000
 800146a:	9201      	str	r2, [sp, #4]
 800146c:	f503 339c 	add.w	r3, r3, #79872	; 0x13800
        temp &= ~(0x0FuL << (4u * (position & 0x03u)));
 8001470:	f006 0203 	and.w	r2, r6, #3
        __HAL_RCC_SYSCFG_CLK_ENABLE();
 8001474:	9d01      	ldr	r5, [sp, #4]
        temp &= ~(0x0FuL << (4u * (position & 0x03u)));
 8001476:	0092      	lsls	r2, r2, #2
        temp = SYSCFG->EXTICR[position >> 2u];
 8001478:	689d      	ldr	r5, [r3, #8]
        temp &= ~(0x0FuL << (4u * (position & 0x03u)));
 800147a:	4094      	lsls	r4, r2
 800147c:	ea25 0404 	bic.w	r4, r5, r4
        temp |= (GPIO_GET_INDEX(GPIOx) << (4u * (position & 0x03u)));
 8001480:	4d53      	ldr	r5, [pc, #332]	; (80015d0 <HAL_GPIO_Init+0x1ec>)
 8001482:	42a8      	cmp	r0, r5
 8001484:	d021      	beq.n	80014ca <HAL_GPIO_Init+0xe6>
 8001486:	f505 6580 	add.w	r5, r5, #1024	; 0x400
 800148a:	42a8      	cmp	r0, r5
 800148c:	d07f      	beq.n	800158e <HAL_GPIO_Init+0x1aa>
 800148e:	4d51      	ldr	r5, [pc, #324]	; (80015d4 <HAL_GPIO_Init+0x1f0>)
 8001490:	42a8      	cmp	r0, r5
 8001492:	d077      	beq.n	8001584 <HAL_GPIO_Init+0x1a0>
 8001494:	4d50      	ldr	r5, [pc, #320]	; (80015d8 <HAL_GPIO_Init+0x1f4>)
 8001496:	42a8      	cmp	r0, r5
 8001498:	f000 8083 	beq.w	80015a2 <HAL_GPIO_Init+0x1be>
 800149c:	4d4f      	ldr	r5, [pc, #316]	; (80015dc <HAL_GPIO_Init+0x1f8>)
 800149e:	42a8      	cmp	r0, r5
 80014a0:	f000 8084 	beq.w	80015ac <HAL_GPIO_Init+0x1c8>
 80014a4:	4d4e      	ldr	r5, [pc, #312]	; (80015e0 <HAL_GPIO_Init+0x1fc>)
 80014a6:	42a8      	cmp	r0, r5
 80014a8:	d076      	beq.n	8001598 <HAL_GPIO_Init+0x1b4>
 80014aa:	4d4e      	ldr	r5, [pc, #312]	; (80015e4 <HAL_GPIO_Init+0x200>)
 80014ac:	42a8      	cmp	r0, r5
 80014ae:	f000 8082 	beq.w	80015b6 <HAL_GPIO_Init+0x1d2>
 80014b2:	4d4d      	ldr	r5, [pc, #308]	; (80015e8 <HAL_GPIO_Init+0x204>)
 80014b4:	42a8      	cmp	r0, r5
 80014b6:	f000 8083 	beq.w	80015c0 <HAL_GPIO_Init+0x1dc>
 80014ba:	4d4c      	ldr	r5, [pc, #304]	; (80015ec <HAL_GPIO_Init+0x208>)
 80014bc:	42a8      	cmp	r0, r5
 80014be:	bf0c      	ite	eq
 80014c0:	2508      	moveq	r5, #8
 80014c2:	2509      	movne	r5, #9
 80014c4:	fa05 f202 	lsl.w	r2, r5, r2
 80014c8:	4314      	orrs	r4, r2
        temp &= ~(iocurrent);
 80014ca:	43fa      	mvns	r2, r7
        SYSCFG->EXTICR[position >> 2u] = temp;
 80014cc:	609c      	str	r4, [r3, #8]
        temp = EXTI->IMR;
 80014ce:	f8d9 3000 	ldr.w	r3, [r9]
        if((GPIO_Init->Mode & GPIO_MODE_IT) == GPIO_MODE_IT)
 80014d2:	03cc      	lsls	r4, r1, #15
        temp &= ~(iocurrent);
 80014d4:	bf54      	ite	pl
 80014d6:	4013      	andpl	r3, r2
        {
          temp |= iocurrent;
 80014d8:	433b      	orrmi	r3, r7
        }
        EXTI->IMR = temp;
 80014da:	f8c9 3000 	str.w	r3, [r9]

        temp = EXTI->EMR;
 80014de:	f8d9 3004 	ldr.w	r3, [r9, #4]
        temp &= ~(iocurrent);
        if((GPIO_Init->Mode & GPIO_MODE_EVT) == GPIO_MODE_EVT)
 80014e2:	038d      	lsls	r5, r1, #14
        temp &= ~(iocurrent);
 80014e4:	bf54      	ite	pl
 80014e6:	4013      	andpl	r3, r2
        {
          temp |= iocurrent;
 80014e8:	433b      	orrmi	r3, r7
        }
        EXTI->EMR = temp;
 80014ea:	f8c9 3004 	str.w	r3, [r9, #4]

        /* Clear Rising Falling edge configuration */
        temp = EXTI->RTSR;
 80014ee:	f8d9 3008 	ldr.w	r3, [r9, #8]
        temp &= ~(iocurrent);
        if((GPIO_Init->Mode & RISING_EDGE) == RISING_EDGE)
 80014f2:	02cc      	lsls	r4, r1, #11
        temp &= ~(iocurrent);
 80014f4:	bf54      	ite	pl
 80014f6:	4013      	andpl	r3, r2
        {
          temp |= iocurrent;
 80014f8:	433b      	orrmi	r3, r7
        }
        EXTI->RTSR = temp;
 80014fa:	f8c9 3008 	str.w	r3, [r9, #8]

        temp = EXTI->FTSR;
 80014fe:	f8d9 300c 	ldr.w	r3, [r9, #12]
        temp &= ~(iocurrent);
        if((GPIO_Init->Mode & FALLING_EDGE) == FALLING_EDGE)
 8001502:	0289      	lsls	r1, r1, #10
        temp &= ~(iocurrent);
 8001504:	bf54      	ite	pl
 8001506:	4013      	andpl	r3, r2
        {
          temp |= iocurrent;
 8001508:	433b      	orrmi	r3, r7
        }
        EXTI->FTSR = temp;
 800150a:	f8c9 300c 	str.w	r3, [r9, #12]
      }
    }

    position++;
 800150e:	3601      	adds	r6, #1
  while (((GPIO_Init->Pin) >> position) != 0x00u)
 8001510:	fa3e f306 	lsrs.w	r3, lr, r6
 8001514:	f47f af73 	bne.w	80013fe <HAL_GPIO_Init+0x1a>
  }
}
 8001518:	b003      	add	sp, #12
 800151a:	e8bd 8ff0 	ldmia.w	sp!, {r4, r5, r6, r7, r8, r9, sl, fp, pc}
        temp = GPIOx->OSPEEDR;
 800151e:	6885      	ldr	r5, [r0, #8]
      if((GPIO_Init->Mode == GPIO_MODE_AF_PP) || (GPIO_Init->Mode == GPIO_MODE_AF_OD))
 8001520:	f1ba 0f02 	cmp.w	sl, #2
        temp &= ~(GPIO_OSPEEDR_OSPEED0 << (position * 2u));
 8001524:	ea05 0b02 	and.w	fp, r5, r2
        temp |= (GPIO_Init->Speed << (position * 2u));
 8001528:	f8d8 500c 	ldr.w	r5, [r8, #12]
 800152c:	fa05 f50c 	lsl.w	r5, r5, ip
 8001530:	ea45 050b 	orr.w	r5, r5, fp
        GPIOx->OSPEEDR = temp;
 8001534:	6085      	str	r5, [r0, #8]
        temp = GPIOx->OTYPER;
 8001536:	6845      	ldr	r5, [r0, #4]
        temp |= (((GPIO_Init->Mode & GPIO_OUTPUT_TYPE) >> 4u) << position);
 8001538:	f3c1 1b00 	ubfx	fp, r1, #4, #1
        temp &= ~(GPIO_OTYPER_OT0 << position) ;
 800153c:	ea25 0503 	bic.w	r5, r5, r3
        temp |= (((GPIO_Init->Mode & GPIO_OUTPUT_TYPE) >> 4u) << position);
 8001540:	465b      	mov	r3, fp
 8001542:	fa03 f306 	lsl.w	r3, r3, r6
 8001546:	ea43 0305 	orr.w	r3, r3, r5
        GPIOx->OTYPER = temp;
 800154a:	6043      	str	r3, [r0, #4]
      temp = GPIOx->PUPDR;
 800154c:	68c3      	ldr	r3, [r0, #12]
      temp &= ~(GPIO_PUPDR_PUPD0 << (position * 2u));
 800154e:	ea03 0302 	and.w	r3, r3, r2
      temp |= ((GPIO_Init->Pull) << (position * 2u));
 8001552:	ea44 0403 	orr.w	r4, r4, r3
      GPIOx->PUPDR = temp;
 8001556:	60c4      	str	r4, [r0, #12]
      if((GPIO_Init->Mode == GPIO_MODE_AF_PP) || (GPIO_Init->Mode == GPIO_MODE_AF_OD))
 8001558:	f47f af6e 	bne.w	8001438 <HAL_GPIO_Init+0x54>
        temp &= ~(0xFu << ((position & 0x07u) * 4u));
 800155c:	f04f 0b0f 	mov.w	fp, #15
        temp = GPIOx->AFR[position >> 3u];
 8001560:	08f5      	lsrs	r5, r6, #3
 8001562:	eb00 0585 	add.w	r5, r0, r5, lsl #2
        temp &= ~(0xFu << ((position & 0x07u) * 4u));
 8001566:	f006 0407 	and.w	r4, r6, #7
        temp = GPIOx->AFR[position >> 3u];
 800156a:	6a2b      	ldr	r3, [r5, #32]
        temp &= ~(0xFu << ((position & 0x07u) * 4u));
 800156c:	00a4      	lsls	r4, r4, #2
 800156e:	fa0b fb04 	lsl.w	fp, fp, r4
 8001572:	ea23 0a0b 	bic.w	sl, r3, fp
        temp |= ((GPIO_Init->Alternate) << ((position & 0x07u) * 4u));
 8001576:	f8d8 3010 	ldr.w	r3, [r8, #16]
 800157a:	40a3      	lsls	r3, r4
 800157c:	ea43 030a 	orr.w	r3, r3, sl
        GPIOx->AFR[position >> 3u] = temp;
 8001580:	622b      	str	r3, [r5, #32]
 8001582:	e759      	b.n	8001438 <HAL_GPIO_Init+0x54>
 8001584:	2502      	movs	r5, #2
 8001586:	fa05 f202 	lsl.w	r2, r5, r2
 800158a:	4314      	orrs	r4, r2
 800158c:	e79d      	b.n	80014ca <HAL_GPIO_Init+0xe6>
 800158e:	2501      	movs	r5, #1
 8001590:	fa05 f202 	lsl.w	r2, r5, r2
 8001594:	4314      	orrs	r4, r2
 8001596:	e798      	b.n	80014ca <HAL_GPIO_Init+0xe6>
 8001598:	2505      	movs	r5, #5
 800159a:	fa05 f202 	lsl.w	r2, r5, r2
 800159e:	4314      	orrs	r4, r2
 80015a0:	e793      	b.n	80014ca <HAL_GPIO_Init+0xe6>
 80015a2:	2503      	movs	r5, #3
 80015a4:	fa05 f202 	lsl.w	r2, r5, r2
 80015a8:	4314      	orrs	r4, r2
 80015aa:	e78e      	b.n	80014ca <HAL_GPIO_Init+0xe6>
 80015ac:	2504      	movs	r5, #4
 80015ae:	fa05 f202 	lsl.w	r2, r5, r2
 80015b2:	4314      	orrs	r4, r2
 80015b4:	e789      	b.n	80014ca <HAL_GPIO_Init+0xe6>
 80015b6:	2506      	movs	r5, #6
 80015b8:	fa05 f202 	lsl.w	r2, r5, r2
 80015bc:	4314      	orrs	r4, r2
 80015be:	e784      	b.n	80014ca <HAL_GPIO_Init+0xe6>
 80015c0:	2507      	movs	r5, #7
 80015c2:	fa05 f202 	lsl.w	r2, r5, r2
 80015c6:	4314      	orrs	r4, r2
 80015c8:	e77f      	b.n	80014ca <HAL_GPIO_Init+0xe6>
 80015ca:	bf00      	nop
 80015cc:	40023800 	.word	0x40023800
 80015d0:	40020000 	.word	0x40020000
 80015d4:	40020800 	.word	0x40020800
 80015d8:	40020c00 	.word	0x40020c00
 80015dc:	40021000 	.word	0x40021000
 80015e0:	40021400 	.word	0x40021400
 80015e4:	40021800 	.word	0x40021800
 80015e8:	40021c00 	.word	0x40021c00
 80015ec:	40022000 	.word	0x40022000
 80015f0:	40013c00 	.word	0x40013c00

080015f4 <HAL_GPIO_ReadPin>:
  GPIO_PinState bitstatus;

  /* Check the parameters */
  assert_param(IS_GPIO_PIN(GPIO_Pin));

  if((GPIOx->IDR & GPIO_Pin) != (uint32_t)GPIO_PIN_RESET)
 80015f4:	6903      	ldr	r3, [r0, #16]
 80015f6:	4219      	tst	r1, r3
  else
  {
    bitstatus = GPIO_PIN_RESET;
  }
  return bitstatus;
}
 80015f8:	bf14      	ite	ne
 80015fa:	2001      	movne	r0, #1
 80015fc:	2000      	moveq	r0, #0
 80015fe:	4770      	bx	lr

08001600 <HAL_GPIO_WritePin>:
{
  /* Check the parameters */
  assert_param(IS_GPIO_PIN(GPIO_Pin));
  assert_param(IS_GPIO_PIN_ACTION(PinState));

  if(PinState != GPIO_PIN_RESET)
 8001600:	b902      	cbnz	r2, 8001604 <HAL_GPIO_WritePin+0x4>
  {
    GPIOx->BSRR = GPIO_Pin;
  }
  else
  {
    GPIOx->BSRR = (uint32_t)GPIO_Pin << 16U;
 8001602:	0409      	lsls	r1, r1, #16
 8001604:	6181      	str	r1, [r0, #24]
  }
}
 8001606:	4770      	bx	lr

08001608 <HAL_GPIO_EXTI_IRQHandler>:
  * @retval None
  */
void HAL_GPIO_EXTI_IRQHandler(uint16_t GPIO_Pin)
{
  /* EXTI line interrupt detected */
  if(__HAL_GPIO_EXTI_GET_IT(GPIO_Pin) != 0x00u)
 8001608:	4a04      	ldr	r2, [pc, #16]	; (800161c <HAL_GPIO_EXTI_IRQHandler+0x14>)
 800160a:	6951      	ldr	r1, [r2, #20]
 800160c:	4201      	tst	r1, r0
 800160e:	d100      	bne.n	8001612 <HAL_GPIO_EXTI_IRQHandler+0xa>
 8001610:	4770      	bx	lr
{
 8001612:	b508      	push	{r3, lr}
  {
    __HAL_GPIO_EXTI_CLEAR_IT(GPIO_Pin);
 8001614:	6150      	str	r0, [r2, #20]
    HAL_GPIO_EXTI_Callback(GPIO_Pin);
 8001616:	f7ff f85d 	bl	80006d4 <HAL_GPIO_EXTI_Callback>
  }
}
 800161a:	bd08      	pop	{r3, pc}
 800161c:	40013c00 	.word	0x40013c00

08001620 <HAL_RCC_OscConfig>:
HAL_StatusTypeDef HAL_RCC_OscConfig(RCC_OscInitTypeDef  *RCC_OscInitStruct)
{
  uint32_t tickstart;

  /* Check Null pointer */
  if(RCC_OscInitStruct == NULL)
 8001620:	2800      	cmp	r0, #0
 8001622:	f000 8125 	beq.w	8001870 <HAL_RCC_OscConfig+0x250>
{
 8001626:	e92d 41f0 	stmdb	sp!, {r4, r5, r6, r7, r8, lr}
  }

  /* Check the parameters */
  assert_param(IS_RCC_OSCILLATORTYPE(RCC_OscInitStruct->OscillatorType));
  /*------------------------------- HSE Configuration ------------------------*/
  if(((RCC_OscInitStruct->OscillatorType) & RCC_OSCILLATORTYPE_HSE) == RCC_OSCILLATORTYPE_HSE)
 800162a:	6803      	ldr	r3, [r0, #0]
{
 800162c:	b082      	sub	sp, #8
  if(((RCC_OscInitStruct->OscillatorType) & RCC_OSCILLATORTYPE_HSE) == RCC_OSCILLATORTYPE_HSE)
 800162e:	07dd      	lsls	r5, r3, #31
 8001630:	4604      	mov	r4, r0
 8001632:	d522      	bpl.n	800167a <HAL_RCC_OscConfig+0x5a>
  {
    /* Check the parameters */
    assert_param(IS_RCC_HSE(RCC_OscInitStruct->HSEState));
    /* When the HSE is used as system clock or clock source for PLL in these cases HSE will not disabled */
    if((__HAL_RCC_GET_SYSCLK_SOURCE() == RCC_CFGR_SWS_HSE) ||\
 8001634:	49a6      	ldr	r1, [pc, #664]	; (80018d0 <HAL_RCC_OscConfig+0x2b0>)
 8001636:	688a      	ldr	r2, [r1, #8]
 8001638:	f002 020c 	and.w	r2, r2, #12
 800163c:	2a04      	cmp	r2, #4
 800163e:	f000 80ea 	beq.w	8001816 <HAL_RCC_OscConfig+0x1f6>
      ((__HAL_RCC_GET_SYSCLK_SOURCE() == RCC_CFGR_SWS_PLL) && ((RCC->PLLCFGR & RCC_PLLCFGR_PLLSRC) == RCC_PLLCFGR_PLLSRC_HSE)))
 8001642:	688a      	ldr	r2, [r1, #8]
 8001644:	f002 020c 	and.w	r2, r2, #12
    if((__HAL_RCC_GET_SYSCLK_SOURCE() == RCC_CFGR_SWS_HSE) ||\
 8001648:	2a08      	cmp	r2, #8
 800164a:	f000 80e0 	beq.w	800180e <HAL_RCC_OscConfig+0x1ee>
      }
    }
    else
    {
      /* Set the new HSE configuration ---------------------------------------*/
      __HAL_RCC_HSE_CONFIG(RCC_OscInitStruct->HSEState);
 800164e:	4ba1      	ldr	r3, [pc, #644]	; (80018d4 <HAL_RCC_OscConfig+0x2b4>)
 8001650:	7922      	ldrb	r2, [r4, #4]
 8001652:	701a      	strb	r2, [r3, #0]

      /* Check the HSE State */
      if((RCC_OscInitStruct->HSEState) != RCC_HSE_OFF)
 8001654:	6863      	ldr	r3, [r4, #4]
 8001656:	2b00      	cmp	r3, #0
 8001658:	f000 80cb 	beq.w	80017f2 <HAL_RCC_OscConfig+0x1d2>
      {
        /* Get Start Tick */
        tickstart = HAL_GetTick();
 800165c:	f7ff fcca 	bl	8000ff4 <HAL_GetTick>

        /* Wait till HSE is ready */
        while(__HAL_RCC_GET_FLAG(RCC_FLAG_HSERDY) == RESET)
 8001660:	4d9b      	ldr	r5, [pc, #620]	; (80018d0 <HAL_RCC_OscConfig+0x2b0>)
        tickstart = HAL_GetTick();
 8001662:	4606      	mov	r6, r0
        while(__HAL_RCC_GET_FLAG(RCC_FLAG_HSERDY) == RESET)
 8001664:	e005      	b.n	8001672 <HAL_RCC_OscConfig+0x52>
        {
          if((HAL_GetTick() - tickstart ) > HSE_TIMEOUT_VALUE)
 8001666:	f7ff fcc5 	bl	8000ff4 <HAL_GetTick>
 800166a:	1b80      	subs	r0, r0, r6
 800166c:	2864      	cmp	r0, #100	; 0x64
 800166e:	f200 80ed 	bhi.w	800184c <HAL_RCC_OscConfig+0x22c>
        while(__HAL_RCC_GET_FLAG(RCC_FLAG_HSERDY) == RESET)
 8001672:	682b      	ldr	r3, [r5, #0]
 8001674:	039a      	lsls	r2, r3, #14
 8001676:	d5f6      	bpl.n	8001666 <HAL_RCC_OscConfig+0x46>
 8001678:	6823      	ldr	r3, [r4, #0]
        }
      }
    }
  }
  /*----------------------------- HSI Configuration --------------------------*/
  if(((RCC_OscInitStruct->OscillatorType) & RCC_OSCILLATORTYPE_HSI) == RCC_OSCILLATORTYPE_HSI)
 800167a:	079f      	lsls	r7, r3, #30
 800167c:	d46f      	bmi.n	800175e <HAL_RCC_OscConfig+0x13e>
        }
      }
    }
  }
  /*------------------------------ LSI Configuration -------------------------*/
  if(((RCC_OscInitStruct->OscillatorType) & RCC_OSCILLATORTYPE_LSI) == RCC_OSCILLATORTYPE_LSI)
 800167e:	071a      	lsls	r2, r3, #28
 8001680:	d515      	bpl.n	80016ae <HAL_RCC_OscConfig+0x8e>
  {
    /* Check the parameters */
    assert_param(IS_RCC_LSI(RCC_OscInitStruct->LSIState));

    /* Check the LSI State */
    if((RCC_OscInitStruct->LSIState)!= RCC_LSI_OFF)
 8001682:	6963      	ldr	r3, [r4, #20]
 8001684:	2b00      	cmp	r3, #0
 8001686:	f000 80a4 	beq.w	80017d2 <HAL_RCC_OscConfig+0x1b2>
    {
      /* Enable the Internal Low Speed oscillator (LSI). */
      __HAL_RCC_LSI_ENABLE();
 800168a:	2201      	movs	r2, #1
 800168c:	4b92      	ldr	r3, [pc, #584]	; (80018d8 <HAL_RCC_OscConfig+0x2b8>)

      /* Get Start Tick */
      tickstart = HAL_GetTick();

      /* Wait till LSI is ready */
      while(__HAL_RCC_GET_FLAG(RCC_FLAG_LSIRDY) == RESET)
 800168e:	4d90      	ldr	r5, [pc, #576]	; (80018d0 <HAL_RCC_OscConfig+0x2b0>)
      __HAL_RCC_LSI_ENABLE();
 8001690:	601a      	str	r2, [r3, #0]
      tickstart = HAL_GetTick();
 8001692:	f7ff fcaf 	bl	8000ff4 <HAL_GetTick>
 8001696:	4606      	mov	r6, r0
      while(__HAL_RCC_GET_FLAG(RCC_FLAG_LSIRDY) == RESET)
 8001698:	e005      	b.n	80016a6 <HAL_RCC_OscConfig+0x86>
      {
        if((HAL_GetTick() - tickstart ) > LSI_TIMEOUT_VALUE)
 800169a:	f7ff fcab 	bl	8000ff4 <HAL_GetTick>
 800169e:	1b80      	subs	r0, r0, r6
 80016a0:	2802      	cmp	r0, #2
 80016a2:	f200 80d3 	bhi.w	800184c <HAL_RCC_OscConfig+0x22c>
      while(__HAL_RCC_GET_FLAG(RCC_FLAG_LSIRDY) == RESET)
 80016a6:	6f6b      	ldr	r3, [r5, #116]	; 0x74
 80016a8:	079b      	lsls	r3, r3, #30
 80016aa:	d5f6      	bpl.n	800169a <HAL_RCC_OscConfig+0x7a>
 80016ac:	6823      	ldr	r3, [r4, #0]
        }
      }
    }
  }
  /*------------------------------ LSE Configuration -------------------------*/
  if(((RCC_OscInitStruct->OscillatorType) & RCC_OSCILLATORTYPE_LSE) == RCC_OSCILLATORTYPE_LSE)
 80016ae:	0758      	lsls	r0, r3, #29
 80016b0:	d534      	bpl.n	800171c <HAL_RCC_OscConfig+0xfc>
    /* Check the parameters */
    assert_param(IS_RCC_LSE(RCC_OscInitStruct->LSEState));

    /* Update LSE configuration in Backup Domain control register    */
    /* Requires to enable write access to Backup Domain of necessary */
    if(__HAL_RCC_PWR_IS_CLK_DISABLED())
 80016b2:	4a87      	ldr	r2, [pc, #540]	; (80018d0 <HAL_RCC_OscConfig+0x2b0>)
 80016b4:	6c13      	ldr	r3, [r2, #64]	; 0x40
 80016b6:	f013 5380 	ands.w	r3, r3, #268435456	; 0x10000000
 80016ba:	f040 80db 	bne.w	8001874 <HAL_RCC_OscConfig+0x254>
    {
      __HAL_RCC_PWR_CLK_ENABLE();
      pwrclkchanged = SET;
 80016be:	2501      	movs	r5, #1
      __HAL_RCC_PWR_CLK_ENABLE();
 80016c0:	9301      	str	r3, [sp, #4]
 80016c2:	6c13      	ldr	r3, [r2, #64]	; 0x40
 80016c4:	f043 5380 	orr.w	r3, r3, #268435456	; 0x10000000
 80016c8:	6413      	str	r3, [r2, #64]	; 0x40
 80016ca:	6c13      	ldr	r3, [r2, #64]	; 0x40
 80016cc:	f003 5380 	and.w	r3, r3, #268435456	; 0x10000000
 80016d0:	9301      	str	r3, [sp, #4]
 80016d2:	9b01      	ldr	r3, [sp, #4]
    }

    /* Enable write access to Backup domain */
    PWR->CR |= PWR_CR_DBP;
 80016d4:	4b81      	ldr	r3, [pc, #516]	; (80018dc <HAL_RCC_OscConfig+0x2bc>)
 80016d6:	681a      	ldr	r2, [r3, #0]
 80016d8:	f442 7280 	orr.w	r2, r2, #256	; 0x100
 80016dc:	601a      	str	r2, [r3, #0]

    if(HAL_IS_BIT_CLR(PWR->CR, PWR_CR_DBP))
 80016de:	681a      	ldr	r2, [r3, #0]
 80016e0:	05d1      	lsls	r1, r2, #23
 80016e2:	f140 80a2 	bpl.w	800182a <HAL_RCC_OscConfig+0x20a>
        }
      }
    }

    /* Set the new LSE configuration -----------------------------------------*/
    __HAL_RCC_LSE_CONFIG(RCC_OscInitStruct->LSEState);
 80016e6:	4b7e      	ldr	r3, [pc, #504]	; (80018e0 <HAL_RCC_OscConfig+0x2c0>)
 80016e8:	7a22      	ldrb	r2, [r4, #8]
 80016ea:	701a      	strb	r2, [r3, #0]
    /* Check the LSE State */
    if((RCC_OscInitStruct->LSEState) != RCC_LSE_OFF)
 80016ec:	68a3      	ldr	r3, [r4, #8]
 80016ee:	2b00      	cmp	r3, #0
 80016f0:	f000 80c2 	beq.w	8001878 <HAL_RCC_OscConfig+0x258>
    {
      /* Get Start Tick */
      tickstart = HAL_GetTick();
 80016f4:	f7ff fc7e 	bl	8000ff4 <HAL_GetTick>

      /* Wait till LSE is ready */
      while(__HAL_RCC_GET_FLAG(RCC_FLAG_LSERDY) == RESET)
 80016f8:	4e75      	ldr	r6, [pc, #468]	; (80018d0 <HAL_RCC_OscConfig+0x2b0>)
      tickstart = HAL_GetTick();
 80016fa:	4680      	mov	r8, r0
      {
        if((HAL_GetTick() - tickstart ) > RCC_LSE_TIMEOUT_VALUE)
 80016fc:	f241 3788 	movw	r7, #5000	; 0x1388
      while(__HAL_RCC_GET_FLAG(RCC_FLAG_LSERDY) == RESET)
 8001700:	e006      	b.n	8001710 <HAL_RCC_OscConfig+0xf0>
        if((HAL_GetTick() - tickstart ) > RCC_LSE_TIMEOUT_VALUE)
 8001702:	f7ff fc77 	bl	8000ff4 <HAL_GetTick>
 8001706:	eba0 0008 	sub.w	r0, r0, r8
 800170a:	42b8      	cmp	r0, r7
 800170c:	f200 809e 	bhi.w	800184c <HAL_RCC_OscConfig+0x22c>
      while(__HAL_RCC_GET_FLAG(RCC_FLAG_LSERDY) == RESET)
 8001710:	6f33      	ldr	r3, [r6, #112]	; 0x70
 8001712:	079b      	lsls	r3, r3, #30
 8001714:	d5f5      	bpl.n	8001702 <HAL_RCC_OscConfig+0xe2>
        }
      }
    }

    /* Restore clock configuration if changed */
    if(pwrclkchanged == SET)
 8001716:	2d00      	cmp	r5, #0
 8001718:	f040 80d3 	bne.w	80018c2 <HAL_RCC_OscConfig+0x2a2>
    }
  }
  /*-------------------------------- PLL Configuration -----------------------*/
  /* Check the parameters */
  assert_param(IS_RCC_PLL(RCC_OscInitStruct->PLL.PLLState));
  if ((RCC_OscInitStruct->PLL.PLLState) != RCC_PLL_NONE)
 800171c:	69a0      	ldr	r0, [r4, #24]
 800171e:	b1d0      	cbz	r0, 8001756 <HAL_RCC_OscConfig+0x136>
  {
    /* Check if the PLL is used as system clock or not */
    if(__HAL_RCC_GET_SYSCLK_SOURCE() != RCC_CFGR_SWS_PLL)
 8001720:	4d6b      	ldr	r5, [pc, #428]	; (80018d0 <HAL_RCC_OscConfig+0x2b0>)
 8001722:	68aa      	ldr	r2, [r5, #8]
 8001724:	f002 020c 	and.w	r2, r2, #12
 8001728:	2a08      	cmp	r2, #8
 800172a:	f000 80df 	beq.w	80018ec <HAL_RCC_OscConfig+0x2cc>
    {
      if((RCC_OscInitStruct->PLL.PLLState) == RCC_PLL_ON)
 800172e:	2802      	cmp	r0, #2
        assert_param(IS_RCC_PLLN_VALUE(RCC_OscInitStruct->PLL.PLLN));
        assert_param(IS_RCC_PLLP_VALUE(RCC_OscInitStruct->PLL.PLLP));
        assert_param(IS_RCC_PLLQ_VALUE(RCC_OscInitStruct->PLL.PLLQ));

        /* Disable the main PLL. */
        __HAL_RCC_PLL_DISABLE();
 8001730:	f04f 0100 	mov.w	r1, #0
 8001734:	4a6b      	ldr	r2, [pc, #428]	; (80018e4 <HAL_RCC_OscConfig+0x2c4>)
      if((RCC_OscInitStruct->PLL.PLLState) == RCC_PLL_ON)
 8001736:	f000 80fc 	beq.w	8001932 <HAL_RCC_OscConfig+0x312>
        }
      }
      else
      {
        /* Disable the main PLL. */
        __HAL_RCC_PLL_DISABLE();
 800173a:	6011      	str	r1, [r2, #0]

        /* Get Start Tick */
        tickstart = HAL_GetTick();
 800173c:	f7ff fc5a 	bl	8000ff4 <HAL_GetTick>

        /* Wait till PLL is ready */
        while(__HAL_RCC_GET_FLAG(RCC_FLAG_PLLRDY) != RESET)
 8001740:	462c      	mov	r4, r5
        tickstart = HAL_GetTick();
 8001742:	4605      	mov	r5, r0
        while(__HAL_RCC_GET_FLAG(RCC_FLAG_PLLRDY) != RESET)
 8001744:	e004      	b.n	8001750 <HAL_RCC_OscConfig+0x130>
        {
          if((HAL_GetTick() - tickstart ) > PLL_TIMEOUT_VALUE)
 8001746:	f7ff fc55 	bl	8000ff4 <HAL_GetTick>
 800174a:	1b40      	subs	r0, r0, r5
 800174c:	2864      	cmp	r0, #100	; 0x64
 800174e:	d87d      	bhi.n	800184c <HAL_RCC_OscConfig+0x22c>
        while(__HAL_RCC_GET_FLAG(RCC_FLAG_PLLRDY) != RESET)
 8001750:	6823      	ldr	r3, [r4, #0]
 8001752:	019b      	lsls	r3, r3, #6
 8001754:	d4f7      	bmi.n	8001746 <HAL_RCC_OscConfig+0x126>
          return HAL_ERROR;
        }
      }
    }
  }
  return HAL_OK;
 8001756:	2000      	movs	r0, #0
}
 8001758:	b002      	add	sp, #8
 800175a:	e8bd 81f0 	ldmia.w	sp!, {r4, r5, r6, r7, r8, pc}
    if((__HAL_RCC_GET_SYSCLK_SOURCE() == RCC_CFGR_SWS_HSI) ||\
 800175e:	4a5c      	ldr	r2, [pc, #368]	; (80018d0 <HAL_RCC_OscConfig+0x2b0>)
 8001760:	6891      	ldr	r1, [r2, #8]
 8001762:	f011 0f0c 	tst.w	r1, #12
 8001766:	d029      	beq.n	80017bc <HAL_RCC_OscConfig+0x19c>
      ((__HAL_RCC_GET_SYSCLK_SOURCE() == RCC_CFGR_SWS_PLL) && ((RCC->PLLCFGR & RCC_PLLCFGR_PLLSRC) == RCC_PLLCFGR_PLLSRC_HSI)))
 8001768:	6891      	ldr	r1, [r2, #8]
 800176a:	f001 010c 	and.w	r1, r1, #12
    if((__HAL_RCC_GET_SYSCLK_SOURCE() == RCC_CFGR_SWS_HSI) ||\
 800176e:	2908      	cmp	r1, #8
 8001770:	d021      	beq.n	80017b6 <HAL_RCC_OscConfig+0x196>
      if((RCC_OscInitStruct->HSIState)!= RCC_HSI_OFF)
 8001772:	68e3      	ldr	r3, [r4, #12]
 8001774:	2b00      	cmp	r3, #0
 8001776:	f000 8093 	beq.w	80018a0 <HAL_RCC_OscConfig+0x280>
        __HAL_RCC_HSI_ENABLE();
 800177a:	2201      	movs	r2, #1
 800177c:	4b5a      	ldr	r3, [pc, #360]	; (80018e8 <HAL_RCC_OscConfig+0x2c8>)
        while(__HAL_RCC_GET_FLAG(RCC_FLAG_HSIRDY) == RESET)
 800177e:	4d54      	ldr	r5, [pc, #336]	; (80018d0 <HAL_RCC_OscConfig+0x2b0>)
        __HAL_RCC_HSI_ENABLE();
 8001780:	601a      	str	r2, [r3, #0]
        tickstart = HAL_GetTick();
 8001782:	f7ff fc37 	bl	8000ff4 <HAL_GetTick>
 8001786:	4606      	mov	r6, r0
        while(__HAL_RCC_GET_FLAG(RCC_FLAG_HSIRDY) == RESET)
 8001788:	e004      	b.n	8001794 <HAL_RCC_OscConfig+0x174>
          if((HAL_GetTick() - tickstart ) > HSI_TIMEOUT_VALUE)
 800178a:	f7ff fc33 	bl	8000ff4 <HAL_GetTick>
 800178e:	1b80      	subs	r0, r0, r6
 8001790:	2802      	cmp	r0, #2
 8001792:	d85b      	bhi.n	800184c <HAL_RCC_OscConfig+0x22c>
        while(__HAL_RCC_GET_FLAG(RCC_FLAG_HSIRDY) == RESET)
 8001794:	682b      	ldr	r3, [r5, #0]
 8001796:	0798      	lsls	r0, r3, #30
 8001798:	d5f7      	bpl.n	800178a <HAL_RCC_OscConfig+0x16a>
        __HAL_RCC_HSI_CALIBRATIONVALUE_ADJUST(RCC_OscInitStruct->HSICalibrationValue);
 800179a:	6829      	ldr	r1, [r5, #0]
  uint32_t result;

#if ((defined (__ARM_ARCH_7M__      ) && (__ARM_ARCH_7M__      == 1)) || \
     (defined (__ARM_ARCH_7EM__     ) && (__ARM_ARCH_7EM__     == 1)) || \
     (defined (__ARM_ARCH_8M_MAIN__ ) && (__ARM_ARCH_8M_MAIN__ == 1))    )
   __ASM volatile ("rbit %0, %1" : "=r" (result) : "r" (value) );
 800179c:	23f8      	movs	r3, #248	; 0xf8
 800179e:	fa93 f3a3 	rbit	r3, r3
 80017a2:	fab3 f283 	clz	r2, r3
 80017a6:	6923      	ldr	r3, [r4, #16]
 80017a8:	f021 01f8 	bic.w	r1, r1, #248	; 0xf8
 80017ac:	4093      	lsls	r3, r2
 80017ae:	430b      	orrs	r3, r1
 80017b0:	602b      	str	r3, [r5, #0]
 80017b2:	6823      	ldr	r3, [r4, #0]
 80017b4:	e763      	b.n	800167e <HAL_RCC_OscConfig+0x5e>
      ((__HAL_RCC_GET_SYSCLK_SOURCE() == RCC_CFGR_SWS_PLL) && ((RCC->PLLCFGR & RCC_PLLCFGR_PLLSRC) == RCC_PLLCFGR_PLLSRC_HSI)))
 80017b6:	6852      	ldr	r2, [r2, #4]
 80017b8:	0256      	lsls	r6, r2, #9
 80017ba:	d4da      	bmi.n	8001772 <HAL_RCC_OscConfig+0x152>
      if((__HAL_RCC_GET_FLAG(RCC_FLAG_HSIRDY) != RESET) && (RCC_OscInitStruct->HSIState != RCC_HSI_ON))
 80017bc:	4a44      	ldr	r2, [pc, #272]	; (80018d0 <HAL_RCC_OscConfig+0x2b0>)
 80017be:	6812      	ldr	r2, [r2, #0]
 80017c0:	0795      	lsls	r5, r2, #30
 80017c2:	d547      	bpl.n	8001854 <HAL_RCC_OscConfig+0x234>
 80017c4:	68e2      	ldr	r2, [r4, #12]
 80017c6:	2a01      	cmp	r2, #1
 80017c8:	d044      	beq.n	8001854 <HAL_RCC_OscConfig+0x234>
        return HAL_ERROR;
 80017ca:	2001      	movs	r0, #1
}
 80017cc:	b002      	add	sp, #8
 80017ce:	e8bd 81f0 	ldmia.w	sp!, {r4, r5, r6, r7, r8, pc}
      __HAL_RCC_LSI_DISABLE();
 80017d2:	4a41      	ldr	r2, [pc, #260]	; (80018d8 <HAL_RCC_OscConfig+0x2b8>)
      while(__HAL_RCC_GET_FLAG(RCC_FLAG_LSIRDY) != RESET)
 80017d4:	4d3e      	ldr	r5, [pc, #248]	; (80018d0 <HAL_RCC_OscConfig+0x2b0>)
      __HAL_RCC_LSI_DISABLE();
 80017d6:	6013      	str	r3, [r2, #0]
      tickstart = HAL_GetTick();
 80017d8:	f7ff fc0c 	bl	8000ff4 <HAL_GetTick>
 80017dc:	4606      	mov	r6, r0
      while(__HAL_RCC_GET_FLAG(RCC_FLAG_LSIRDY) != RESET)
 80017de:	e004      	b.n	80017ea <HAL_RCC_OscConfig+0x1ca>
        if((HAL_GetTick() - tickstart ) > LSI_TIMEOUT_VALUE)
 80017e0:	f7ff fc08 	bl	8000ff4 <HAL_GetTick>
 80017e4:	1b80      	subs	r0, r0, r6
 80017e6:	2802      	cmp	r0, #2
 80017e8:	d830      	bhi.n	800184c <HAL_RCC_OscConfig+0x22c>
      while(__HAL_RCC_GET_FLAG(RCC_FLAG_LSIRDY) != RESET)
 80017ea:	6f6b      	ldr	r3, [r5, #116]	; 0x74
 80017ec:	079f      	lsls	r7, r3, #30
 80017ee:	d4f7      	bmi.n	80017e0 <HAL_RCC_OscConfig+0x1c0>
 80017f0:	e75c      	b.n	80016ac <HAL_RCC_OscConfig+0x8c>
        tickstart = HAL_GetTick();
 80017f2:	f7ff fbff 	bl	8000ff4 <HAL_GetTick>
        while(__HAL_RCC_GET_FLAG(RCC_FLAG_HSERDY) != RESET)
 80017f6:	4d36      	ldr	r5, [pc, #216]	; (80018d0 <HAL_RCC_OscConfig+0x2b0>)
        tickstart = HAL_GetTick();
 80017f8:	4606      	mov	r6, r0
        while(__HAL_RCC_GET_FLAG(RCC_FLAG_HSERDY) != RESET)
 80017fa:	e004      	b.n	8001806 <HAL_RCC_OscConfig+0x1e6>
          if((HAL_GetTick() - tickstart ) > HSE_TIMEOUT_VALUE)
 80017fc:	f7ff fbfa 	bl	8000ff4 <HAL_GetTick>
 8001800:	1b80      	subs	r0, r0, r6
 8001802:	2864      	cmp	r0, #100	; 0x64
 8001804:	d822      	bhi.n	800184c <HAL_RCC_OscConfig+0x22c>
        while(__HAL_RCC_GET_FLAG(RCC_FLAG_HSERDY) != RESET)
 8001806:	682b      	ldr	r3, [r5, #0]
 8001808:	039b      	lsls	r3, r3, #14
 800180a:	d4f7      	bmi.n	80017fc <HAL_RCC_OscConfig+0x1dc>
 800180c:	e734      	b.n	8001678 <HAL_RCC_OscConfig+0x58>
      ((__HAL_RCC_GET_SYSCLK_SOURCE() == RCC_CFGR_SWS_PLL) && ((RCC->PLLCFGR & RCC_PLLCFGR_PLLSRC) == RCC_PLLCFGR_PLLSRC_HSE)))
 800180e:	684a      	ldr	r2, [r1, #4]
 8001810:	0250      	lsls	r0, r2, #9
 8001812:	f57f af1c 	bpl.w	800164e <HAL_RCC_OscConfig+0x2e>
      if((__HAL_RCC_GET_FLAG(RCC_FLAG_HSERDY) != RESET) && (RCC_OscInitStruct->HSEState == RCC_HSE_OFF))
 8001816:	4a2e      	ldr	r2, [pc, #184]	; (80018d0 <HAL_RCC_OscConfig+0x2b0>)
 8001818:	6812      	ldr	r2, [r2, #0]
 800181a:	0391      	lsls	r1, r2, #14
 800181c:	f57f af2d 	bpl.w	800167a <HAL_RCC_OscConfig+0x5a>
 8001820:	6862      	ldr	r2, [r4, #4]
 8001822:	2a00      	cmp	r2, #0
 8001824:	f47f af29 	bne.w	800167a <HAL_RCC_OscConfig+0x5a>
 8001828:	e7cf      	b.n	80017ca <HAL_RCC_OscConfig+0x1aa>
      SET_BIT(PWR->CR, PWR_CR_DBP);
 800182a:	681a      	ldr	r2, [r3, #0]
      while(HAL_IS_BIT_CLR(PWR->CR, PWR_CR_DBP))
 800182c:	461e      	mov	r6, r3
      SET_BIT(PWR->CR, PWR_CR_DBP);
 800182e:	f442 7280 	orr.w	r2, r2, #256	; 0x100
 8001832:	601a      	str	r2, [r3, #0]
      tickstart = HAL_GetTick();
 8001834:	f7ff fbde 	bl	8000ff4 <HAL_GetTick>
 8001838:	4607      	mov	r7, r0
      while(HAL_IS_BIT_CLR(PWR->CR, PWR_CR_DBP))
 800183a:	6833      	ldr	r3, [r6, #0]
 800183c:	05da      	lsls	r2, r3, #23
 800183e:	f53f af52 	bmi.w	80016e6 <HAL_RCC_OscConfig+0xc6>
        if((HAL_GetTick() - tickstart) > RCC_DBP_TIMEOUT_VALUE)
 8001842:	f7ff fbd7 	bl	8000ff4 <HAL_GetTick>
 8001846:	1bc0      	subs	r0, r0, r7
 8001848:	2802      	cmp	r0, #2
 800184a:	d9f6      	bls.n	800183a <HAL_RCC_OscConfig+0x21a>
            return HAL_TIMEOUT;
 800184c:	2003      	movs	r0, #3
}
 800184e:	b002      	add	sp, #8
 8001850:	e8bd 81f0 	ldmia.w	sp!, {r4, r5, r6, r7, r8, pc}
        __HAL_RCC_HSI_CALIBRATIONVALUE_ADJUST(RCC_OscInitStruct->HSICalibrationValue);
 8001854:	4d1e      	ldr	r5, [pc, #120]	; (80018d0 <HAL_RCC_OscConfig+0x2b0>)
 8001856:	22f8      	movs	r2, #248	; 0xf8
 8001858:	6828      	ldr	r0, [r5, #0]
 800185a:	fa92 f2a2 	rbit	r2, r2
 800185e:	fab2 f182 	clz	r1, r2
 8001862:	6922      	ldr	r2, [r4, #16]
 8001864:	f020 00f8 	bic.w	r0, r0, #248	; 0xf8
 8001868:	408a      	lsls	r2, r1
 800186a:	4302      	orrs	r2, r0
 800186c:	602a      	str	r2, [r5, #0]
      if((__HAL_RCC_GET_FLAG(RCC_FLAG_HSIRDY) != RESET) && (RCC_OscInitStruct->HSIState != RCC_HSI_ON))
 800186e:	e706      	b.n	800167e <HAL_RCC_OscConfig+0x5e>
    return HAL_ERROR;
 8001870:	2001      	movs	r0, #1
}
 8001872:	4770      	bx	lr
    FlagStatus       pwrclkchanged = RESET;
 8001874:	2500      	movs	r5, #0
 8001876:	e72d      	b.n	80016d4 <HAL_RCC_OscConfig+0xb4>
      tickstart = HAL_GetTick();
 8001878:	f7ff fbbc 	bl	8000ff4 <HAL_GetTick>
      while(__HAL_RCC_GET_FLAG(RCC_FLAG_LSERDY) != RESET)
 800187c:	4e14      	ldr	r6, [pc, #80]	; (80018d0 <HAL_RCC_OscConfig+0x2b0>)
      tickstart = HAL_GetTick();
 800187e:	4680      	mov	r8, r0
        if((HAL_GetTick() - tickstart ) > RCC_LSE_TIMEOUT_VALUE)
 8001880:	f241 3788 	movw	r7, #5000	; 0x1388
      while(__HAL_RCC_GET_FLAG(RCC_FLAG_LSERDY) != RESET)
 8001884:	e005      	b.n	8001892 <HAL_RCC_OscConfig+0x272>
        if((HAL_GetTick() - tickstart ) > RCC_LSE_TIMEOUT_VALUE)
 8001886:	f7ff fbb5 	bl	8000ff4 <HAL_GetTick>
 800188a:	eba0 0008 	sub.w	r0, r0, r8
 800188e:	42b8      	cmp	r0, r7
 8001890:	d8dc      	bhi.n	800184c <HAL_RCC_OscConfig+0x22c>
      while(__HAL_RCC_GET_FLAG(RCC_FLAG_LSERDY) != RESET)
 8001892:	6f33      	ldr	r3, [r6, #112]	; 0x70
 8001894:	0798      	lsls	r0, r3, #30
 8001896:	d4f6      	bmi.n	8001886 <HAL_RCC_OscConfig+0x266>
    if(pwrclkchanged == SET)
 8001898:	2d00      	cmp	r5, #0
 800189a:	f43f af3f 	beq.w	800171c <HAL_RCC_OscConfig+0xfc>
 800189e:	e010      	b.n	80018c2 <HAL_RCC_OscConfig+0x2a2>
        __HAL_RCC_HSI_DISABLE();
 80018a0:	4a11      	ldr	r2, [pc, #68]	; (80018e8 <HAL_RCC_OscConfig+0x2c8>)
        while(__HAL_RCC_GET_FLAG(RCC_FLAG_HSIRDY) != RESET)
 80018a2:	4d0b      	ldr	r5, [pc, #44]	; (80018d0 <HAL_RCC_OscConfig+0x2b0>)
        __HAL_RCC_HSI_DISABLE();
 80018a4:	6013      	str	r3, [r2, #0]
        tickstart = HAL_GetTick();
 80018a6:	f7ff fba5 	bl	8000ff4 <HAL_GetTick>
 80018aa:	4606      	mov	r6, r0
        while(__HAL_RCC_GET_FLAG(RCC_FLAG_HSIRDY) != RESET)
 80018ac:	e004      	b.n	80018b8 <HAL_RCC_OscConfig+0x298>
          if((HAL_GetTick() - tickstart ) > HSI_TIMEOUT_VALUE)
 80018ae:	f7ff fba1 	bl	8000ff4 <HAL_GetTick>
 80018b2:	1b80      	subs	r0, r0, r6
 80018b4:	2802      	cmp	r0, #2
 80018b6:	d8c9      	bhi.n	800184c <HAL_RCC_OscConfig+0x22c>
        while(__HAL_RCC_GET_FLAG(RCC_FLAG_HSIRDY) != RESET)
 80018b8:	682b      	ldr	r3, [r5, #0]
 80018ba:	0799      	lsls	r1, r3, #30
 80018bc:	d4f7      	bmi.n	80018ae <HAL_RCC_OscConfig+0x28e>
 80018be:	6823      	ldr	r3, [r4, #0]
 80018c0:	e6dd      	b.n	800167e <HAL_RCC_OscConfig+0x5e>
      __HAL_RCC_PWR_CLK_DISABLE();
 80018c2:	4a03      	ldr	r2, [pc, #12]	; (80018d0 <HAL_RCC_OscConfig+0x2b0>)
 80018c4:	6c13      	ldr	r3, [r2, #64]	; 0x40
 80018c6:	f023 5380 	bic.w	r3, r3, #268435456	; 0x10000000
 80018ca:	6413      	str	r3, [r2, #64]	; 0x40
 80018cc:	e726      	b.n	800171c <HAL_RCC_OscConfig+0xfc>
 80018ce:	bf00      	nop
 80018d0:	40023800 	.word	0x40023800
 80018d4:	40023802 	.word	0x40023802
 80018d8:	42470e80 	.word	0x42470e80
 80018dc:	40007000 	.word	0x40007000
 80018e0:	40023870 	.word	0x40023870
 80018e4:	42470060 	.word	0x42470060
 80018e8:	42470000 	.word	0x42470000
      if((RCC_OscInitStruct->PLL.PLLState) == RCC_PLL_OFF)
 80018ec:	2801      	cmp	r0, #1
 80018ee:	f43f af6d 	beq.w	80017cc <HAL_RCC_OscConfig+0x1ac>
        uint32_t pllcfgr = RCC->PLLCFGR;
 80018f2:	686b      	ldr	r3, [r5, #4]
        if((READ_BIT(pllcfgr, RCC_PLLCFGR_PLLSRC) != RCC_OscInitStruct->PLL.PLLSource) ||
 80018f4:	69e2      	ldr	r2, [r4, #28]
 80018f6:	f403 0180 	and.w	r1, r3, #4194304	; 0x400000
 80018fa:	4291      	cmp	r1, r2
 80018fc:	f47f af65 	bne.w	80017ca <HAL_RCC_OscConfig+0x1aa>
 8001900:	6a22      	ldr	r2, [r4, #32]
           (READ_BIT(pllcfgr, RCC_PLLCFGR_PLLM) != RCC_OscInitStruct->PLL.PLLM) ||
 8001902:	f003 013f 	and.w	r1, r3, #63	; 0x3f
        if((READ_BIT(pllcfgr, RCC_PLLCFGR_PLLSRC) != RCC_OscInitStruct->PLL.PLLSource) ||
 8001906:	4291      	cmp	r1, r2
 8001908:	f47f af5f 	bne.w	80017ca <HAL_RCC_OscConfig+0x1aa>
           (READ_BIT(pllcfgr, RCC_PLLCFGR_PLLM) != RCC_OscInitStruct->PLL.PLLM) ||
 800190c:	6a62      	ldr	r2, [r4, #36]	; 0x24
           ((READ_BIT(pllcfgr, RCC_PLLCFGR_PLLN) >> RCC_PLLCFGR_PLLN_Pos) != RCC_OscInitStruct->PLL.PLLN) ||
 800190e:	f3c3 1188 	ubfx	r1, r3, #6, #9
           (READ_BIT(pllcfgr, RCC_PLLCFGR_PLLM) != RCC_OscInitStruct->PLL.PLLM) ||
 8001912:	4291      	cmp	r1, r2
 8001914:	f47f af59 	bne.w	80017ca <HAL_RCC_OscConfig+0x1aa>
           ((READ_BIT(pllcfgr, RCC_PLLCFGR_PLLN) >> RCC_PLLCFGR_PLLN_Pos) != RCC_OscInitStruct->PLL.PLLN) ||
 8001918:	6aa2      	ldr	r2, [r4, #40]	; 0x28
           (READ_BIT(pllcfgr, RCC_PLLCFGR_PLLP) != RCC_OscInitStruct->PLL.PLLP) ||
 800191a:	f403 3140 	and.w	r1, r3, #196608	; 0x30000
           ((READ_BIT(pllcfgr, RCC_PLLCFGR_PLLN) >> RCC_PLLCFGR_PLLN_Pos) != RCC_OscInitStruct->PLL.PLLN) ||
 800191e:	4291      	cmp	r1, r2
 8001920:	f47f af53 	bne.w	80017ca <HAL_RCC_OscConfig+0x1aa>
           (READ_BIT(pllcfgr, RCC_PLLCFGR_PLLP) != RCC_OscInitStruct->PLL.PLLP) ||
 8001924:	6ae0      	ldr	r0, [r4, #44]	; 0x2c
           (READ_BIT(pllcfgr, RCC_PLLCFGR_PLLQ) != RCC_OscInitStruct->PLL.PLLQ))
 8001926:	f003 6370 	and.w	r3, r3, #251658240	; 0xf000000
    return HAL_ERROR;
 800192a:	1a18      	subs	r0, r3, r0
 800192c:	bf18      	it	ne
 800192e:	2001      	movne	r0, #1
 8001930:	e74c      	b.n	80017cc <HAL_RCC_OscConfig+0x1ac>
        __HAL_RCC_PLL_DISABLE();
 8001932:	6011      	str	r1, [r2, #0]
        tickstart = HAL_GetTick();
 8001934:	f7ff fb5e 	bl	8000ff4 <HAL_GetTick>
 8001938:	4606      	mov	r6, r0
        while(__HAL_RCC_GET_FLAG(RCC_FLAG_PLLRDY) != RESET)
 800193a:	e004      	b.n	8001946 <HAL_RCC_OscConfig+0x326>
          if((HAL_GetTick() - tickstart ) > PLL_TIMEOUT_VALUE)
 800193c:	f7ff fb5a 	bl	8000ff4 <HAL_GetTick>
 8001940:	1b80      	subs	r0, r0, r6
 8001942:	2864      	cmp	r0, #100	; 0x64
 8001944:	d882      	bhi.n	800184c <HAL_RCC_OscConfig+0x22c>
        while(__HAL_RCC_GET_FLAG(RCC_FLAG_PLLRDY) != RESET)
 8001946:	682b      	ldr	r3, [r5, #0]
 8001948:	0199      	lsls	r1, r3, #6
 800194a:	d4f7      	bmi.n	800193c <HAL_RCC_OscConfig+0x31c>
        __HAL_RCC_PLL_ENABLE();
 800194c:	2101      	movs	r1, #1
        __HAL_RCC_PLL_CONFIG(RCC_OscInitStruct->PLL.PLLSource,
 800194e:	686a      	ldr	r2, [r5, #4]
 8001950:	4811      	ldr	r0, [pc, #68]	; (8001998 <HAL_RCC_OscConfig+0x378>)
 8001952:	69e3      	ldr	r3, [r4, #28]
 8001954:	4002      	ands	r2, r0
 8001956:	6a20      	ldr	r0, [r4, #32]
 8001958:	6a66      	ldr	r6, [r4, #36]	; 0x24
 800195a:	4303      	orrs	r3, r0
 800195c:	4313      	orrs	r3, r2
 800195e:	ea43 1386 	orr.w	r3, r3, r6, lsl #6
 8001962:	e9d4 200a 	ldrd	r2, r0, [r4, #40]	; 0x28
 8001966:	40ca      	lsrs	r2, r1
 8001968:	ea43 6300 	orr.w	r3, r3, r0, lsl #24
 800196c:	3a01      	subs	r2, #1
        __HAL_RCC_PLL_ENABLE();
 800196e:	480b      	ldr	r0, [pc, #44]	; (800199c <HAL_RCC_OscConfig+0x37c>)
        __HAL_RCC_PLL_CONFIG(RCC_OscInitStruct->PLL.PLLSource,
 8001970:	ea43 4302 	orr.w	r3, r3, r2, lsl #16
 8001974:	606b      	str	r3, [r5, #4]
        __HAL_RCC_PLL_ENABLE();
 8001976:	6001      	str	r1, [r0, #0]
        tickstart = HAL_GetTick();
 8001978:	f7ff fb3c 	bl	8000ff4 <HAL_GetTick>
        while(__HAL_RCC_GET_FLAG(RCC_FLAG_PLLRDY) == RESET)
 800197c:	4c08      	ldr	r4, [pc, #32]	; (80019a0 <HAL_RCC_OscConfig+0x380>)
        tickstart = HAL_GetTick();
 800197e:	4605      	mov	r5, r0
        while(__HAL_RCC_GET_FLAG(RCC_FLAG_PLLRDY) == RESET)
 8001980:	e005      	b.n	800198e <HAL_RCC_OscConfig+0x36e>
          if((HAL_GetTick() - tickstart ) > PLL_TIMEOUT_VALUE)
 8001982:	f7ff fb37 	bl	8000ff4 <HAL_GetTick>
 8001986:	1b40      	subs	r0, r0, r5
 8001988:	2864      	cmp	r0, #100	; 0x64
 800198a:	f63f af5f 	bhi.w	800184c <HAL_RCC_OscConfig+0x22c>
        while(__HAL_RCC_GET_FLAG(RCC_FLAG_PLLRDY) == RESET)
 800198e:	6823      	ldr	r3, [r4, #0]
 8001990:	019a      	lsls	r2, r3, #6
 8001992:	d5f6      	bpl.n	8001982 <HAL_RCC_OscConfig+0x362>
 8001994:	e6df      	b.n	8001756 <HAL_RCC_OscConfig+0x136>
 8001996:	bf00      	nop
 8001998:	f0bc8000 	.word	0xf0bc8000
 800199c:	42470060 	.word	0x42470060
 80019a0:	40023800 	.word	0x40023800

080019a4 <HAL_RCC_ClockConfig>:
HAL_StatusTypeDef HAL_RCC_ClockConfig(RCC_ClkInitTypeDef  *RCC_ClkInitStruct, uint32_t FLatency)
{
  uint32_t tickstart;

  /* Check Null pointer */
  if(RCC_ClkInitStruct == NULL)
 80019a4:	b160      	cbz	r0, 80019c0 <HAL_RCC_ClockConfig+0x1c>
  /* To correctly read data from FLASH memory, the number of wait states (LATENCY)
     must be correctly programmed according to the frequency of the CPU clock
     (HCLK) and the supply voltage of the device. */

  /* Increasing the number of wait states because of higher CPU frequency */
  if(FLatency > __HAL_FLASH_GET_LATENCY())
 80019a6:	4a5f      	ldr	r2, [pc, #380]	; (8001b24 <HAL_RCC_ClockConfig+0x180>)
 80019a8:	6813      	ldr	r3, [r2, #0]
 80019aa:	f003 030f 	and.w	r3, r3, #15
 80019ae:	428b      	cmp	r3, r1
 80019b0:	d208      	bcs.n	80019c4 <HAL_RCC_ClockConfig+0x20>
  {
    /* Program the new number of wait states to the LATENCY bits in the FLASH_ACR register */
    __HAL_FLASH_SET_LATENCY(FLatency);
 80019b2:	b2cb      	uxtb	r3, r1
 80019b4:	7013      	strb	r3, [r2, #0]

    /* Check that the new number of wait states is taken into account to access the Flash
       memory by reading the FLASH_ACR register */
    if(__HAL_FLASH_GET_LATENCY() != FLatency)
 80019b6:	6813      	ldr	r3, [r2, #0]
 80019b8:	f003 030f 	and.w	r3, r3, #15
 80019bc:	428b      	cmp	r3, r1
 80019be:	d001      	beq.n	80019c4 <HAL_RCC_ClockConfig+0x20>
    return HAL_ERROR;
 80019c0:	2001      	movs	r0, #1

  /* Configure the source of time base considering new system clocks settings */
  HAL_InitTick (uwTickPrio);

  return HAL_OK;
}
 80019c2:	4770      	bx	lr
  if(((RCC_ClkInitStruct->ClockType) & RCC_CLOCKTYPE_HCLK) == RCC_CLOCKTYPE_HCLK)
 80019c4:	6803      	ldr	r3, [r0, #0]
{
 80019c6:	e92d 41f0 	stmdb	sp!, {r4, r5, r6, r7, r8, lr}
  if(((RCC_ClkInitStruct->ClockType) & RCC_CLOCKTYPE_HCLK) == RCC_CLOCKTYPE_HCLK)
 80019ca:	079d      	lsls	r5, r3, #30
 80019cc:	d514      	bpl.n	80019f8 <HAL_RCC_ClockConfig+0x54>
    if(((RCC_ClkInitStruct->ClockType) & RCC_CLOCKTYPE_PCLK1) == RCC_CLOCKTYPE_PCLK1)
 80019ce:	075c      	lsls	r4, r3, #29
 80019d0:	d504      	bpl.n	80019dc <HAL_RCC_ClockConfig+0x38>
      MODIFY_REG(RCC->CFGR, RCC_CFGR_PPRE1, RCC_HCLK_DIV16);
 80019d2:	4c55      	ldr	r4, [pc, #340]	; (8001b28 <HAL_RCC_ClockConfig+0x184>)
 80019d4:	68a2      	ldr	r2, [r4, #8]
 80019d6:	f442 52e0 	orr.w	r2, r2, #7168	; 0x1c00
 80019da:	60a2      	str	r2, [r4, #8]
    if(((RCC_ClkInitStruct->ClockType) & RCC_CLOCKTYPE_PCLK2) == RCC_CLOCKTYPE_PCLK2)
 80019dc:	071a      	lsls	r2, r3, #28
 80019de:	d504      	bpl.n	80019ea <HAL_RCC_ClockConfig+0x46>
      MODIFY_REG(RCC->CFGR, RCC_CFGR_PPRE2, (RCC_HCLK_DIV16 << 3U));
 80019e0:	4c51      	ldr	r4, [pc, #324]	; (8001b28 <HAL_RCC_ClockConfig+0x184>)
 80019e2:	68a2      	ldr	r2, [r4, #8]
 80019e4:	f442 4260 	orr.w	r2, r2, #57344	; 0xe000
 80019e8:	60a2      	str	r2, [r4, #8]
    MODIFY_REG(RCC->CFGR, RCC_CFGR_HPRE, RCC_ClkInitStruct->AHBCLKDivider);
 80019ea:	4c4f      	ldr	r4, [pc, #316]	; (8001b28 <HAL_RCC_ClockConfig+0x184>)
 80019ec:	6885      	ldr	r5, [r0, #8]
 80019ee:	68a2      	ldr	r2, [r4, #8]
 80019f0:	f022 02f0 	bic.w	r2, r2, #240	; 0xf0
 80019f4:	432a      	orrs	r2, r5
 80019f6:	60a2      	str	r2, [r4, #8]
  if(((RCC_ClkInitStruct->ClockType) & RCC_CLOCKTYPE_SYSCLK) == RCC_CLOCKTYPE_SYSCLK)
 80019f8:	07df      	lsls	r7, r3, #31
 80019fa:	4604      	mov	r4, r0
 80019fc:	460d      	mov	r5, r1
 80019fe:	d520      	bpl.n	8001a42 <HAL_RCC_ClockConfig+0x9e>
    if(RCC_ClkInitStruct->SYSCLKSource == RCC_SYSCLKSOURCE_HSE)
 8001a00:	6842      	ldr	r2, [r0, #4]
      if(__HAL_RCC_GET_FLAG(RCC_FLAG_HSERDY) == RESET)
 8001a02:	4b49      	ldr	r3, [pc, #292]	; (8001b28 <HAL_RCC_ClockConfig+0x184>)
    if(RCC_ClkInitStruct->SYSCLKSource == RCC_SYSCLKSOURCE_HSE)
 8001a04:	2a01      	cmp	r2, #1
      if(__HAL_RCC_GET_FLAG(RCC_FLAG_HSERDY) == RESET)
 8001a06:	681b      	ldr	r3, [r3, #0]
    if(RCC_ClkInitStruct->SYSCLKSource == RCC_SYSCLKSOURCE_HSE)
 8001a08:	d05f      	beq.n	8001aca <HAL_RCC_ClockConfig+0x126>
    else if(RCC_ClkInitStruct->SYSCLKSource == RCC_SYSCLKSOURCE_PLLCLK)
 8001a0a:	2a02      	cmp	r2, #2
 8001a0c:	d07c      	beq.n	8001b08 <HAL_RCC_ClockConfig+0x164>
      if(__HAL_RCC_GET_FLAG(RCC_FLAG_HSIRDY) == RESET)
 8001a0e:	0799      	lsls	r1, r3, #30
 8001a10:	d524      	bpl.n	8001a5c <HAL_RCC_ClockConfig+0xb8>
    __HAL_RCC_SYSCLK_CONFIG(RCC_ClkInitStruct->SYSCLKSource);
 8001a12:	4e45      	ldr	r6, [pc, #276]	; (8001b28 <HAL_RCC_ClockConfig+0x184>)
      if ((HAL_GetTick() - tickstart) > CLOCKSWITCH_TIMEOUT_VALUE)
 8001a14:	f241 3888 	movw	r8, #5000	; 0x1388
    __HAL_RCC_SYSCLK_CONFIG(RCC_ClkInitStruct->SYSCLKSource);
 8001a18:	68b3      	ldr	r3, [r6, #8]
 8001a1a:	f023 0303 	bic.w	r3, r3, #3
 8001a1e:	4313      	orrs	r3, r2
 8001a20:	60b3      	str	r3, [r6, #8]
    tickstart = HAL_GetTick();
 8001a22:	f7ff fae7 	bl	8000ff4 <HAL_GetTick>
 8001a26:	4607      	mov	r7, r0
    while (__HAL_RCC_GET_SYSCLK_SOURCE() != (RCC_ClkInitStruct->SYSCLKSource << RCC_CFGR_SWS_Pos))
 8001a28:	e004      	b.n	8001a34 <HAL_RCC_ClockConfig+0x90>
      if ((HAL_GetTick() - tickstart) > CLOCKSWITCH_TIMEOUT_VALUE)
 8001a2a:	f7ff fae3 	bl	8000ff4 <HAL_GetTick>
 8001a2e:	1bc0      	subs	r0, r0, r7
 8001a30:	4540      	cmp	r0, r8
 8001a32:	d867      	bhi.n	8001b04 <HAL_RCC_ClockConfig+0x160>
    while (__HAL_RCC_GET_SYSCLK_SOURCE() != (RCC_ClkInitStruct->SYSCLKSource << RCC_CFGR_SWS_Pos))
 8001a34:	68b3      	ldr	r3, [r6, #8]
 8001a36:	6862      	ldr	r2, [r4, #4]
 8001a38:	f003 030c 	and.w	r3, r3, #12
 8001a3c:	ebb3 0f82 	cmp.w	r3, r2, lsl #2
 8001a40:	d1f3      	bne.n	8001a2a <HAL_RCC_ClockConfig+0x86>
  if(FLatency < __HAL_FLASH_GET_LATENCY())
 8001a42:	4a38      	ldr	r2, [pc, #224]	; (8001b24 <HAL_RCC_ClockConfig+0x180>)
 8001a44:	6813      	ldr	r3, [r2, #0]
 8001a46:	f003 030f 	and.w	r3, r3, #15
 8001a4a:	42ab      	cmp	r3, r5
 8001a4c:	d909      	bls.n	8001a62 <HAL_RCC_ClockConfig+0xbe>
    __HAL_FLASH_SET_LATENCY(FLatency);
 8001a4e:	b2eb      	uxtb	r3, r5
 8001a50:	7013      	strb	r3, [r2, #0]
    if(__HAL_FLASH_GET_LATENCY() != FLatency)
 8001a52:	6813      	ldr	r3, [r2, #0]
 8001a54:	f003 030f 	and.w	r3, r3, #15
 8001a58:	42ab      	cmp	r3, r5
 8001a5a:	d002      	beq.n	8001a62 <HAL_RCC_ClockConfig+0xbe>
    return HAL_ERROR;
 8001a5c:	2001      	movs	r0, #1
}
 8001a5e:	e8bd 81f0 	ldmia.w	sp!, {r4, r5, r6, r7, r8, pc}
  if(((RCC_ClkInitStruct->ClockType) & RCC_CLOCKTYPE_PCLK1) == RCC_CLOCKTYPE_PCLK1)
 8001a62:	6823      	ldr	r3, [r4, #0]
 8001a64:	075a      	lsls	r2, r3, #29
 8001a66:	d506      	bpl.n	8001a76 <HAL_RCC_ClockConfig+0xd2>
    MODIFY_REG(RCC->CFGR, RCC_CFGR_PPRE1, RCC_ClkInitStruct->APB1CLKDivider);
 8001a68:	492f      	ldr	r1, [pc, #188]	; (8001b28 <HAL_RCC_ClockConfig+0x184>)
 8001a6a:	68e0      	ldr	r0, [r4, #12]
 8001a6c:	688a      	ldr	r2, [r1, #8]
 8001a6e:	f422 52e0 	bic.w	r2, r2, #7168	; 0x1c00
 8001a72:	4302      	orrs	r2, r0
 8001a74:	608a      	str	r2, [r1, #8]
  if(((RCC_ClkInitStruct->ClockType) & RCC_CLOCKTYPE_PCLK2) == RCC_CLOCKTYPE_PCLK2)
 8001a76:	071b      	lsls	r3, r3, #28
 8001a78:	d507      	bpl.n	8001a8a <HAL_RCC_ClockConfig+0xe6>
    MODIFY_REG(RCC->CFGR, RCC_CFGR_PPRE2, ((RCC_ClkInitStruct->APB2CLKDivider) << 3U));
 8001a7a:	4a2b      	ldr	r2, [pc, #172]	; (8001b28 <HAL_RCC_ClockConfig+0x184>)
 8001a7c:	6921      	ldr	r1, [r4, #16]
 8001a7e:	6893      	ldr	r3, [r2, #8]
 8001a80:	f423 4360 	bic.w	r3, r3, #57344	; 0xe000
 8001a84:	ea43 03c1 	orr.w	r3, r3, r1, lsl #3
 8001a88:	6093      	str	r3, [r2, #8]
{
  uint32_t pllm = 0U, pllvco = 0U, pllp = 0U;
  uint32_t sysclockfreq = 0U;

  /* Get SYSCLK source -------------------------------------------------------*/
  switch (RCC->CFGR & RCC_CFGR_SWS)
 8001a8a:	4927      	ldr	r1, [pc, #156]	; (8001b28 <HAL_RCC_ClockConfig+0x184>)
 8001a8c:	688b      	ldr	r3, [r1, #8]
 8001a8e:	f003 030c 	and.w	r3, r3, #12
 8001a92:	2b04      	cmp	r3, #4
 8001a94:	d01c      	beq.n	8001ad0 <HAL_RCC_ClockConfig+0x12c>
 8001a96:	2b08      	cmp	r3, #8
 8001a98:	d132      	bne.n	8001b00 <HAL_RCC_ClockConfig+0x15c>
    }
    case RCC_CFGR_SWS_PLL:  /* PLL used as system clock  source */
    {
      /* PLL_VCO = (HSE_VALUE or HSI_VALUE / PLLM) * PLLN
      SYSCLK = PLL_VCO / PLLP */
      pllm = RCC->PLLCFGR & RCC_PLLCFGR_PLLM;
 8001a9a:	684a      	ldr	r2, [r1, #4]
      if(__HAL_RCC_GET_PLL_OSCSOURCE() != RCC_PLLSOURCE_HSI)
 8001a9c:	684b      	ldr	r3, [r1, #4]
      pllm = RCC->PLLCFGR & RCC_PLLCFGR_PLLM;
 8001a9e:	f002 023f 	and.w	r2, r2, #63	; 0x3f
      if(__HAL_RCC_GET_PLL_OSCSOURCE() != RCC_PLLSOURCE_HSI)
 8001aa2:	f413 0380 	ands.w	r3, r3, #4194304	; 0x400000
 8001aa6:	d132      	bne.n	8001b0e <HAL_RCC_ClockConfig+0x16a>
        pllvco = (uint32_t) ((((uint64_t) HSE_VALUE * ((uint64_t) ((RCC->PLLCFGR & RCC_PLLCFGR_PLLN) >> RCC_PLLCFGR_PLLN_Pos)))) / (uint64_t)pllm);
      }
      else
      {
        /* HSI used as PLL clock source */
        pllvco = (uint32_t) ((((uint64_t) HSI_VALUE * ((uint64_t) ((RCC->PLLCFGR & RCC_PLLCFGR_PLLN) >> RCC_PLLCFGR_PLLN_Pos)))) / (uint64_t)pllm);
 8001aa8:	6849      	ldr	r1, [r1, #4]
 8001aaa:	4820      	ldr	r0, [pc, #128]	; (8001b2c <HAL_RCC_ClockConfig+0x188>)
 8001aac:	f3c1 1188 	ubfx	r1, r1, #6, #9
 8001ab0:	fba1 0100 	umull	r0, r1, r1, r0
 8001ab4:	f7fe fb8c 	bl	80001d0 <__aeabi_uldivmod>
      }
      pllp = ((((RCC->PLLCFGR & RCC_PLLCFGR_PLLP) >> RCC_PLLCFGR_PLLP_Pos) + 1U) *2U);
 8001ab8:	4b1b      	ldr	r3, [pc, #108]	; (8001b28 <HAL_RCC_ClockConfig+0x184>)
 8001aba:	685b      	ldr	r3, [r3, #4]
 8001abc:	f3c3 4301 	ubfx	r3, r3, #16, #2
 8001ac0:	3301      	adds	r3, #1
 8001ac2:	005b      	lsls	r3, r3, #1

      sysclockfreq = pllvco/pllp;
 8001ac4:	fbb0 f0f3 	udiv	r0, r0, r3
 8001ac8:	e003      	b.n	8001ad2 <HAL_RCC_ClockConfig+0x12e>
      if(__HAL_RCC_GET_FLAG(RCC_FLAG_HSERDY) == RESET)
 8001aca:	039e      	lsls	r6, r3, #14
 8001acc:	d4a1      	bmi.n	8001a12 <HAL_RCC_ClockConfig+0x6e>
 8001ace:	e7c5      	b.n	8001a5c <HAL_RCC_ClockConfig+0xb8>
      sysclockfreq = HSE_VALUE;
 8001ad0:	4817      	ldr	r0, [pc, #92]	; (8001b30 <HAL_RCC_ClockConfig+0x18c>)
  SystemCoreClock = HAL_RCC_GetSysClockFreq() >> AHBPrescTable[(RCC->CFGR & RCC_CFGR_HPRE)>> POSITION_VAL(RCC_CFGR_HPRE)];
 8001ad2:	4b15      	ldr	r3, [pc, #84]	; (8001b28 <HAL_RCC_ClockConfig+0x184>)
 8001ad4:	22f0      	movs	r2, #240	; 0xf0
 8001ad6:	689b      	ldr	r3, [r3, #8]
 8001ad8:	fa92 f2a2 	rbit	r2, r2
 8001adc:	fab2 f282 	clz	r2, r2
 8001ae0:	4914      	ldr	r1, [pc, #80]	; (8001b34 <HAL_RCC_ClockConfig+0x190>)
 8001ae2:	f003 03f0 	and.w	r3, r3, #240	; 0xf0
 8001ae6:	40d3      	lsrs	r3, r2
 8001ae8:	5ccb      	ldrb	r3, [r1, r3]
  HAL_InitTick (uwTickPrio);
 8001aea:	4913      	ldr	r1, [pc, #76]	; (8001b38 <HAL_RCC_ClockConfig+0x194>)
  SystemCoreClock = HAL_RCC_GetSysClockFreq() >> AHBPrescTable[(RCC->CFGR & RCC_CFGR_HPRE)>> POSITION_VAL(RCC_CFGR_HPRE)];
 8001aec:	4a13      	ldr	r2, [pc, #76]	; (8001b3c <HAL_RCC_ClockConfig+0x198>)
 8001aee:	fa20 f303 	lsr.w	r3, r0, r3
  HAL_InitTick (uwTickPrio);
 8001af2:	6808      	ldr	r0, [r1, #0]
  SystemCoreClock = HAL_RCC_GetSysClockFreq() >> AHBPrescTable[(RCC->CFGR & RCC_CFGR_HPRE)>> POSITION_VAL(RCC_CFGR_HPRE)];
 8001af4:	6013      	str	r3, [r2, #0]
  HAL_InitTick (uwTickPrio);
 8001af6:	f7ff f965 	bl	8000dc4 <HAL_InitTick>
  return HAL_OK;
 8001afa:	2000      	movs	r0, #0
}
 8001afc:	e8bd 81f0 	ldmia.w	sp!, {r4, r5, r6, r7, r8, pc}
      sysclockfreq = HSI_VALUE;
 8001b00:	480a      	ldr	r0, [pc, #40]	; (8001b2c <HAL_RCC_ClockConfig+0x188>)
 8001b02:	e7e6      	b.n	8001ad2 <HAL_RCC_ClockConfig+0x12e>
        return HAL_TIMEOUT;
 8001b04:	2003      	movs	r0, #3
 8001b06:	e7aa      	b.n	8001a5e <HAL_RCC_ClockConfig+0xba>
      if(__HAL_RCC_GET_FLAG(RCC_FLAG_PLLRDY) == RESET)
 8001b08:	0198      	lsls	r0, r3, #6
 8001b0a:	d482      	bmi.n	8001a12 <HAL_RCC_ClockConfig+0x6e>
 8001b0c:	e7a6      	b.n	8001a5c <HAL_RCC_ClockConfig+0xb8>
        pllvco = (uint32_t) ((((uint64_t) HSE_VALUE * ((uint64_t) ((RCC->PLLCFGR & RCC_PLLCFGR_PLLN) >> RCC_PLLCFGR_PLLN_Pos)))) / (uint64_t)pllm);
 8001b0e:	684b      	ldr	r3, [r1, #4]
 8001b10:	4807      	ldr	r0, [pc, #28]	; (8001b30 <HAL_RCC_ClockConfig+0x18c>)
 8001b12:	f3c3 1388 	ubfx	r3, r3, #6, #9
 8001b16:	fba3 0100 	umull	r0, r1, r3, r0
 8001b1a:	2300      	movs	r3, #0
 8001b1c:	f7fe fb58 	bl	80001d0 <__aeabi_uldivmod>
 8001b20:	e7ca      	b.n	8001ab8 <HAL_RCC_ClockConfig+0x114>
 8001b22:	bf00      	nop
 8001b24:	40023c00 	.word	0x40023c00
 8001b28:	40023800 	.word	0x40023800
 8001b2c:	00f42400 	.word	0x00f42400
 8001b30:	007a1200 	.word	0x007a1200
 8001b34:	08009ac4 	.word	0x08009ac4
 8001b38:	20000008 	.word	0x20000008
 8001b3c:	20000000 	.word	0x20000000

08001b40 <HAL_RCC_GetPCLK1Freq>:
  * @retval PCLK1 frequency
  */
uint32_t HAL_RCC_GetPCLK1Freq(void)
{
  /* Get HCLK source and Compute PCLK1 frequency ---------------------------*/
  return (HAL_RCC_GetHCLKFreq() >> APBPrescTable[(RCC->CFGR & RCC_CFGR_PPRE1)>> POSITION_VAL(RCC_CFGR_PPRE1)]);
 8001b40:	4b08      	ldr	r3, [pc, #32]	; (8001b64 <HAL_RCC_GetPCLK1Freq+0x24>)
 8001b42:	f44f 52e0 	mov.w	r2, #7168	; 0x1c00
 8001b46:	689b      	ldr	r3, [r3, #8]
 8001b48:	fa92 f2a2 	rbit	r2, r2
 8001b4c:	fab2 f282 	clz	r2, r2
 8001b50:	4805      	ldr	r0, [pc, #20]	; (8001b68 <HAL_RCC_GetPCLK1Freq+0x28>)
  return SystemCoreClock;
 8001b52:	4906      	ldr	r1, [pc, #24]	; (8001b6c <HAL_RCC_GetPCLK1Freq+0x2c>)
  return (HAL_RCC_GetHCLKFreq() >> APBPrescTable[(RCC->CFGR & RCC_CFGR_PPRE1)>> POSITION_VAL(RCC_CFGR_PPRE1)]);
 8001b54:	f403 53e0 	and.w	r3, r3, #7168	; 0x1c00
 8001b58:	40d3      	lsrs	r3, r2
 8001b5a:	5cc3      	ldrb	r3, [r0, r3]
 8001b5c:	6808      	ldr	r0, [r1, #0]
}
 8001b5e:	40d8      	lsrs	r0, r3
 8001b60:	4770      	bx	lr
 8001b62:	bf00      	nop
 8001b64:	40023800 	.word	0x40023800
 8001b68:	08009ad4 	.word	0x08009ad4
 8001b6c:	20000000 	.word	0x20000000

08001b70 <HAL_RCC_GetPCLK2Freq>:
  * @retval PCLK2 frequency
  */
uint32_t HAL_RCC_GetPCLK2Freq(void)
{
  /* Get HCLK source and Compute PCLK2 frequency ---------------------------*/
  return (HAL_RCC_GetHCLKFreq()>> APBPrescTable[(RCC->CFGR & RCC_CFGR_PPRE2)>> POSITION_VAL(RCC_CFGR_PPRE2)]);
 8001b70:	4b08      	ldr	r3, [pc, #32]	; (8001b94 <HAL_RCC_GetPCLK2Freq+0x24>)
 8001b72:	f44f 4260 	mov.w	r2, #57344	; 0xe000
 8001b76:	689b      	ldr	r3, [r3, #8]
 8001b78:	fa92 f2a2 	rbit	r2, r2
 8001b7c:	fab2 f282 	clz	r2, r2
 8001b80:	4805      	ldr	r0, [pc, #20]	; (8001b98 <HAL_RCC_GetPCLK2Freq+0x28>)
  return SystemCoreClock;
 8001b82:	4906      	ldr	r1, [pc, #24]	; (8001b9c <HAL_RCC_GetPCLK2Freq+0x2c>)
  return (HAL_RCC_GetHCLKFreq()>> APBPrescTable[(RCC->CFGR & RCC_CFGR_PPRE2)>> POSITION_VAL(RCC_CFGR_PPRE2)]);
 8001b84:	f403 4360 	and.w	r3, r3, #57344	; 0xe000
 8001b88:	40d3      	lsrs	r3, r2
 8001b8a:	5cc3      	ldrb	r3, [r0, r3]
 8001b8c:	6808      	ldr	r0, [r1, #0]
}
 8001b8e:	40d8      	lsrs	r0, r3
 8001b90:	4770      	bx	lr
 8001b92:	bf00      	nop
 8001b94:	40023800 	.word	0x40023800
 8001b98:	08009ad4 	.word	0x08009ad4
 8001b9c:	20000000 	.word	0x20000000

08001ba0 <HAL_RCC_GetClockConfig>:
  * @retval None
  */
void HAL_RCC_GetClockConfig(RCC_ClkInitTypeDef  *RCC_ClkInitStruct, uint32_t *pFLatency)
{
  /* Set all possible values for the Clock type parameter --------------------*/
  RCC_ClkInitStruct->ClockType = RCC_CLOCKTYPE_SYSCLK | RCC_CLOCKTYPE_HCLK | RCC_CLOCKTYPE_PCLK1 | RCC_CLOCKTYPE_PCLK2;
 8001ba0:	220f      	movs	r2, #15

  /* Get the SYSCLK configuration --------------------------------------------*/
  RCC_ClkInitStruct->SYSCLKSource = (uint32_t)(RCC->CFGR & RCC_CFGR_SW);
 8001ba2:	4b0d      	ldr	r3, [pc, #52]	; (8001bd8 <HAL_RCC_GetClockConfig+0x38>)
  RCC_ClkInitStruct->ClockType = RCC_CLOCKTYPE_SYSCLK | RCC_CLOCKTYPE_HCLK | RCC_CLOCKTYPE_PCLK1 | RCC_CLOCKTYPE_PCLK2;
 8001ba4:	6002      	str	r2, [r0, #0]
  RCC_ClkInitStruct->SYSCLKSource = (uint32_t)(RCC->CFGR & RCC_CFGR_SW);
 8001ba6:	689a      	ldr	r2, [r3, #8]
{
 8001ba8:	b410      	push	{r4}
  RCC_ClkInitStruct->SYSCLKSource = (uint32_t)(RCC->CFGR & RCC_CFGR_SW);
 8001baa:	f002 0203 	and.w	r2, r2, #3
 8001bae:	6042      	str	r2, [r0, #4]

  /* Get the HCLK configuration ----------------------------------------------*/
  RCC_ClkInitStruct->AHBCLKDivider = (uint32_t)(RCC->CFGR & RCC_CFGR_HPRE);
 8001bb0:	689a      	ldr	r2, [r3, #8]

  /* Get the APB2 configuration ----------------------------------------------*/
  RCC_ClkInitStruct->APB2CLKDivider = (uint32_t)((RCC->CFGR & RCC_CFGR_PPRE2) >> 3U);

  /* Get the Flash Wait State (Latency) configuration ------------------------*/
  *pFLatency = (uint32_t)(FLASH->ACR & FLASH_ACR_LATENCY);
 8001bb2:	4c0a      	ldr	r4, [pc, #40]	; (8001bdc <HAL_RCC_GetClockConfig+0x3c>)
  RCC_ClkInitStruct->AHBCLKDivider = (uint32_t)(RCC->CFGR & RCC_CFGR_HPRE);
 8001bb4:	f002 02f0 	and.w	r2, r2, #240	; 0xf0
 8001bb8:	6082      	str	r2, [r0, #8]
  RCC_ClkInitStruct->APB1CLKDivider = (uint32_t)(RCC->CFGR & RCC_CFGR_PPRE1);
 8001bba:	689a      	ldr	r2, [r3, #8]
 8001bbc:	f402 52e0 	and.w	r2, r2, #7168	; 0x1c00
 8001bc0:	60c2      	str	r2, [r0, #12]
  RCC_ClkInitStruct->APB2CLKDivider = (uint32_t)((RCC->CFGR & RCC_CFGR_PPRE2) >> 3U);
 8001bc2:	689b      	ldr	r3, [r3, #8]
 8001bc4:	08db      	lsrs	r3, r3, #3
 8001bc6:	f403 53e0 	and.w	r3, r3, #7168	; 0x1c00
 8001bca:	6103      	str	r3, [r0, #16]
  *pFLatency = (uint32_t)(FLASH->ACR & FLASH_ACR_LATENCY);
 8001bcc:	6823      	ldr	r3, [r4, #0]
}
 8001bce:	bc10      	pop	{r4}
  *pFLatency = (uint32_t)(FLASH->ACR & FLASH_ACR_LATENCY);
 8001bd0:	f003 030f 	and.w	r3, r3, #15
 8001bd4:	600b      	str	r3, [r1, #0]
}
 8001bd6:	4770      	bx	lr
 8001bd8:	40023800 	.word	0x40023800
 8001bdc:	40023c00 	.word	0x40023c00

08001be0 <SD_FindSCR>:
  * @param  hsd: Pointer to SD handle
  * @param  pSCR: pointer to the buffer that will contain the SCR value
  * @retval error state
  */
static uint32_t SD_FindSCR(SD_HandleTypeDef *hsd, uint32_t *pSCR)
{
 8001be0:	e92d 43f0 	stmdb	sp!, {r4, r5, r6, r7, r8, r9, lr}
 8001be4:	b089      	sub	sp, #36	; 0x24
 8001be6:	4605      	mov	r5, r0
 8001be8:	460f      	mov	r7, r1
  SDIO_DataInitTypeDef config;
  uint32_t errorstate;
  uint32_t tickstart = HAL_GetTick();
 8001bea:	f7ff fa03 	bl	8000ff4 <HAL_GetTick>
  uint32_t index = 0U;
  uint32_t tempscr[2U] = {0U, 0U};
 8001bee:	2300      	movs	r3, #0
  uint32_t tickstart = HAL_GetTick();
 8001bf0:	4606      	mov	r6, r0
  uint32_t *scr = pSCR;

  /* Set Block Size To 8 Bytes */
  errorstate = SDMMC_CmdBlockLength(hsd->Instance, 8U);
 8001bf2:	2108      	movs	r1, #8
 8001bf4:	6828      	ldr	r0, [r5, #0]
  uint32_t tempscr[2U] = {0U, 0U};
 8001bf6:	e9cd 3300 	strd	r3, r3, [sp]
  errorstate = SDMMC_CmdBlockLength(hsd->Instance, 8U);
 8001bfa:	f001 f985 	bl	8002f08 <SDMMC_CmdBlockLength>
  if(errorstate != HAL_SD_ERROR_NONE)
 8001bfe:	4604      	mov	r4, r0
 8001c00:	b118      	cbz	r0, 8001c0a <SD_FindSCR+0x2a>
            ((tempscr[0] & SDMMC_16TO23BITS) >> 8) | ((tempscr[0] & SDMMC_24TO31BITS) >> 24));

  }

  return HAL_SD_ERROR_NONE;
}
 8001c02:	4620      	mov	r0, r4
 8001c04:	b009      	add	sp, #36	; 0x24
 8001c06:	e8bd 83f0 	ldmia.w	sp!, {r4, r5, r6, r7, r8, r9, pc}
  errorstate = SDMMC_CmdAppCommand(hsd->Instance, (uint32_t)((hsd->SdCard.RelCardAdd) << 16U));
 8001c0a:	6d29      	ldr	r1, [r5, #80]	; 0x50
 8001c0c:	6828      	ldr	r0, [r5, #0]
 8001c0e:	0409      	lsls	r1, r1, #16
 8001c10:	f001 fbaa 	bl	8003368 <SDMMC_CmdAppCommand>
  if(errorstate != HAL_SD_ERROR_NONE)
 8001c14:	4604      	mov	r4, r0
 8001c16:	2800      	cmp	r0, #0
 8001c18:	d1f3      	bne.n	8001c02 <SD_FindSCR+0x22>
  config.DataTimeOut   = SDMMC_DATATIMEOUT;
 8001c1a:	f04f 3cff 	mov.w	ip, #4294967295
  config.DataLength    = 8U;
 8001c1e:	2008      	movs	r0, #8
  config.DataBlockSize = SDIO_DATABLOCK_SIZE_8B;
 8001c20:	2130      	movs	r1, #48	; 0x30
  config.TransferDir   = SDIO_TRANSFER_DIR_TO_SDIO;
 8001c22:	2202      	movs	r2, #2
  config.DPSM          = SDIO_DPSM_ENABLE;
 8001c24:	2301      	movs	r3, #1
  config.DataLength    = 8U;
 8001c26:	e9cd c002 	strd	ip, r0, [sp, #8]
  config.DataBlockSize = SDIO_DATABLOCK_SIZE_8B;
 8001c2a:	9104      	str	r1, [sp, #16]
  (void)SDIO_ConfigData(hsd->Instance, &config);
 8001c2c:	eb0d 0100 	add.w	r1, sp, r0
 8001c30:	6828      	ldr	r0, [r5, #0]
  config.TransferMode  = SDIO_TRANSFER_MODE_BLOCK;
 8001c32:	9406      	str	r4, [sp, #24]
  config.TransferDir   = SDIO_TRANSFER_DIR_TO_SDIO;
 8001c34:	9205      	str	r2, [sp, #20]
  config.DPSM          = SDIO_DPSM_ENABLE;
 8001c36:	9307      	str	r3, [sp, #28]
  (void)SDIO_ConfigData(hsd->Instance, &config);
 8001c38:	f001 f952 	bl	8002ee0 <SDIO_ConfigData>
  errorstate = SDMMC_CmdSendSCR(hsd->Instance);
 8001c3c:	6828      	ldr	r0, [r5, #0]
 8001c3e:	f001 fc4d 	bl	80034dc <SDMMC_CmdSendSCR>
  if(errorstate != HAL_SD_ERROR_NONE)
 8001c42:	4604      	mov	r4, r0
 8001c44:	2800      	cmp	r0, #0
 8001c46:	d1dc      	bne.n	8001c02 <SD_FindSCR+0x22>
  uint32_t index = 0U;
 8001c48:	4681      	mov	r9, r0
  while(!__HAL_SD_GET_FLAG(hsd, SDIO_FLAG_RXOVERR | SDIO_FLAG_DCRCFAIL | SDIO_FLAG_DTIMEOUT | SDIO_FLAG_DBCKEND))
 8001c4a:	f240 482a 	movw	r8, #1066	; 0x42a
 8001c4e:	6828      	ldr	r0, [r5, #0]
 8001c50:	6b43      	ldr	r3, [r0, #52]	; 0x34
 8001c52:	ea13 0f08 	tst.w	r3, r8
    if(__HAL_SD_GET_FLAG(hsd, SDIO_FLAG_RXDAVL))
 8001c56:	6b43      	ldr	r3, [r0, #52]	; 0x34
  while(!__HAL_SD_GET_FLAG(hsd, SDIO_FLAG_RXOVERR | SDIO_FLAG_DCRCFAIL | SDIO_FLAG_DTIMEOUT | SDIO_FLAG_DBCKEND))
 8001c58:	d118      	bne.n	8001c8c <SD_FindSCR+0xac>
    if(__HAL_SD_GET_FLAG(hsd, SDIO_FLAG_RXDAVL))
 8001c5a:	029b      	lsls	r3, r3, #10
 8001c5c:	d407      	bmi.n	8001c6e <SD_FindSCR+0x8e>
    if((HAL_GetTick() - tickstart) >=  SDMMC_DATATIMEOUT)
 8001c5e:	f7ff f9c9 	bl	8000ff4 <HAL_GetTick>
 8001c62:	1b80      	subs	r0, r0, r6
 8001c64:	3001      	adds	r0, #1
 8001c66:	d1f2      	bne.n	8001c4e <SD_FindSCR+0x6e>
      return HAL_SD_ERROR_TIMEOUT;
 8001c68:	f04f 4400 	mov.w	r4, #2147483648	; 0x80000000
 8001c6c:	e7c9      	b.n	8001c02 <SD_FindSCR+0x22>
      *(tempscr + index) = SDIO_ReadFIFO(hsd->Instance);
 8001c6e:	f001 f91b 	bl	8002ea8 <SDIO_ReadFIFO>
 8001c72:	ab08      	add	r3, sp, #32
 8001c74:	eb03 0389 	add.w	r3, r3, r9, lsl #2
 8001c78:	f843 0c20 	str.w	r0, [r3, #-32]
    if((HAL_GetTick() - tickstart) >=  SDMMC_DATATIMEOUT)
 8001c7c:	f7ff f9ba 	bl	8000ff4 <HAL_GetTick>
 8001c80:	1b80      	subs	r0, r0, r6
 8001c82:	3001      	adds	r0, #1
      index++;
 8001c84:	f109 0901 	add.w	r9, r9, #1
    if((HAL_GetTick() - tickstart) >=  SDMMC_DATATIMEOUT)
 8001c88:	d1e1      	bne.n	8001c4e <SD_FindSCR+0x6e>
 8001c8a:	e7ed      	b.n	8001c68 <SD_FindSCR+0x88>
  if(__HAL_SD_GET_FLAG(hsd, SDIO_FLAG_DTIMEOUT))
 8001c8c:	0719      	lsls	r1, r3, #28
 8001c8e:	d40f      	bmi.n	8001cb0 <SD_FindSCR+0xd0>
  else if(__HAL_SD_GET_FLAG(hsd, SDIO_FLAG_DCRCFAIL))
 8001c90:	6b43      	ldr	r3, [r0, #52]	; 0x34
 8001c92:	079a      	lsls	r2, r3, #30
 8001c94:	d40f      	bmi.n	8001cb6 <SD_FindSCR+0xd6>
  else if(__HAL_SD_GET_FLAG(hsd, SDIO_FLAG_RXOVERR))
 8001c96:	6b43      	ldr	r3, [r0, #52]	; 0x34
 8001c98:	069b      	lsls	r3, r3, #26
 8001c9a:	d40f      	bmi.n	8001cbc <SD_FindSCR+0xdc>
 8001c9c:	e9dd 3200 	ldrd	r3, r2, [sp]
    __HAL_SD_CLEAR_FLAG(hsd, SDIO_STATIC_DATA_FLAGS);
 8001ca0:	f240 513a 	movw	r1, #1338	; 0x53a
 8001ca4:	ba12      	rev	r2, r2
 8001ca6:	ba1b      	rev	r3, r3
 8001ca8:	6381      	str	r1, [r0, #56]	; 0x38
    *scr = (((tempscr[0] & SDMMC_0TO7BITS) << 24)  | ((tempscr[0] & SDMMC_8TO15BITS) << 8) |\
 8001caa:	e9c7 2300 	strd	r2, r3, [r7]
  return HAL_SD_ERROR_NONE;
 8001cae:	e7a8      	b.n	8001c02 <SD_FindSCR+0x22>
    __HAL_SD_CLEAR_FLAG(hsd, SDIO_FLAG_DTIMEOUT);
 8001cb0:	2408      	movs	r4, #8
 8001cb2:	6384      	str	r4, [r0, #56]	; 0x38
    return HAL_SD_ERROR_DATA_TIMEOUT;
 8001cb4:	e7a5      	b.n	8001c02 <SD_FindSCR+0x22>
    __HAL_SD_CLEAR_FLAG(hsd, SDIO_FLAG_DCRCFAIL);
 8001cb6:	2402      	movs	r4, #2
 8001cb8:	6384      	str	r4, [r0, #56]	; 0x38
    return HAL_SD_ERROR_DATA_CRC_FAIL;
 8001cba:	e7a2      	b.n	8001c02 <SD_FindSCR+0x22>
    __HAL_SD_CLEAR_FLAG(hsd, SDIO_FLAG_RXOVERR);
 8001cbc:	2420      	movs	r4, #32
 8001cbe:	6384      	str	r4, [r0, #56]	; 0x38
    return HAL_SD_ERROR_RX_OVERRUN;
 8001cc0:	e79f      	b.n	8001c02 <SD_FindSCR+0x22>
 8001cc2:	bf00      	nop

08001cc4 <HAL_SD_ReadBlocks>:
{
 8001cc4:	e92d 4ff0 	stmdb	sp!, {r4, r5, r6, r7, r8, r9, sl, fp, lr}
 8001cc8:	460d      	mov	r5, r1
 8001cca:	b087      	sub	sp, #28
 8001ccc:	4604      	mov	r4, r0
 8001cce:	4616      	mov	r6, r2
 8001cd0:	461f      	mov	r7, r3
  uint32_t tickstart = HAL_GetTick();
 8001cd2:	f7ff f98f 	bl	8000ff4 <HAL_GetTick>
  if(NULL == pData)
 8001cd6:	b36d      	cbz	r5, 8001d34 <HAL_SD_ReadBlocks+0x70>
 8001cd8:	4680      	mov	r8, r0
  if(hsd->State == HAL_SD_STATE_READY)
 8001cda:	f894 0034 	ldrb.w	r0, [r4, #52]	; 0x34
 8001cde:	b2c0      	uxtb	r0, r0
 8001ce0:	2801      	cmp	r0, #1
 8001ce2:	d007      	beq.n	8001cf4 <HAL_SD_ReadBlocks+0x30>
    return HAL_ERROR;
 8001ce4:	2001      	movs	r0, #1
    hsd->ErrorCode |= HAL_SD_ERROR_BUSY;
 8001ce6:	6ba3      	ldr	r3, [r4, #56]	; 0x38
 8001ce8:	f043 5300 	orr.w	r3, r3, #536870912	; 0x20000000
 8001cec:	63a3      	str	r3, [r4, #56]	; 0x38
}
 8001cee:	b007      	add	sp, #28
 8001cf0:	e8bd 8ff0 	ldmia.w	sp!, {r4, r5, r6, r7, r8, r9, sl, fp, pc}
    hsd->ErrorCode = HAL_SD_ERROR_NONE;
 8001cf4:	2100      	movs	r1, #0
    if((add + NumberOfBlocks) > (hsd->SdCard.LogBlockNbr))
 8001cf6:	6de2      	ldr	r2, [r4, #92]	; 0x5c
 8001cf8:	19f3      	adds	r3, r6, r7
 8001cfa:	4293      	cmp	r3, r2
    hsd->ErrorCode = HAL_SD_ERROR_NONE;
 8001cfc:	63a1      	str	r1, [r4, #56]	; 0x38
    if((add + NumberOfBlocks) > (hsd->SdCard.LogBlockNbr))
 8001cfe:	d821      	bhi.n	8001d44 <HAL_SD_ReadBlocks+0x80>
    hsd->State = HAL_SD_STATE_BUSY;
 8001d00:	2303      	movs	r3, #3
    hsd->Instance->DCTRL = 0U;
 8001d02:	6820      	ldr	r0, [r4, #0]
    hsd->State = HAL_SD_STATE_BUSY;
 8001d04:	f884 3034 	strb.w	r3, [r4, #52]	; 0x34
    if(hsd->SdCard.CardType != CARD_SDHC_SDXC)
 8001d08:	6c63      	ldr	r3, [r4, #68]	; 0x44
    hsd->Instance->DCTRL = 0U;
 8001d0a:	62c1      	str	r1, [r0, #44]	; 0x2c
    if(hsd->SdCard.CardType != CARD_SDHC_SDXC)
 8001d0c:	2b01      	cmp	r3, #1
    errorstate = SDMMC_CmdBlockLength(hsd->Instance, BLOCKSIZE);
 8001d0e:	f44f 7100 	mov.w	r1, #512	; 0x200
      add *= 512U;
 8001d12:	bf18      	it	ne
 8001d14:	0276      	lslne	r6, r6, #9
    errorstate = SDMMC_CmdBlockLength(hsd->Instance, BLOCKSIZE);
 8001d16:	f001 f8f7 	bl	8002f08 <SDMMC_CmdBlockLength>
    if(errorstate != HAL_SD_ERROR_NONE)
 8001d1a:	4603      	mov	r3, r0
 8001d1c:	b1c8      	cbz	r0, 8001d52 <HAL_SD_ReadBlocks+0x8e>
      hsd->State = HAL_SD_STATE_READY;
 8001d1e:	2101      	movs	r1, #1
      __HAL_SD_CLEAR_FLAG(hsd, SDIO_STATIC_FLAGS);
 8001d20:	6822      	ldr	r2, [r4, #0]
 8001d22:	4d86      	ldr	r5, [pc, #536]	; (8001f3c <HAL_SD_ReadBlocks+0x278>)
      return HAL_ERROR;
 8001d24:	4608      	mov	r0, r1
      __HAL_SD_CLEAR_FLAG(hsd, SDIO_STATIC_FLAGS);
 8001d26:	6395      	str	r5, [r2, #56]	; 0x38
      hsd->ErrorCode |= errorstate;
 8001d28:	6ba2      	ldr	r2, [r4, #56]	; 0x38
 8001d2a:	4313      	orrs	r3, r2
 8001d2c:	63a3      	str	r3, [r4, #56]	; 0x38
      hsd->State = HAL_SD_STATE_READY;
 8001d2e:	f884 1034 	strb.w	r1, [r4, #52]	; 0x34
      return HAL_ERROR;
 8001d32:	e7dc      	b.n	8001cee <HAL_SD_ReadBlocks+0x2a>
    return HAL_ERROR;
 8001d34:	2001      	movs	r0, #1
    hsd->ErrorCode |= HAL_SD_ERROR_PARAM;
 8001d36:	6ba3      	ldr	r3, [r4, #56]	; 0x38
 8001d38:	f043 6300 	orr.w	r3, r3, #134217728	; 0x8000000
 8001d3c:	63a3      	str	r3, [r4, #56]	; 0x38
}
 8001d3e:	b007      	add	sp, #28
 8001d40:	e8bd 8ff0 	ldmia.w	sp!, {r4, r5, r6, r7, r8, r9, sl, fp, pc}
      hsd->ErrorCode |= HAL_SD_ERROR_ADDR_OUT_OF_RANGE;
 8001d44:	6ba3      	ldr	r3, [r4, #56]	; 0x38
 8001d46:	f043 7300 	orr.w	r3, r3, #33554432	; 0x2000000
 8001d4a:	63a3      	str	r3, [r4, #56]	; 0x38
}
 8001d4c:	b007      	add	sp, #28
 8001d4e:	e8bd 8ff0 	ldmia.w	sp!, {r4, r5, r6, r7, r8, r9, sl, fp, pc}
    config.DataTimeOut   = SDMMC_DATATIMEOUT;
 8001d52:	f04f 31ff 	mov.w	r1, #4294967295
    config.DataBlockSize = SDIO_DATABLOCK_SIZE_512B;
 8001d56:	2290      	movs	r2, #144	; 0x90
    config.DPSM          = SDIO_DPSM_ENABLE;
 8001d58:	f04f 0a01 	mov.w	sl, #1
    config.TransferDir   = SDIO_TRANSFER_DIR_TO_SDIO;
 8001d5c:	f04f 0902 	mov.w	r9, #2
    config.TransferMode  = SDIO_TRANSFER_MODE_BLOCK;
 8001d60:	9004      	str	r0, [sp, #16]
    config.DataLength    = NumberOfBlocks * BLOCKSIZE;
 8001d62:	027b      	lsls	r3, r7, #9
    config.DataTimeOut   = SDMMC_DATATIMEOUT;
 8001d64:	9100      	str	r1, [sp, #0]
    (void)SDIO_ConfigData(hsd->Instance, &config);
 8001d66:	6820      	ldr	r0, [r4, #0]
 8001d68:	4669      	mov	r1, sp
    config.DataBlockSize = SDIO_DATABLOCK_SIZE_512B;
 8001d6a:	9202      	str	r2, [sp, #8]
    config.TransferDir   = SDIO_TRANSFER_DIR_TO_SDIO;
 8001d6c:	f8cd 900c 	str.w	r9, [sp, #12]
    config.DPSM          = SDIO_DPSM_ENABLE;
 8001d70:	f8cd a014 	str.w	sl, [sp, #20]
    config.DataLength    = NumberOfBlocks * BLOCKSIZE;
 8001d74:	9301      	str	r3, [sp, #4]
    (void)SDIO_ConfigData(hsd->Instance, &config);
 8001d76:	f001 f8b3 	bl	8002ee0 <SDIO_ConfigData>
    if(NumberOfBlocks > 1U)
 8001d7a:	4557      	cmp	r7, sl
 8001d7c:	d945      	bls.n	8001e0a <HAL_SD_ReadBlocks+0x146>
      hsd->Context = SD_CONTEXT_READ_MULTIPLE_BLOCK;
 8001d7e:	f8c4 9030 	str.w	r9, [r4, #48]	; 0x30
      errorstate = SDMMC_CmdReadMultiBlock(hsd->Instance, add);
 8001d82:	4631      	mov	r1, r6
 8001d84:	6820      	ldr	r0, [r4, #0]
 8001d86:	f001 f941 	bl	800300c <SDMMC_CmdReadMultiBlock>
 8001d8a:	4602      	mov	r2, r0
 8001d8c:	6823      	ldr	r3, [r4, #0]
    if(errorstate != HAL_SD_ERROR_NONE)
 8001d8e:	bb82      	cbnz	r2, 8001df2 <HAL_SD_ReadBlocks+0x12e>
    dataremaining = config.DataLength;
 8001d90:	f8dd a004 	ldr.w	sl, [sp, #4]
    while(!__HAL_SD_GET_FLAG(hsd, SDIO_FLAG_RXOVERR | SDIO_FLAG_DCRCFAIL | SDIO_FLAG_DTIMEOUT | SDIO_FLAG_DATAEND | SDIO_FLAG_STBITERR))
 8001d94:	f240 3b2a 	movw	fp, #810	; 0x32a
 8001d98:	e007      	b.n	8001daa <HAL_SD_ReadBlocks+0xe6>
      if(((HAL_GetTick()-tickstart) >=  Timeout) || (Timeout == 0U))
 8001d9a:	f7ff f92b 	bl	8000ff4 <HAL_GetTick>
 8001d9e:	9b10      	ldr	r3, [sp, #64]	; 0x40
 8001da0:	eba0 0008 	sub.w	r0, r0, r8
 8001da4:	4298      	cmp	r0, r3
 8001da6:	d27b      	bcs.n	8001ea0 <HAL_SD_ReadBlocks+0x1dc>
 8001da8:	6823      	ldr	r3, [r4, #0]
    while(!__HAL_SD_GET_FLAG(hsd, SDIO_FLAG_RXOVERR | SDIO_FLAG_DCRCFAIL | SDIO_FLAG_DTIMEOUT | SDIO_FLAG_DATAEND | SDIO_FLAG_STBITERR))
 8001daa:	6b5a      	ldr	r2, [r3, #52]	; 0x34
 8001dac:	ea12 0f0b 	tst.w	r2, fp
      if(__HAL_SD_GET_FLAG(hsd, SDIO_FLAG_RXFIFOHF) && (dataremaining > 0U))
 8001db0:	6b5a      	ldr	r2, [r3, #52]	; 0x34
    while(!__HAL_SD_GET_FLAG(hsd, SDIO_FLAG_RXOVERR | SDIO_FLAG_DCRCFAIL | SDIO_FLAG_DTIMEOUT | SDIO_FLAG_DATAEND | SDIO_FLAG_STBITERR))
 8001db2:	d132      	bne.n	8001e1a <HAL_SD_ReadBlocks+0x156>
      if(__HAL_SD_GET_FLAG(hsd, SDIO_FLAG_RXFIFOHF) && (dataremaining > 0U))
 8001db4:	0412      	lsls	r2, r2, #16
 8001db6:	d5f0      	bpl.n	8001d9a <HAL_SD_ReadBlocks+0xd6>
 8001db8:	f1ba 0f00 	cmp.w	sl, #0
 8001dbc:	d0ed      	beq.n	8001d9a <HAL_SD_ReadBlocks+0xd6>
 8001dbe:	1d2e      	adds	r6, r5, #4
 8001dc0:	f105 0924 	add.w	r9, r5, #36	; 0x24
 8001dc4:	e000      	b.n	8001dc8 <HAL_SD_ReadBlocks+0x104>
 8001dc6:	6823      	ldr	r3, [r4, #0]
          data = SDIO_ReadFIFO(hsd->Instance);
 8001dc8:	4618      	mov	r0, r3
 8001dca:	f001 f86d 	bl	8002ea8 <SDIO_ReadFIFO>
          *tempbuff = (uint8_t)(data & 0xFFU);
 8001dce:	f806 0c04 	strb.w	r0, [r6, #-4]
          *tempbuff = (uint8_t)((data >> 8U) & 0xFFU);
 8001dd2:	0a02      	lsrs	r2, r0, #8
          *tempbuff = (uint8_t)((data >> 16U) & 0xFFU);
 8001dd4:	0c03      	lsrs	r3, r0, #16
          *tempbuff = (uint8_t)((data >> 24U) & 0xFFU);
 8001dd6:	0e00      	lsrs	r0, r0, #24
          *tempbuff = (uint8_t)((data >> 8U) & 0xFFU);
 8001dd8:	f806 2c03 	strb.w	r2, [r6, #-3]
          *tempbuff = (uint8_t)((data >> 16U) & 0xFFU);
 8001ddc:	f806 3c02 	strb.w	r3, [r6, #-2]
          *tempbuff = (uint8_t)((data >> 24U) & 0xFFU);
 8001de0:	f806 0c01 	strb.w	r0, [r6, #-1]
 8001de4:	3604      	adds	r6, #4
        for(count = 0U; count < 8U; count++)
 8001de6:	454e      	cmp	r6, r9
 8001de8:	d1ed      	bne.n	8001dc6 <HAL_SD_ReadBlocks+0x102>
 8001dea:	3520      	adds	r5, #32
 8001dec:	f1aa 0a20 	sub.w	sl, sl, #32
 8001df0:	e7d3      	b.n	8001d9a <HAL_SD_ReadBlocks+0xd6>
      hsd->State = HAL_SD_STATE_READY;
 8001df2:	2101      	movs	r1, #1
      hsd->Context = SD_CONTEXT_NONE;
 8001df4:	2500      	movs	r5, #0
      __HAL_SD_CLEAR_FLAG(hsd, SDIO_STATIC_FLAGS);
 8001df6:	4851      	ldr	r0, [pc, #324]	; (8001f3c <HAL_SD_ReadBlocks+0x278>)
 8001df8:	6398      	str	r0, [r3, #56]	; 0x38
      hsd->ErrorCode |= errorstate;
 8001dfa:	6ba3      	ldr	r3, [r4, #56]	; 0x38
      return HAL_ERROR;
 8001dfc:	4608      	mov	r0, r1
      hsd->ErrorCode |= errorstate;
 8001dfe:	431a      	orrs	r2, r3
 8001e00:	63a2      	str	r2, [r4, #56]	; 0x38
      hsd->State = HAL_SD_STATE_READY;
 8001e02:	f884 1034 	strb.w	r1, [r4, #52]	; 0x34
      hsd->Context = SD_CONTEXT_NONE;
 8001e06:	6325      	str	r5, [r4, #48]	; 0x30
      return HAL_ERROR;
 8001e08:	e771      	b.n	8001cee <HAL_SD_ReadBlocks+0x2a>
      hsd->Context = SD_CONTEXT_READ_SINGLE_BLOCK;
 8001e0a:	f8c4 a030 	str.w	sl, [r4, #48]	; 0x30
      errorstate = SDMMC_CmdReadSingleBlock(hsd->Instance, add);
 8001e0e:	4631      	mov	r1, r6
 8001e10:	6820      	ldr	r0, [r4, #0]
 8001e12:	f001 f8b9 	bl	8002f88 <SDMMC_CmdReadSingleBlock>
 8001e16:	4602      	mov	r2, r0
 8001e18:	e7b8      	b.n	8001d8c <HAL_SD_ReadBlocks+0xc8>
    if(__HAL_SD_GET_FLAG(hsd, SDIO_FLAG_DATAEND) && (NumberOfBlocks > 1U))
 8001e1a:	05d6      	lsls	r6, r2, #23
 8001e1c:	d50b      	bpl.n	8001e36 <HAL_SD_ReadBlocks+0x172>
 8001e1e:	2f01      	cmp	r7, #1
 8001e20:	d909      	bls.n	8001e36 <HAL_SD_ReadBlocks+0x172>
      if(hsd->SdCard.CardType != CARD_SECURED)
 8001e22:	6c62      	ldr	r2, [r4, #68]	; 0x44
 8001e24:	2a03      	cmp	r2, #3
 8001e26:	d006      	beq.n	8001e36 <HAL_SD_ReadBlocks+0x172>
        errorstate = SDMMC_CmdStopTransfer(hsd->Instance);
 8001e28:	4618      	mov	r0, r3
 8001e2a:	f001 f9b3 	bl	8003194 <SDMMC_CmdStopTransfer>
        if(errorstate != HAL_SD_ERROR_NONE)
 8001e2e:	4603      	mov	r3, r0
 8001e30:	2800      	cmp	r0, #0
 8001e32:	d168      	bne.n	8001f06 <HAL_SD_ReadBlocks+0x242>
 8001e34:	6823      	ldr	r3, [r4, #0]
    if(__HAL_SD_GET_FLAG(hsd, SDIO_FLAG_DTIMEOUT))
 8001e36:	6b5a      	ldr	r2, [r3, #52]	; 0x34
 8001e38:	f012 0208 	ands.w	r2, r2, #8
 8001e3c:	d13e      	bne.n	8001ebc <HAL_SD_ReadBlocks+0x1f8>
    else if(__HAL_SD_GET_FLAG(hsd, SDIO_FLAG_DCRCFAIL))
 8001e3e:	6b59      	ldr	r1, [r3, #52]	; 0x34
 8001e40:	f011 0102 	ands.w	r1, r1, #2
 8001e44:	d147      	bne.n	8001ed6 <HAL_SD_ReadBlocks+0x212>
    else if(__HAL_SD_GET_FLAG(hsd, SDIO_FLAG_RXOVERR))
 8001e46:	6b5a      	ldr	r2, [r3, #52]	; 0x34
 8001e48:	0690      	lsls	r0, r2, #26
 8001e4a:	d450      	bmi.n	8001eee <HAL_SD_ReadBlocks+0x22a>
 8001e4c:	3504      	adds	r5, #4
 8001e4e:	e01c      	b.n	8001e8a <HAL_SD_ReadBlocks+0x1c6>
    while ((__HAL_SD_GET_FLAG(hsd, SDIO_FLAG_RXDAVL)) && (dataremaining > 0U))
 8001e50:	f1ba 0f00 	cmp.w	sl, #0
 8001e54:	d01c      	beq.n	8001e90 <HAL_SD_ReadBlocks+0x1cc>
      data = SDIO_ReadFIFO(hsd->Instance);
 8001e56:	4618      	mov	r0, r3
 8001e58:	f001 f826 	bl	8002ea8 <SDIO_ReadFIFO>
      *tempbuff = (uint8_t)((data >> 16U) & 0xFFU);
 8001e5c:	0c03      	lsrs	r3, r0, #16
      *tempbuff = (uint8_t)((data >> 8U) & 0xFFU);
 8001e5e:	0a02      	lsrs	r2, r0, #8
      *tempbuff = (uint8_t)(data & 0xFFU);
 8001e60:	f805 0c04 	strb.w	r0, [r5, #-4]
      *tempbuff = (uint8_t)((data >> 24U) & 0xFFU);
 8001e64:	0e00      	lsrs	r0, r0, #24
      *tempbuff = (uint8_t)((data >> 16U) & 0xFFU);
 8001e66:	f805 3c02 	strb.w	r3, [r5, #-2]
      *tempbuff = (uint8_t)((data >> 8U) & 0xFFU);
 8001e6a:	f805 2c03 	strb.w	r2, [r5, #-3]
      *tempbuff = (uint8_t)((data >> 24U) & 0xFFU);
 8001e6e:	f805 0c01 	strb.w	r0, [r5, #-1]
      if(((HAL_GetTick()-tickstart) >=  Timeout) || (Timeout == 0U))
 8001e72:	f7ff f8bf 	bl	8000ff4 <HAL_GetTick>
 8001e76:	9b10      	ldr	r3, [sp, #64]	; 0x40
 8001e78:	eba0 0008 	sub.w	r0, r0, r8
 8001e7c:	4298      	cmp	r0, r3
      dataremaining--;
 8001e7e:	f1aa 0a04 	sub.w	sl, sl, #4
 8001e82:	f105 0504 	add.w	r5, r5, #4
      if(((HAL_GetTick()-tickstart) >=  Timeout) || (Timeout == 0U))
 8001e86:	d24b      	bcs.n	8001f20 <HAL_SD_ReadBlocks+0x25c>
 8001e88:	6823      	ldr	r3, [r4, #0]
    while ((__HAL_SD_GET_FLAG(hsd, SDIO_FLAG_RXDAVL)) && (dataremaining > 0U))
 8001e8a:	6b5a      	ldr	r2, [r3, #52]	; 0x34
 8001e8c:	0292      	lsls	r2, r2, #10
 8001e8e:	d4df      	bmi.n	8001e50 <HAL_SD_ReadBlocks+0x18c>
    __HAL_SD_CLEAR_FLAG(hsd, SDIO_STATIC_DATA_FLAGS);
 8001e90:	f240 513a 	movw	r1, #1338	; 0x53a
    hsd->State = HAL_SD_STATE_READY;
 8001e94:	2201      	movs	r2, #1
    __HAL_SD_CLEAR_FLAG(hsd, SDIO_STATIC_DATA_FLAGS);
 8001e96:	6399      	str	r1, [r3, #56]	; 0x38
    return HAL_OK;
 8001e98:	2000      	movs	r0, #0
    hsd->State = HAL_SD_STATE_READY;
 8001e9a:	f884 2034 	strb.w	r2, [r4, #52]	; 0x34
    return HAL_OK;
 8001e9e:	e726      	b.n	8001cee <HAL_SD_ReadBlocks+0x2a>
        hsd->State= HAL_SD_STATE_READY;
 8001ea0:	2101      	movs	r1, #1
        hsd->Context = SD_CONTEXT_NONE;
 8001ea2:	2200      	movs	r2, #0
        __HAL_SD_CLEAR_FLAG(hsd, SDIO_STATIC_FLAGS);
 8001ea4:	6823      	ldr	r3, [r4, #0]
 8001ea6:	4d25      	ldr	r5, [pc, #148]	; (8001f3c <HAL_SD_ReadBlocks+0x278>)
        return HAL_TIMEOUT;
 8001ea8:	2003      	movs	r0, #3
        __HAL_SD_CLEAR_FLAG(hsd, SDIO_STATIC_FLAGS);
 8001eaa:	639d      	str	r5, [r3, #56]	; 0x38
        hsd->ErrorCode |= HAL_SD_ERROR_TIMEOUT;
 8001eac:	6ba3      	ldr	r3, [r4, #56]	; 0x38
 8001eae:	f043 4300 	orr.w	r3, r3, #2147483648	; 0x80000000
 8001eb2:	63a3      	str	r3, [r4, #56]	; 0x38
        hsd->State= HAL_SD_STATE_READY;
 8001eb4:	f884 1034 	strb.w	r1, [r4, #52]	; 0x34
        hsd->Context = SD_CONTEXT_NONE;
 8001eb8:	6322      	str	r2, [r4, #48]	; 0x30
        return HAL_TIMEOUT;
 8001eba:	e718      	b.n	8001cee <HAL_SD_ReadBlocks+0x2a>
      hsd->State = HAL_SD_STATE_READY;
 8001ebc:	2201      	movs	r2, #1
      hsd->Context = SD_CONTEXT_NONE;
 8001ebe:	2100      	movs	r1, #0
      __HAL_SD_CLEAR_FLAG(hsd, SDIO_STATIC_FLAGS);
 8001ec0:	4d1e      	ldr	r5, [pc, #120]	; (8001f3c <HAL_SD_ReadBlocks+0x278>)
      return HAL_ERROR;
 8001ec2:	4610      	mov	r0, r2
      __HAL_SD_CLEAR_FLAG(hsd, SDIO_STATIC_FLAGS);
 8001ec4:	639d      	str	r5, [r3, #56]	; 0x38
      hsd->ErrorCode |= HAL_SD_ERROR_DATA_TIMEOUT;
 8001ec6:	6ba3      	ldr	r3, [r4, #56]	; 0x38
 8001ec8:	f043 0308 	orr.w	r3, r3, #8
 8001ecc:	63a3      	str	r3, [r4, #56]	; 0x38
      hsd->State = HAL_SD_STATE_READY;
 8001ece:	f884 2034 	strb.w	r2, [r4, #52]	; 0x34
      hsd->Context = SD_CONTEXT_NONE;
 8001ed2:	6321      	str	r1, [r4, #48]	; 0x30
      return HAL_ERROR;
 8001ed4:	e70b      	b.n	8001cee <HAL_SD_ReadBlocks+0x2a>
      hsd->State = HAL_SD_STATE_READY;
 8001ed6:	2101      	movs	r1, #1
      __HAL_SD_CLEAR_FLAG(hsd, SDIO_STATIC_FLAGS);
 8001ed8:	4d18      	ldr	r5, [pc, #96]	; (8001f3c <HAL_SD_ReadBlocks+0x278>)
      return HAL_ERROR;
 8001eda:	4608      	mov	r0, r1
      __HAL_SD_CLEAR_FLAG(hsd, SDIO_STATIC_FLAGS);
 8001edc:	639d      	str	r5, [r3, #56]	; 0x38
      hsd->ErrorCode |= HAL_SD_ERROR_DATA_CRC_FAIL;
 8001ede:	6ba3      	ldr	r3, [r4, #56]	; 0x38
 8001ee0:	f043 0302 	orr.w	r3, r3, #2
 8001ee4:	63a3      	str	r3, [r4, #56]	; 0x38
      hsd->State = HAL_SD_STATE_READY;
 8001ee6:	f884 1034 	strb.w	r1, [r4, #52]	; 0x34
      hsd->Context = SD_CONTEXT_NONE;
 8001eea:	6322      	str	r2, [r4, #48]	; 0x30
      return HAL_ERROR;
 8001eec:	e6ff      	b.n	8001cee <HAL_SD_ReadBlocks+0x2a>
      hsd->State = HAL_SD_STATE_READY;
 8001eee:	2201      	movs	r2, #1
      __HAL_SD_CLEAR_FLAG(hsd, SDIO_STATIC_FLAGS);
 8001ef0:	4d12      	ldr	r5, [pc, #72]	; (8001f3c <HAL_SD_ReadBlocks+0x278>)
      return HAL_ERROR;
 8001ef2:	4610      	mov	r0, r2
      __HAL_SD_CLEAR_FLAG(hsd, SDIO_STATIC_FLAGS);
 8001ef4:	639d      	str	r5, [r3, #56]	; 0x38
      hsd->ErrorCode |= HAL_SD_ERROR_RX_OVERRUN;
 8001ef6:	6ba3      	ldr	r3, [r4, #56]	; 0x38
 8001ef8:	f043 0320 	orr.w	r3, r3, #32
 8001efc:	63a3      	str	r3, [r4, #56]	; 0x38
      hsd->State = HAL_SD_STATE_READY;
 8001efe:	f884 2034 	strb.w	r2, [r4, #52]	; 0x34
      hsd->Context = SD_CONTEXT_NONE;
 8001f02:	6321      	str	r1, [r4, #48]	; 0x30
      return HAL_ERROR;
 8001f04:	e6f3      	b.n	8001cee <HAL_SD_ReadBlocks+0x2a>
          hsd->State = HAL_SD_STATE_READY;
 8001f06:	2101      	movs	r1, #1
          hsd->Context = SD_CONTEXT_NONE;
 8001f08:	2500      	movs	r5, #0
          __HAL_SD_CLEAR_FLAG(hsd, SDIO_STATIC_FLAGS);
 8001f0a:	6822      	ldr	r2, [r4, #0]
 8001f0c:	480b      	ldr	r0, [pc, #44]	; (8001f3c <HAL_SD_ReadBlocks+0x278>)
 8001f0e:	6390      	str	r0, [r2, #56]	; 0x38
          hsd->ErrorCode |= errorstate;
 8001f10:	6ba2      	ldr	r2, [r4, #56]	; 0x38
          return HAL_ERROR;
 8001f12:	4608      	mov	r0, r1
          hsd->ErrorCode |= errorstate;
 8001f14:	4313      	orrs	r3, r2
 8001f16:	63a3      	str	r3, [r4, #56]	; 0x38
          hsd->State = HAL_SD_STATE_READY;
 8001f18:	f884 1034 	strb.w	r1, [r4, #52]	; 0x34
          hsd->Context = SD_CONTEXT_NONE;
 8001f1c:	6325      	str	r5, [r4, #48]	; 0x30
          return HAL_ERROR;
 8001f1e:	e6e6      	b.n	8001cee <HAL_SD_ReadBlocks+0x2a>
        hsd->State= HAL_SD_STATE_READY;
 8001f20:	2201      	movs	r2, #1
        hsd->Context = SD_CONTEXT_NONE;
 8001f22:	2100      	movs	r1, #0
        __HAL_SD_CLEAR_FLAG(hsd, SDIO_STATIC_FLAGS);
 8001f24:	6823      	ldr	r3, [r4, #0]
 8001f26:	4d05      	ldr	r5, [pc, #20]	; (8001f3c <HAL_SD_ReadBlocks+0x278>)
        return HAL_ERROR;
 8001f28:	4610      	mov	r0, r2
        __HAL_SD_CLEAR_FLAG(hsd, SDIO_STATIC_FLAGS);
 8001f2a:	639d      	str	r5, [r3, #56]	; 0x38
        hsd->ErrorCode |= HAL_SD_ERROR_TIMEOUT;
 8001f2c:	6ba3      	ldr	r3, [r4, #56]	; 0x38
 8001f2e:	f043 4300 	orr.w	r3, r3, #2147483648	; 0x80000000
 8001f32:	63a3      	str	r3, [r4, #56]	; 0x38
        hsd->State= HAL_SD_STATE_READY;
 8001f34:	f884 2034 	strb.w	r2, [r4, #52]	; 0x34
        hsd->Context = SD_CONTEXT_NONE;
 8001f38:	6321      	str	r1, [r4, #48]	; 0x30
        return HAL_ERROR;
 8001f3a:	e6d8      	b.n	8001cee <HAL_SD_ReadBlocks+0x2a>
 8001f3c:	004005ff 	.word	0x004005ff

08001f40 <HAL_SD_WriteBlocks>:
{
 8001f40:	e92d 47f0 	stmdb	sp!, {r4, r5, r6, r7, r8, r9, sl, lr}
 8001f44:	460d      	mov	r5, r1
 8001f46:	b088      	sub	sp, #32
 8001f48:	4604      	mov	r4, r0
 8001f4a:	4616      	mov	r6, r2
 8001f4c:	461f      	mov	r7, r3
  uint32_t tickstart = HAL_GetTick();
 8001f4e:	f7ff f851 	bl	8000ff4 <HAL_GetTick>
  if(NULL == pData)
 8001f52:	b36d      	cbz	r5, 8001fb0 <HAL_SD_WriteBlocks+0x70>
 8001f54:	4680      	mov	r8, r0
  if(hsd->State == HAL_SD_STATE_READY)
 8001f56:	f894 0034 	ldrb.w	r0, [r4, #52]	; 0x34
 8001f5a:	b2c0      	uxtb	r0, r0
 8001f5c:	2801      	cmp	r0, #1
 8001f5e:	d007      	beq.n	8001f70 <HAL_SD_WriteBlocks+0x30>
    return HAL_ERROR;
 8001f60:	2001      	movs	r0, #1
    hsd->ErrorCode |= HAL_SD_ERROR_BUSY;
 8001f62:	6ba3      	ldr	r3, [r4, #56]	; 0x38
 8001f64:	f043 5300 	orr.w	r3, r3, #536870912	; 0x20000000
 8001f68:	63a3      	str	r3, [r4, #56]	; 0x38
}
 8001f6a:	b008      	add	sp, #32
 8001f6c:	e8bd 87f0 	ldmia.w	sp!, {r4, r5, r6, r7, r8, r9, sl, pc}
    hsd->ErrorCode = HAL_SD_ERROR_NONE;
 8001f70:	2100      	movs	r1, #0
    if((add + NumberOfBlocks) > (hsd->SdCard.LogBlockNbr))
 8001f72:	6de2      	ldr	r2, [r4, #92]	; 0x5c
 8001f74:	19f3      	adds	r3, r6, r7
 8001f76:	4293      	cmp	r3, r2
    hsd->ErrorCode = HAL_SD_ERROR_NONE;
 8001f78:	63a1      	str	r1, [r4, #56]	; 0x38
    if((add + NumberOfBlocks) > (hsd->SdCard.LogBlockNbr))
 8001f7a:	d821      	bhi.n	8001fc0 <HAL_SD_WriteBlocks+0x80>
    hsd->State = HAL_SD_STATE_BUSY;
 8001f7c:	2303      	movs	r3, #3
    hsd->Instance->DCTRL = 0U;
 8001f7e:	6820      	ldr	r0, [r4, #0]
    hsd->State = HAL_SD_STATE_BUSY;
 8001f80:	f884 3034 	strb.w	r3, [r4, #52]	; 0x34
    if(hsd->SdCard.CardType != CARD_SDHC_SDXC)
 8001f84:	6c63      	ldr	r3, [r4, #68]	; 0x44
    hsd->Instance->DCTRL = 0U;
 8001f86:	62c1      	str	r1, [r0, #44]	; 0x2c
    if(hsd->SdCard.CardType != CARD_SDHC_SDXC)
 8001f88:	2b01      	cmp	r3, #1
    errorstate = SDMMC_CmdBlockLength(hsd->Instance, BLOCKSIZE);
 8001f8a:	f44f 7100 	mov.w	r1, #512	; 0x200
      add *= 512U;
 8001f8e:	bf18      	it	ne
 8001f90:	0276      	lslne	r6, r6, #9
    errorstate = SDMMC_CmdBlockLength(hsd->Instance, BLOCKSIZE);
 8001f92:	f000 ffb9 	bl	8002f08 <SDMMC_CmdBlockLength>
    if(errorstate != HAL_SD_ERROR_NONE)
 8001f96:	4603      	mov	r3, r0
 8001f98:	b1c8      	cbz	r0, 8001fce <HAL_SD_WriteBlocks+0x8e>
      hsd->State = HAL_SD_STATE_READY;
 8001f9a:	2101      	movs	r1, #1
      __HAL_SD_CLEAR_FLAG(hsd, SDIO_STATIC_FLAGS);
 8001f9c:	6822      	ldr	r2, [r4, #0]
 8001f9e:	4d66      	ldr	r5, [pc, #408]	; (8002138 <HAL_SD_WriteBlocks+0x1f8>)
      return HAL_ERROR;
 8001fa0:	4608      	mov	r0, r1
      __HAL_SD_CLEAR_FLAG(hsd, SDIO_STATIC_FLAGS);
 8001fa2:	6395      	str	r5, [r2, #56]	; 0x38
      hsd->ErrorCode |= errorstate;
 8001fa4:	6ba2      	ldr	r2, [r4, #56]	; 0x38
 8001fa6:	4313      	orrs	r3, r2
 8001fa8:	63a3      	str	r3, [r4, #56]	; 0x38
      hsd->State = HAL_SD_STATE_READY;
 8001faa:	f884 1034 	strb.w	r1, [r4, #52]	; 0x34
      return HAL_ERROR;
 8001fae:	e7dc      	b.n	8001f6a <HAL_SD_WriteBlocks+0x2a>
    return HAL_ERROR;
 8001fb0:	2001      	movs	r0, #1
    hsd->ErrorCode |= HAL_SD_ERROR_PARAM;
 8001fb2:	6ba3      	ldr	r3, [r4, #56]	; 0x38
 8001fb4:	f043 6300 	orr.w	r3, r3, #134217728	; 0x8000000
 8001fb8:	63a3      	str	r3, [r4, #56]	; 0x38
}
 8001fba:	b008      	add	sp, #32
 8001fbc:	e8bd 87f0 	ldmia.w	sp!, {r4, r5, r6, r7, r8, r9, sl, pc}
      hsd->ErrorCode |= HAL_SD_ERROR_ADDR_OUT_OF_RANGE;
 8001fc0:	6ba3      	ldr	r3, [r4, #56]	; 0x38
 8001fc2:	f043 7300 	orr.w	r3, r3, #33554432	; 0x2000000
 8001fc6:	63a3      	str	r3, [r4, #56]	; 0x38
}
 8001fc8:	b008      	add	sp, #32
 8001fca:	e8bd 87f0 	ldmia.w	sp!, {r4, r5, r6, r7, r8, r9, sl, pc}
    config.DataTimeOut   = SDMMC_DATATIMEOUT;
 8001fce:	f04f 30ff 	mov.w	r0, #4294967295
    config.DataBlockSize = SDIO_DATABLOCK_SIZE_512B;
 8001fd2:	2190      	movs	r1, #144	; 0x90
    config.DPSM          = SDIO_DPSM_ENABLE;
 8001fd4:	2201      	movs	r2, #1
    config.TransferMode  = SDIO_TRANSFER_MODE_BLOCK;
 8001fd6:	e9cd 3305 	strd	r3, r3, [sp, #20]
    config.DataTimeOut   = SDMMC_DATATIMEOUT;
 8001fda:	9002      	str	r0, [sp, #8]
    config.DataLength    = NumberOfBlocks * BLOCKSIZE;
 8001fdc:	027b      	lsls	r3, r7, #9
    config.DataBlockSize = SDIO_DATABLOCK_SIZE_512B;
 8001fde:	9104      	str	r1, [sp, #16]
    (void)SDIO_ConfigData(hsd->Instance, &config);
 8001fe0:	6820      	ldr	r0, [r4, #0]
 8001fe2:	a902      	add	r1, sp, #8
    config.DPSM          = SDIO_DPSM_ENABLE;
 8001fe4:	9207      	str	r2, [sp, #28]
    config.DataLength    = NumberOfBlocks * BLOCKSIZE;
 8001fe6:	9303      	str	r3, [sp, #12]
    (void)SDIO_ConfigData(hsd->Instance, &config);
 8001fe8:	f000 ff7a 	bl	8002ee0 <SDIO_ConfigData>
    if(NumberOfBlocks > 1U)
 8001fec:	2f01      	cmp	r7, #1
 8001fee:	d93b      	bls.n	8002068 <HAL_SD_WriteBlocks+0x128>
      hsd->Context = SD_CONTEXT_WRITE_MULTIPLE_BLOCK;
 8001ff0:	2320      	movs	r3, #32
      errorstate = SDMMC_CmdWriteMultiBlock(hsd->Instance, add);
 8001ff2:	4631      	mov	r1, r6
      hsd->Context = SD_CONTEXT_WRITE_MULTIPLE_BLOCK;
 8001ff4:	6323      	str	r3, [r4, #48]	; 0x30
      errorstate = SDMMC_CmdWriteMultiBlock(hsd->Instance, add);
 8001ff6:	6820      	ldr	r0, [r4, #0]
 8001ff8:	f001 f88a 	bl	8003110 <SDMMC_CmdWriteMultiBlock>
 8001ffc:	4602      	mov	r2, r0
 8001ffe:	6823      	ldr	r3, [r4, #0]
    if(errorstate != HAL_SD_ERROR_NONE)
 8002000:	bb32      	cbnz	r2, 8002050 <HAL_SD_WriteBlocks+0x110>
    dataremaining = config.DataLength;
 8002002:	f8dd a00c 	ldr.w	sl, [sp, #12]
    while(!__HAL_SD_GET_FLAG(hsd, SDIO_FLAG_TXUNDERR | SDIO_FLAG_DCRCFAIL | SDIO_FLAG_DTIMEOUT | SDIO_FLAG_DATAEND | SDIO_FLAG_STBITERR))
 8002006:	f240 391a 	movw	r9, #794	; 0x31a
 800200a:	e007      	b.n	800201c <HAL_SD_WriteBlocks+0xdc>
      if(((HAL_GetTick()-tickstart) >=  Timeout) || (Timeout == 0U))
 800200c:	f7fe fff2 	bl	8000ff4 <HAL_GetTick>
 8002010:	9b10      	ldr	r3, [sp, #64]	; 0x40
 8002012:	eba0 0008 	sub.w	r0, r0, r8
 8002016:	4298      	cmp	r0, r3
 8002018:	d254      	bcs.n	80020c4 <HAL_SD_WriteBlocks+0x184>
 800201a:	6823      	ldr	r3, [r4, #0]
    while(!__HAL_SD_GET_FLAG(hsd, SDIO_FLAG_TXUNDERR | SDIO_FLAG_DCRCFAIL | SDIO_FLAG_DTIMEOUT | SDIO_FLAG_DATAEND | SDIO_FLAG_STBITERR))
 800201c:	6b5a      	ldr	r2, [r3, #52]	; 0x34
 800201e:	ea12 0f09 	tst.w	r2, r9
      if(__HAL_SD_GET_FLAG(hsd, SDIO_FLAG_TXFIFOHE) && (dataremaining > 0U))
 8002022:	6b5a      	ldr	r2, [r3, #52]	; 0x34
    while(!__HAL_SD_GET_FLAG(hsd, SDIO_FLAG_TXUNDERR | SDIO_FLAG_DCRCFAIL | SDIO_FLAG_DTIMEOUT | SDIO_FLAG_DATAEND | SDIO_FLAG_STBITERR))
 8002024:	d128      	bne.n	8002078 <HAL_SD_WriteBlocks+0x138>
      if(__HAL_SD_GET_FLAG(hsd, SDIO_FLAG_TXFIFOHE) && (dataremaining > 0U))
 8002026:	0451      	lsls	r1, r2, #17
 8002028:	d5f0      	bpl.n	800200c <HAL_SD_WriteBlocks+0xcc>
 800202a:	f1ba 0f00 	cmp.w	sl, #0
 800202e:	d0ed      	beq.n	800200c <HAL_SD_WriteBlocks+0xcc>
 8002030:	f105 0620 	add.w	r6, r5, #32
 8002034:	e000      	b.n	8002038 <HAL_SD_WriteBlocks+0xf8>
 8002036:	6823      	ldr	r3, [r4, #0]
          data |= ((uint32_t)(*tempbuff) << 24U);
 8002038:	f855 2b04 	ldr.w	r2, [r5], #4
          (void)SDIO_WriteFIFO(hsd->Instance, &data);
 800203c:	4618      	mov	r0, r3
 800203e:	a901      	add	r1, sp, #4
          data |= ((uint32_t)(*tempbuff) << 24U);
 8002040:	9201      	str	r2, [sp, #4]
          (void)SDIO_WriteFIFO(hsd->Instance, &data);
 8002042:	f000 ff35 	bl	8002eb0 <SDIO_WriteFIFO>
        for(count = 0U; count < 8U; count++)
 8002046:	42b5      	cmp	r5, r6
 8002048:	d1f5      	bne.n	8002036 <HAL_SD_WriteBlocks+0xf6>
 800204a:	f1aa 0a20 	sub.w	sl, sl, #32
 800204e:	e7dd      	b.n	800200c <HAL_SD_WriteBlocks+0xcc>
      hsd->State = HAL_SD_STATE_READY;
 8002050:	2101      	movs	r1, #1
      hsd->Context = SD_CONTEXT_NONE;
 8002052:	2500      	movs	r5, #0
      __HAL_SD_CLEAR_FLAG(hsd, SDIO_STATIC_FLAGS);
 8002054:	4838      	ldr	r0, [pc, #224]	; (8002138 <HAL_SD_WriteBlocks+0x1f8>)
 8002056:	6398      	str	r0, [r3, #56]	; 0x38
      hsd->ErrorCode |= errorstate;
 8002058:	6ba3      	ldr	r3, [r4, #56]	; 0x38
      return HAL_ERROR;
 800205a:	4608      	mov	r0, r1
      hsd->ErrorCode |= errorstate;
 800205c:	431a      	orrs	r2, r3
 800205e:	63a2      	str	r2, [r4, #56]	; 0x38
      hsd->State = HAL_SD_STATE_READY;
 8002060:	f884 1034 	strb.w	r1, [r4, #52]	; 0x34
      hsd->Context = SD_CONTEXT_NONE;
 8002064:	6325      	str	r5, [r4, #48]	; 0x30
      return HAL_ERROR;
 8002066:	e780      	b.n	8001f6a <HAL_SD_WriteBlocks+0x2a>
      hsd->Context = SD_CONTEXT_WRITE_SINGLE_BLOCK;
 8002068:	2310      	movs	r3, #16
      errorstate = SDMMC_CmdWriteSingleBlock(hsd->Instance, add);
 800206a:	4631      	mov	r1, r6
      hsd->Context = SD_CONTEXT_WRITE_SINGLE_BLOCK;
 800206c:	6323      	str	r3, [r4, #48]	; 0x30
      errorstate = SDMMC_CmdWriteSingleBlock(hsd->Instance, add);
 800206e:	6820      	ldr	r0, [r4, #0]
 8002070:	f001 f80e 	bl	8003090 <SDMMC_CmdWriteSingleBlock>
 8002074:	4602      	mov	r2, r0
 8002076:	e7c2      	b.n	8001ffe <HAL_SD_WriteBlocks+0xbe>
    if(__HAL_SD_GET_FLAG(hsd, SDIO_FLAG_DATAEND) && (NumberOfBlocks > 1U))
 8002078:	05d2      	lsls	r2, r2, #23
 800207a:	d50b      	bpl.n	8002094 <HAL_SD_WriteBlocks+0x154>
 800207c:	2f01      	cmp	r7, #1
 800207e:	d909      	bls.n	8002094 <HAL_SD_WriteBlocks+0x154>
      if(hsd->SdCard.CardType != CARD_SECURED)
 8002080:	6c62      	ldr	r2, [r4, #68]	; 0x44
 8002082:	2a03      	cmp	r2, #3
 8002084:	d006      	beq.n	8002094 <HAL_SD_WriteBlocks+0x154>
        errorstate = SDMMC_CmdStopTransfer(hsd->Instance);
 8002086:	4618      	mov	r0, r3
 8002088:	f001 f884 	bl	8003194 <SDMMC_CmdStopTransfer>
        if(errorstate != HAL_SD_ERROR_NONE)
 800208c:	4603      	mov	r3, r0
 800208e:	2800      	cmp	r0, #0
 8002090:	d145      	bne.n	800211e <HAL_SD_WriteBlocks+0x1de>
 8002092:	6823      	ldr	r3, [r4, #0]
    if(__HAL_SD_GET_FLAG(hsd, SDIO_FLAG_DTIMEOUT))
 8002094:	6b5a      	ldr	r2, [r3, #52]	; 0x34
 8002096:	f012 0208 	ands.w	r2, r2, #8
 800209a:	d11f      	bne.n	80020dc <HAL_SD_WriteBlocks+0x19c>
    else if(__HAL_SD_GET_FLAG(hsd, SDIO_FLAG_DCRCFAIL))
 800209c:	6b59      	ldr	r1, [r3, #52]	; 0x34
 800209e:	f011 0102 	ands.w	r1, r1, #2
 80020a2:	d128      	bne.n	80020f6 <HAL_SD_WriteBlocks+0x1b6>
    else if(__HAL_SD_GET_FLAG(hsd, SDIO_FLAG_TXUNDERR))
 80020a4:	6b5a      	ldr	r2, [r3, #52]	; 0x34
 80020a6:	f012 0210 	ands.w	r2, r2, #16
 80020aa:	d030      	beq.n	800210e <HAL_SD_WriteBlocks+0x1ce>
      hsd->State = HAL_SD_STATE_READY;
 80020ac:	2201      	movs	r2, #1
      __HAL_SD_CLEAR_FLAG(hsd, SDIO_STATIC_FLAGS);
 80020ae:	4d22      	ldr	r5, [pc, #136]	; (8002138 <HAL_SD_WriteBlocks+0x1f8>)
      return HAL_ERROR;
 80020b0:	4610      	mov	r0, r2
      __HAL_SD_CLEAR_FLAG(hsd, SDIO_STATIC_FLAGS);
 80020b2:	639d      	str	r5, [r3, #56]	; 0x38
      hsd->ErrorCode |= HAL_SD_ERROR_TX_UNDERRUN;
 80020b4:	6ba3      	ldr	r3, [r4, #56]	; 0x38
 80020b6:	f043 0310 	orr.w	r3, r3, #16
 80020ba:	63a3      	str	r3, [r4, #56]	; 0x38
      hsd->State = HAL_SD_STATE_READY;
 80020bc:	f884 2034 	strb.w	r2, [r4, #52]	; 0x34
      hsd->Context = SD_CONTEXT_NONE;
 80020c0:	6321      	str	r1, [r4, #48]	; 0x30
      return HAL_ERROR;
 80020c2:	e752      	b.n	8001f6a <HAL_SD_WriteBlocks+0x2a>
        hsd->State = HAL_SD_STATE_READY;
 80020c4:	2201      	movs	r2, #1
        hsd->Context = SD_CONTEXT_NONE;
 80020c6:	2300      	movs	r3, #0
        __HAL_SD_CLEAR_FLAG(hsd, SDIO_STATIC_FLAGS);
 80020c8:	6821      	ldr	r1, [r4, #0]
 80020ca:	4d1b      	ldr	r5, [pc, #108]	; (8002138 <HAL_SD_WriteBlocks+0x1f8>)
        return HAL_TIMEOUT;
 80020cc:	2003      	movs	r0, #3
        __HAL_SD_CLEAR_FLAG(hsd, SDIO_STATIC_FLAGS);
 80020ce:	638d      	str	r5, [r1, #56]	; 0x38
        hsd->ErrorCode |= errorstate;
 80020d0:	6ba1      	ldr	r1, [r4, #56]	; 0x38
 80020d2:	63a1      	str	r1, [r4, #56]	; 0x38
        hsd->State = HAL_SD_STATE_READY;
 80020d4:	f884 2034 	strb.w	r2, [r4, #52]	; 0x34
        hsd->Context = SD_CONTEXT_NONE;
 80020d8:	6323      	str	r3, [r4, #48]	; 0x30
        return HAL_TIMEOUT;
 80020da:	e746      	b.n	8001f6a <HAL_SD_WriteBlocks+0x2a>
      hsd->State = HAL_SD_STATE_READY;
 80020dc:	2201      	movs	r2, #1
      hsd->Context = SD_CONTEXT_NONE;
 80020de:	2100      	movs	r1, #0
      __HAL_SD_CLEAR_FLAG(hsd, SDIO_STATIC_FLAGS);
 80020e0:	4d15      	ldr	r5, [pc, #84]	; (8002138 <HAL_SD_WriteBlocks+0x1f8>)
      return HAL_ERROR;
 80020e2:	4610      	mov	r0, r2
      __HAL_SD_CLEAR_FLAG(hsd, SDIO_STATIC_FLAGS);
 80020e4:	639d      	str	r5, [r3, #56]	; 0x38
      hsd->ErrorCode |= HAL_SD_ERROR_DATA_TIMEOUT;
 80020e6:	6ba3      	ldr	r3, [r4, #56]	; 0x38
 80020e8:	f043 0308 	orr.w	r3, r3, #8
 80020ec:	63a3      	str	r3, [r4, #56]	; 0x38
      hsd->State = HAL_SD_STATE_READY;
 80020ee:	f884 2034 	strb.w	r2, [r4, #52]	; 0x34
      hsd->Context = SD_CONTEXT_NONE;
 80020f2:	6321      	str	r1, [r4, #48]	; 0x30
      return HAL_ERROR;
 80020f4:	e739      	b.n	8001f6a <HAL_SD_WriteBlocks+0x2a>
      hsd->State = HAL_SD_STATE_READY;
 80020f6:	2101      	movs	r1, #1
      __HAL_SD_CLEAR_FLAG(hsd, SDIO_STATIC_FLAGS);
 80020f8:	4d0f      	ldr	r5, [pc, #60]	; (8002138 <HAL_SD_WriteBlocks+0x1f8>)
      return HAL_ERROR;
 80020fa:	4608      	mov	r0, r1
      __HAL_SD_CLEAR_FLAG(hsd, SDIO_STATIC_FLAGS);
 80020fc:	639d      	str	r5, [r3, #56]	; 0x38
      hsd->ErrorCode |= HAL_SD_ERROR_DATA_CRC_FAIL;
 80020fe:	6ba3      	ldr	r3, [r4, #56]	; 0x38
 8002100:	f043 0302 	orr.w	r3, r3, #2
 8002104:	63a3      	str	r3, [r4, #56]	; 0x38
      hsd->State = HAL_SD_STATE_READY;
 8002106:	f884 1034 	strb.w	r1, [r4, #52]	; 0x34
      hsd->Context = SD_CONTEXT_NONE;
 800210a:	6322      	str	r2, [r4, #48]	; 0x30
      return HAL_ERROR;
 800210c:	e72d      	b.n	8001f6a <HAL_SD_WriteBlocks+0x2a>
    __HAL_SD_CLEAR_FLAG(hsd, SDIO_STATIC_DATA_FLAGS);
 800210e:	f240 553a 	movw	r5, #1338	; 0x53a
    hsd->State = HAL_SD_STATE_READY;
 8002112:	2101      	movs	r1, #1
    __HAL_SD_CLEAR_FLAG(hsd, SDIO_STATIC_DATA_FLAGS);
 8002114:	639d      	str	r5, [r3, #56]	; 0x38
    return HAL_OK;
 8002116:	4610      	mov	r0, r2
    hsd->State = HAL_SD_STATE_READY;
 8002118:	f884 1034 	strb.w	r1, [r4, #52]	; 0x34
    return HAL_OK;
 800211c:	e725      	b.n	8001f6a <HAL_SD_WriteBlocks+0x2a>
          hsd->State = HAL_SD_STATE_READY;
 800211e:	2101      	movs	r1, #1
          hsd->Context = SD_CONTEXT_NONE;
 8002120:	2500      	movs	r5, #0
          __HAL_SD_CLEAR_FLAG(hsd, SDIO_STATIC_FLAGS);
 8002122:	6822      	ldr	r2, [r4, #0]
 8002124:	4804      	ldr	r0, [pc, #16]	; (8002138 <HAL_SD_WriteBlocks+0x1f8>)
 8002126:	6390      	str	r0, [r2, #56]	; 0x38
          hsd->ErrorCode |= errorstate;
 8002128:	6ba2      	ldr	r2, [r4, #56]	; 0x38
          return HAL_ERROR;
 800212a:	4608      	mov	r0, r1
          hsd->ErrorCode |= errorstate;
 800212c:	4313      	orrs	r3, r2
 800212e:	63a3      	str	r3, [r4, #56]	; 0x38
          hsd->State = HAL_SD_STATE_READY;
 8002130:	f884 1034 	strb.w	r1, [r4, #52]	; 0x34
          hsd->Context = SD_CONTEXT_NONE;
 8002134:	6325      	str	r5, [r4, #48]	; 0x30
          return HAL_ERROR;
 8002136:	e718      	b.n	8001f6a <HAL_SD_WriteBlocks+0x2a>
 8002138:	004005ff 	.word	0x004005ff

0800213c <HAL_SD_ErrorCallback>:
 800213c:	4770      	bx	lr
 800213e:	bf00      	nop

08002140 <SD_DMATxAbort>:
{
 8002140:	b538      	push	{r3, r4, r5, lr}
  __HAL_SD_CLEAR_FLAG(hsd, SDIO_STATIC_DATA_FLAGS);
 8002142:	f240 533a 	movw	r3, #1338	; 0x53a
  SD_HandleTypeDef* hsd = (SD_HandleTypeDef* )(hdma->Parent);
 8002146:	6b84      	ldr	r4, [r0, #56]	; 0x38
  errorstate = SDMMC_CmdSendStatus(hsd->Instance, (uint32_t)(hsd->SdCard.RelCardAdd << 16U));
 8002148:	6d21      	ldr	r1, [r4, #80]	; 0x50
  __HAL_SD_CLEAR_FLAG(hsd, SDIO_STATIC_DATA_FLAGS);
 800214a:	6820      	ldr	r0, [r4, #0]
  errorstate = SDMMC_CmdSendStatus(hsd->Instance, (uint32_t)(hsd->SdCard.RelCardAdd << 16U));
 800214c:	0409      	lsls	r1, r1, #16
  __HAL_SD_CLEAR_FLAG(hsd, SDIO_STATIC_DATA_FLAGS);
 800214e:	6383      	str	r3, [r0, #56]	; 0x38
  errorstate = SDMMC_CmdSendStatus(hsd->Instance, (uint32_t)(hsd->SdCard.RelCardAdd << 16U));
 8002150:	f001 facc 	bl	80036ec <SDMMC_CmdSendStatus>
  if(errorstate != HAL_SD_ERROR_NONE)
 8002154:	4605      	mov	r5, r0
 8002156:	b180      	cbz	r0, 800217a <SD_DMATxAbort+0x3a>
  hsd->State = HAL_SD_STATE_READY;
 8002158:	2101      	movs	r1, #1
  hsd->Context = SD_CONTEXT_NONE;
 800215a:	2200      	movs	r2, #0
    hsd->ErrorCode |= errorstate;
 800215c:	6ba3      	ldr	r3, [r4, #56]	; 0x38
 800215e:	431d      	orrs	r5, r3
 8002160:	63a5      	str	r5, [r4, #56]	; 0x38
  hsd->State = HAL_SD_STATE_READY;
 8002162:	f884 1034 	strb.w	r1, [r4, #52]	; 0x34
  hsd->Context = SD_CONTEXT_NONE;
 8002166:	6322      	str	r2, [r4, #48]	; 0x30
  if(hsd->ErrorCode == HAL_SD_ERROR_NONE)
 8002168:	6ba3      	ldr	r3, [r4, #56]	; 0x38
    HAL_SD_AbortCallback(hsd);
 800216a:	4620      	mov	r0, r4
  if(hsd->ErrorCode == HAL_SD_ERROR_NONE)
 800216c:	b113      	cbz	r3, 8002174 <SD_DMATxAbort+0x34>
    HAL_SD_ErrorCallback(hsd);
 800216e:	f7ff ffe5 	bl	800213c <HAL_SD_ErrorCallback>
}
 8002172:	bd38      	pop	{r3, r4, r5, pc}
    HAL_SD_AbortCallback(hsd);
 8002174:	f001 fb42 	bl	80037fc <HAL_SD_AbortCallback>
}
 8002178:	bd38      	pop	{r3, r4, r5, pc}
  *pCardStatus = SDIO_GetResponse(hsd->Instance, SDIO_RESP1);
 800217a:	4601      	mov	r1, r0
 800217c:	6820      	ldr	r0, [r4, #0]
 800217e:	f000 feab 	bl	8002ed8 <SDIO_GetResponse>
  hsd->State = HAL_SD_STATE_READY;
 8002182:	2301      	movs	r3, #1
  cardstate = ((resp1 >> 9U) & 0x0FU);
 8002184:	f3c0 2043 	ubfx	r0, r0, #9, #4
  if((CardState == HAL_SD_CARD_RECEIVING) || (CardState == HAL_SD_CARD_SENDING))
 8002188:	3805      	subs	r0, #5
 800218a:	4298      	cmp	r0, r3
  hsd->State = HAL_SD_STATE_READY;
 800218c:	f884 3034 	strb.w	r3, [r4, #52]	; 0x34
  hsd->Context = SD_CONTEXT_NONE;
 8002190:	6325      	str	r5, [r4, #48]	; 0x30
  if((CardState == HAL_SD_CARD_RECEIVING) || (CardState == HAL_SD_CARD_SENDING))
 8002192:	d8e9      	bhi.n	8002168 <SD_DMATxAbort+0x28>
    hsd->ErrorCode |= SDMMC_CmdStopTransfer(hsd->Instance);
 8002194:	6820      	ldr	r0, [r4, #0]
 8002196:	f000 fffd 	bl	8003194 <SDMMC_CmdStopTransfer>
 800219a:	6ba3      	ldr	r3, [r4, #56]	; 0x38
 800219c:	4318      	orrs	r0, r3
 800219e:	63a0      	str	r0, [r4, #56]	; 0x38
 80021a0:	e7e2      	b.n	8002168 <SD_DMATxAbort+0x28>
 80021a2:	bf00      	nop

080021a4 <HAL_SD_IRQHandler>:
{
 80021a4:	e92d 41f0 	stmdb	sp!, {r4, r5, r6, r7, r8, lr}
  if((__HAL_SD_GET_FLAG(hsd, SDIO_FLAG_RXFIFOHF) != RESET) && ((context & SD_CONTEXT_IT) != 0U))
 80021a8:	6803      	ldr	r3, [r0, #0]
  uint32_t context = hsd->Context;
 80021aa:	6b05      	ldr	r5, [r0, #48]	; 0x30
  if((__HAL_SD_GET_FLAG(hsd, SDIO_FLAG_RXFIFOHF) != RESET) && ((context & SD_CONTEXT_IT) != 0U))
 80021ac:	6b5a      	ldr	r2, [r3, #52]	; 0x34
{
 80021ae:	b082      	sub	sp, #8
  if((__HAL_SD_GET_FLAG(hsd, SDIO_FLAG_RXFIFOHF) != RESET) && ((context & SD_CONTEXT_IT) != 0U))
 80021b0:	0411      	lsls	r1, r2, #16
{
 80021b2:	4604      	mov	r4, r0
  if((__HAL_SD_GET_FLAG(hsd, SDIO_FLAG_RXFIFOHF) != RESET) && ((context & SD_CONTEXT_IT) != 0U))
 80021b4:	d51d      	bpl.n	80021f2 <HAL_SD_IRQHandler+0x4e>
 80021b6:	072a      	lsls	r2, r5, #28
 80021b8:	f100 80b8 	bmi.w	800232c <HAL_SD_IRQHandler+0x188>
  else if(__HAL_SD_GET_FLAG(hsd, SDIO_FLAG_DATAEND) != RESET)
 80021bc:	6b5a      	ldr	r2, [r3, #52]	; 0x34
 80021be:	05d2      	lsls	r2, r2, #23
 80021c0:	d56c      	bpl.n	800229c <HAL_SD_IRQHandler+0xf8>
    __HAL_SD_CLEAR_FLAG(hsd, SDIO_FLAG_DATAEND);
 80021c2:	f44f 7280 	mov.w	r2, #256	; 0x100
 80021c6:	639a      	str	r2, [r3, #56]	; 0x38
    __HAL_SD_DISABLE_IT(hsd, SDIO_IT_DATAEND  | SDIO_IT_DCRCFAIL | SDIO_IT_DTIMEOUT|\
 80021c8:	6bda      	ldr	r2, [r3, #60]	; 0x3c
 80021ca:	f422 4241 	bic.w	r2, r2, #49408	; 0xc100
 80021ce:	f022 023a 	bic.w	r2, r2, #58	; 0x3a
 80021d2:	63da      	str	r2, [r3, #60]	; 0x3c
    hsd->Instance->DCTRL &= ~(SDIO_DCTRL_DTEN);
 80021d4:	6ada      	ldr	r2, [r3, #44]	; 0x2c
 80021d6:	f022 0201 	bic.w	r2, r2, #1
 80021da:	62da      	str	r2, [r3, #44]	; 0x2c
    else if((context & SD_CONTEXT_DMA) != 0U)
 80021dc:	0629      	lsls	r1, r5, #24
 80021de:	d505      	bpl.n	80021ec <HAL_SD_IRQHandler+0x48>
      if((context & SD_CONTEXT_WRITE_MULTIPLE_BLOCK) != 0U)
 80021e0:	06aa      	lsls	r2, r5, #26
 80021e2:	f100 80f4 	bmi.w	80023ce <HAL_SD_IRQHandler+0x22a>
      if(((context & SD_CONTEXT_READ_SINGLE_BLOCK) == 0U) && ((context & SD_CONTEXT_READ_MULTIPLE_BLOCK) == 0U))
 80021e6:	07af      	lsls	r7, r5, #30
 80021e8:	f000 80c3 	beq.w	8002372 <HAL_SD_IRQHandler+0x1ce>
}
 80021ec:	b002      	add	sp, #8
 80021ee:	e8bd 81f0 	ldmia.w	sp!, {r4, r5, r6, r7, r8, pc}
  else if(__HAL_SD_GET_FLAG(hsd, SDIO_FLAG_DATAEND) != RESET)
 80021f2:	6b5a      	ldr	r2, [r3, #52]	; 0x34
 80021f4:	05d7      	lsls	r7, r2, #23
 80021f6:	d523      	bpl.n	8002240 <HAL_SD_IRQHandler+0x9c>
    __HAL_SD_CLEAR_FLAG(hsd, SDIO_FLAG_DATAEND);
 80021f8:	f44f 7280 	mov.w	r2, #256	; 0x100
 80021fc:	639a      	str	r2, [r3, #56]	; 0x38
    __HAL_SD_DISABLE_IT(hsd, SDIO_IT_DATAEND  | SDIO_IT_DCRCFAIL | SDIO_IT_DTIMEOUT|\
 80021fe:	6bda      	ldr	r2, [r3, #60]	; 0x3c
    if((context & SD_CONTEXT_IT) != 0U)
 8002200:	072e      	lsls	r6, r5, #28
    __HAL_SD_DISABLE_IT(hsd, SDIO_IT_DATAEND  | SDIO_IT_DCRCFAIL | SDIO_IT_DTIMEOUT|\
 8002202:	f422 4241 	bic.w	r2, r2, #49408	; 0xc100
 8002206:	f022 023a 	bic.w	r2, r2, #58	; 0x3a
 800220a:	63da      	str	r2, [r3, #60]	; 0x3c
    hsd->Instance->DCTRL &= ~(SDIO_DCTRL_DTEN);
 800220c:	6ada      	ldr	r2, [r3, #44]	; 0x2c
 800220e:	f022 0201 	bic.w	r2, r2, #1
 8002212:	62da      	str	r2, [r3, #44]	; 0x2c
    if((context & SD_CONTEXT_IT) != 0U)
 8002214:	d5e2      	bpl.n	80021dc <HAL_SD_IRQHandler+0x38>
      if(((context & SD_CONTEXT_READ_MULTIPLE_BLOCK) != 0U) || ((context & SD_CONTEXT_WRITE_MULTIPLE_BLOCK) != 0U))
 8002216:	f015 0f22 	tst.w	r5, #34	; 0x22
 800221a:	f040 80b8 	bne.w	800238e <HAL_SD_IRQHandler+0x1ea>
      __HAL_SD_CLEAR_FLAG(hsd, SDIO_STATIC_DATA_FLAGS);
 800221e:	f240 503a 	movw	r0, #1338	; 0x53a
      hsd->State = HAL_SD_STATE_READY;
 8002222:	2101      	movs	r1, #1
      hsd->Context = SD_CONTEXT_NONE;
 8002224:	2200      	movs	r2, #0
      __HAL_SD_CLEAR_FLAG(hsd, SDIO_STATIC_DATA_FLAGS);
 8002226:	6398      	str	r0, [r3, #56]	; 0x38
      hsd->State = HAL_SD_STATE_READY;
 8002228:	f884 1034 	strb.w	r1, [r4, #52]	; 0x34
        HAL_SD_RxCpltCallback(hsd);
 800222c:	4620      	mov	r0, r4
      hsd->Context = SD_CONTEXT_NONE;
 800222e:	6322      	str	r2, [r4, #48]	; 0x30
      if(((context & SD_CONTEXT_READ_SINGLE_BLOCK) != 0U) || ((context & SD_CONTEXT_READ_MULTIPLE_BLOCK) != 0U))
 8002230:	07ac      	lsls	r4, r5, #30
 8002232:	f000 80a7 	beq.w	8002384 <HAL_SD_IRQHandler+0x1e0>
        HAL_SD_RxCpltCallback(hsd);
 8002236:	f001 faed 	bl	8003814 <HAL_SD_RxCpltCallback>
}
 800223a:	b002      	add	sp, #8
 800223c:	e8bd 81f0 	ldmia.w	sp!, {r4, r5, r6, r7, r8, pc}
  else if((__HAL_SD_GET_FLAG(hsd, SDIO_FLAG_TXFIFOHE) != RESET) && ((context & SD_CONTEXT_IT) != 0U))
 8002240:	6b5a      	ldr	r2, [r3, #52]	; 0x34
 8002242:	0456      	lsls	r6, r2, #17
 8002244:	d52b      	bpl.n	800229e <HAL_SD_IRQHandler+0xfa>
 8002246:	0728      	lsls	r0, r5, #28
 8002248:	d529      	bpl.n	800229e <HAL_SD_IRQHandler+0xfa>
{
  uint32_t count, data, dataremaining;
  uint8_t* tmp;

  tmp = hsd->pTxBuffPtr;
  dataremaining = hsd->TxXferSize;
 800224a:	6a66      	ldr	r6, [r4, #36]	; 0x24

  if (dataremaining > 0U)
 800224c:	2e00      	cmp	r6, #0
 800224e:	d0cd      	beq.n	80021ec <HAL_SD_IRQHandler+0x48>
  tmp = hsd->pTxBuffPtr;
 8002250:	6a27      	ldr	r7, [r4, #32]
 8002252:	f107 0804 	add.w	r8, r7, #4
 8002256:	f107 0524 	add.w	r5, r7, #36	; 0x24
 800225a:	e000      	b.n	800225e <HAL_SD_IRQHandler+0xba>
 800225c:	6823      	ldr	r3, [r4, #0]
  {
    /* Write data to SDIO Tx FIFO */
    for(count = 0U; count < 8U; count++)
    {
      data = (uint32_t)(*tmp);
 800225e:	f818 2c04 	ldrb.w	r2, [r8, #-4]
      tmp++;
      dataremaining--;
      data |= ((uint32_t)(*tmp) << 24U);
      tmp++;
      dataremaining--;
      (void)SDIO_WriteFIFO(hsd->Instance, &data);
 8002262:	4618      	mov	r0, r3
      data = (uint32_t)(*tmp);
 8002264:	9201      	str	r2, [sp, #4]
      data |= ((uint32_t)(*tmp) << 8U);
 8002266:	f818 3c03 	ldrb.w	r3, [r8, #-3]
      (void)SDIO_WriteFIFO(hsd->Instance, &data);
 800226a:	a901      	add	r1, sp, #4
      data |= ((uint32_t)(*tmp) << 8U);
 800226c:	ea42 2303 	orr.w	r3, r2, r3, lsl #8
 8002270:	9301      	str	r3, [sp, #4]
      data |= ((uint32_t)(*tmp) << 16U);
 8002272:	f818 2c02 	ldrb.w	r2, [r8, #-2]
 8002276:	f108 0804 	add.w	r8, r8, #4
 800227a:	ea43 4302 	orr.w	r3, r3, r2, lsl #16
 800227e:	9301      	str	r3, [sp, #4]
      data |= ((uint32_t)(*tmp) << 24U);
 8002280:	f818 2c05 	ldrb.w	r2, [r8, #-5]
 8002284:	ea43 6302 	orr.w	r3, r3, r2, lsl #24
 8002288:	9301      	str	r3, [sp, #4]
      (void)SDIO_WriteFIFO(hsd->Instance, &data);
 800228a:	f000 fe11 	bl	8002eb0 <SDIO_WriteFIFO>
    for(count = 0U; count < 8U; count++)
 800228e:	45a8      	cmp	r8, r5
 8002290:	d1e4      	bne.n	800225c <HAL_SD_IRQHandler+0xb8>
    }

    hsd->pTxBuffPtr = tmp;
 8002292:	3720      	adds	r7, #32
    hsd->TxXferSize = dataremaining;
 8002294:	3e20      	subs	r6, #32
 8002296:	e9c4 7608 	strd	r7, r6, [r4, #32]
 800229a:	e7a7      	b.n	80021ec <HAL_SD_IRQHandler+0x48>
  else if((__HAL_SD_GET_FLAG(hsd, SDIO_FLAG_TXFIFOHE) != RESET) && ((context & SD_CONTEXT_IT) != 0U))
 800229c:	6b5a      	ldr	r2, [r3, #52]	; 0x34
  else if(__HAL_SD_GET_FLAG(hsd, SDIO_FLAG_DCRCFAIL | SDIO_FLAG_DTIMEOUT | SDIO_FLAG_RXOVERR | SDIO_FLAG_TXUNDERR) != RESET)
 800229e:	6b5a      	ldr	r2, [r3, #52]	; 0x34
 80022a0:	f012 0f3a 	tst.w	r2, #58	; 0x3a
 80022a4:	d0a2      	beq.n	80021ec <HAL_SD_IRQHandler+0x48>
    if(__HAL_SD_GET_FLAG(hsd, SDIO_FLAG_DCRCFAIL) != RESET)
 80022a6:	6b5a      	ldr	r2, [r3, #52]	; 0x34
 80022a8:	0791      	lsls	r1, r2, #30
 80022aa:	d503      	bpl.n	80022b4 <HAL_SD_IRQHandler+0x110>
      hsd->ErrorCode |= HAL_SD_ERROR_DATA_CRC_FAIL;
 80022ac:	6ba2      	ldr	r2, [r4, #56]	; 0x38
 80022ae:	f042 0202 	orr.w	r2, r2, #2
 80022b2:	63a2      	str	r2, [r4, #56]	; 0x38
    if(__HAL_SD_GET_FLAG(hsd, SDIO_FLAG_DTIMEOUT) != RESET)
 80022b4:	6b5a      	ldr	r2, [r3, #52]	; 0x34
 80022b6:	0712      	lsls	r2, r2, #28
 80022b8:	d503      	bpl.n	80022c2 <HAL_SD_IRQHandler+0x11e>
      hsd->ErrorCode |= HAL_SD_ERROR_DATA_TIMEOUT;
 80022ba:	6ba2      	ldr	r2, [r4, #56]	; 0x38
 80022bc:	f042 0208 	orr.w	r2, r2, #8
 80022c0:	63a2      	str	r2, [r4, #56]	; 0x38
    if(__HAL_SD_GET_FLAG(hsd, SDIO_FLAG_RXOVERR) != RESET)
 80022c2:	6b5a      	ldr	r2, [r3, #52]	; 0x34
 80022c4:	0697      	lsls	r7, r2, #26
 80022c6:	d503      	bpl.n	80022d0 <HAL_SD_IRQHandler+0x12c>
      hsd->ErrorCode |= HAL_SD_ERROR_RX_OVERRUN;
 80022c8:	6ba2      	ldr	r2, [r4, #56]	; 0x38
 80022ca:	f042 0220 	orr.w	r2, r2, #32
 80022ce:	63a2      	str	r2, [r4, #56]	; 0x38
    if(__HAL_SD_GET_FLAG(hsd, SDIO_FLAG_TXUNDERR) != RESET)
 80022d0:	6b5a      	ldr	r2, [r3, #52]	; 0x34
 80022d2:	06d6      	lsls	r6, r2, #27
 80022d4:	d503      	bpl.n	80022de <HAL_SD_IRQHandler+0x13a>
      hsd->ErrorCode |= HAL_SD_ERROR_TX_UNDERRUN;
 80022d6:	6ba2      	ldr	r2, [r4, #56]	; 0x38
 80022d8:	f042 0210 	orr.w	r2, r2, #16
 80022dc:	63a2      	str	r2, [r4, #56]	; 0x38
    __HAL_SD_CLEAR_FLAG(hsd, SDIO_STATIC_DATA_FLAGS | SDIO_FLAG_STBITERR);
 80022de:	f240 723a 	movw	r2, #1850	; 0x73a
 80022e2:	639a      	str	r2, [r3, #56]	; 0x38
    __HAL_SD_DISABLE_IT(hsd, SDIO_IT_DATAEND | SDIO_IT_DCRCFAIL | SDIO_IT_DTIMEOUT|\
 80022e4:	6bda      	ldr	r2, [r3, #60]	; 0x3c
    hsd->ErrorCode |= SDMMC_CmdStopTransfer(hsd->Instance);
 80022e6:	4618      	mov	r0, r3
    __HAL_SD_DISABLE_IT(hsd, SDIO_IT_DATAEND | SDIO_IT_DCRCFAIL | SDIO_IT_DTIMEOUT|\
 80022e8:	f422 724e 	bic.w	r2, r2, #824	; 0x338
 80022ec:	f022 0202 	bic.w	r2, r2, #2
 80022f0:	63da      	str	r2, [r3, #60]	; 0x3c
    hsd->ErrorCode |= SDMMC_CmdStopTransfer(hsd->Instance);
 80022f2:	f000 ff4f 	bl	8003194 <SDMMC_CmdStopTransfer>
 80022f6:	6ba3      	ldr	r3, [r4, #56]	; 0x38
 80022f8:	4318      	orrs	r0, r3
 80022fa:	63a0      	str	r0, [r4, #56]	; 0x38
    if((context & SD_CONTEXT_IT) != 0U)
 80022fc:	0728      	lsls	r0, r5, #28
 80022fe:	d44d      	bmi.n	800239c <HAL_SD_IRQHandler+0x1f8>
    else if((context & SD_CONTEXT_DMA) != 0U)
 8002300:	0629      	lsls	r1, r5, #24
 8002302:	f57f af73 	bpl.w	80021ec <HAL_SD_IRQHandler+0x48>
      if(((context & SD_CONTEXT_WRITE_SINGLE_BLOCK) != 0U) || ((context & SD_CONTEXT_WRITE_MULTIPLE_BLOCK) != 0U))
 8002306:	f015 0f30 	tst.w	r5, #48	; 0x30
 800230a:	d16e      	bne.n	80023ea <HAL_SD_IRQHandler+0x246>
      else if(((context & SD_CONTEXT_READ_SINGLE_BLOCK) != 0U) || ((context & SD_CONTEXT_READ_MULTIPLE_BLOCK) != 0U))
 800230c:	f015 0503 	ands.w	r5, r5, #3
 8002310:	d04d      	beq.n	80023ae <HAL_SD_IRQHandler+0x20a>
        hsd->hdmarx->XferAbortCallback = SD_DMARxAbort;
 8002312:	6c23      	ldr	r3, [r4, #64]	; 0x40
 8002314:	4a3b      	ldr	r2, [pc, #236]	; (8002404 <HAL_SD_IRQHandler+0x260>)
        if(HAL_DMA_Abort_IT(hsd->hdmarx) != HAL_OK)
 8002316:	4618      	mov	r0, r3
        hsd->hdmarx->XferAbortCallback = SD_DMARxAbort;
 8002318:	651a      	str	r2, [r3, #80]	; 0x50
        if(HAL_DMA_Abort_IT(hsd->hdmarx) != HAL_OK)
 800231a:	f7fe ff79 	bl	8001210 <HAL_DMA_Abort_IT>
 800231e:	2800      	cmp	r0, #0
 8002320:	f43f af64 	beq.w	80021ec <HAL_SD_IRQHandler+0x48>
          SD_DMARxAbort(hsd->hdmarx);
 8002324:	6c20      	ldr	r0, [r4, #64]	; 0x40
 8002326:	f7ff ff0b 	bl	8002140 <SD_DMATxAbort>
 800232a:	e75f      	b.n	80021ec <HAL_SD_IRQHandler+0x48>
  dataremaining = hsd->RxXferSize;
 800232c:	6ac7      	ldr	r7, [r0, #44]	; 0x2c
  if (dataremaining > 0U)
 800232e:	2f00      	cmp	r7, #0
 8002330:	f43f af5c 	beq.w	80021ec <HAL_SD_IRQHandler+0x48>
  tmp = hsd->pRxBuffPtr;
 8002334:	f8d0 8028 	ldr.w	r8, [r0, #40]	; 0x28
 8002338:	f108 0504 	add.w	r5, r8, #4
 800233c:	f108 0624 	add.w	r6, r8, #36	; 0x24
 8002340:	e000      	b.n	8002344 <HAL_SD_IRQHandler+0x1a0>
 8002342:	6823      	ldr	r3, [r4, #0]
      data = SDIO_ReadFIFO(hsd->Instance);
 8002344:	4618      	mov	r0, r3
 8002346:	f000 fdaf 	bl	8002ea8 <SDIO_ReadFIFO>
      *tmp = (uint8_t)(data & 0xFFU);
 800234a:	f805 0c04 	strb.w	r0, [r5, #-4]
      *tmp = (uint8_t)((data >> 8U) & 0xFFU);
 800234e:	0a02      	lsrs	r2, r0, #8
      *tmp = (uint8_t)((data >> 16U) & 0xFFU);
 8002350:	0c03      	lsrs	r3, r0, #16
      *tmp = (uint8_t)((data >> 24U) & 0xFFU);
 8002352:	0e00      	lsrs	r0, r0, #24
      *tmp = (uint8_t)((data >> 8U) & 0xFFU);
 8002354:	f805 2c03 	strb.w	r2, [r5, #-3]
      *tmp = (uint8_t)((data >> 16U) & 0xFFU);
 8002358:	f805 3c02 	strb.w	r3, [r5, #-2]
      *tmp = (uint8_t)((data >> 24U) & 0xFFU);
 800235c:	f805 0c01 	strb.w	r0, [r5, #-1]
 8002360:	3504      	adds	r5, #4
    for(count = 0U; count < 8U; count++)
 8002362:	42ae      	cmp	r6, r5
 8002364:	d1ed      	bne.n	8002342 <HAL_SD_IRQHandler+0x19e>
    hsd->pRxBuffPtr = tmp;
 8002366:	f108 0320 	add.w	r3, r8, #32
    hsd->RxXferSize = dataremaining;
 800236a:	3f20      	subs	r7, #32
 800236c:	e9c4 370a 	strd	r3, r7, [r4, #40]	; 0x28
 8002370:	e73c      	b.n	80021ec <HAL_SD_IRQHandler+0x48>
        hsd->State = HAL_SD_STATE_READY;
 8002372:	2101      	movs	r1, #1
        HAL_SD_TxCpltCallback(hsd);
 8002374:	4620      	mov	r0, r4
        hsd->Instance->DCTRL &= (uint32_t)~((uint32_t)SDIO_DCTRL_DMAEN);
 8002376:	6822      	ldr	r2, [r4, #0]
 8002378:	6ad3      	ldr	r3, [r2, #44]	; 0x2c
 800237a:	f023 0308 	bic.w	r3, r3, #8
 800237e:	62d3      	str	r3, [r2, #44]	; 0x2c
        hsd->State = HAL_SD_STATE_READY;
 8002380:	f884 1034 	strb.w	r1, [r4, #52]	; 0x34
        HAL_SD_TxCpltCallback(hsd);
 8002384:	f001 fa40 	bl	8003808 <HAL_SD_TxCpltCallback>
}
 8002388:	b002      	add	sp, #8
 800238a:	e8bd 81f0 	ldmia.w	sp!, {r4, r5, r6, r7, r8, pc}
        errorstate = SDMMC_CmdStopTransfer(hsd->Instance);
 800238e:	4618      	mov	r0, r3
 8002390:	f000 ff00 	bl	8003194 <SDMMC_CmdStopTransfer>
        if(errorstate != HAL_SD_ERROR_NONE)
 8002394:	4603      	mov	r3, r0
 8002396:	b998      	cbnz	r0, 80023c0 <HAL_SD_IRQHandler+0x21c>
 8002398:	6823      	ldr	r3, [r4, #0]
 800239a:	e740      	b.n	800221e <HAL_SD_IRQHandler+0x7a>
      hsd->State = HAL_SD_STATE_READY;
 800239c:	2201      	movs	r2, #1
      hsd->Context = SD_CONTEXT_NONE;
 800239e:	2300      	movs	r3, #0
      hsd->State = HAL_SD_STATE_READY;
 80023a0:	f884 2034 	strb.w	r2, [r4, #52]	; 0x34
      HAL_SD_ErrorCallback(hsd);
 80023a4:	4620      	mov	r0, r4
      hsd->Context = SD_CONTEXT_NONE;
 80023a6:	6323      	str	r3, [r4, #48]	; 0x30
      HAL_SD_ErrorCallback(hsd);
 80023a8:	f7ff fec8 	bl	800213c <HAL_SD_ErrorCallback>
 80023ac:	e71e      	b.n	80021ec <HAL_SD_IRQHandler+0x48>
        hsd->State = HAL_SD_STATE_READY;
 80023ae:	2301      	movs	r3, #1
        hsd->ErrorCode = HAL_SD_ERROR_NONE;
 80023b0:	63a5      	str	r5, [r4, #56]	; 0x38
        HAL_SD_AbortCallback(hsd);
 80023b2:	4620      	mov	r0, r4
        hsd->State = HAL_SD_STATE_READY;
 80023b4:	f884 3034 	strb.w	r3, [r4, #52]	; 0x34
        hsd->Context = SD_CONTEXT_NONE;
 80023b8:	6325      	str	r5, [r4, #48]	; 0x30
        HAL_SD_AbortCallback(hsd);
 80023ba:	f001 fa1f 	bl	80037fc <HAL_SD_AbortCallback>
}
 80023be:	e715      	b.n	80021ec <HAL_SD_IRQHandler+0x48>
          hsd->ErrorCode |= errorstate;
 80023c0:	6ba2      	ldr	r2, [r4, #56]	; 0x38
          HAL_SD_ErrorCallback(hsd);
 80023c2:	4620      	mov	r0, r4
          hsd->ErrorCode |= errorstate;
 80023c4:	4313      	orrs	r3, r2
 80023c6:	63a3      	str	r3, [r4, #56]	; 0x38
          HAL_SD_ErrorCallback(hsd);
 80023c8:	f7ff feb8 	bl	800213c <HAL_SD_ErrorCallback>
 80023cc:	e7e4      	b.n	8002398 <HAL_SD_IRQHandler+0x1f4>
        errorstate = SDMMC_CmdStopTransfer(hsd->Instance);
 80023ce:	4618      	mov	r0, r3
 80023d0:	f000 fee0 	bl	8003194 <SDMMC_CmdStopTransfer>
        if(errorstate != HAL_SD_ERROR_NONE)
 80023d4:	4603      	mov	r3, r0
 80023d6:	2800      	cmp	r0, #0
 80023d8:	f43f af05 	beq.w	80021e6 <HAL_SD_IRQHandler+0x42>
          hsd->ErrorCode |= errorstate;
 80023dc:	6ba2      	ldr	r2, [r4, #56]	; 0x38
          HAL_SD_ErrorCallback(hsd);
 80023de:	4620      	mov	r0, r4
          hsd->ErrorCode |= errorstate;
 80023e0:	4313      	orrs	r3, r2
 80023e2:	63a3      	str	r3, [r4, #56]	; 0x38
          HAL_SD_ErrorCallback(hsd);
 80023e4:	f7ff feaa 	bl	800213c <HAL_SD_ErrorCallback>
 80023e8:	e6fd      	b.n	80021e6 <HAL_SD_IRQHandler+0x42>
        hsd->hdmatx->XferAbortCallback = SD_DMATxAbort;
 80023ea:	6be3      	ldr	r3, [r4, #60]	; 0x3c
 80023ec:	4a06      	ldr	r2, [pc, #24]	; (8002408 <HAL_SD_IRQHandler+0x264>)
        if(HAL_DMA_Abort_IT(hsd->hdmatx) != HAL_OK)
 80023ee:	4618      	mov	r0, r3
        hsd->hdmatx->XferAbortCallback = SD_DMATxAbort;
 80023f0:	651a      	str	r2, [r3, #80]	; 0x50
        if(HAL_DMA_Abort_IT(hsd->hdmatx) != HAL_OK)
 80023f2:	f7fe ff0d 	bl	8001210 <HAL_DMA_Abort_IT>
 80023f6:	2800      	cmp	r0, #0
 80023f8:	f43f aef8 	beq.w	80021ec <HAL_SD_IRQHandler+0x48>
          SD_DMATxAbort(hsd->hdmatx);
 80023fc:	6be0      	ldr	r0, [r4, #60]	; 0x3c
 80023fe:	f7ff fe9f 	bl	8002140 <SD_DMATxAbort>
 8002402:	e6f3      	b.n	80021ec <HAL_SD_IRQHandler+0x48>
 8002404:	0800240d 	.word	0x0800240d
 8002408:	08002141 	.word	0x08002141

0800240c <SD_DMARxAbort>:
 800240c:	b538      	push	{r3, r4, r5, lr}
 800240e:	f240 533a 	movw	r3, #1338	; 0x53a
 8002412:	6b84      	ldr	r4, [r0, #56]	; 0x38
 8002414:	6d21      	ldr	r1, [r4, #80]	; 0x50
 8002416:	6820      	ldr	r0, [r4, #0]
 8002418:	0409      	lsls	r1, r1, #16
 800241a:	6383      	str	r3, [r0, #56]	; 0x38
 800241c:	f001 f966 	bl	80036ec <SDMMC_CmdSendStatus>
 8002420:	4605      	mov	r5, r0
 8002422:	b180      	cbz	r0, 8002446 <SD_DMARxAbort+0x3a>
 8002424:	2101      	movs	r1, #1
 8002426:	2200      	movs	r2, #0
 8002428:	6ba3      	ldr	r3, [r4, #56]	; 0x38
 800242a:	431d      	orrs	r5, r3
 800242c:	63a5      	str	r5, [r4, #56]	; 0x38
 800242e:	f884 1034 	strb.w	r1, [r4, #52]	; 0x34
 8002432:	6322      	str	r2, [r4, #48]	; 0x30
 8002434:	6ba3      	ldr	r3, [r4, #56]	; 0x38
 8002436:	4620      	mov	r0, r4
 8002438:	b113      	cbz	r3, 8002440 <SD_DMARxAbort+0x34>
 800243a:	f7ff fe7f 	bl	800213c <HAL_SD_ErrorCallback>
 800243e:	bd38      	pop	{r3, r4, r5, pc}
 8002440:	f001 f9dc 	bl	80037fc <HAL_SD_AbortCallback>
 8002444:	bd38      	pop	{r3, r4, r5, pc}
 8002446:	4601      	mov	r1, r0
 8002448:	6820      	ldr	r0, [r4, #0]
 800244a:	f000 fd45 	bl	8002ed8 <SDIO_GetResponse>
 800244e:	2301      	movs	r3, #1
 8002450:	f3c0 2043 	ubfx	r0, r0, #9, #4
 8002454:	3805      	subs	r0, #5
 8002456:	4298      	cmp	r0, r3
 8002458:	f884 3034 	strb.w	r3, [r4, #52]	; 0x34
 800245c:	6325      	str	r5, [r4, #48]	; 0x30
 800245e:	d8e9      	bhi.n	8002434 <SD_DMARxAbort+0x28>
 8002460:	6820      	ldr	r0, [r4, #0]
 8002462:	f000 fe97 	bl	8003194 <SDMMC_CmdStopTransfer>
 8002466:	6ba3      	ldr	r3, [r4, #56]	; 0x38
 8002468:	4318      	orrs	r0, r3
 800246a:	63a0      	str	r0, [r4, #56]	; 0x38
 800246c:	e7e2      	b.n	8002434 <SD_DMARxAbort+0x28>
 800246e:	bf00      	nop

08002470 <HAL_SD_GetCardCSD>:
{
 8002470:	4603      	mov	r3, r0
  pCSD->Reserved2 = 0U; /*!< Reserved */
 8002472:	2000      	movs	r0, #0
  pCSD->CSDStruct = (uint8_t)((hsd->CSD[0] & 0xC0000000U) >> 30U);
 8002474:	6e5a      	ldr	r2, [r3, #100]	; 0x64
{
 8002476:	b4f0      	push	{r4, r5, r6, r7}
  pCSD->CSDStruct = (uint8_t)((hsd->CSD[0] & 0xC0000000U) >> 30U);
 8002478:	0f94      	lsrs	r4, r2, #30
 800247a:	700c      	strb	r4, [r1, #0]
  pCSD->SysSpecVersion = (uint8_t)((hsd->CSD[0] & 0x3C000000U) >> 26U);
 800247c:	f3c2 6583 	ubfx	r5, r2, #26, #4
  pCSD->Reserved1 = (uint8_t)((hsd->CSD[0] & 0x03000000U) >> 24U);
 8002480:	f3c2 6401 	ubfx	r4, r2, #24, #2
  pCSD->SysSpecVersion = (uint8_t)((hsd->CSD[0] & 0x3C000000U) >> 26U);
 8002484:	704d      	strb	r5, [r1, #1]
  pCSD->Reserved1 = (uint8_t)((hsd->CSD[0] & 0x03000000U) >> 24U);
 8002486:	708c      	strb	r4, [r1, #2]
  pCSD->TAAC = (uint8_t)((hsd->CSD[0] & 0x00FF0000U) >> 16U);
 8002488:	f3c2 4507 	ubfx	r5, r2, #16, #8
  pCSD->NSAC = (uint8_t)((hsd->CSD[0] & 0x0000FF00U) >> 8U);
 800248c:	f3c2 2407 	ubfx	r4, r2, #8, #8
  pCSD->MaxBusClkFrec = (uint8_t)(hsd->CSD[0] & 0x000000FFU);
 8002490:	b2d2      	uxtb	r2, r2
  pCSD->TAAC = (uint8_t)((hsd->CSD[0] & 0x00FF0000U) >> 16U);
 8002492:	70cd      	strb	r5, [r1, #3]
  pCSD->NSAC = (uint8_t)((hsd->CSD[0] & 0x0000FF00U) >> 8U);
 8002494:	710c      	strb	r4, [r1, #4]
  pCSD->MaxBusClkFrec = (uint8_t)(hsd->CSD[0] & 0x000000FFU);
 8002496:	714a      	strb	r2, [r1, #5]
  pCSD->CardComdClasses = (uint16_t)((hsd->CSD[1] & 0xFFF00000U) >> 20U);
 8002498:	6e9a      	ldr	r2, [r3, #104]	; 0x68
 800249a:	0d15      	lsrs	r5, r2, #20
  pCSD->RdBlockLen = (uint8_t)((hsd->CSD[1] & 0x000F0000U) >> 16U);
 800249c:	f3c2 4403 	ubfx	r4, r2, #16, #4
  pCSD->CardComdClasses = (uint16_t)((hsd->CSD[1] & 0xFFF00000U) >> 20U);
 80024a0:	80cd      	strh	r5, [r1, #6]
  pCSD->RdBlockLen = (uint8_t)((hsd->CSD[1] & 0x000F0000U) >> 16U);
 80024a2:	720c      	strb	r4, [r1, #8]
  pCSD->PartBlockRead   = (uint8_t)((hsd->CSD[1] & 0x00008000U) >> 15U);
 80024a4:	f3c2 35c0 	ubfx	r5, r2, #15, #1
  pCSD->WrBlockMisalign = (uint8_t)((hsd->CSD[1] & 0x00004000U) >> 14U);
 80024a8:	f3c2 3480 	ubfx	r4, r2, #14, #1
  pCSD->PartBlockRead   = (uint8_t)((hsd->CSD[1] & 0x00008000U) >> 15U);
 80024ac:	724d      	strb	r5, [r1, #9]
  pCSD->WrBlockMisalign = (uint8_t)((hsd->CSD[1] & 0x00004000U) >> 14U);
 80024ae:	728c      	strb	r4, [r1, #10]
  pCSD->RdBlockMisalign = (uint8_t)((hsd->CSD[1] & 0x00002000U) >> 13U);
 80024b0:	f3c2 3540 	ubfx	r5, r2, #13, #1
  pCSD->DSRImpl = (uint8_t)((hsd->CSD[1] & 0x00001000U) >> 12U);
 80024b4:	f3c2 3400 	ubfx	r4, r2, #12, #1
  pCSD->RdBlockMisalign = (uint8_t)((hsd->CSD[1] & 0x00002000U) >> 13U);
 80024b8:	72cd      	strb	r5, [r1, #11]
  pCSD->DSRImpl = (uint8_t)((hsd->CSD[1] & 0x00001000U) >> 12U);
 80024ba:	730c      	strb	r4, [r1, #12]
  pCSD->Reserved2 = 0U; /*!< Reserved */
 80024bc:	7348      	strb	r0, [r1, #13]
  if(hsd->SdCard.CardType == CARD_SDSC)
 80024be:	6c58      	ldr	r0, [r3, #68]	; 0x44
 80024c0:	2800      	cmp	r0, #0
 80024c2:	d16d      	bne.n	80025a0 <HAL_SD_GetCardCSD+0x130>
    pCSD->DeviceSize = (((hsd->CSD[1] & 0x000003FFU) << 2U) | ((hsd->CSD[2] & 0xC0000000U) >> 30U));
 80024c4:	f640 70fc 	movw	r0, #4092	; 0xffc
    hsd->SdCard.BlockSize = (1UL << (pCSD->RdBlockLen & 0x0FU));
 80024c8:	2501      	movs	r5, #1
    hsd->SdCard.LogBlockSize = 512U;
 80024ca:	f44f 7600 	mov.w	r6, #512	; 0x200
    pCSD->DeviceSize = (((hsd->CSD[1] & 0x000003FFU) << 2U) | ((hsd->CSD[2] & 0xC0000000U) >> 30U));
 80024ce:	6edc      	ldr	r4, [r3, #108]	; 0x6c
 80024d0:	ea00 0282 	and.w	r2, r0, r2, lsl #2
 80024d4:	ea42 7294 	orr.w	r2, r2, r4, lsr #30
 80024d8:	610a      	str	r2, [r1, #16]
    pCSD->MaxRdCurrentVDDMax = (uint8_t)((hsd->CSD[2] & 0x07000000U) >> 24U);
 80024da:	f3c4 6002 	ubfx	r0, r4, #24, #3
    pCSD->MaxWrCurrentVDDMin = (uint8_t)((hsd->CSD[2] & 0x00E00000U) >> 21U);
 80024de:	f3c4 5242 	ubfx	r2, r4, #21, #3
    pCSD->MaxRdCurrentVDDMin = (uint8_t)((hsd->CSD[2] & 0x38000000U) >> 27U);
 80024e2:	f3c4 67c2 	ubfx	r7, r4, #27, #3
 80024e6:	750f      	strb	r7, [r1, #20]
    pCSD->MaxRdCurrentVDDMax = (uint8_t)((hsd->CSD[2] & 0x07000000U) >> 24U);
 80024e8:	7548      	strb	r0, [r1, #21]
    pCSD->MaxWrCurrentVDDMin = (uint8_t)((hsd->CSD[2] & 0x00E00000U) >> 21U);
 80024ea:	758a      	strb	r2, [r1, #22]
    pCSD->MaxWrCurrentVDDMax = (uint8_t)((hsd->CSD[2] & 0x001C0000U) >> 18U);
 80024ec:	f3c4 4082 	ubfx	r0, r4, #18, #3
    pCSD->DeviceSizeMul = (uint8_t)((hsd->CSD[2] & 0x00038000U) >> 15U);
 80024f0:	f3c4 32c2 	ubfx	r2, r4, #15, #3
    pCSD->MaxWrCurrentVDDMax = (uint8_t)((hsd->CSD[2] & 0x001C0000U) >> 18U);
 80024f4:	75c8      	strb	r0, [r1, #23]
    pCSD->DeviceSizeMul = (uint8_t)((hsd->CSD[2] & 0x00038000U) >> 15U);
 80024f6:	760a      	strb	r2, [r1, #24]
    hsd->SdCard.BlockNbr  = (pCSD->DeviceSize + 1U) ;
 80024f8:	690a      	ldr	r2, [r1, #16]
    hsd->SdCard.BlockNbr *= (1UL << ((pCSD->DeviceSizeMul & 0x07U) + 2U));
 80024fa:	7e08      	ldrb	r0, [r1, #24]
    hsd->SdCard.BlockNbr  = (pCSD->DeviceSize + 1U) ;
 80024fc:	442a      	add	r2, r5
    hsd->SdCard.BlockNbr *= (1UL << ((pCSD->DeviceSizeMul & 0x07U) + 2U));
 80024fe:	f000 0007 	and.w	r0, r0, #7
 8002502:	3002      	adds	r0, #2
 8002504:	4082      	lsls	r2, r0
 8002506:	655a      	str	r2, [r3, #84]	; 0x54
    hsd->SdCard.BlockSize = (1UL << (pCSD->RdBlockLen & 0x0FU));
 8002508:	7a08      	ldrb	r0, [r1, #8]
    hsd->SdCard.LogBlockSize = 512U;
 800250a:	661e      	str	r6, [r3, #96]	; 0x60
    hsd->SdCard.BlockSize = (1UL << (pCSD->RdBlockLen & 0x0FU));
 800250c:	f000 000f 	and.w	r0, r0, #15
 8002510:	4085      	lsls	r5, r0
    hsd->SdCard.LogBlockNbr =  (hsd->SdCard.BlockNbr) * ((hsd->SdCard.BlockSize) / 512U);
 8002512:	0a68      	lsrs	r0, r5, #9
 8002514:	fb02 f200 	mul.w	r2, r2, r0
 8002518:	e9c3 5216 	strd	r5, r2, [r3, #88]	; 0x58
  pCSD->Reserved3 = 0;
 800251c:	2200      	movs	r2, #0
  pCSD->Reserved4 = 1;
 800251e:	2501      	movs	r5, #1
  pCSD->EraseGrSize = (uint8_t)((hsd->CSD[2] & 0x00004000U) >> 14U);
 8002520:	f3c4 3680 	ubfx	r6, r4, #14, #1
 8002524:	764e      	strb	r6, [r1, #25]
  pCSD->EraseGrMul = (uint8_t)((hsd->CSD[2] & 0x00003F80U) >> 7U);
 8002526:	f3c4 16c6 	ubfx	r6, r4, #7, #7
  pCSD->WrProtectGrSize = (uint8_t)(hsd->CSD[2] & 0x0000007FU);
 800252a:	f004 047f 	and.w	r4, r4, #127	; 0x7f
  pCSD->EraseGrMul = (uint8_t)((hsd->CSD[2] & 0x00003F80U) >> 7U);
 800252e:	768e      	strb	r6, [r1, #26]
  pCSD->WrProtectGrSize = (uint8_t)(hsd->CSD[2] & 0x0000007FU);
 8002530:	76cc      	strb	r4, [r1, #27]
  pCSD->WrProtectGrEnable = (uint8_t)((hsd->CSD[3] & 0x80000000U) >> 31U);
 8002532:	6f1b      	ldr	r3, [r3, #112]	; 0x70
  return HAL_OK;
 8002534:	4610      	mov	r0, r2
  pCSD->WrProtectGrEnable = (uint8_t)((hsd->CSD[3] & 0x80000000U) >> 31U);
 8002536:	0fdc      	lsrs	r4, r3, #31
 8002538:	770c      	strb	r4, [r1, #28]
  pCSD->ManDeflECC = (uint8_t)((hsd->CSD[3] & 0x60000000U) >> 29U);
 800253a:	f3c3 7441 	ubfx	r4, r3, #29, #2
 800253e:	774c      	strb	r4, [r1, #29]
  pCSD->WrSpeedFact = (uint8_t)((hsd->CSD[3] & 0x1C000000U) >> 26U);
 8002540:	f3c3 6482 	ubfx	r4, r3, #26, #3
 8002544:	778c      	strb	r4, [r1, #30]
  pCSD->MaxWrBlockLen= (uint8_t)((hsd->CSD[3] & 0x03C00000U) >> 22U);
 8002546:	f3c3 5483 	ubfx	r4, r3, #22, #4
 800254a:	77cc      	strb	r4, [r1, #31]
  pCSD->WriteBlockPaPartial = (uint8_t)((hsd->CSD[3] & 0x00200000U) >> 21U);
 800254c:	f3c3 5440 	ubfx	r4, r3, #21, #1
 8002550:	f881 4020 	strb.w	r4, [r1, #32]
  pCSD->ContentProtectAppli = (uint8_t)((hsd->CSD[3] & 0x00010000U) >> 16U);
 8002554:	f3c3 4600 	ubfx	r6, r3, #16, #1
  pCSD->Reserved3 = 0;
 8002558:	f881 2021 	strb.w	r2, [r1, #33]	; 0x21
  pCSD->FileFormatGroup = (uint8_t)((hsd->CSD[3] & 0x00008000U) >> 15U);
 800255c:	f3c3 34c0 	ubfx	r4, r3, #15, #1
  pCSD->CopyFlag = (uint8_t)((hsd->CSD[3] & 0x00004000U) >> 14U);
 8002560:	f3c3 3280 	ubfx	r2, r3, #14, #1
  pCSD->ContentProtectAppli = (uint8_t)((hsd->CSD[3] & 0x00010000U) >> 16U);
 8002564:	f881 6022 	strb.w	r6, [r1, #34]	; 0x22
  pCSD->FileFormatGroup = (uint8_t)((hsd->CSD[3] & 0x00008000U) >> 15U);
 8002568:	f881 4023 	strb.w	r4, [r1, #35]	; 0x23
  pCSD->CopyFlag = (uint8_t)((hsd->CSD[3] & 0x00004000U) >> 14U);
 800256c:	f881 2024 	strb.w	r2, [r1, #36]	; 0x24
  pCSD->PermWrProtect = (uint8_t)((hsd->CSD[3] & 0x00002000U) >> 13U);
 8002570:	f3c3 3440 	ubfx	r4, r3, #13, #1
  pCSD->TempWrProtect = (uint8_t)((hsd->CSD[3] & 0x00001000U) >> 12U);
 8002574:	f3c3 3200 	ubfx	r2, r3, #12, #1
  pCSD->PermWrProtect = (uint8_t)((hsd->CSD[3] & 0x00002000U) >> 13U);
 8002578:	f881 4025 	strb.w	r4, [r1, #37]	; 0x25
  pCSD->TempWrProtect = (uint8_t)((hsd->CSD[3] & 0x00001000U) >> 12U);
 800257c:	f881 2026 	strb.w	r2, [r1, #38]	; 0x26
  pCSD->FileFormat = (uint8_t)((hsd->CSD[3] & 0x00000C00U) >> 10U);
 8002580:	f3c3 2481 	ubfx	r4, r3, #10, #2
  pCSD->ECC= (uint8_t)((hsd->CSD[3] & 0x00000300U) >> 8U);
 8002584:	f3c3 2201 	ubfx	r2, r3, #8, #2
  pCSD->CSD_CRC = (uint8_t)((hsd->CSD[3] & 0x000000FEU) >> 1U);
 8002588:	f3c3 0346 	ubfx	r3, r3, #1, #7
  pCSD->FileFormat = (uint8_t)((hsd->CSD[3] & 0x00000C00U) >> 10U);
 800258c:	f881 4027 	strb.w	r4, [r1, #39]	; 0x27
  pCSD->ECC= (uint8_t)((hsd->CSD[3] & 0x00000300U) >> 8U);
 8002590:	f881 2028 	strb.w	r2, [r1, #40]	; 0x28
  pCSD->CSD_CRC = (uint8_t)((hsd->CSD[3] & 0x000000FEU) >> 1U);
 8002594:	f881 3029 	strb.w	r3, [r1, #41]	; 0x29
  pCSD->Reserved4 = 1;
 8002598:	f881 502a 	strb.w	r5, [r1, #42]	; 0x2a
}
 800259c:	bcf0      	pop	{r4, r5, r6, r7}
 800259e:	4770      	bx	lr
  else if(hsd->SdCard.CardType == CARD_SDHC_SDXC)
 80025a0:	2801      	cmp	r0, #1
 80025a2:	d00c      	beq.n	80025be <HAL_SD_GetCardCSD+0x14e>
    hsd->State = HAL_SD_STATE_READY;
 80025a4:	2101      	movs	r1, #1
    __HAL_SD_CLEAR_FLAG(hsd, SDIO_STATIC_FLAGS);
 80025a6:	681a      	ldr	r2, [r3, #0]
 80025a8:	4c0d      	ldr	r4, [pc, #52]	; (80025e0 <HAL_SD_GetCardCSD+0x170>)
    return HAL_ERROR;
 80025aa:	4608      	mov	r0, r1
    __HAL_SD_CLEAR_FLAG(hsd, SDIO_STATIC_FLAGS);
 80025ac:	6394      	str	r4, [r2, #56]	; 0x38
    hsd->ErrorCode |= HAL_SD_ERROR_UNSUPPORTED_FEATURE;
 80025ae:	6b9a      	ldr	r2, [r3, #56]	; 0x38
}
 80025b0:	bcf0      	pop	{r4, r5, r6, r7}
    hsd->ErrorCode |= HAL_SD_ERROR_UNSUPPORTED_FEATURE;
 80025b2:	f042 5280 	orr.w	r2, r2, #268435456	; 0x10000000
 80025b6:	639a      	str	r2, [r3, #56]	; 0x38
    hsd->State = HAL_SD_STATE_READY;
 80025b8:	f883 1034 	strb.w	r1, [r3, #52]	; 0x34
}
 80025bc:	4770      	bx	lr
    hsd->SdCard.BlockSize = 512U;
 80025be:	f44f 7000 	mov.w	r0, #512	; 0x200
    pCSD->DeviceSize = (((hsd->CSD[1] & 0x0000003FU) << 16U) | ((hsd->CSD[2] & 0xFFFF0000U) >> 16U));
 80025c2:	6edc      	ldr	r4, [r3, #108]	; 0x6c
 80025c4:	0412      	lsls	r2, r2, #16
 80025c6:	f402 127c 	and.w	r2, r2, #4128768	; 0x3f0000
 80025ca:	ea42 4214 	orr.w	r2, r2, r4, lsr #16
 80025ce:	610a      	str	r2, [r1, #16]
    hsd->SdCard.BlockNbr = ((pCSD->DeviceSize + 1U) * 1024U);
 80025d0:	690a      	ldr	r2, [r1, #16]
    hsd->SdCard.BlockSize = 512U;
 80025d2:	6598      	str	r0, [r3, #88]	; 0x58
    hsd->SdCard.BlockNbr = ((pCSD->DeviceSize + 1U) * 1024U);
 80025d4:	3201      	adds	r2, #1
 80025d6:	0292      	lsls	r2, r2, #10
 80025d8:	655a      	str	r2, [r3, #84]	; 0x54
    hsd->SdCard.LogBlockSize = hsd->SdCard.BlockSize;
 80025da:	e9c3 2017 	strd	r2, r0, [r3, #92]	; 0x5c
 80025de:	e79d      	b.n	800251c <HAL_SD_GetCardCSD+0xac>
 80025e0:	004005ff 	.word	0x004005ff

080025e4 <HAL_SD_Init>:
{
 80025e4:	b5f0      	push	{r4, r5, r6, r7, lr}
 80025e6:	b099      	sub	sp, #100	; 0x64
  if(hsd == NULL)
 80025e8:	b1f0      	cbz	r0, 8002628 <HAL_SD_Init+0x44>
  if(hsd->State == HAL_SD_STATE_RESET)
 80025ea:	f890 3034 	ldrb.w	r3, [r0, #52]	; 0x34
 80025ee:	4604      	mov	r4, r0
 80025f0:	f003 02ff 	and.w	r2, r3, #255	; 0xff
 80025f4:	2b00      	cmp	r3, #0
 80025f6:	d031      	beq.n	800265c <HAL_SD_Init+0x78>
  Init.ClockEdge           = SDIO_CLOCK_EDGE_RISING;
 80025f8:	2300      	movs	r3, #0
  Init.ClockDiv            = SDIO_INIT_CLK_DIV;
 80025fa:	2276      	movs	r2, #118	; 0x76
  hsd->State = HAL_SD_STATE_BUSY;
 80025fc:	2603      	movs	r6, #3
  Init.HardwareFlowControl = SDIO_HARDWARE_FLOW_CONTROL_DISABLE;
 80025fe:	e9cd 330a 	strd	r3, r3, [sp, #40]	; 0x28
  Init.ClockBypass         = SDIO_CLOCK_BYPASS_DISABLE;
 8002602:	e9cd 3307 	strd	r3, r3, [sp, #28]
  Init.ClockPowerSave      = SDIO_CLOCK_POWER_SAVE_DISABLE;
 8002606:	9309      	str	r3, [sp, #36]	; 0x24
  Init.ClockDiv            = SDIO_INIT_CLK_DIV;
 8002608:	920c      	str	r2, [sp, #48]	; 0x30
  status = SDIO_Init(hsd->Instance, Init);
 800260a:	ab0a      	add	r3, sp, #40	; 0x28
 800260c:	e893 0007 	ldmia.w	r3, {r0, r1, r2}
 8002610:	6825      	ldr	r5, [r4, #0]
  hsd->State = HAL_SD_STATE_BUSY;
 8002612:	f884 6034 	strb.w	r6, [r4, #52]	; 0x34
  status = SDIO_Init(hsd->Instance, Init);
 8002616:	e88d 0007 	stmia.w	sp, {r0, r1, r2}
 800261a:	ab07      	add	r3, sp, #28
 800261c:	4628      	mov	r0, r5
 800261e:	cb0e      	ldmia	r3, {r1, r2, r3}
 8002620:	f000 fc26 	bl	8002e70 <SDIO_Init>
  if(status != HAL_OK)
 8002624:	4605      	mov	r5, r0
 8002626:	b118      	cbz	r0, 8002630 <HAL_SD_Init+0x4c>
    return HAL_ERROR;
 8002628:	2601      	movs	r6, #1
}
 800262a:	4630      	mov	r0, r6
 800262c:	b019      	add	sp, #100	; 0x64
 800262e:	bdf0      	pop	{r4, r5, r6, r7, pc}
  __HAL_SD_ENABLE(hsd);
 8002630:	2701      	movs	r7, #1
  __HAL_SD_DISABLE(hsd);
 8002632:	4e77      	ldr	r6, [pc, #476]	; (8002810 <HAL_SD_Init+0x22c>)
  (void)SDIO_PowerState_ON(hsd->Instance);
 8002634:	6820      	ldr	r0, [r4, #0]
  __HAL_SD_DISABLE(hsd);
 8002636:	6035      	str	r5, [r6, #0]
  (void)SDIO_PowerState_ON(hsd->Instance);
 8002638:	f000 fc40 	bl	8002ebc <SDIO_PowerState_ON>
  __HAL_SD_ENABLE(hsd);
 800263c:	6037      	str	r7, [r6, #0]
  errorstate = SDMMC_CmdGoIdleState(hsd->Instance);
 800263e:	6820      	ldr	r0, [r4, #0]
  __IO uint32_t count = 0U;
 8002640:	9506      	str	r5, [sp, #24]
  errorstate = SDMMC_CmdGoIdleState(hsd->Instance);
 8002642:	f000 fe27 	bl	8003294 <SDMMC_CmdGoIdleState>
  if(errorstate != HAL_SD_ERROR_NONE)
 8002646:	4605      	mov	r5, r0
 8002648:	b160      	cbz	r0, 8002664 <HAL_SD_Init+0x80>
    hsd->State = HAL_SD_STATE_READY;
 800264a:	2601      	movs	r6, #1
}
 800264c:	4630      	mov	r0, r6
    hsd->State = HAL_SD_STATE_READY;
 800264e:	f884 6034 	strb.w	r6, [r4, #52]	; 0x34
    hsd->ErrorCode |= errorstate;
 8002652:	6ba3      	ldr	r3, [r4, #56]	; 0x38
 8002654:	431d      	orrs	r5, r3
 8002656:	63a5      	str	r5, [r4, #56]	; 0x38
}
 8002658:	b019      	add	sp, #100	; 0x64
 800265a:	bdf0      	pop	{r4, r5, r6, r7, pc}
    hsd->Lock = HAL_UNLOCKED;
 800265c:	7702      	strb	r2, [r0, #28]
    HAL_SD_MspInit(hsd);
 800265e:	f7fe fabd 	bl	8000bdc <HAL_SD_MspInit>
 8002662:	e7c9      	b.n	80025f8 <HAL_SD_Init+0x14>
  errorstate = SDMMC_CmdOperCond(hsd->Instance);
 8002664:	6820      	ldr	r0, [r4, #0]
 8002666:	f000 fe3f 	bl	80032e8 <SDMMC_CmdOperCond>
  if(errorstate != HAL_SD_ERROR_NONE)
 800266a:	2800      	cmp	r0, #0
 800266c:	f040 80b9 	bne.w	80027e2 <HAL_SD_Init+0x1fe>
    hsd->SdCard.CardVersion = CARD_V2_X;
 8002670:	64a7      	str	r7, [r4, #72]	; 0x48
    errorstate = SDMMC_CmdAppCommand(hsd->Instance, 0);
 8002672:	2100      	movs	r1, #0
 8002674:	6820      	ldr	r0, [r4, #0]
 8002676:	f000 fe77 	bl	8003368 <SDMMC_CmdAppCommand>
    if(errorstate != HAL_SD_ERROR_NONE)
 800267a:	bb10      	cbnz	r0, 80026c2 <HAL_SD_Init+0xde>
  while((count < SDMMC_MAX_VOLT_TRIAL) && (validvoltage == 0U))
 800267c:	f64f 73fe 	movw	r3, #65534	; 0xfffe
 8002680:	9a06      	ldr	r2, [sp, #24]
 8002682:	429a      	cmp	r2, r3
 8002684:	d820      	bhi.n	80026c8 <HAL_SD_Init+0xe4>
 8002686:	f64f 77fe 	movw	r7, #65534	; 0xfffe
    errorstate = SDMMC_CmdAppOperCommand(hsd->Instance, SDMMC_VOLTAGE_WINDOW_SD | SDMMC_HIGH_CAPACITY | SD_SWITCH_1_8V_CAPACITY);
 800268a:	4e62      	ldr	r6, [pc, #392]	; (8002814 <HAL_SD_Init+0x230>)
 800268c:	e011      	b.n	80026b2 <HAL_SD_Init+0xce>
 800268e:	4631      	mov	r1, r6
 8002690:	6820      	ldr	r0, [r4, #0]
 8002692:	f000 feab 	bl	80033ec <SDMMC_CmdAppOperCommand>
    if(errorstate != HAL_SD_ERROR_NONE)
 8002696:	b9a0      	cbnz	r0, 80026c2 <HAL_SD_Init+0xde>
    response = SDIO_GetResponse(hsd->Instance, SDIO_RESP1);
 8002698:	4629      	mov	r1, r5
 800269a:	6820      	ldr	r0, [r4, #0]
 800269c:	f000 fc1c 	bl	8002ed8 <SDIO_GetResponse>
    count++;
 80026a0:	9b06      	ldr	r3, [sp, #24]
    response = SDIO_GetResponse(hsd->Instance, SDIO_RESP1);
 80026a2:	4605      	mov	r5, r0
    count++;
 80026a4:	3301      	adds	r3, #1
 80026a6:	9306      	str	r3, [sp, #24]
  while((count < SDMMC_MAX_VOLT_TRIAL) && (validvoltage == 0U))
 80026a8:	9b06      	ldr	r3, [sp, #24]
    validvoltage = (((response >> 31U) == 1U) ? 1U : 0U);
 80026aa:	0fc2      	lsrs	r2, r0, #31
  while((count < SDMMC_MAX_VOLT_TRIAL) && (validvoltage == 0U))
 80026ac:	42bb      	cmp	r3, r7
 80026ae:	d80b      	bhi.n	80026c8 <HAL_SD_Init+0xe4>
 80026b0:	b952      	cbnz	r2, 80026c8 <HAL_SD_Init+0xe4>
    errorstate = SDMMC_CmdAppCommand(hsd->Instance, 0);
 80026b2:	2100      	movs	r1, #0
 80026b4:	6820      	ldr	r0, [r4, #0]
 80026b6:	f000 fe57 	bl	8003368 <SDMMC_CmdAppCommand>
    if(errorstate != HAL_SD_ERROR_NONE)
 80026ba:	4605      	mov	r5, r0
 80026bc:	2800      	cmp	r0, #0
 80026be:	d0e6      	beq.n	800268e <HAL_SD_Init+0xaa>
 80026c0:	e7c3      	b.n	800264a <HAL_SD_Init+0x66>
      return HAL_SD_ERROR_UNSUPPORTED_FEATURE;
 80026c2:	f04f 5580 	mov.w	r5, #268435456	; 0x10000000
 80026c6:	e7c0      	b.n	800264a <HAL_SD_Init+0x66>
  if(count >= SDMMC_MAX_VOLT_TRIAL)
 80026c8:	f64f 73fe 	movw	r3, #65534	; 0xfffe
 80026cc:	9a06      	ldr	r2, [sp, #24]
 80026ce:	429a      	cmp	r2, r3
 80026d0:	f200 8096 	bhi.w	8002800 <HAL_SD_Init+0x21c>
  uint16_t sd_rca = 1U;
 80026d4:	2301      	movs	r3, #1
  if((response & SDMMC_HIGH_CAPACITY) == SDMMC_HIGH_CAPACITY) /* (response &= SD_HIGH_CAPACITY) */
 80026d6:	f3c5 7580 	ubfx	r5, r5, #30, #1
 80026da:	6465      	str	r5, [r4, #68]	; 0x44
  if(SDIO_GetPowerState(hsd->Instance) == 0U)
 80026dc:	6820      	ldr	r0, [r4, #0]
  uint16_t sd_rca = 1U;
 80026de:	f8ad 3016 	strh.w	r3, [sp, #22]
  if(SDIO_GetPowerState(hsd->Instance) == 0U)
 80026e2:	f000 fbf5 	bl	8002ed0 <SDIO_GetPowerState>
 80026e6:	2800      	cmp	r0, #0
 80026e8:	f000 8085 	beq.w	80027f6 <HAL_SD_Init+0x212>
  if(hsd->SdCard.CardType != CARD_SECURED)
 80026ec:	6c62      	ldr	r2, [r4, #68]	; 0x44
 80026ee:	6823      	ldr	r3, [r4, #0]
 80026f0:	2a03      	cmp	r2, #3
 80026f2:	d12f      	bne.n	8002754 <HAL_SD_Init+0x170>
  hsd->SdCard.Class = (SDIO_GetResponse(hsd->Instance, SDIO_RESP2) >> 20U);
 80026f4:	4618      	mov	r0, r3
 80026f6:	2104      	movs	r1, #4
 80026f8:	f000 fbee 	bl	8002ed8 <SDIO_GetResponse>
 80026fc:	0d00      	lsrs	r0, r0, #20
 80026fe:	64e0      	str	r0, [r4, #76]	; 0x4c
  if (HAL_SD_GetCardCSD(hsd, &CSD) != HAL_OK)
 8002700:	a90d      	add	r1, sp, #52	; 0x34
 8002702:	4620      	mov	r0, r4
 8002704:	f7ff feb4 	bl	8002470 <HAL_SD_GetCardCSD>
 8002708:	4606      	mov	r6, r0
 800270a:	2800      	cmp	r0, #0
 800270c:	d17b      	bne.n	8002806 <HAL_SD_Init+0x222>
  errorstate = SDMMC_CmdSelDesel(hsd->Instance, (uint32_t)(((uint32_t)hsd->SdCard.RelCardAdd) << 16U));
 800270e:	6d22      	ldr	r2, [r4, #80]	; 0x50
 8002710:	4603      	mov	r3, r0
 8002712:	0412      	lsls	r2, r2, #16
 8002714:	6820      	ldr	r0, [r4, #0]
 8002716:	f000 fd7b 	bl	8003210 <SDMMC_CmdSelDesel>
  if(errorstate != HAL_SD_ERROR_NONE)
 800271a:	b130      	cbz	r0, 800272a <HAL_SD_Init+0x146>
    hsd->State = HAL_SD_STATE_READY;
 800271c:	2601      	movs	r6, #1
 800271e:	f884 6034 	strb.w	r6, [r4, #52]	; 0x34
    hsd->ErrorCode |= errorstate;
 8002722:	6ba1      	ldr	r1, [r4, #56]	; 0x38
 8002724:	4308      	orrs	r0, r1
 8002726:	63a0      	str	r0, [r4, #56]	; 0x38
 8002728:	e77f      	b.n	800262a <HAL_SD_Init+0x46>
  (void)SDIO_Init(hsd->Instance, hsd->Init);
 800272a:	4623      	mov	r3, r4
 800272c:	f853 7b10 	ldr.w	r7, [r3], #16
 8002730:	1d25      	adds	r5, r4, #4
 8002732:	e893 0007 	ldmia.w	r3, {r0, r1, r2}
 8002736:	e88d 0007 	stmia.w	sp, {r0, r1, r2}
 800273a:	4638      	mov	r0, r7
 800273c:	e895 000e 	ldmia.w	r5, {r1, r2, r3}
 8002740:	f000 fb96 	bl	8002e70 <SDIO_Init>
  hsd->State = HAL_SD_STATE_READY;
 8002744:	2301      	movs	r3, #1
}
 8002746:	4630      	mov	r0, r6
  hsd->ErrorCode = HAL_SD_ERROR_NONE;
 8002748:	63a6      	str	r6, [r4, #56]	; 0x38
  hsd->Context = SD_CONTEXT_NONE;
 800274a:	6326      	str	r6, [r4, #48]	; 0x30
  hsd->State = HAL_SD_STATE_READY;
 800274c:	f884 3034 	strb.w	r3, [r4, #52]	; 0x34
}
 8002750:	b019      	add	sp, #100	; 0x64
 8002752:	bdf0      	pop	{r4, r5, r6, r7, pc}
    errorstate = SDMMC_CmdSendCID(hsd->Instance);
 8002754:	4618      	mov	r0, r3
 8002756:	f000 ff03 	bl	8003560 <SDMMC_CmdSendCID>
    if(errorstate != HAL_SD_ERROR_NONE)
 800275a:	2800      	cmp	r0, #0
 800275c:	d1de      	bne.n	800271c <HAL_SD_Init+0x138>
      hsd->CID[0U] = SDIO_GetResponse(hsd->Instance, SDIO_RESP1);
 800275e:	4601      	mov	r1, r0
 8002760:	6820      	ldr	r0, [r4, #0]
 8002762:	f000 fbb9 	bl	8002ed8 <SDIO_GetResponse>
      hsd->CID[1U] = SDIO_GetResponse(hsd->Instance, SDIO_RESP2);
 8002766:	2104      	movs	r1, #4
      hsd->CID[0U] = SDIO_GetResponse(hsd->Instance, SDIO_RESP1);
 8002768:	6760      	str	r0, [r4, #116]	; 0x74
      hsd->CID[1U] = SDIO_GetResponse(hsd->Instance, SDIO_RESP2);
 800276a:	6820      	ldr	r0, [r4, #0]
 800276c:	f000 fbb4 	bl	8002ed8 <SDIO_GetResponse>
      hsd->CID[2U] = SDIO_GetResponse(hsd->Instance, SDIO_RESP3);
 8002770:	2108      	movs	r1, #8
      hsd->CID[1U] = SDIO_GetResponse(hsd->Instance, SDIO_RESP2);
 8002772:	67a0      	str	r0, [r4, #120]	; 0x78
      hsd->CID[2U] = SDIO_GetResponse(hsd->Instance, SDIO_RESP3);
 8002774:	6820      	ldr	r0, [r4, #0]
 8002776:	f000 fbaf 	bl	8002ed8 <SDIO_GetResponse>
      hsd->CID[3U] = SDIO_GetResponse(hsd->Instance, SDIO_RESP4);
 800277a:	210c      	movs	r1, #12
      hsd->CID[2U] = SDIO_GetResponse(hsd->Instance, SDIO_RESP3);
 800277c:	67e0      	str	r0, [r4, #124]	; 0x7c
      hsd->CID[3U] = SDIO_GetResponse(hsd->Instance, SDIO_RESP4);
 800277e:	6820      	ldr	r0, [r4, #0]
 8002780:	f000 fbaa 	bl	8002ed8 <SDIO_GetResponse>
  if(hsd->SdCard.CardType != CARD_SECURED)
 8002784:	6c63      	ldr	r3, [r4, #68]	; 0x44
      hsd->CID[3U] = SDIO_GetResponse(hsd->Instance, SDIO_RESP4);
 8002786:	f8c4 0080 	str.w	r0, [r4, #128]	; 0x80
  if(hsd->SdCard.CardType != CARD_SECURED)
 800278a:	2b03      	cmp	r3, #3
 800278c:	d03e      	beq.n	800280c <HAL_SD_Init+0x228>
    errorstate = SDMMC_CmdSetRelAdd(hsd->Instance, &sd_rca);
 800278e:	f10d 0116 	add.w	r1, sp, #22
 8002792:	6820      	ldr	r0, [r4, #0]
 8002794:	f000 ff56 	bl	8003644 <SDMMC_CmdSetRelAdd>
    if(errorstate != HAL_SD_ERROR_NONE)
 8002798:	2800      	cmp	r0, #0
 800279a:	d1bf      	bne.n	800271c <HAL_SD_Init+0x138>
  if(hsd->SdCard.CardType != CARD_SECURED)
 800279c:	6c62      	ldr	r2, [r4, #68]	; 0x44
 800279e:	6823      	ldr	r3, [r4, #0]
 80027a0:	2a03      	cmp	r2, #3
 80027a2:	d0a7      	beq.n	80026f4 <HAL_SD_Init+0x110>
    hsd->SdCard.RelCardAdd = sd_rca;
 80027a4:	f8bd 1016 	ldrh.w	r1, [sp, #22]
    errorstate = SDMMC_CmdSendCSD(hsd->Instance, (uint32_t)(hsd->SdCard.RelCardAdd << 16U));
 80027a8:	4618      	mov	r0, r3
    hsd->SdCard.RelCardAdd = sd_rca;
 80027aa:	6521      	str	r1, [r4, #80]	; 0x50
    errorstate = SDMMC_CmdSendCSD(hsd->Instance, (uint32_t)(hsd->SdCard.RelCardAdd << 16U));
 80027ac:	0409      	lsls	r1, r1, #16
 80027ae:	f000 ff11 	bl	80035d4 <SDMMC_CmdSendCSD>
    if(errorstate != HAL_SD_ERROR_NONE)
 80027b2:	2800      	cmp	r0, #0
 80027b4:	d1b2      	bne.n	800271c <HAL_SD_Init+0x138>
      hsd->CSD[0U] = SDIO_GetResponse(hsd->Instance, SDIO_RESP1);
 80027b6:	4601      	mov	r1, r0
 80027b8:	6820      	ldr	r0, [r4, #0]
 80027ba:	f000 fb8d 	bl	8002ed8 <SDIO_GetResponse>
      hsd->CSD[1U] = SDIO_GetResponse(hsd->Instance, SDIO_RESP2);
 80027be:	2104      	movs	r1, #4
      hsd->CSD[0U] = SDIO_GetResponse(hsd->Instance, SDIO_RESP1);
 80027c0:	6660      	str	r0, [r4, #100]	; 0x64
      hsd->CSD[1U] = SDIO_GetResponse(hsd->Instance, SDIO_RESP2);
 80027c2:	6820      	ldr	r0, [r4, #0]
 80027c4:	f000 fb88 	bl	8002ed8 <SDIO_GetResponse>
      hsd->CSD[2U] = SDIO_GetResponse(hsd->Instance, SDIO_RESP3);
 80027c8:	2108      	movs	r1, #8
      hsd->CSD[1U] = SDIO_GetResponse(hsd->Instance, SDIO_RESP2);
 80027ca:	66a0      	str	r0, [r4, #104]	; 0x68
      hsd->CSD[2U] = SDIO_GetResponse(hsd->Instance, SDIO_RESP3);
 80027cc:	6820      	ldr	r0, [r4, #0]
 80027ce:	f000 fb83 	bl	8002ed8 <SDIO_GetResponse>
      hsd->CSD[3U] = SDIO_GetResponse(hsd->Instance, SDIO_RESP4);
 80027d2:	210c      	movs	r1, #12
      hsd->CSD[2U] = SDIO_GetResponse(hsd->Instance, SDIO_RESP3);
 80027d4:	66e0      	str	r0, [r4, #108]	; 0x6c
      hsd->CSD[3U] = SDIO_GetResponse(hsd->Instance, SDIO_RESP4);
 80027d6:	6820      	ldr	r0, [r4, #0]
 80027d8:	f000 fb7e 	bl	8002ed8 <SDIO_GetResponse>
 80027dc:	6823      	ldr	r3, [r4, #0]
 80027de:	6720      	str	r0, [r4, #112]	; 0x70
 80027e0:	e788      	b.n	80026f4 <HAL_SD_Init+0x110>
    hsd->SdCard.CardVersion = CARD_V1_X;
 80027e2:	64a5      	str	r5, [r4, #72]	; 0x48
    errorstate = SDMMC_CmdGoIdleState(hsd->Instance);
 80027e4:	6820      	ldr	r0, [r4, #0]
 80027e6:	f000 fd55 	bl	8003294 <SDMMC_CmdGoIdleState>
    if(errorstate != HAL_SD_ERROR_NONE)
 80027ea:	b938      	cbnz	r0, 80027fc <HAL_SD_Init+0x218>
  if( hsd->SdCard.CardVersion == CARD_V2_X)
 80027ec:	6ca3      	ldr	r3, [r4, #72]	; 0x48
 80027ee:	2b01      	cmp	r3, #1
 80027f0:	f47f af44 	bne.w	800267c <HAL_SD_Init+0x98>
 80027f4:	e73d      	b.n	8002672 <HAL_SD_Init+0x8e>
    return HAL_SD_ERROR_REQUEST_NOT_APPLICABLE;
 80027f6:	f04f 6080 	mov.w	r0, #67108864	; 0x4000000
 80027fa:	e78f      	b.n	800271c <HAL_SD_Init+0x138>
    if(errorstate != HAL_SD_ERROR_NONE)
 80027fc:	4605      	mov	r5, r0
 80027fe:	e724      	b.n	800264a <HAL_SD_Init+0x66>
    return HAL_SD_ERROR_INVALID_VOLTRANGE;
 8002800:	f04f 7580 	mov.w	r5, #16777216	; 0x1000000
 8002804:	e721      	b.n	800264a <HAL_SD_Init+0x66>
    return HAL_SD_ERROR_UNSUPPORTED_FEATURE;
 8002806:	f04f 5080 	mov.w	r0, #268435456	; 0x10000000
 800280a:	e787      	b.n	800271c <HAL_SD_Init+0x138>
 800280c:	6823      	ldr	r3, [r4, #0]
 800280e:	e771      	b.n	80026f4 <HAL_SD_Init+0x110>
 8002810:	422580a0 	.word	0x422580a0
 8002814:	c1100000 	.word	0xc1100000

08002818 <HAL_SD_GetCardInfo>:
{
 8002818:	b470      	push	{r4, r5, r6}
  pCardInfo->CardVersion  = (uint32_t)(hsd->SdCard.CardVersion);
 800281a:	e9d0 4211 	ldrd	r4, r2, [r0, #68]	; 0x44
  pCardInfo->RelCardAdd   = (uint32_t)(hsd->SdCard.RelCardAdd);
 800281e:	e9d0 3613 	ldrd	r3, r6, [r0, #76]	; 0x4c
  pCardInfo->BlockNbr     = (uint32_t)(hsd->SdCard.BlockNbr);
 8002822:	6d45      	ldr	r5, [r0, #84]	; 0x54
  pCardInfo->CardType     = (uint32_t)(hsd->SdCard.CardType);
 8002824:	600c      	str	r4, [r1, #0]
  pCardInfo->BlockSize    = (uint32_t)(hsd->SdCard.BlockSize);
 8002826:	6d84      	ldr	r4, [r0, #88]	; 0x58
  pCardInfo->CardVersion  = (uint32_t)(hsd->SdCard.CardVersion);
 8002828:	604a      	str	r2, [r1, #4]
  pCardInfo->Class        = (uint32_t)(hsd->SdCard.Class);
 800282a:	608b      	str	r3, [r1, #8]
  pCardInfo->LogBlockSize = (uint32_t)(hsd->SdCard.LogBlockSize);
 800282c:	e9d0 2317 	ldrd	r2, r3, [r0, #92]	; 0x5c
  pCardInfo->BlockNbr     = (uint32_t)(hsd->SdCard.BlockNbr);
 8002830:	e9c1 6503 	strd	r6, r5, [r1, #12]
  pCardInfo->LogBlockNbr  = (uint32_t)(hsd->SdCard.LogBlockNbr);
 8002834:	e9c1 4205 	strd	r4, r2, [r1, #20]
}
 8002838:	bc70      	pop	{r4, r5, r6}
 800283a:	2000      	movs	r0, #0
  pCardInfo->LogBlockSize = (uint32_t)(hsd->SdCard.LogBlockSize);
 800283c:	61cb      	str	r3, [r1, #28]
}
 800283e:	4770      	bx	lr

08002840 <HAL_SD_ConfigWideBusOperation>:
  hsd->State = HAL_SD_STATE_BUSY;
 8002840:	2203      	movs	r2, #3
{
 8002842:	b5f0      	push	{r4, r5, r6, r7, lr}
  if(hsd->SdCard.CardType != CARD_SECURED)
 8002844:	6c43      	ldr	r3, [r0, #68]	; 0x44
{
 8002846:	b08b      	sub	sp, #44	; 0x2c
  if(hsd->SdCard.CardType != CARD_SECURED)
 8002848:	4293      	cmp	r3, r2
{
 800284a:	4604      	mov	r4, r0
  hsd->State = HAL_SD_STATE_BUSY;
 800284c:	f880 2034 	strb.w	r2, [r0, #52]	; 0x34
 8002850:	6807      	ldr	r7, [r0, #0]
{
 8002852:	460e      	mov	r6, r1
  if(hsd->SdCard.CardType != CARD_SECURED)
 8002854:	d028      	beq.n	80028a8 <HAL_SD_ConfigWideBusOperation+0x68>
    if(WideMode == SDIO_BUS_WIDE_8B)
 8002856:	f5b1 5f80 	cmp.w	r1, #4096	; 0x1000
 800285a:	d025      	beq.n	80028a8 <HAL_SD_ConfigWideBusOperation+0x68>
    else if(WideMode == SDIO_BUS_WIDE_4B)
 800285c:	f5b1 6f00 	cmp.w	r1, #2048	; 0x800
 8002860:	d050      	beq.n	8002904 <HAL_SD_ConfigWideBusOperation+0xc4>
    else if(WideMode == SDIO_BUS_WIDE_1B)
 8002862:	2900      	cmp	r1, #0
 8002864:	d02f      	beq.n	80028c6 <HAL_SD_ConfigWideBusOperation+0x86>
      hsd->ErrorCode |= HAL_SD_ERROR_PARAM;
 8002866:	6b83      	ldr	r3, [r0, #56]	; 0x38
 8002868:	f043 6300 	orr.w	r3, r3, #134217728	; 0x8000000
 800286c:	6383      	str	r3, [r0, #56]	; 0x38
  if(hsd->ErrorCode != HAL_SD_ERROR_NONE)
 800286e:	6ba5      	ldr	r5, [r4, #56]	; 0x38
 8002870:	bb0d      	cbnz	r5, 80028b6 <HAL_SD_ConfigWideBusOperation+0x76>
    Init.ClockDiv            = hsd->Init.ClockDiv;
 8002872:	e9d4 0105 	ldrd	r0, r1, [r4, #20]
    Init.ClockEdge           = hsd->Init.ClockEdge;
 8002876:	6863      	ldr	r3, [r4, #4]
    Init.ClockBypass         = hsd->Init.ClockBypass;
 8002878:	68a2      	ldr	r2, [r4, #8]
    Init.ClockEdge           = hsd->Init.ClockEdge;
 800287a:	9304      	str	r3, [sp, #16]
    Init.ClockDiv            = hsd->Init.ClockDiv;
 800287c:	e9cd 0108 	strd	r0, r1, [sp, #32]
    Init.ClockPowerSave      = hsd->Init.ClockPowerSave;
 8002880:	68e3      	ldr	r3, [r4, #12]
    Init.BusWide             = WideMode;
 8002882:	9607      	str	r6, [sp, #28]
    Init.ClockPowerSave      = hsd->Init.ClockPowerSave;
 8002884:	e9cd 2305 	strd	r2, r3, [sp, #20]
    (void)SDIO_Init(hsd->Instance, Init);
 8002888:	aa0a      	add	r2, sp, #40	; 0x28
 800288a:	e912 0007 	ldmdb	r2, {r0, r1, r2}
 800288e:	e88d 0007 	stmia.w	sp, {r0, r1, r2}
 8002892:	ab04      	add	r3, sp, #16
 8002894:	cb0e      	ldmia	r3, {r1, r2, r3}
 8002896:	4638      	mov	r0, r7
 8002898:	f000 faea 	bl	8002e70 <SDIO_Init>
  hsd->State = HAL_SD_STATE_READY;
 800289c:	2301      	movs	r3, #1
  return HAL_OK;
 800289e:	4628      	mov	r0, r5
  hsd->State = HAL_SD_STATE_READY;
 80028a0:	f884 3034 	strb.w	r3, [r4, #52]	; 0x34
}
 80028a4:	b00b      	add	sp, #44	; 0x2c
 80028a6:	bdf0      	pop	{r4, r5, r6, r7, pc}
    hsd->ErrorCode |= HAL_SD_ERROR_UNSUPPORTED_FEATURE;
 80028a8:	6ba3      	ldr	r3, [r4, #56]	; 0x38
 80028aa:	f043 5380 	orr.w	r3, r3, #268435456	; 0x10000000
 80028ae:	63a3      	str	r3, [r4, #56]	; 0x38
  if(hsd->ErrorCode != HAL_SD_ERROR_NONE)
 80028b0:	6ba5      	ldr	r5, [r4, #56]	; 0x38
 80028b2:	2d00      	cmp	r5, #0
 80028b4:	d0dd      	beq.n	8002872 <HAL_SD_ConfigWideBusOperation+0x32>
    hsd->State = HAL_SD_STATE_READY;
 80028b6:	2301      	movs	r3, #1
    return HAL_ERROR;
 80028b8:	4618      	mov	r0, r3
    __HAL_SD_CLEAR_FLAG(hsd, SDIO_STATIC_FLAGS);
 80028ba:	4a25      	ldr	r2, [pc, #148]	; (8002950 <HAL_SD_ConfigWideBusOperation+0x110>)
 80028bc:	63ba      	str	r2, [r7, #56]	; 0x38
    hsd->State = HAL_SD_STATE_READY;
 80028be:	f884 3034 	strb.w	r3, [r4, #52]	; 0x34
}
 80028c2:	b00b      	add	sp, #44	; 0x2c
 80028c4:	bdf0      	pop	{r4, r5, r6, r7, pc}
  if((SDIO_GetResponse(hsd->Instance, SDIO_RESP1) & SDMMC_CARD_LOCKED) == SDMMC_CARD_LOCKED)
 80028c6:	4638      	mov	r0, r7
  uint32_t scr[2U] = {0U, 0U};
 80028c8:	e9cd 1104 	strd	r1, r1, [sp, #16]
  if((SDIO_GetResponse(hsd->Instance, SDIO_RESP1) & SDMMC_CARD_LOCKED) == SDMMC_CARD_LOCKED)
 80028cc:	f000 fb04 	bl	8002ed8 <SDIO_GetResponse>
 80028d0:	0182      	lsls	r2, r0, #6
 80028d2:	d420      	bmi.n	8002916 <HAL_SD_ConfigWideBusOperation+0xd6>
  errorstate = SD_FindSCR(hsd, scr);
 80028d4:	a904      	add	r1, sp, #16
 80028d6:	4620      	mov	r0, r4
 80028d8:	f7ff f982 	bl	8001be0 <SD_FindSCR>
  if(errorstate != HAL_SD_ERROR_NONE)
 80028dc:	b968      	cbnz	r0, 80028fa <HAL_SD_ConfigWideBusOperation+0xba>
  if((scr[1U] & SDMMC_SINGLE_BUS_SUPPORT) != SDMMC_ALLZERO)
 80028de:	9b05      	ldr	r3, [sp, #20]
 80028e0:	6827      	ldr	r7, [r4, #0]
 80028e2:	03db      	lsls	r3, r3, #15
 80028e4:	d531      	bpl.n	800294a <HAL_SD_ConfigWideBusOperation+0x10a>
    errorstate = SDMMC_CmdAppCommand(hsd->Instance, (uint32_t)(hsd->SdCard.RelCardAdd << 16U));
 80028e6:	6d21      	ldr	r1, [r4, #80]	; 0x50
 80028e8:	4638      	mov	r0, r7
 80028ea:	0409      	lsls	r1, r1, #16
 80028ec:	f000 fd3c 	bl	8003368 <SDMMC_CmdAppCommand>
    if(errorstate != HAL_SD_ERROR_NONE)
 80028f0:	b918      	cbnz	r0, 80028fa <HAL_SD_ConfigWideBusOperation+0xba>
    errorstate = SDMMC_CmdBusWidth(hsd->Instance, 0U);
 80028f2:	4601      	mov	r1, r0
 80028f4:	6820      	ldr	r0, [r4, #0]
 80028f6:	f000 fdaf 	bl	8003458 <SDMMC_CmdBusWidth>
 80028fa:	6827      	ldr	r7, [r4, #0]
      hsd->ErrorCode |= errorstate;
 80028fc:	6ba3      	ldr	r3, [r4, #56]	; 0x38
 80028fe:	4318      	orrs	r0, r3
 8002900:	63a0      	str	r0, [r4, #56]	; 0x38
 8002902:	e7d5      	b.n	80028b0 <HAL_SD_ConfigWideBusOperation+0x70>
  uint32_t scr[2U] = {0U, 0U};
 8002904:	2300      	movs	r3, #0
  if((SDIO_GetResponse(hsd->Instance, SDIO_RESP1) & SDMMC_CARD_LOCKED) == SDMMC_CARD_LOCKED)
 8002906:	4638      	mov	r0, r7
 8002908:	4619      	mov	r1, r3
  uint32_t scr[2U] = {0U, 0U};
 800290a:	e9cd 3304 	strd	r3, r3, [sp, #16]
  if((SDIO_GetResponse(hsd->Instance, SDIO_RESP1) & SDMMC_CARD_LOCKED) == SDMMC_CARD_LOCKED)
 800290e:	f000 fae3 	bl	8002ed8 <SDIO_GetResponse>
 8002912:	0180      	lsls	r0, r0, #6
 8002914:	d503      	bpl.n	800291e <HAL_SD_ConfigWideBusOperation+0xde>
 8002916:	6827      	ldr	r7, [r4, #0]
    return HAL_SD_ERROR_LOCK_UNLOCK_FAILED;
 8002918:	f44f 6000 	mov.w	r0, #2048	; 0x800
 800291c:	e7ee      	b.n	80028fc <HAL_SD_ConfigWideBusOperation+0xbc>
  errorstate = SD_FindSCR(hsd, scr);
 800291e:	a904      	add	r1, sp, #16
 8002920:	4620      	mov	r0, r4
 8002922:	f7ff f95d 	bl	8001be0 <SD_FindSCR>
  if(errorstate != HAL_SD_ERROR_NONE)
 8002926:	2800      	cmp	r0, #0
 8002928:	d1e7      	bne.n	80028fa <HAL_SD_ConfigWideBusOperation+0xba>
  if((scr[1U] & SDMMC_WIDE_BUS_SUPPORT) != SDMMC_ALLZERO)
 800292a:	9b05      	ldr	r3, [sp, #20]
 800292c:	6827      	ldr	r7, [r4, #0]
 800292e:	0359      	lsls	r1, r3, #13
 8002930:	d50b      	bpl.n	800294a <HAL_SD_ConfigWideBusOperation+0x10a>
    errorstate = SDMMC_CmdAppCommand(hsd->Instance, (uint32_t)(hsd->SdCard.RelCardAdd << 16U));
 8002932:	6d21      	ldr	r1, [r4, #80]	; 0x50
 8002934:	4638      	mov	r0, r7
 8002936:	0409      	lsls	r1, r1, #16
 8002938:	f000 fd16 	bl	8003368 <SDMMC_CmdAppCommand>
    if(errorstate != HAL_SD_ERROR_NONE)
 800293c:	2800      	cmp	r0, #0
 800293e:	d1dc      	bne.n	80028fa <HAL_SD_ConfigWideBusOperation+0xba>
    errorstate = SDMMC_CmdBusWidth(hsd->Instance, 2U);
 8002940:	2102      	movs	r1, #2
 8002942:	6820      	ldr	r0, [r4, #0]
 8002944:	f000 fd88 	bl	8003458 <SDMMC_CmdBusWidth>
 8002948:	e7d7      	b.n	80028fa <HAL_SD_ConfigWideBusOperation+0xba>
    return HAL_SD_ERROR_REQUEST_NOT_APPLICABLE;
 800294a:	f04f 6080 	mov.w	r0, #67108864	; 0x4000000
 800294e:	e7d5      	b.n	80028fc <HAL_SD_ConfigWideBusOperation+0xbc>
 8002950:	004005ff 	.word	0x004005ff

08002954 <HAL_SD_GetCardState>:
  errorstate = SDMMC_CmdSendStatus(hsd->Instance, (uint32_t)(hsd->SdCard.RelCardAdd << 16U));
 8002954:	6d01      	ldr	r1, [r0, #80]	; 0x50
{
 8002956:	b510      	push	{r4, lr}
  errorstate = SDMMC_CmdSendStatus(hsd->Instance, (uint32_t)(hsd->SdCard.RelCardAdd << 16U));
 8002958:	0409      	lsls	r1, r1, #16
{
 800295a:	4604      	mov	r4, r0
  errorstate = SDMMC_CmdSendStatus(hsd->Instance, (uint32_t)(hsd->SdCard.RelCardAdd << 16U));
 800295c:	6800      	ldr	r0, [r0, #0]
 800295e:	f000 fec5 	bl	80036ec <SDMMC_CmdSendStatus>
  if(errorstate != HAL_SD_ERROR_NONE)
 8002962:	4601      	mov	r1, r0
 8002964:	b120      	cbz	r0, 8002970 <HAL_SD_GetCardState+0x1c>
    hsd->ErrorCode |= errorstate;
 8002966:	6ba3      	ldr	r3, [r4, #56]	; 0x38
 8002968:	2000      	movs	r0, #0
 800296a:	4319      	orrs	r1, r3
 800296c:	63a1      	str	r1, [r4, #56]	; 0x38
}
 800296e:	bd10      	pop	{r4, pc}
  *pCardStatus = SDIO_GetResponse(hsd->Instance, SDIO_RESP1);
 8002970:	6820      	ldr	r0, [r4, #0]
 8002972:	f000 fab1 	bl	8002ed8 <SDIO_GetResponse>
 8002976:	f3c0 2043 	ubfx	r0, r0, #9, #4
}
 800297a:	bd10      	pop	{r4, pc}

0800297c <HAL_TIM_Base_MspInit>:
  UNUSED(htim);

  /* NOTE : This function should not be modified, when the callback is needed,
            the HAL_TIM_Base_MspInit could be implemented in the user file
   */
}
 800297c:	4770      	bx	lr
 800297e:	bf00      	nop

08002980 <HAL_TIM_Base_Init>:
  if (htim == NULL)
 8002980:	2800      	cmp	r0, #0
 8002982:	d06d      	beq.n	8002a60 <HAL_TIM_Base_Init+0xe0>
  if (htim->State == HAL_TIM_STATE_RESET)
 8002984:	f890 303d 	ldrb.w	r3, [r0, #61]	; 0x3d
{
 8002988:	b570      	push	{r4, r5, r6, lr}
  if (htim->State == HAL_TIM_STATE_RESET)
 800298a:	f003 02ff 	and.w	r2, r3, #255	; 0xff
 800298e:	4604      	mov	r4, r0
 8002990:	b3b3      	cbz	r3, 8002a00 <HAL_TIM_Base_Init+0x80>
  htim->State = HAL_TIM_STATE_BUSY;
 8002992:	2302      	movs	r3, #2
  TIM_Base_SetConfig(htim->Instance, &htim->Init);
 8002994:	6822      	ldr	r2, [r4, #0]
{
  uint32_t tmpcr1;
  tmpcr1 = TIMx->CR1;

  /* Set TIM Time Base Unit parameters ---------------------------------------*/
  if (IS_TIM_COUNTER_MODE_SELECT_INSTANCE(TIMx))
 8002996:	4e42      	ldr	r6, [pc, #264]	; (8002aa0 <HAL_TIM_Base_Init+0x120>)
  htim->State = HAL_TIM_STATE_BUSY;
 8002998:	f884 303d 	strb.w	r3, [r4, #61]	; 0x3d
  if (IS_TIM_COUNTER_MODE_SELECT_INSTANCE(TIMx))
 800299c:	42b2      	cmp	r2, r6
  tmpcr1 = TIMx->CR1;
 800299e:	6813      	ldr	r3, [r2, #0]
 80029a0:	69a5      	ldr	r5, [r4, #24]
 80029a2:	68e0      	ldr	r0, [r4, #12]
 80029a4:	6861      	ldr	r1, [r4, #4]
  if (IS_TIM_COUNTER_MODE_SELECT_INSTANCE(TIMx))
 80029a6:	d05d      	beq.n	8002a64 <HAL_TIM_Base_Init+0xe4>
 80029a8:	f1b2 4f80 	cmp.w	r2, #1073741824	; 0x40000000
 80029ac:	d069      	beq.n	8002a82 <HAL_TIM_Base_Init+0x102>
 80029ae:	f5a6 467c 	sub.w	r6, r6, #64512	; 0xfc00
 80029b2:	42b2      	cmp	r2, r6
 80029b4:	d029      	beq.n	8002a0a <HAL_TIM_Base_Init+0x8a>
 80029b6:	f506 6680 	add.w	r6, r6, #1024	; 0x400
 80029ba:	42b2      	cmp	r2, r6
 80029bc:	d025      	beq.n	8002a0a <HAL_TIM_Base_Init+0x8a>
 80029be:	f506 6680 	add.w	r6, r6, #1024	; 0x400
 80029c2:	42b2      	cmp	r2, r6
 80029c4:	d021      	beq.n	8002a0a <HAL_TIM_Base_Init+0x8a>
 80029c6:	f506 4678 	add.w	r6, r6, #63488	; 0xf800
 80029ca:	42b2      	cmp	r2, r6
 80029cc:	d01d      	beq.n	8002a0a <HAL_TIM_Base_Init+0x8a>
    /* Select the Counter Mode */
    tmpcr1 &= ~(TIM_CR1_DIR | TIM_CR1_CMS);
    tmpcr1 |= Structure->CounterMode;
  }

  if (IS_TIM_CLOCK_DIVISION_INSTANCE(TIMx))
 80029ce:	f506 5670 	add.w	r6, r6, #15360	; 0x3c00
 80029d2:	42b2      	cmp	r2, r6
 80029d4:	d059      	beq.n	8002a8a <HAL_TIM_Base_Init+0x10a>
 80029d6:	f506 6680 	add.w	r6, r6, #1024	; 0x400
 80029da:	42b2      	cmp	r2, r6
 80029dc:	d055      	beq.n	8002a8a <HAL_TIM_Base_Init+0x10a>
 80029de:	f506 6680 	add.w	r6, r6, #1024	; 0x400
 80029e2:	42b2      	cmp	r2, r6
 80029e4:	d051      	beq.n	8002a8a <HAL_TIM_Base_Init+0x10a>
 80029e6:	f5a6 3698 	sub.w	r6, r6, #77824	; 0x13000
 80029ea:	42b2      	cmp	r2, r6
 80029ec:	d04d      	beq.n	8002a8a <HAL_TIM_Base_Init+0x10a>
 80029ee:	f506 6680 	add.w	r6, r6, #1024	; 0x400
 80029f2:	42b2      	cmp	r2, r6
 80029f4:	d049      	beq.n	8002a8a <HAL_TIM_Base_Init+0x10a>
 80029f6:	f506 6680 	add.w	r6, r6, #1024	; 0x400
 80029fa:	42b2      	cmp	r2, r6
 80029fc:	d149      	bne.n	8002a92 <HAL_TIM_Base_Init+0x112>
 80029fe:	e044      	b.n	8002a8a <HAL_TIM_Base_Init+0x10a>
    htim->Lock = HAL_UNLOCKED;
 8002a00:	f880 203c 	strb.w	r2, [r0, #60]	; 0x3c
    HAL_TIM_Base_MspInit(htim);
 8002a04:	f7ff ffba 	bl	800297c <HAL_TIM_Base_MspInit>
 8002a08:	e7c3      	b.n	8002992 <HAL_TIM_Base_Init+0x12>
    tmpcr1 |= Structure->CounterMode;
 8002a0a:	68a6      	ldr	r6, [r4, #8]
    tmpcr1 &= ~(TIM_CR1_DIR | TIM_CR1_CMS);
 8002a0c:	f023 0370 	bic.w	r3, r3, #112	; 0x70
    tmpcr1 |= Structure->CounterMode;
 8002a10:	4333      	orrs	r3, r6
  {
    /* Set the clock division */
    tmpcr1 &= ~TIM_CR1_CKD;
    tmpcr1 |= (uint32_t)Structure->ClockDivision;
 8002a12:	6926      	ldr	r6, [r4, #16]
    tmpcr1 &= ~TIM_CR1_CKD;
 8002a14:	f423 7340 	bic.w	r3, r3, #768	; 0x300
    tmpcr1 |= (uint32_t)Structure->ClockDivision;
 8002a18:	4333      	orrs	r3, r6
  TIMx->ARR = (uint32_t)Structure->Period ;

  /* Set the Prescaler value */
  TIMx->PSC = Structure->Prescaler;

  if (IS_TIM_REPETITION_COUNTER_INSTANCE(TIMx))
 8002a1a:	4e22      	ldr	r6, [pc, #136]	; (8002aa4 <HAL_TIM_Base_Init+0x124>)
  MODIFY_REG(tmpcr1, TIM_CR1_ARPE, Structure->AutoReloadPreload);
 8002a1c:	f023 0380 	bic.w	r3, r3, #128	; 0x80
 8002a20:	432b      	orrs	r3, r5
  if (IS_TIM_REPETITION_COUNTER_INSTANCE(TIMx))
 8002a22:	42b2      	cmp	r2, r6
  TIMx->CR1 = tmpcr1;
 8002a24:	6013      	str	r3, [r2, #0]
  TIMx->ARR = (uint32_t)Structure->Period ;
 8002a26:	62d0      	str	r0, [r2, #44]	; 0x2c
  TIMx->PSC = Structure->Prescaler;
 8002a28:	6291      	str	r1, [r2, #40]	; 0x28
  if (IS_TIM_REPETITION_COUNTER_INSTANCE(TIMx))
 8002a2a:	d101      	bne.n	8002a30 <HAL_TIM_Base_Init+0xb0>
  {
    /* Set the Repetition Counter value */
    TIMx->RCR = Structure->RepetitionCounter;
 8002a2c:	6963      	ldr	r3, [r4, #20]
 8002a2e:	6313      	str	r3, [r2, #48]	; 0x30
  }

  /* Generate an update event to reload the Prescaler
     and the repetition counter (only for advanced timer) value immediately */
  TIMx->EGR = TIM_EGR_UG;
 8002a30:	2301      	movs	r3, #1
  return HAL_OK;
 8002a32:	2000      	movs	r0, #0
  TIMx->EGR = TIM_EGR_UG;
 8002a34:	6153      	str	r3, [r2, #20]
  htim->DMABurstState = HAL_DMA_BURST_STATE_READY;
 8002a36:	f884 3046 	strb.w	r3, [r4, #70]	; 0x46
  TIM_CHANNEL_STATE_SET_ALL(htim, HAL_TIM_CHANNEL_STATE_READY);
 8002a3a:	f884 303e 	strb.w	r3, [r4, #62]	; 0x3e
 8002a3e:	f884 303f 	strb.w	r3, [r4, #63]	; 0x3f
 8002a42:	f884 3040 	strb.w	r3, [r4, #64]	; 0x40
 8002a46:	f884 3041 	strb.w	r3, [r4, #65]	; 0x41
  TIM_CHANNEL_N_STATE_SET_ALL(htim, HAL_TIM_CHANNEL_STATE_READY);
 8002a4a:	f884 3042 	strb.w	r3, [r4, #66]	; 0x42
 8002a4e:	f884 3043 	strb.w	r3, [r4, #67]	; 0x43
 8002a52:	f884 3044 	strb.w	r3, [r4, #68]	; 0x44
 8002a56:	f884 3045 	strb.w	r3, [r4, #69]	; 0x45
  htim->State = HAL_TIM_STATE_READY;
 8002a5a:	f884 303d 	strb.w	r3, [r4, #61]	; 0x3d
}
 8002a5e:	bd70      	pop	{r4, r5, r6, pc}
    return HAL_ERROR;
 8002a60:	2001      	movs	r0, #1
}
 8002a62:	4770      	bx	lr
    tmpcr1 |= Structure->CounterMode;
 8002a64:	68a6      	ldr	r6, [r4, #8]
    tmpcr1 &= ~(TIM_CR1_DIR | TIM_CR1_CMS);
 8002a66:	f023 0370 	bic.w	r3, r3, #112	; 0x70
    tmpcr1 |= Structure->CounterMode;
 8002a6a:	4333      	orrs	r3, r6
    tmpcr1 |= (uint32_t)Structure->ClockDivision;
 8002a6c:	6926      	ldr	r6, [r4, #16]
    tmpcr1 &= ~TIM_CR1_CKD;
 8002a6e:	f423 7340 	bic.w	r3, r3, #768	; 0x300
    tmpcr1 |= (uint32_t)Structure->ClockDivision;
 8002a72:	4333      	orrs	r3, r6
  MODIFY_REG(tmpcr1, TIM_CR1_ARPE, Structure->AutoReloadPreload);
 8002a74:	f023 0380 	bic.w	r3, r3, #128	; 0x80
 8002a78:	432b      	orrs	r3, r5
  TIMx->CR1 = tmpcr1;
 8002a7a:	6013      	str	r3, [r2, #0]
  TIMx->ARR = (uint32_t)Structure->Period ;
 8002a7c:	62d0      	str	r0, [r2, #44]	; 0x2c
  TIMx->PSC = Structure->Prescaler;
 8002a7e:	6291      	str	r1, [r2, #40]	; 0x28
 8002a80:	e7d4      	b.n	8002a2c <HAL_TIM_Base_Init+0xac>
    tmpcr1 |= Structure->CounterMode;
 8002a82:	68a6      	ldr	r6, [r4, #8]
    tmpcr1 &= ~(TIM_CR1_DIR | TIM_CR1_CMS);
 8002a84:	f023 0370 	bic.w	r3, r3, #112	; 0x70
    tmpcr1 |= Structure->CounterMode;
 8002a88:	4333      	orrs	r3, r6
    tmpcr1 |= (uint32_t)Structure->ClockDivision;
 8002a8a:	6926      	ldr	r6, [r4, #16]
    tmpcr1 &= ~TIM_CR1_CKD;
 8002a8c:	f423 7340 	bic.w	r3, r3, #768	; 0x300
    tmpcr1 |= (uint32_t)Structure->ClockDivision;
 8002a90:	4333      	orrs	r3, r6
  MODIFY_REG(tmpcr1, TIM_CR1_ARPE, Structure->AutoReloadPreload);
 8002a92:	f023 0380 	bic.w	r3, r3, #128	; 0x80
 8002a96:	432b      	orrs	r3, r5
  TIMx->CR1 = tmpcr1;
 8002a98:	6013      	str	r3, [r2, #0]
  TIMx->ARR = (uint32_t)Structure->Period ;
 8002a9a:	62d0      	str	r0, [r2, #44]	; 0x2c
  TIMx->PSC = Structure->Prescaler;
 8002a9c:	6291      	str	r1, [r2, #40]	; 0x28
 8002a9e:	e7c7      	b.n	8002a30 <HAL_TIM_Base_Init+0xb0>
 8002aa0:	40010000 	.word	0x40010000
 8002aa4:	40010400 	.word	0x40010400

08002aa8 <HAL_TIM_Base_Start_IT>:
  if (htim->State != HAL_TIM_STATE_READY)
 8002aa8:	f890 303d 	ldrb.w	r3, [r0, #61]	; 0x3d
 8002aac:	2b01      	cmp	r3, #1
 8002aae:	d001      	beq.n	8002ab4 <HAL_TIM_Base_Start_IT+0xc>
    return HAL_ERROR;
 8002ab0:	2001      	movs	r0, #1
 8002ab2:	4770      	bx	lr
  htim->State = HAL_TIM_STATE_BUSY;
 8002ab4:	2202      	movs	r2, #2
  __HAL_TIM_ENABLE_IT(htim, TIM_IT_UPDATE);
 8002ab6:	6803      	ldr	r3, [r0, #0]
  htim->State = HAL_TIM_STATE_BUSY;
 8002ab8:	f880 203d 	strb.w	r2, [r0, #61]	; 0x3d
  __HAL_TIM_ENABLE_IT(htim, TIM_IT_UPDATE);
 8002abc:	68da      	ldr	r2, [r3, #12]
  if (IS_TIM_SLAVE_INSTANCE(htim->Instance))
 8002abe:	4916      	ldr	r1, [pc, #88]	; (8002b18 <HAL_TIM_Base_Start_IT+0x70>)
  __HAL_TIM_ENABLE_IT(htim, TIM_IT_UPDATE);
 8002ac0:	f042 0201 	orr.w	r2, r2, #1
  if (IS_TIM_SLAVE_INSTANCE(htim->Instance))
 8002ac4:	428b      	cmp	r3, r1
  __HAL_TIM_ENABLE_IT(htim, TIM_IT_UPDATE);
 8002ac6:	60da      	str	r2, [r3, #12]
  if (IS_TIM_SLAVE_INSTANCE(htim->Instance))
 8002ac8:	d019      	beq.n	8002afe <HAL_TIM_Base_Start_IT+0x56>
 8002aca:	f1b3 4f80 	cmp.w	r3, #1073741824	; 0x40000000
 8002ace:	d016      	beq.n	8002afe <HAL_TIM_Base_Start_IT+0x56>
 8002ad0:	4a12      	ldr	r2, [pc, #72]	; (8002b1c <HAL_TIM_Base_Start_IT+0x74>)
 8002ad2:	4293      	cmp	r3, r2
 8002ad4:	d013      	beq.n	8002afe <HAL_TIM_Base_Start_IT+0x56>
 8002ad6:	f502 6280 	add.w	r2, r2, #1024	; 0x400
 8002ada:	4293      	cmp	r3, r2
 8002adc:	d00f      	beq.n	8002afe <HAL_TIM_Base_Start_IT+0x56>
 8002ade:	f502 6280 	add.w	r2, r2, #1024	; 0x400
 8002ae2:	4293      	cmp	r3, r2
 8002ae4:	d00b      	beq.n	8002afe <HAL_TIM_Base_Start_IT+0x56>
 8002ae6:	f502 4278 	add.w	r2, r2, #63488	; 0xf800
 8002aea:	4293      	cmp	r3, r2
 8002aec:	d007      	beq.n	8002afe <HAL_TIM_Base_Start_IT+0x56>
 8002aee:	f502 5270 	add.w	r2, r2, #15360	; 0x3c00
 8002af2:	4293      	cmp	r3, r2
 8002af4:	d003      	beq.n	8002afe <HAL_TIM_Base_Start_IT+0x56>
 8002af6:	f5a2 3294 	sub.w	r2, r2, #75776	; 0x12800
 8002afa:	4293      	cmp	r3, r2
 8002afc:	d104      	bne.n	8002b08 <HAL_TIM_Base_Start_IT+0x60>
    tmpsmcr = htim->Instance->SMCR & TIM_SMCR_SMS;
 8002afe:	689a      	ldr	r2, [r3, #8]
 8002b00:	f002 0207 	and.w	r2, r2, #7
    if (!IS_TIM_SLAVEMODE_TRIGGER_ENABLED(tmpsmcr))
 8002b04:	2a06      	cmp	r2, #6
 8002b06:	d005      	beq.n	8002b14 <HAL_TIM_Base_Start_IT+0x6c>
    __HAL_TIM_ENABLE(htim);
 8002b08:	681a      	ldr	r2, [r3, #0]
  return HAL_OK;
 8002b0a:	2000      	movs	r0, #0
    __HAL_TIM_ENABLE(htim);
 8002b0c:	f042 0201 	orr.w	r2, r2, #1
 8002b10:	601a      	str	r2, [r3, #0]
 8002b12:	4770      	bx	lr
  return HAL_OK;
 8002b14:	2000      	movs	r0, #0
}
 8002b16:	4770      	bx	lr
 8002b18:	40010000 	.word	0x40010000
 8002b1c:	40000400 	.word	0x40000400

08002b20 <HAL_TIM_OC_DelayElapsedCallback>:
 8002b20:	4770      	bx	lr
 8002b22:	bf00      	nop

08002b24 <HAL_TIM_IC_CaptureCallback>:
 8002b24:	4770      	bx	lr
 8002b26:	bf00      	nop

08002b28 <HAL_TIM_PWM_PulseFinishedCallback>:
 8002b28:	4770      	bx	lr
 8002b2a:	bf00      	nop

08002b2c <HAL_TIM_TriggerCallback>:
 8002b2c:	4770      	bx	lr
 8002b2e:	bf00      	nop

08002b30 <HAL_TIM_IRQHandler>:
  if (__HAL_TIM_GET_FLAG(htim, TIM_FLAG_CC1) != RESET)
 8002b30:	6803      	ldr	r3, [r0, #0]
{
 8002b32:	b510      	push	{r4, lr}
  if (__HAL_TIM_GET_FLAG(htim, TIM_FLAG_CC1) != RESET)
 8002b34:	691a      	ldr	r2, [r3, #16]
{
 8002b36:	4604      	mov	r4, r0
  if (__HAL_TIM_GET_FLAG(htim, TIM_FLAG_CC1) != RESET)
 8002b38:	0791      	lsls	r1, r2, #30
 8002b3a:	d502      	bpl.n	8002b42 <HAL_TIM_IRQHandler+0x12>
    if (__HAL_TIM_GET_IT_SOURCE(htim, TIM_IT_CC1) != RESET)
 8002b3c:	68da      	ldr	r2, [r3, #12]
 8002b3e:	0792      	lsls	r2, r2, #30
 8002b40:	d45f      	bmi.n	8002c02 <HAL_TIM_IRQHandler+0xd2>
  if (__HAL_TIM_GET_FLAG(htim, TIM_FLAG_CC2) != RESET)
 8002b42:	691a      	ldr	r2, [r3, #16]
 8002b44:	0750      	lsls	r0, r2, #29
 8002b46:	d502      	bpl.n	8002b4e <HAL_TIM_IRQHandler+0x1e>
    if (__HAL_TIM_GET_IT_SOURCE(htim, TIM_IT_CC2) != RESET)
 8002b48:	68da      	ldr	r2, [r3, #12]
 8002b4a:	0751      	lsls	r1, r2, #29
 8002b4c:	d446      	bmi.n	8002bdc <HAL_TIM_IRQHandler+0xac>
  if (__HAL_TIM_GET_FLAG(htim, TIM_FLAG_CC3) != RESET)
 8002b4e:	691a      	ldr	r2, [r3, #16]
 8002b50:	0712      	lsls	r2, r2, #28
 8002b52:	d502      	bpl.n	8002b5a <HAL_TIM_IRQHandler+0x2a>
    if (__HAL_TIM_GET_IT_SOURCE(htim, TIM_IT_CC3) != RESET)
 8002b54:	68da      	ldr	r2, [r3, #12]
 8002b56:	0710      	lsls	r0, r2, #28
 8002b58:	d42e      	bmi.n	8002bb8 <HAL_TIM_IRQHandler+0x88>
  if (__HAL_TIM_GET_FLAG(htim, TIM_FLAG_CC4) != RESET)
 8002b5a:	691a      	ldr	r2, [r3, #16]
 8002b5c:	06d2      	lsls	r2, r2, #27
 8002b5e:	d502      	bpl.n	8002b66 <HAL_TIM_IRQHandler+0x36>
    if (__HAL_TIM_GET_IT_SOURCE(htim, TIM_IT_CC4) != RESET)
 8002b60:	68da      	ldr	r2, [r3, #12]
 8002b62:	06d0      	lsls	r0, r2, #27
 8002b64:	d418      	bmi.n	8002b98 <HAL_TIM_IRQHandler+0x68>
  if (__HAL_TIM_GET_FLAG(htim, TIM_FLAG_UPDATE) != RESET)
 8002b66:	691a      	ldr	r2, [r3, #16]
 8002b68:	07d1      	lsls	r1, r2, #31
 8002b6a:	d502      	bpl.n	8002b72 <HAL_TIM_IRQHandler+0x42>
    if (__HAL_TIM_GET_IT_SOURCE(htim, TIM_IT_UPDATE) != RESET)
 8002b6c:	68da      	ldr	r2, [r3, #12]
 8002b6e:	07d2      	lsls	r2, r2, #31
 8002b70:	d45d      	bmi.n	8002c2e <HAL_TIM_IRQHandler+0xfe>
  if (__HAL_TIM_GET_FLAG(htim, TIM_FLAG_BREAK) != RESET)
 8002b72:	691a      	ldr	r2, [r3, #16]
 8002b74:	0610      	lsls	r0, r2, #24
 8002b76:	d502      	bpl.n	8002b7e <HAL_TIM_IRQHandler+0x4e>
    if (__HAL_TIM_GET_IT_SOURCE(htim, TIM_IT_BREAK) != RESET)
 8002b78:	68da      	ldr	r2, [r3, #12]
 8002b7a:	0611      	lsls	r1, r2, #24
 8002b7c:	d45f      	bmi.n	8002c3e <HAL_TIM_IRQHandler+0x10e>
  if (__HAL_TIM_GET_FLAG(htim, TIM_FLAG_TRIGGER) != RESET)
 8002b7e:	691a      	ldr	r2, [r3, #16]
 8002b80:	0652      	lsls	r2, r2, #25
 8002b82:	d502      	bpl.n	8002b8a <HAL_TIM_IRQHandler+0x5a>
    if (__HAL_TIM_GET_IT_SOURCE(htim, TIM_IT_TRIGGER) != RESET)
 8002b84:	68da      	ldr	r2, [r3, #12]
 8002b86:	0650      	lsls	r0, r2, #25
 8002b88:	d461      	bmi.n	8002c4e <HAL_TIM_IRQHandler+0x11e>
  if (__HAL_TIM_GET_FLAG(htim, TIM_FLAG_COM) != RESET)
 8002b8a:	691a      	ldr	r2, [r3, #16]
 8002b8c:	0691      	lsls	r1, r2, #26
 8002b8e:	d502      	bpl.n	8002b96 <HAL_TIM_IRQHandler+0x66>
    if (__HAL_TIM_GET_IT_SOURCE(htim, TIM_IT_COM) != RESET)
 8002b90:	68da      	ldr	r2, [r3, #12]
 8002b92:	0692      	lsls	r2, r2, #26
 8002b94:	d443      	bmi.n	8002c1e <HAL_TIM_IRQHandler+0xee>
}
 8002b96:	bd10      	pop	{r4, pc}
      __HAL_TIM_CLEAR_IT(htim, TIM_IT_CC4);
 8002b98:	f06f 0110 	mvn.w	r1, #16
      htim->Channel = HAL_TIM_ACTIVE_CHANNEL_4;
 8002b9c:	2208      	movs	r2, #8
      __HAL_TIM_CLEAR_IT(htim, TIM_IT_CC4);
 8002b9e:	6119      	str	r1, [r3, #16]
      if ((htim->Instance->CCMR2 & TIM_CCMR2_CC4S) != 0x00U)
 8002ba0:	69db      	ldr	r3, [r3, #28]
        HAL_TIM_IC_CaptureCallback(htim);
 8002ba2:	4620      	mov	r0, r4
      if ((htim->Instance->CCMR2 & TIM_CCMR2_CC4S) != 0x00U)
 8002ba4:	f413 7f40 	tst.w	r3, #768	; 0x300
      htim->Channel = HAL_TIM_ACTIVE_CHANNEL_4;
 8002ba8:	7722      	strb	r2, [r4, #28]
      if ((htim->Instance->CCMR2 & TIM_CCMR2_CC4S) != 0x00U)
 8002baa:	d064      	beq.n	8002c76 <HAL_TIM_IRQHandler+0x146>
        HAL_TIM_IC_CaptureCallback(htim);
 8002bac:	f7ff ffba 	bl	8002b24 <HAL_TIM_IC_CaptureCallback>
      htim->Channel = HAL_TIM_ACTIVE_CHANNEL_CLEARED;
 8002bb0:	2200      	movs	r2, #0
 8002bb2:	6823      	ldr	r3, [r4, #0]
 8002bb4:	7722      	strb	r2, [r4, #28]
 8002bb6:	e7d6      	b.n	8002b66 <HAL_TIM_IRQHandler+0x36>
      __HAL_TIM_CLEAR_IT(htim, TIM_IT_CC3);
 8002bb8:	f06f 0108 	mvn.w	r1, #8
      htim->Channel = HAL_TIM_ACTIVE_CHANNEL_3;
 8002bbc:	2204      	movs	r2, #4
      __HAL_TIM_CLEAR_IT(htim, TIM_IT_CC3);
 8002bbe:	6119      	str	r1, [r3, #16]
      if ((htim->Instance->CCMR2 & TIM_CCMR2_CC3S) != 0x00U)
 8002bc0:	69db      	ldr	r3, [r3, #28]
        HAL_TIM_IC_CaptureCallback(htim);
 8002bc2:	4620      	mov	r0, r4
      if ((htim->Instance->CCMR2 & TIM_CCMR2_CC3S) != 0x00U)
 8002bc4:	0799      	lsls	r1, r3, #30
      htim->Channel = HAL_TIM_ACTIVE_CHANNEL_3;
 8002bc6:	7722      	strb	r2, [r4, #28]
      if ((htim->Instance->CCMR2 & TIM_CCMR2_CC3S) != 0x00U)
 8002bc8:	d152      	bne.n	8002c70 <HAL_TIM_IRQHandler+0x140>
        HAL_TIM_OC_DelayElapsedCallback(htim);
 8002bca:	f7ff ffa9 	bl	8002b20 <HAL_TIM_OC_DelayElapsedCallback>
        HAL_TIM_PWM_PulseFinishedCallback(htim);
 8002bce:	4620      	mov	r0, r4
 8002bd0:	f7ff ffaa 	bl	8002b28 <HAL_TIM_PWM_PulseFinishedCallback>
      htim->Channel = HAL_TIM_ACTIVE_CHANNEL_CLEARED;
 8002bd4:	2200      	movs	r2, #0
 8002bd6:	6823      	ldr	r3, [r4, #0]
 8002bd8:	7722      	strb	r2, [r4, #28]
 8002bda:	e7be      	b.n	8002b5a <HAL_TIM_IRQHandler+0x2a>
      __HAL_TIM_CLEAR_IT(htim, TIM_IT_CC2);
 8002bdc:	f06f 0104 	mvn.w	r1, #4
      htim->Channel = HAL_TIM_ACTIVE_CHANNEL_2;
 8002be0:	2202      	movs	r2, #2
      __HAL_TIM_CLEAR_IT(htim, TIM_IT_CC2);
 8002be2:	6119      	str	r1, [r3, #16]
      if ((htim->Instance->CCMR1 & TIM_CCMR1_CC2S) != 0x00U)
 8002be4:	699b      	ldr	r3, [r3, #24]
        HAL_TIM_IC_CaptureCallback(htim);
 8002be6:	4620      	mov	r0, r4
      if ((htim->Instance->CCMR1 & TIM_CCMR1_CC2S) != 0x00U)
 8002be8:	f413 7f40 	tst.w	r3, #768	; 0x300
      htim->Channel = HAL_TIM_ACTIVE_CHANNEL_2;
 8002bec:	7722      	strb	r2, [r4, #28]
      if ((htim->Instance->CCMR1 & TIM_CCMR1_CC2S) != 0x00U)
 8002bee:	d13c      	bne.n	8002c6a <HAL_TIM_IRQHandler+0x13a>
        HAL_TIM_OC_DelayElapsedCallback(htim);
 8002bf0:	f7ff ff96 	bl	8002b20 <HAL_TIM_OC_DelayElapsedCallback>
        HAL_TIM_PWM_PulseFinishedCallback(htim);
 8002bf4:	4620      	mov	r0, r4
 8002bf6:	f7ff ff97 	bl	8002b28 <HAL_TIM_PWM_PulseFinishedCallback>
      htim->Channel = HAL_TIM_ACTIVE_CHANNEL_CLEARED;
 8002bfa:	2200      	movs	r2, #0
 8002bfc:	6823      	ldr	r3, [r4, #0]
 8002bfe:	7722      	strb	r2, [r4, #28]
 8002c00:	e7a5      	b.n	8002b4e <HAL_TIM_IRQHandler+0x1e>
        __HAL_TIM_CLEAR_IT(htim, TIM_IT_CC1);
 8002c02:	f06f 0102 	mvn.w	r1, #2
        htim->Channel = HAL_TIM_ACTIVE_CHANNEL_1;
 8002c06:	2201      	movs	r2, #1
        __HAL_TIM_CLEAR_IT(htim, TIM_IT_CC1);
 8002c08:	6119      	str	r1, [r3, #16]
        if ((htim->Instance->CCMR1 & TIM_CCMR1_CC1S) != 0x00U)
 8002c0a:	699b      	ldr	r3, [r3, #24]
        htim->Channel = HAL_TIM_ACTIVE_CHANNEL_1;
 8002c0c:	7702      	strb	r2, [r0, #28]
        if ((htim->Instance->CCMR1 & TIM_CCMR1_CC1S) != 0x00U)
 8002c0e:	079b      	lsls	r3, r3, #30
 8002c10:	d025      	beq.n	8002c5e <HAL_TIM_IRQHandler+0x12e>
          HAL_TIM_IC_CaptureCallback(htim);
 8002c12:	f7ff ff87 	bl	8002b24 <HAL_TIM_IC_CaptureCallback>
        htim->Channel = HAL_TIM_ACTIVE_CHANNEL_CLEARED;
 8002c16:	2200      	movs	r2, #0
 8002c18:	6823      	ldr	r3, [r4, #0]
 8002c1a:	7722      	strb	r2, [r4, #28]
 8002c1c:	e791      	b.n	8002b42 <HAL_TIM_IRQHandler+0x12>
      __HAL_TIM_CLEAR_IT(htim, TIM_FLAG_COM);
 8002c1e:	f06f 0220 	mvn.w	r2, #32
      HAL_TIMEx_CommutCallback(htim);
 8002c22:	4620      	mov	r0, r4
}
 8002c24:	e8bd 4010 	ldmia.w	sp!, {r4, lr}
      __HAL_TIM_CLEAR_IT(htim, TIM_FLAG_COM);
 8002c28:	611a      	str	r2, [r3, #16]
      HAL_TIMEx_CommutCallback(htim);
 8002c2a:	f000 b82b 	b.w	8002c84 <HAL_TIMEx_CommutCallback>
      __HAL_TIM_CLEAR_IT(htim, TIM_IT_UPDATE);
 8002c2e:	f06f 0201 	mvn.w	r2, #1
      HAL_TIM_PeriodElapsedCallback(htim);
 8002c32:	4620      	mov	r0, r4
      __HAL_TIM_CLEAR_IT(htim, TIM_IT_UPDATE);
 8002c34:	611a      	str	r2, [r3, #16]
      HAL_TIM_PeriodElapsedCallback(htim);
 8002c36:	f7fd fdb5 	bl	80007a4 <HAL_TIM_PeriodElapsedCallback>
 8002c3a:	6823      	ldr	r3, [r4, #0]
 8002c3c:	e799      	b.n	8002b72 <HAL_TIM_IRQHandler+0x42>
      __HAL_TIM_CLEAR_IT(htim, TIM_IT_BREAK);
 8002c3e:	f06f 0280 	mvn.w	r2, #128	; 0x80
      HAL_TIMEx_BreakCallback(htim);
 8002c42:	4620      	mov	r0, r4
      __HAL_TIM_CLEAR_IT(htim, TIM_IT_BREAK);
 8002c44:	611a      	str	r2, [r3, #16]
      HAL_TIMEx_BreakCallback(htim);
 8002c46:	f000 f81f 	bl	8002c88 <HAL_TIMEx_BreakCallback>
 8002c4a:	6823      	ldr	r3, [r4, #0]
 8002c4c:	e797      	b.n	8002b7e <HAL_TIM_IRQHandler+0x4e>
      __HAL_TIM_CLEAR_IT(htim, TIM_IT_TRIGGER);
 8002c4e:	f06f 0240 	mvn.w	r2, #64	; 0x40
      HAL_TIM_TriggerCallback(htim);
 8002c52:	4620      	mov	r0, r4
      __HAL_TIM_CLEAR_IT(htim, TIM_IT_TRIGGER);
 8002c54:	611a      	str	r2, [r3, #16]
      HAL_TIM_TriggerCallback(htim);
 8002c56:	f7ff ff69 	bl	8002b2c <HAL_TIM_TriggerCallback>
 8002c5a:	6823      	ldr	r3, [r4, #0]
 8002c5c:	e795      	b.n	8002b8a <HAL_TIM_IRQHandler+0x5a>
          HAL_TIM_OC_DelayElapsedCallback(htim);
 8002c5e:	f7ff ff5f 	bl	8002b20 <HAL_TIM_OC_DelayElapsedCallback>
          HAL_TIM_PWM_PulseFinishedCallback(htim);
 8002c62:	4620      	mov	r0, r4
 8002c64:	f7ff ff60 	bl	8002b28 <HAL_TIM_PWM_PulseFinishedCallback>
 8002c68:	e7d5      	b.n	8002c16 <HAL_TIM_IRQHandler+0xe6>
        HAL_TIM_IC_CaptureCallback(htim);
 8002c6a:	f7ff ff5b 	bl	8002b24 <HAL_TIM_IC_CaptureCallback>
 8002c6e:	e7c4      	b.n	8002bfa <HAL_TIM_IRQHandler+0xca>
        HAL_TIM_IC_CaptureCallback(htim);
 8002c70:	f7ff ff58 	bl	8002b24 <HAL_TIM_IC_CaptureCallback>
 8002c74:	e7ae      	b.n	8002bd4 <HAL_TIM_IRQHandler+0xa4>
        HAL_TIM_OC_DelayElapsedCallback(htim);
 8002c76:	f7ff ff53 	bl	8002b20 <HAL_TIM_OC_DelayElapsedCallback>
        HAL_TIM_PWM_PulseFinishedCallback(htim);
 8002c7a:	4620      	mov	r0, r4
 8002c7c:	f7ff ff54 	bl	8002b28 <HAL_TIM_PWM_PulseFinishedCallback>
 8002c80:	e796      	b.n	8002bb0 <HAL_TIM_IRQHandler+0x80>
 8002c82:	bf00      	nop

08002c84 <HAL_TIMEx_CommutCallback>:
 8002c84:	4770      	bx	lr
 8002c86:	bf00      	nop

08002c88 <HAL_TIMEx_BreakCallback>:
 8002c88:	4770      	bx	lr
 8002c8a:	bf00      	nop

08002c8c <HAL_UART_Init>:
  * @retval HAL status
  */
HAL_StatusTypeDef HAL_UART_Init(UART_HandleTypeDef *huart)
{
  /* Check the UART handle allocation */
  if (huart == NULL)
 8002c8c:	2800      	cmp	r0, #0
 8002c8e:	d06a      	beq.n	8002d66 <HAL_UART_Init+0xda>
    assert_param(IS_UART_INSTANCE(huart->Instance));
  }
  assert_param(IS_UART_WORD_LENGTH(huart->Init.WordLength));
  assert_param(IS_UART_OVERSAMPLING(huart->Init.OverSampling));

  if (huart->gState == HAL_UART_STATE_RESET)
 8002c90:	f890 3039 	ldrb.w	r3, [r0, #57]	; 0x39
{
 8002c94:	b570      	push	{r4, r5, r6, lr}
  if (huart->gState == HAL_UART_STATE_RESET)
 8002c96:	f003 02ff 	and.w	r2, r3, #255	; 0xff
 8002c9a:	4604      	mov	r4, r0
 8002c9c:	2b00      	cmp	r3, #0
 8002c9e:	d05d      	beq.n	8002d5c <HAL_UART_Init+0xd0>
    /* Init the low level hardware : GPIO, CLOCK */
    HAL_UART_MspInit(huart);
#endif /* (USE_HAL_UART_REGISTER_CALLBACKS) */
  }

  huart->gState = HAL_UART_STATE_BUSY;
 8002ca0:	2224      	movs	r2, #36	; 0x24

  /* Disable the peripheral */
  __HAL_UART_DISABLE(huart);
 8002ca2:	6823      	ldr	r3, [r4, #0]
  huart->gState = HAL_UART_STATE_BUSY;
 8002ca4:	f884 2039 	strb.w	r2, [r4, #57]	; 0x39
  __HAL_UART_DISABLE(huart);
 8002ca8:	68da      	ldr	r2, [r3, #12]
  assert_param(IS_UART_MODE(huart->Init.Mode));

  /*-------------------------- USART CR2 Configuration -----------------------*/
  /* Configure the UART Stop Bits: Set STOP[13:12] bits
     according to huart->Init.StopBits value */
  MODIFY_REG(huart->Instance->CR2, USART_CR2_STOP, huart->Init.StopBits);
 8002caa:	68e0      	ldr	r0, [r4, #12]
  __HAL_UART_DISABLE(huart);
 8002cac:	f422 5200 	bic.w	r2, r2, #8192	; 0x2000
 8002cb0:	60da      	str	r2, [r3, #12]
  MODIFY_REG(huart->Instance->CR2, USART_CR2_STOP, huart->Init.StopBits);
 8002cb2:	6919      	ldr	r1, [r3, #16]
     Set the M bits according to huart->Init.WordLength value
     Set PCE and PS bits according to huart->Init.Parity value
     Set TE and RE bits according to huart->Init.Mode value
     Set OVER8 bit according to huart->Init.OverSampling value */

  tmpreg = (uint32_t)huart->Init.WordLength | huart->Init.Parity | huart->Init.Mode | huart->Init.OverSampling;
 8002cb4:	68a2      	ldr	r2, [r4, #8]
  MODIFY_REG(huart->Instance->CR2, USART_CR2_STOP, huart->Init.StopBits);
 8002cb6:	f421 5140 	bic.w	r1, r1, #12288	; 0x3000
 8002cba:	4301      	orrs	r1, r0
 8002cbc:	6119      	str	r1, [r3, #16]
  tmpreg = (uint32_t)huart->Init.WordLength | huart->Init.Parity | huart->Init.Mode | huart->Init.OverSampling;
 8002cbe:	6920      	ldr	r0, [r4, #16]
  MODIFY_REG(huart->Instance->CR1,
 8002cc0:	68d9      	ldr	r1, [r3, #12]
  tmpreg = (uint32_t)huart->Init.WordLength | huart->Init.Parity | huart->Init.Mode | huart->Init.OverSampling;
 8002cc2:	6965      	ldr	r5, [r4, #20]
 8002cc4:	4302      	orrs	r2, r0
 8002cc6:	69e0      	ldr	r0, [r4, #28]
  MODIFY_REG(huart->Instance->CR1,
 8002cc8:	f421 4116 	bic.w	r1, r1, #38400	; 0x9600
  tmpreg = (uint32_t)huart->Init.WordLength | huart->Init.Parity | huart->Init.Mode | huart->Init.OverSampling;
 8002ccc:	432a      	orrs	r2, r5
  MODIFY_REG(huart->Instance->CR1,
 8002cce:	f021 010c 	bic.w	r1, r1, #12
  tmpreg = (uint32_t)huart->Init.WordLength | huart->Init.Parity | huart->Init.Mode | huart->Init.OverSampling;
 8002cd2:	4302      	orrs	r2, r0
  MODIFY_REG(huart->Instance->CR1,
 8002cd4:	430a      	orrs	r2, r1
 8002cd6:	60da      	str	r2, [r3, #12]
             (uint32_t)(USART_CR1_M | USART_CR1_PCE | USART_CR1_PS | USART_CR1_TE | USART_CR1_RE | USART_CR1_OVER8),
             tmpreg);

  /*-------------------------- USART CR3 Configuration -----------------------*/
  /* Configure the UART HFC: Set CTSE and RTSE bits according to huart->Init.HwFlowCtl value */
  MODIFY_REG(huart->Instance->CR3, (USART_CR3_RTSE | USART_CR3_CTSE), huart->Init.HwFlowCtl);
 8002cd8:	695a      	ldr	r2, [r3, #20]
 8002cda:	69a0      	ldr	r0, [r4, #24]


  if((huart->Instance == USART1) || (huart->Instance == USART6))
 8002cdc:	492f      	ldr	r1, [pc, #188]	; (8002d9c <HAL_UART_Init+0x110>)
  MODIFY_REG(huart->Instance->CR3, (USART_CR3_RTSE | USART_CR3_CTSE), huart->Init.HwFlowCtl);
 8002cde:	f422 7240 	bic.w	r2, r2, #768	; 0x300
 8002ce2:	4302      	orrs	r2, r0
  if((huart->Instance == USART1) || (huart->Instance == USART6))
 8002ce4:	428b      	cmp	r3, r1
  MODIFY_REG(huart->Instance->CR3, (USART_CR3_RTSE | USART_CR3_CTSE), huart->Init.HwFlowCtl);
 8002ce6:	615a      	str	r2, [r3, #20]
  if((huart->Instance == USART1) || (huart->Instance == USART6))
 8002ce8:	d035      	beq.n	8002d56 <HAL_UART_Init+0xca>
 8002cea:	4a2d      	ldr	r2, [pc, #180]	; (8002da0 <HAL_UART_Init+0x114>)
 8002cec:	4293      	cmp	r3, r2
 8002cee:	d032      	beq.n	8002d56 <HAL_UART_Init+0xca>
  {
    pclk = HAL_RCC_GetPCLK2Freq();
  }
  else
  {
    pclk = HAL_RCC_GetPCLK1Freq();
 8002cf0:	f7fe ff26 	bl	8001b40 <HAL_RCC_GetPCLK1Freq>
 8002cf4:	e9d4 3200 	ldrd	r3, r2, [r4]
  }

  /*-------------------------- USART BRR Configuration ---------------------*/
  if (huart->Init.OverSampling == UART_OVERSAMPLING_8)
 8002cf8:	69e1      	ldr	r1, [r4, #28]
 8002cfa:	eb00 0080 	add.w	r0, r0, r0, lsl #2
 8002cfe:	f5b1 4f00 	cmp.w	r1, #32768	; 0x8000
 8002d02:	eb00 0080 	add.w	r0, r0, r0, lsl #2
 8002d06:	d030      	beq.n	8002d6a <HAL_UART_Init+0xde>
  {
    huart->Instance->BRR = UART_BRR_SAMPLING8(pclk, huart->Init.BaudRate);
  }
  else
  {
    huart->Instance->BRR = UART_BRR_SAMPLING16(pclk, huart->Init.BaudRate);
 8002d08:	0092      	lsls	r2, r2, #2
 8002d0a:	fbb0 f0f2 	udiv	r0, r0, r2
 8002d0e:	2264      	movs	r2, #100	; 0x64
 8002d10:	4d24      	ldr	r5, [pc, #144]	; (8002da4 <HAL_UART_Init+0x118>)
 8002d12:	fba5 6100 	umull	r6, r1, r5, r0
 8002d16:	0949      	lsrs	r1, r1, #5
 8002d18:	fb02 0011 	mls	r0, r2, r1, r0
 8002d1c:	0100      	lsls	r0, r0, #4
 8002d1e:	3032      	adds	r0, #50	; 0x32
 8002d20:	fba5 2000 	umull	r2, r0, r5, r0
 8002d24:	0109      	lsls	r1, r1, #4
 8002d26:	eb01 1050 	add.w	r0, r1, r0, lsr #5
 8002d2a:	6098      	str	r0, [r3, #8]
  huart->ErrorCode = HAL_UART_ERROR_NONE;
 8002d2c:	2500      	movs	r5, #0
  huart->gState = HAL_UART_STATE_READY;
 8002d2e:	2120      	movs	r1, #32
  CLEAR_BIT(huart->Instance->CR2, (USART_CR2_LINEN | USART_CR2_CLKEN));
 8002d30:	691a      	ldr	r2, [r3, #16]
  return HAL_OK;
 8002d32:	4628      	mov	r0, r5
  CLEAR_BIT(huart->Instance->CR2, (USART_CR2_LINEN | USART_CR2_CLKEN));
 8002d34:	f422 4290 	bic.w	r2, r2, #18432	; 0x4800
 8002d38:	611a      	str	r2, [r3, #16]
  CLEAR_BIT(huart->Instance->CR3, (USART_CR3_SCEN | USART_CR3_HDSEL | USART_CR3_IREN));
 8002d3a:	695a      	ldr	r2, [r3, #20]
 8002d3c:	f022 022a 	bic.w	r2, r2, #42	; 0x2a
 8002d40:	615a      	str	r2, [r3, #20]
  __HAL_UART_ENABLE(huart);
 8002d42:	68da      	ldr	r2, [r3, #12]
 8002d44:	f442 5200 	orr.w	r2, r2, #8192	; 0x2000
 8002d48:	60da      	str	r2, [r3, #12]
  huart->ErrorCode = HAL_UART_ERROR_NONE;
 8002d4a:	63e5      	str	r5, [r4, #60]	; 0x3c
  huart->gState = HAL_UART_STATE_READY;
 8002d4c:	f884 1039 	strb.w	r1, [r4, #57]	; 0x39
  huart->RxState = HAL_UART_STATE_READY;
 8002d50:	f884 103a 	strb.w	r1, [r4, #58]	; 0x3a
}
 8002d54:	bd70      	pop	{r4, r5, r6, pc}
    pclk = HAL_RCC_GetPCLK2Freq();
 8002d56:	f7fe ff0b 	bl	8001b70 <HAL_RCC_GetPCLK2Freq>
 8002d5a:	e7cb      	b.n	8002cf4 <HAL_UART_Init+0x68>
    huart->Lock = HAL_UNLOCKED;
 8002d5c:	f880 2038 	strb.w	r2, [r0, #56]	; 0x38
    HAL_UART_MspInit(huart);
 8002d60:	f7fd fff8 	bl	8000d54 <HAL_UART_MspInit>
 8002d64:	e79c      	b.n	8002ca0 <HAL_UART_Init+0x14>
    return HAL_ERROR;
 8002d66:	2001      	movs	r0, #1
}
 8002d68:	4770      	bx	lr
    huart->Instance->BRR = UART_BRR_SAMPLING8(pclk, huart->Init.BaudRate);
 8002d6a:	0052      	lsls	r2, r2, #1
 8002d6c:	fbb0 f0f2 	udiv	r0, r0, r2
 8002d70:	2264      	movs	r2, #100	; 0x64
 8002d72:	4e0c      	ldr	r6, [pc, #48]	; (8002da4 <HAL_UART_Init+0x118>)
 8002d74:	fba6 5100 	umull	r5, r1, r6, r0
 8002d78:	094d      	lsrs	r5, r1, #5
 8002d7a:	fb02 0015 	mls	r0, r2, r5, r0
 8002d7e:	00c2      	lsls	r2, r0, #3
 8002d80:	3232      	adds	r2, #50	; 0x32
 8002d82:	fba6 1202 	umull	r1, r2, r6, r2
 8002d86:	0952      	lsrs	r2, r2, #5
 8002d88:	f002 0107 	and.w	r1, r2, #7
 8002d8c:	0052      	lsls	r2, r2, #1
 8002d8e:	eb01 1105 	add.w	r1, r1, r5, lsl #4
 8002d92:	f402 72f8 	and.w	r2, r2, #496	; 0x1f0
 8002d96:	440a      	add	r2, r1
 8002d98:	609a      	str	r2, [r3, #8]
 8002d9a:	e7c7      	b.n	8002d2c <HAL_UART_Init+0xa0>
 8002d9c:	40011000 	.word	0x40011000
 8002da0:	40011400 	.word	0x40011400
 8002da4:	51eb851f 	.word	0x51eb851f

08002da8 <SDMMC_GetCmdResp1.part.2>:
  }
  
  /* We have received response, retrieve it for analysis  */
  response_r1 = SDIO_GetResponse(SDIOx, SDIO_RESP1);
  
  if((response_r1 & SDMMC_OCR_ERRORBITS) == SDMMC_ALLZERO)
 8002da8:	4b30      	ldr	r3, [pc, #192]	; (8002e6c <SDMMC_GetCmdResp1.part.2+0xc4>)
  return (*(__IO uint32_t *) tmp);
 8002daa:	6942      	ldr	r2, [r0, #20]
  if((response_r1 & SDMMC_OCR_ERRORBITS) == SDMMC_ALLZERO)
 8002dac:	4013      	ands	r3, r2
 8002dae:	b34b      	cbz	r3, 8002e04 <SDMMC_GetCmdResp1.part.2+0x5c>
  {
    return SDMMC_ERROR_NONE;
  }
  else if((response_r1 & SDMMC_OCR_ADDR_OUT_OF_RANGE) == SDMMC_OCR_ADDR_OUT_OF_RANGE)
 8002db0:	2a00      	cmp	r2, #0
 8002db2:	db29      	blt.n	8002e08 <SDMMC_GetCmdResp1.part.2+0x60>
  {
    return SDMMC_ERROR_ADDR_OUT_OF_RANGE;
  }
  else if((response_r1 & SDMMC_OCR_ADDR_MISALIGNED) == SDMMC_OCR_ADDR_MISALIGNED)
 8002db4:	0051      	lsls	r1, r2, #1
 8002db6:	d42d      	bmi.n	8002e14 <SDMMC_GetCmdResp1.part.2+0x6c>
  {
    return SDMMC_ERROR_ADDR_MISALIGNED;
  }
  else if((response_r1 & SDMMC_OCR_BLOCK_LEN_ERR) == SDMMC_OCR_BLOCK_LEN_ERR)
 8002db8:	0093      	lsls	r3, r2, #2
 8002dba:	d42d      	bmi.n	8002e18 <SDMMC_GetCmdResp1.part.2+0x70>
  {
    return SDMMC_ERROR_BLOCK_LEN_ERR;
  }
  else if((response_r1 & SDMMC_OCR_ERASE_SEQ_ERR) == SDMMC_OCR_ERASE_SEQ_ERR)
 8002dbc:	00d1      	lsls	r1, r2, #3
 8002dbe:	d426      	bmi.n	8002e0e <SDMMC_GetCmdResp1.part.2+0x66>
  {
    return SDMMC_ERROR_ERASE_SEQ_ERR;
  }
  else if((response_r1 & SDMMC_OCR_BAD_ERASE_PARAM) == SDMMC_OCR_BAD_ERASE_PARAM)
 8002dc0:	0113      	lsls	r3, r2, #4
 8002dc2:	d42e      	bmi.n	8002e22 <SDMMC_GetCmdResp1.part.2+0x7a>
  {
    return SDMMC_ERROR_BAD_ERASE_PARAM;
  }
  else if((response_r1 & SDMMC_OCR_WRITE_PROT_VIOLATION) == SDMMC_OCR_WRITE_PROT_VIOLATION)
 8002dc4:	0151      	lsls	r1, r2, #5
 8002dc6:	d42f      	bmi.n	8002e28 <SDMMC_GetCmdResp1.part.2+0x80>
  {
    return SDMMC_ERROR_WRITE_PROT_VIOLATION;
  }
  else if((response_r1 & SDMMC_OCR_LOCK_UNLOCK_FAILED) == SDMMC_OCR_LOCK_UNLOCK_FAILED)
 8002dc8:	01d3      	lsls	r3, r2, #7
 8002dca:	d427      	bmi.n	8002e1c <SDMMC_GetCmdResp1.part.2+0x74>
  {
    return SDMMC_ERROR_LOCK_UNLOCK_FAILED;
  }
  else if((response_r1 & SDMMC_OCR_COM_CRC_FAILED) == SDMMC_OCR_COM_CRC_FAILED)
 8002dcc:	0211      	lsls	r1, r2, #8
 8002dce:	d42e      	bmi.n	8002e2e <SDMMC_GetCmdResp1.part.2+0x86>
  {
    return SDMMC_ERROR_COM_CRC_FAILED;
  }
  else if((response_r1 & SDMMC_OCR_ILLEGAL_CMD) == SDMMC_OCR_ILLEGAL_CMD)
 8002dd0:	0253      	lsls	r3, r2, #9
 8002dd2:	d42f      	bmi.n	8002e34 <SDMMC_GetCmdResp1.part.2+0x8c>
  {
    return SDMMC_ERROR_ILLEGAL_CMD;
  }
  else if((response_r1 & SDMMC_OCR_CARD_ECC_FAILED) == SDMMC_OCR_CARD_ECC_FAILED)
 8002dd4:	0291      	lsls	r1, r2, #10
 8002dd6:	d430      	bmi.n	8002e3a <SDMMC_GetCmdResp1.part.2+0x92>
  {
    return SDMMC_ERROR_CARD_ECC_FAILED;
  }
  else if((response_r1 & SDMMC_OCR_CC_ERROR) == SDMMC_OCR_CC_ERROR)
 8002dd8:	02d3      	lsls	r3, r2, #11
 8002dda:	d431      	bmi.n	8002e40 <SDMMC_GetCmdResp1.part.2+0x98>
  {
    return SDMMC_ERROR_CC_ERR;
  }
  else if((response_r1 & SDMMC_OCR_STREAM_READ_UNDERRUN) == SDMMC_OCR_STREAM_READ_UNDERRUN)
 8002ddc:	0351      	lsls	r1, r2, #13
 8002dde:	d432      	bmi.n	8002e46 <SDMMC_GetCmdResp1.part.2+0x9e>
  {
    return SDMMC_ERROR_STREAM_READ_UNDERRUN;
  }
  else if((response_r1 & SDMMC_OCR_STREAM_WRITE_OVERRUN) == SDMMC_OCR_STREAM_WRITE_OVERRUN)
 8002de0:	0393      	lsls	r3, r2, #14
 8002de2:	d433      	bmi.n	8002e4c <SDMMC_GetCmdResp1.part.2+0xa4>
  {
    return SDMMC_ERROR_STREAM_WRITE_OVERRUN;
  }
  else if((response_r1 & SDMMC_OCR_CID_CSD_OVERWRITE) == SDMMC_OCR_CID_CSD_OVERWRITE)
 8002de4:	03d1      	lsls	r1, r2, #15
 8002de6:	d434      	bmi.n	8002e52 <SDMMC_GetCmdResp1.part.2+0xaa>
  {
    return SDMMC_ERROR_CID_CSD_OVERWRITE;
  }
  else if((response_r1 & SDMMC_OCR_WP_ERASE_SKIP) == SDMMC_OCR_WP_ERASE_SKIP)
 8002de8:	0413      	lsls	r3, r2, #16
 8002dea:	d435      	bmi.n	8002e58 <SDMMC_GetCmdResp1.part.2+0xb0>
  {
    return SDMMC_ERROR_WP_ERASE_SKIP;
  }
  else if((response_r1 & SDMMC_OCR_CARD_ECC_DISABLED) == SDMMC_OCR_CARD_ECC_DISABLED)
 8002dec:	0451      	lsls	r1, r2, #17
 8002dee:	d436      	bmi.n	8002e5e <SDMMC_GetCmdResp1.part.2+0xb6>
  {
    return SDMMC_ERROR_CARD_ECC_DISABLED;
  }
  else if((response_r1 & SDMMC_OCR_ERASE_RESET) == SDMMC_OCR_ERASE_RESET)
 8002df0:	0493      	lsls	r3, r2, #18
 8002df2:	d437      	bmi.n	8002e64 <SDMMC_GetCmdResp1.part.2+0xbc>
  {
    return SDMMC_ERROR_ERASE_RESET;
  }
  else if((response_r1 & SDMMC_OCR_AKE_SEQ_ERROR) == SDMMC_OCR_AKE_SEQ_ERROR)
 8002df4:	f012 0f08 	tst.w	r2, #8
  {
    return SDMMC_ERROR_AKE_SEQ_ERR;
  }
  else
  {
    return SDMMC_ERROR_GENERAL_UNKNOWN_ERR;
 8002df8:	bf14      	ite	ne
 8002dfa:	f44f 0000 	movne.w	r0, #8388608	; 0x800000
 8002dfe:	f44f 3080 	moveq.w	r0, #65536	; 0x10000
 8002e02:	4770      	bx	lr
    return SDMMC_ERROR_NONE;
 8002e04:	4618      	mov	r0, r3
 8002e06:	4770      	bx	lr
    return SDMMC_ERROR_ADDR_OUT_OF_RANGE;
 8002e08:	f04f 7000 	mov.w	r0, #33554432	; 0x2000000
 8002e0c:	4770      	bx	lr
    return SDMMC_ERROR_ERASE_SEQ_ERR;
 8002e0e:	f44f 7080 	mov.w	r0, #256	; 0x100
 8002e12:	4770      	bx	lr
    return SDMMC_ERROR_ADDR_MISALIGNED;
 8002e14:	2040      	movs	r0, #64	; 0x40
 8002e16:	4770      	bx	lr
    return SDMMC_ERROR_BLOCK_LEN_ERR;
 8002e18:	2080      	movs	r0, #128	; 0x80
 8002e1a:	4770      	bx	lr
    return SDMMC_ERROR_LOCK_UNLOCK_FAILED;
 8002e1c:	f44f 6000 	mov.w	r0, #2048	; 0x800
 8002e20:	4770      	bx	lr
    return SDMMC_ERROR_BAD_ERASE_PARAM;
 8002e22:	f44f 7000 	mov.w	r0, #512	; 0x200
 8002e26:	4770      	bx	lr
    return SDMMC_ERROR_WRITE_PROT_VIOLATION;
 8002e28:	f44f 6080 	mov.w	r0, #1024	; 0x400
 8002e2c:	4770      	bx	lr
    return SDMMC_ERROR_COM_CRC_FAILED;
 8002e2e:	f44f 5080 	mov.w	r0, #4096	; 0x1000
 8002e32:	4770      	bx	lr
    return SDMMC_ERROR_ILLEGAL_CMD;
 8002e34:	f44f 5000 	mov.w	r0, #8192	; 0x2000
 8002e38:	4770      	bx	lr
    return SDMMC_ERROR_CARD_ECC_FAILED;
 8002e3a:	f44f 4080 	mov.w	r0, #16384	; 0x4000
 8002e3e:	4770      	bx	lr
    return SDMMC_ERROR_CC_ERR;
 8002e40:	f44f 4000 	mov.w	r0, #32768	; 0x8000
 8002e44:	4770      	bx	lr
    return SDMMC_ERROR_STREAM_READ_UNDERRUN;
 8002e46:	f44f 3000 	mov.w	r0, #131072	; 0x20000
 8002e4a:	4770      	bx	lr
    return SDMMC_ERROR_STREAM_WRITE_OVERRUN;
 8002e4c:	f44f 2080 	mov.w	r0, #262144	; 0x40000
 8002e50:	4770      	bx	lr
    return SDMMC_ERROR_CID_CSD_OVERWRITE;
 8002e52:	f44f 2000 	mov.w	r0, #524288	; 0x80000
 8002e56:	4770      	bx	lr
    return SDMMC_ERROR_WP_ERASE_SKIP;
 8002e58:	f44f 1080 	mov.w	r0, #1048576	; 0x100000
 8002e5c:	4770      	bx	lr
    return SDMMC_ERROR_CARD_ECC_DISABLED;
 8002e5e:	f44f 1000 	mov.w	r0, #2097152	; 0x200000
 8002e62:	4770      	bx	lr
    return SDMMC_ERROR_ERASE_RESET;
 8002e64:	f44f 0080 	mov.w	r0, #4194304	; 0x400000
  }
}
 8002e68:	4770      	bx	lr
 8002e6a:	bf00      	nop
 8002e6c:	fdffe008 	.word	0xfdffe008

08002e70 <SDIO_Init>:
{
 8002e70:	b084      	sub	sp, #16
 8002e72:	b410      	push	{r4}
 8002e74:	ac02      	add	r4, sp, #8
 8002e76:	e884 000e 	stmia.w	r4, {r1, r2, r3}
  tmpreg |= (Init.ClockEdge           |\
 8002e7a:	460b      	mov	r3, r1
             Init.ClockBypass         |\
 8002e7c:	e9dd 1203 	ldrd	r1, r2, [sp, #12]
  tmpreg |= (Init.ClockEdge           |\
 8002e80:	430b      	orrs	r3, r1
             Init.ClockPowerSave      |\
 8002e82:	9905      	ldr	r1, [sp, #20]
             Init.BusWide             |\
 8002e84:	9c06      	ldr	r4, [sp, #24]
             Init.ClockBypass         |\
 8002e86:	4313      	orrs	r3, r2
  MODIFY_REG(SDIOx->CLKCR, CLKCR_CLEAR_MASK, tmpreg);  
 8002e88:	6842      	ldr	r2, [r0, #4]
             Init.ClockPowerSave      |\
 8002e8a:	430b      	orrs	r3, r1
             Init.HardwareFlowControl |\
 8002e8c:	9907      	ldr	r1, [sp, #28]
             Init.BusWide             |\
 8002e8e:	4323      	orrs	r3, r4
  MODIFY_REG(SDIOx->CLKCR, CLKCR_CLEAR_MASK, tmpreg);  
 8002e90:	f422 42fd 	bic.w	r2, r2, #32384	; 0x7e80
             Init.HardwareFlowControl |\
 8002e94:	430b      	orrs	r3, r1
  MODIFY_REG(SDIOx->CLKCR, CLKCR_CLEAR_MASK, tmpreg);  
 8002e96:	f022 027f 	bic.w	r2, r2, #127	; 0x7f
}
 8002e9a:	bc10      	pop	{r4}
  MODIFY_REG(SDIOx->CLKCR, CLKCR_CLEAR_MASK, tmpreg);  
 8002e9c:	4313      	orrs	r3, r2
 8002e9e:	6043      	str	r3, [r0, #4]
}
 8002ea0:	b004      	add	sp, #16
 8002ea2:	2000      	movs	r0, #0
 8002ea4:	4770      	bx	lr
 8002ea6:	bf00      	nop

08002ea8 <SDIO_ReadFIFO>:
  return (SDIOx->FIFO);
 8002ea8:	f8d0 0080 	ldr.w	r0, [r0, #128]	; 0x80
}
 8002eac:	4770      	bx	lr
 8002eae:	bf00      	nop

08002eb0 <SDIO_WriteFIFO>:
{ 
 8002eb0:	4603      	mov	r3, r0
  SDIOx->FIFO = *pWriteData;
 8002eb2:	680a      	ldr	r2, [r1, #0]
}
 8002eb4:	2000      	movs	r0, #0
  SDIOx->FIFO = *pWriteData;
 8002eb6:	f8c3 2080 	str.w	r2, [r3, #128]	; 0x80
}
 8002eba:	4770      	bx	lr

08002ebc <SDIO_PowerState_ON>:
{  
 8002ebc:	b508      	push	{r3, lr}
  SDIOx->POWER = SDIO_POWER_PWRCTRL;
 8002ebe:	2203      	movs	r2, #3
{  
 8002ec0:	4603      	mov	r3, r0
  HAL_Delay(2);
 8002ec2:	2002      	movs	r0, #2
  SDIOx->POWER = SDIO_POWER_PWRCTRL;
 8002ec4:	601a      	str	r2, [r3, #0]
  HAL_Delay(2);
 8002ec6:	f7fe f89b 	bl	8001000 <HAL_Delay>
}
 8002eca:	2000      	movs	r0, #0
 8002ecc:	bd08      	pop	{r3, pc}
 8002ece:	bf00      	nop

08002ed0 <SDIO_GetPowerState>:
  return (SDIOx->POWER & SDIO_POWER_PWRCTRL);
 8002ed0:	6800      	ldr	r0, [r0, #0]
}
 8002ed2:	f000 0003 	and.w	r0, r0, #3
 8002ed6:	4770      	bx	lr

08002ed8 <SDIO_GetResponse>:
  tmp = (uint32_t)(&(SDIOx->RESP1)) + Response;
 8002ed8:	3014      	adds	r0, #20
  return (*(__IO uint32_t *) tmp);
 8002eda:	5840      	ldr	r0, [r0, r1]
}  
 8002edc:	4770      	bx	lr
 8002ede:	bf00      	nop

08002ee0 <SDIO_ConfigData>:
{
 8002ee0:	b430      	push	{r4, r5}
  SDIOx->DLEN = Data->DataLength;
 8002ee2:	e9d1 4200 	ldrd	r4, r2, [r1]
  tmpreg |= (uint32_t)(Data->DataBlockSize |\
 8002ee6:	e9d1 3502 	ldrd	r3, r5, [r1, #8]
  SDIOx->DTIMER = Data->DataTimeOut;
 8002eea:	6244      	str	r4, [r0, #36]	; 0x24
                       Data->TransferDir   |\
 8002eec:	690c      	ldr	r4, [r1, #16]
  SDIOx->DLEN = Data->DataLength;
 8002eee:	6282      	str	r2, [r0, #40]	; 0x28
  MODIFY_REG(SDIOx->DCTRL, DCTRL_CLEAR_MASK, tmpreg);
 8002ef0:	6ac2      	ldr	r2, [r0, #44]	; 0x2c
  tmpreg |= (uint32_t)(Data->DataBlockSize |\
 8002ef2:	432b      	orrs	r3, r5
                       Data->TransferMode  |\
 8002ef4:	6949      	ldr	r1, [r1, #20]
                       Data->TransferDir   |\
 8002ef6:	4323      	orrs	r3, r4
  MODIFY_REG(SDIOx->DCTRL, DCTRL_CLEAR_MASK, tmpreg);
 8002ef8:	f022 02f7 	bic.w	r2, r2, #247	; 0xf7
                       Data->TransferMode  |\
 8002efc:	430b      	orrs	r3, r1
  MODIFY_REG(SDIOx->DCTRL, DCTRL_CLEAR_MASK, tmpreg);
 8002efe:	4313      	orrs	r3, r2
 8002f00:	62c3      	str	r3, [r0, #44]	; 0x2c
}
 8002f02:	bc30      	pop	{r4, r5}
 8002f04:	2000      	movs	r0, #0
 8002f06:	4770      	bx	lr

08002f08 <SDMMC_CmdBlockLength>:
  register uint32_t count = Timeout * (SystemCoreClock / 8U /1000U);
 8002f08:	f241 3388 	movw	r3, #5000	; 0x1388
 8002f0c:	4a1c      	ldr	r2, [pc, #112]	; (8002f80 <SDMMC_CmdBlockLength+0x78>)
{
 8002f0e:	b410      	push	{r4}
  register uint32_t count = Timeout * (SystemCoreClock / 8U /1000U);
 8002f10:	6812      	ldr	r2, [r2, #0]
 8002f12:	4c1c      	ldr	r4, [pc, #112]	; (8002f84 <SDMMC_CmdBlockLength+0x7c>)
  SDIOx->ARG = Command->Argument;
 8002f14:	6081      	str	r1, [r0, #8]
  register uint32_t count = Timeout * (SystemCoreClock / 8U /1000U);
 8002f16:	fba4 2102 	umull	r2, r1, r4, r2
  MODIFY_REG(SDIOx->CMD, CMD_CLEAR_MASK, tmpreg); 
 8002f1a:	68c2      	ldr	r2, [r0, #12]
  register uint32_t count = Timeout * (SystemCoreClock / 8U /1000U);
 8002f1c:	0a49      	lsrs	r1, r1, #9
  MODIFY_REG(SDIOx->CMD, CMD_CLEAR_MASK, tmpreg); 
 8002f1e:	f422 627f 	bic.w	r2, r2, #4080	; 0xff0
  register uint32_t count = Timeout * (SystemCoreClock / 8U /1000U);
 8002f22:	fb03 f301 	mul.w	r3, r3, r1
  MODIFY_REG(SDIOx->CMD, CMD_CLEAR_MASK, tmpreg); 
 8002f26:	f022 020f 	bic.w	r2, r2, #15
 8002f2a:	f442 628a 	orr.w	r2, r2, #1104	; 0x450
 8002f2e:	60c2      	str	r2, [r0, #12]
    if (count-- == 0U)
 8002f30:	f113 33ff 	adds.w	r3, r3, #4294967295
 8002f34:	d313      	bcc.n	8002f5e <SDMMC_CmdBlockLength+0x56>
    sta_reg = SDIOx->STA;
 8002f36:	6b42      	ldr	r2, [r0, #52]	; 0x34
         ((sta_reg & SDIO_FLAG_CMDACT) != 0U ));
 8002f38:	f012 0f45 	tst.w	r2, #69	; 0x45
 8002f3c:	d0f8      	beq.n	8002f30 <SDMMC_CmdBlockLength+0x28>
  }while(((sta_reg & (SDIO_FLAG_CCRCFAIL | SDIO_FLAG_CMDREND | SDIO_FLAG_CTIMEOUT)) == 0U) ||
 8002f3e:	0511      	lsls	r1, r2, #20
 8002f40:	d4f6      	bmi.n	8002f30 <SDMMC_CmdBlockLength+0x28>
  if(__SDIO_GET_FLAG(SDIOx, SDIO_FLAG_CTIMEOUT))
 8002f42:	6b43      	ldr	r3, [r0, #52]	; 0x34
 8002f44:	075a      	lsls	r2, r3, #29
 8002f46:	d413      	bmi.n	8002f70 <SDMMC_CmdBlockLength+0x68>
  else if(__SDIO_GET_FLAG(SDIOx, SDIO_FLAG_CCRCFAIL))
 8002f48:	6b43      	ldr	r3, [r0, #52]	; 0x34
 8002f4a:	07db      	lsls	r3, r3, #31
 8002f4c:	d40b      	bmi.n	8002f66 <SDMMC_CmdBlockLength+0x5e>
  __SDIO_CLEAR_FLAG(SDIOx, SDIO_STATIC_CMD_FLAGS);
 8002f4e:	23c5      	movs	r3, #197	; 0xc5
 8002f50:	6383      	str	r3, [r0, #56]	; 0x38
  return (uint8_t)(SDIOx->RESPCMD);
 8002f52:	6903      	ldr	r3, [r0, #16]
  if(SDIO_GetCommandResponse(SDIOx) != SD_CMD)
 8002f54:	b2db      	uxtb	r3, r3
 8002f56:	2b10      	cmp	r3, #16
 8002f58:	d00e      	beq.n	8002f78 <SDMMC_CmdBlockLength+0x70>
    return SDMMC_ERROR_CMD_CRC_FAIL;
 8002f5a:	2001      	movs	r0, #1
  return errorstate;
 8002f5c:	e001      	b.n	8002f62 <SDMMC_CmdBlockLength+0x5a>
      return SDMMC_ERROR_TIMEOUT;
 8002f5e:	f04f 4000 	mov.w	r0, #2147483648	; 0x80000000
}
 8002f62:	bc10      	pop	{r4}
 8002f64:	4770      	bx	lr
    __SDIO_CLEAR_FLAG(SDIOx, SDIO_FLAG_CCRCFAIL);
 8002f66:	2301      	movs	r3, #1
}
 8002f68:	bc10      	pop	{r4}
    __SDIO_CLEAR_FLAG(SDIOx, SDIO_FLAG_CCRCFAIL);
 8002f6a:	6383      	str	r3, [r0, #56]	; 0x38
    return SDMMC_ERROR_CMD_CRC_FAIL;
 8002f6c:	4618      	mov	r0, r3
}
 8002f6e:	4770      	bx	lr
    __SDIO_CLEAR_FLAG(SDIOx, SDIO_FLAG_CTIMEOUT);
 8002f70:	2304      	movs	r3, #4
 8002f72:	6383      	str	r3, [r0, #56]	; 0x38
    return SDMMC_ERROR_CMD_RSP_TIMEOUT;
 8002f74:	4618      	mov	r0, r3
 8002f76:	e7f4      	b.n	8002f62 <SDMMC_CmdBlockLength+0x5a>
}
 8002f78:	bc10      	pop	{r4}
 8002f7a:	f7ff bf15 	b.w	8002da8 <SDMMC_GetCmdResp1.part.2>
 8002f7e:	bf00      	nop
 8002f80:	20000000 	.word	0x20000000
 8002f84:	10624dd3 	.word	0x10624dd3

08002f88 <SDMMC_CmdReadSingleBlock>:
  register uint32_t count = Timeout * (SystemCoreClock / 8U /1000U);
 8002f88:	f241 3388 	movw	r3, #5000	; 0x1388
 8002f8c:	4a1d      	ldr	r2, [pc, #116]	; (8003004 <SDMMC_CmdReadSingleBlock+0x7c>)
{
 8002f8e:	b410      	push	{r4}
  register uint32_t count = Timeout * (SystemCoreClock / 8U /1000U);
 8002f90:	6812      	ldr	r2, [r2, #0]
 8002f92:	4c1d      	ldr	r4, [pc, #116]	; (8003008 <SDMMC_CmdReadSingleBlock+0x80>)
  SDIOx->ARG = Command->Argument;
 8002f94:	6081      	str	r1, [r0, #8]
  register uint32_t count = Timeout * (SystemCoreClock / 8U /1000U);
 8002f96:	fba4 2102 	umull	r2, r1, r4, r2
  MODIFY_REG(SDIOx->CMD, CMD_CLEAR_MASK, tmpreg); 
 8002f9a:	68c2      	ldr	r2, [r0, #12]
  register uint32_t count = Timeout * (SystemCoreClock / 8U /1000U);
 8002f9c:	0a49      	lsrs	r1, r1, #9
  MODIFY_REG(SDIOx->CMD, CMD_CLEAR_MASK, tmpreg); 
 8002f9e:	f422 627f 	bic.w	r2, r2, #4080	; 0xff0
 8002fa2:	f022 020f 	bic.w	r2, r2, #15
  register uint32_t count = Timeout * (SystemCoreClock / 8U /1000U);
 8002fa6:	fb03 f301 	mul.w	r3, r3, r1
  MODIFY_REG(SDIOx->CMD, CMD_CLEAR_MASK, tmpreg); 
 8002faa:	f442 628a 	orr.w	r2, r2, #1104	; 0x450
 8002fae:	f042 0201 	orr.w	r2, r2, #1
 8002fb2:	60c2      	str	r2, [r0, #12]
    if (count-- == 0U)
 8002fb4:	f113 33ff 	adds.w	r3, r3, #4294967295
 8002fb8:	d313      	bcc.n	8002fe2 <SDMMC_CmdReadSingleBlock+0x5a>
    sta_reg = SDIOx->STA;
 8002fba:	6b42      	ldr	r2, [r0, #52]	; 0x34
         ((sta_reg & SDIO_FLAG_CMDACT) != 0U ));
 8002fbc:	f012 0f45 	tst.w	r2, #69	; 0x45
 8002fc0:	d0f8      	beq.n	8002fb4 <SDMMC_CmdReadSingleBlock+0x2c>
  }while(((sta_reg & (SDIO_FLAG_CCRCFAIL | SDIO_FLAG_CMDREND | SDIO_FLAG_CTIMEOUT)) == 0U) ||
 8002fc2:	0511      	lsls	r1, r2, #20
 8002fc4:	d4f6      	bmi.n	8002fb4 <SDMMC_CmdReadSingleBlock+0x2c>
  if(__SDIO_GET_FLAG(SDIOx, SDIO_FLAG_CTIMEOUT))
 8002fc6:	6b43      	ldr	r3, [r0, #52]	; 0x34
 8002fc8:	075a      	lsls	r2, r3, #29
 8002fca:	d413      	bmi.n	8002ff4 <SDMMC_CmdReadSingleBlock+0x6c>
  else if(__SDIO_GET_FLAG(SDIOx, SDIO_FLAG_CCRCFAIL))
 8002fcc:	6b43      	ldr	r3, [r0, #52]	; 0x34
 8002fce:	07db      	lsls	r3, r3, #31
 8002fd0:	d40b      	bmi.n	8002fea <SDMMC_CmdReadSingleBlock+0x62>
  __SDIO_CLEAR_FLAG(SDIOx, SDIO_STATIC_CMD_FLAGS);
 8002fd2:	23c5      	movs	r3, #197	; 0xc5
 8002fd4:	6383      	str	r3, [r0, #56]	; 0x38
  return (uint8_t)(SDIOx->RESPCMD);
 8002fd6:	6903      	ldr	r3, [r0, #16]
  if(SDIO_GetCommandResponse(SDIOx) != SD_CMD)
 8002fd8:	b2db      	uxtb	r3, r3
 8002fda:	2b11      	cmp	r3, #17
 8002fdc:	d00e      	beq.n	8002ffc <SDMMC_CmdReadSingleBlock+0x74>
    return SDMMC_ERROR_CMD_CRC_FAIL;
 8002fde:	2001      	movs	r0, #1
  return errorstate;
 8002fe0:	e001      	b.n	8002fe6 <SDMMC_CmdReadSingleBlock+0x5e>
      return SDMMC_ERROR_TIMEOUT;
 8002fe2:	f04f 4000 	mov.w	r0, #2147483648	; 0x80000000
}
 8002fe6:	bc10      	pop	{r4}
 8002fe8:	4770      	bx	lr
    __SDIO_CLEAR_FLAG(SDIOx, SDIO_FLAG_CCRCFAIL);
 8002fea:	2301      	movs	r3, #1
}
 8002fec:	bc10      	pop	{r4}
    __SDIO_CLEAR_FLAG(SDIOx, SDIO_FLAG_CCRCFAIL);
 8002fee:	6383      	str	r3, [r0, #56]	; 0x38
    return SDMMC_ERROR_CMD_CRC_FAIL;
 8002ff0:	4618      	mov	r0, r3
}
 8002ff2:	4770      	bx	lr
    __SDIO_CLEAR_FLAG(SDIOx, SDIO_FLAG_CTIMEOUT);
 8002ff4:	2304      	movs	r3, #4
 8002ff6:	6383      	str	r3, [r0, #56]	; 0x38
    return SDMMC_ERROR_CMD_RSP_TIMEOUT;
 8002ff8:	4618      	mov	r0, r3
 8002ffa:	e7f4      	b.n	8002fe6 <SDMMC_CmdReadSingleBlock+0x5e>
}
 8002ffc:	bc10      	pop	{r4}
 8002ffe:	f7ff bed3 	b.w	8002da8 <SDMMC_GetCmdResp1.part.2>
 8003002:	bf00      	nop
 8003004:	20000000 	.word	0x20000000
 8003008:	10624dd3 	.word	0x10624dd3

0800300c <SDMMC_CmdReadMultiBlock>:
  register uint32_t count = Timeout * (SystemCoreClock / 8U /1000U);
 800300c:	f241 3388 	movw	r3, #5000	; 0x1388
 8003010:	4a1d      	ldr	r2, [pc, #116]	; (8003088 <SDMMC_CmdReadMultiBlock+0x7c>)
{
 8003012:	b410      	push	{r4}
  register uint32_t count = Timeout * (SystemCoreClock / 8U /1000U);
 8003014:	6812      	ldr	r2, [r2, #0]
 8003016:	4c1d      	ldr	r4, [pc, #116]	; (800308c <SDMMC_CmdReadMultiBlock+0x80>)
  SDIOx->ARG = Command->Argument;
 8003018:	6081      	str	r1, [r0, #8]
  register uint32_t count = Timeout * (SystemCoreClock / 8U /1000U);
 800301a:	fba4 2102 	umull	r2, r1, r4, r2
  MODIFY_REG(SDIOx->CMD, CMD_CLEAR_MASK, tmpreg); 
 800301e:	68c2      	ldr	r2, [r0, #12]
  register uint32_t count = Timeout * (SystemCoreClock / 8U /1000U);
 8003020:	0a49      	lsrs	r1, r1, #9
  MODIFY_REG(SDIOx->CMD, CMD_CLEAR_MASK, tmpreg); 
 8003022:	f422 627f 	bic.w	r2, r2, #4080	; 0xff0
 8003026:	f022 020f 	bic.w	r2, r2, #15
  register uint32_t count = Timeout * (SystemCoreClock / 8U /1000U);
 800302a:	fb03 f301 	mul.w	r3, r3, r1
  MODIFY_REG(SDIOx->CMD, CMD_CLEAR_MASK, tmpreg); 
 800302e:	f442 628a 	orr.w	r2, r2, #1104	; 0x450
 8003032:	f042 0202 	orr.w	r2, r2, #2
 8003036:	60c2      	str	r2, [r0, #12]
    if (count-- == 0U)
 8003038:	f113 33ff 	adds.w	r3, r3, #4294967295
 800303c:	d313      	bcc.n	8003066 <SDMMC_CmdReadMultiBlock+0x5a>
    sta_reg = SDIOx->STA;
 800303e:	6b42      	ldr	r2, [r0, #52]	; 0x34
         ((sta_reg & SDIO_FLAG_CMDACT) != 0U ));
 8003040:	f012 0f45 	tst.w	r2, #69	; 0x45
 8003044:	d0f8      	beq.n	8003038 <SDMMC_CmdReadMultiBlock+0x2c>
  }while(((sta_reg & (SDIO_FLAG_CCRCFAIL | SDIO_FLAG_CMDREND | SDIO_FLAG_CTIMEOUT)) == 0U) ||
 8003046:	0511      	lsls	r1, r2, #20
 8003048:	d4f6      	bmi.n	8003038 <SDMMC_CmdReadMultiBlock+0x2c>
  if(__SDIO_GET_FLAG(SDIOx, SDIO_FLAG_CTIMEOUT))
 800304a:	6b43      	ldr	r3, [r0, #52]	; 0x34
 800304c:	075a      	lsls	r2, r3, #29
 800304e:	d413      	bmi.n	8003078 <SDMMC_CmdReadMultiBlock+0x6c>
  else if(__SDIO_GET_FLAG(SDIOx, SDIO_FLAG_CCRCFAIL))
 8003050:	6b43      	ldr	r3, [r0, #52]	; 0x34
 8003052:	07db      	lsls	r3, r3, #31
 8003054:	d40b      	bmi.n	800306e <SDMMC_CmdReadMultiBlock+0x62>
  __SDIO_CLEAR_FLAG(SDIOx, SDIO_STATIC_CMD_FLAGS);
 8003056:	23c5      	movs	r3, #197	; 0xc5
 8003058:	6383      	str	r3, [r0, #56]	; 0x38
  return (uint8_t)(SDIOx->RESPCMD);
 800305a:	6903      	ldr	r3, [r0, #16]
  if(SDIO_GetCommandResponse(SDIOx) != SD_CMD)
 800305c:	b2db      	uxtb	r3, r3
 800305e:	2b12      	cmp	r3, #18
 8003060:	d00e      	beq.n	8003080 <SDMMC_CmdReadMultiBlock+0x74>
    return SDMMC_ERROR_CMD_CRC_FAIL;
 8003062:	2001      	movs	r0, #1
  return errorstate;
 8003064:	e001      	b.n	800306a <SDMMC_CmdReadMultiBlock+0x5e>
      return SDMMC_ERROR_TIMEOUT;
 8003066:	f04f 4000 	mov.w	r0, #2147483648	; 0x80000000
}
 800306a:	bc10      	pop	{r4}
 800306c:	4770      	bx	lr
    __SDIO_CLEAR_FLAG(SDIOx, SDIO_FLAG_CCRCFAIL);
 800306e:	2301      	movs	r3, #1
}
 8003070:	bc10      	pop	{r4}
    __SDIO_CLEAR_FLAG(SDIOx, SDIO_FLAG_CCRCFAIL);
 8003072:	6383      	str	r3, [r0, #56]	; 0x38
    return SDMMC_ERROR_CMD_CRC_FAIL;
 8003074:	4618      	mov	r0, r3
}
 8003076:	4770      	bx	lr
    __SDIO_CLEAR_FLAG(SDIOx, SDIO_FLAG_CTIMEOUT);
 8003078:	2304      	movs	r3, #4
 800307a:	6383      	str	r3, [r0, #56]	; 0x38
    return SDMMC_ERROR_CMD_RSP_TIMEOUT;
 800307c:	4618      	mov	r0, r3
 800307e:	e7f4      	b.n	800306a <SDMMC_CmdReadMultiBlock+0x5e>
}
 8003080:	bc10      	pop	{r4}
 8003082:	f7ff be91 	b.w	8002da8 <SDMMC_GetCmdResp1.part.2>
 8003086:	bf00      	nop
 8003088:	20000000 	.word	0x20000000
 800308c:	10624dd3 	.word	0x10624dd3

08003090 <SDMMC_CmdWriteSingleBlock>:
  register uint32_t count = Timeout * (SystemCoreClock / 8U /1000U);
 8003090:	f241 3388 	movw	r3, #5000	; 0x1388
 8003094:	4a1c      	ldr	r2, [pc, #112]	; (8003108 <SDMMC_CmdWriteSingleBlock+0x78>)
{
 8003096:	b410      	push	{r4}
  register uint32_t count = Timeout * (SystemCoreClock / 8U /1000U);
 8003098:	6812      	ldr	r2, [r2, #0]
 800309a:	4c1c      	ldr	r4, [pc, #112]	; (800310c <SDMMC_CmdWriteSingleBlock+0x7c>)
  SDIOx->ARG = Command->Argument;
 800309c:	6081      	str	r1, [r0, #8]
  register uint32_t count = Timeout * (SystemCoreClock / 8U /1000U);
 800309e:	fba4 2102 	umull	r2, r1, r4, r2
  MODIFY_REG(SDIOx->CMD, CMD_CLEAR_MASK, tmpreg); 
 80030a2:	68c2      	ldr	r2, [r0, #12]
  register uint32_t count = Timeout * (SystemCoreClock / 8U /1000U);
 80030a4:	0a49      	lsrs	r1, r1, #9
  MODIFY_REG(SDIOx->CMD, CMD_CLEAR_MASK, tmpreg); 
 80030a6:	f422 627f 	bic.w	r2, r2, #4080	; 0xff0
  register uint32_t count = Timeout * (SystemCoreClock / 8U /1000U);
 80030aa:	fb03 f301 	mul.w	r3, r3, r1
  MODIFY_REG(SDIOx->CMD, CMD_CLEAR_MASK, tmpreg); 
 80030ae:	f022 020f 	bic.w	r2, r2, #15
 80030b2:	f442 628b 	orr.w	r2, r2, #1112	; 0x458
 80030b6:	60c2      	str	r2, [r0, #12]
    if (count-- == 0U)
 80030b8:	f113 33ff 	adds.w	r3, r3, #4294967295
 80030bc:	d313      	bcc.n	80030e6 <SDMMC_CmdWriteSingleBlock+0x56>
    sta_reg = SDIOx->STA;
 80030be:	6b42      	ldr	r2, [r0, #52]	; 0x34
         ((sta_reg & SDIO_FLAG_CMDACT) != 0U ));
 80030c0:	f012 0f45 	tst.w	r2, #69	; 0x45
 80030c4:	d0f8      	beq.n	80030b8 <SDMMC_CmdWriteSingleBlock+0x28>
  }while(((sta_reg & (SDIO_FLAG_CCRCFAIL | SDIO_FLAG_CMDREND | SDIO_FLAG_CTIMEOUT)) == 0U) ||
 80030c6:	0511      	lsls	r1, r2, #20
 80030c8:	d4f6      	bmi.n	80030b8 <SDMMC_CmdWriteSingleBlock+0x28>
  if(__SDIO_GET_FLAG(SDIOx, SDIO_FLAG_CTIMEOUT))
 80030ca:	6b43      	ldr	r3, [r0, #52]	; 0x34
 80030cc:	075a      	lsls	r2, r3, #29
 80030ce:	d413      	bmi.n	80030f8 <SDMMC_CmdWriteSingleBlock+0x68>
  else if(__SDIO_GET_FLAG(SDIOx, SDIO_FLAG_CCRCFAIL))
 80030d0:	6b43      	ldr	r3, [r0, #52]	; 0x34
 80030d2:	07db      	lsls	r3, r3, #31
 80030d4:	d40b      	bmi.n	80030ee <SDMMC_CmdWriteSingleBlock+0x5e>
  __SDIO_CLEAR_FLAG(SDIOx, SDIO_STATIC_CMD_FLAGS);
 80030d6:	23c5      	movs	r3, #197	; 0xc5
 80030d8:	6383      	str	r3, [r0, #56]	; 0x38
  return (uint8_t)(SDIOx->RESPCMD);
 80030da:	6903      	ldr	r3, [r0, #16]
  if(SDIO_GetCommandResponse(SDIOx) != SD_CMD)
 80030dc:	b2db      	uxtb	r3, r3
 80030de:	2b18      	cmp	r3, #24
 80030e0:	d00e      	beq.n	8003100 <SDMMC_CmdWriteSingleBlock+0x70>
    return SDMMC_ERROR_CMD_CRC_FAIL;
 80030e2:	2001      	movs	r0, #1
  return errorstate;
 80030e4:	e001      	b.n	80030ea <SDMMC_CmdWriteSingleBlock+0x5a>
      return SDMMC_ERROR_TIMEOUT;
 80030e6:	f04f 4000 	mov.w	r0, #2147483648	; 0x80000000
}
 80030ea:	bc10      	pop	{r4}
 80030ec:	4770      	bx	lr
    __SDIO_CLEAR_FLAG(SDIOx, SDIO_FLAG_CCRCFAIL);
 80030ee:	2301      	movs	r3, #1
}
 80030f0:	bc10      	pop	{r4}
    __SDIO_CLEAR_FLAG(SDIOx, SDIO_FLAG_CCRCFAIL);
 80030f2:	6383      	str	r3, [r0, #56]	; 0x38
    return SDMMC_ERROR_CMD_CRC_FAIL;
 80030f4:	4618      	mov	r0, r3
}
 80030f6:	4770      	bx	lr
    __SDIO_CLEAR_FLAG(SDIOx, SDIO_FLAG_CTIMEOUT);
 80030f8:	2304      	movs	r3, #4
 80030fa:	6383      	str	r3, [r0, #56]	; 0x38
    return SDMMC_ERROR_CMD_RSP_TIMEOUT;
 80030fc:	4618      	mov	r0, r3
 80030fe:	e7f4      	b.n	80030ea <SDMMC_CmdWriteSingleBlock+0x5a>
}
 8003100:	bc10      	pop	{r4}
 8003102:	f7ff be51 	b.w	8002da8 <SDMMC_GetCmdResp1.part.2>
 8003106:	bf00      	nop
 8003108:	20000000 	.word	0x20000000
 800310c:	10624dd3 	.word	0x10624dd3

08003110 <SDMMC_CmdWriteMultiBlock>:
  register uint32_t count = Timeout * (SystemCoreClock / 8U /1000U);
 8003110:	f241 3388 	movw	r3, #5000	; 0x1388
 8003114:	4a1d      	ldr	r2, [pc, #116]	; (800318c <SDMMC_CmdWriteMultiBlock+0x7c>)
{
 8003116:	b410      	push	{r4}
  register uint32_t count = Timeout * (SystemCoreClock / 8U /1000U);
 8003118:	6812      	ldr	r2, [r2, #0]
 800311a:	4c1d      	ldr	r4, [pc, #116]	; (8003190 <SDMMC_CmdWriteMultiBlock+0x80>)
  SDIOx->ARG = Command->Argument;
 800311c:	6081      	str	r1, [r0, #8]
  register uint32_t count = Timeout * (SystemCoreClock / 8U /1000U);
 800311e:	fba4 2102 	umull	r2, r1, r4, r2
  MODIFY_REG(SDIOx->CMD, CMD_CLEAR_MASK, tmpreg); 
 8003122:	68c2      	ldr	r2, [r0, #12]
  register uint32_t count = Timeout * (SystemCoreClock / 8U /1000U);
 8003124:	0a49      	lsrs	r1, r1, #9
  MODIFY_REG(SDIOx->CMD, CMD_CLEAR_MASK, tmpreg); 
 8003126:	f422 627f 	bic.w	r2, r2, #4080	; 0xff0
 800312a:	f022 020f 	bic.w	r2, r2, #15
  register uint32_t count = Timeout * (SystemCoreClock / 8U /1000U);
 800312e:	fb03 f301 	mul.w	r3, r3, r1
  MODIFY_REG(SDIOx->CMD, CMD_CLEAR_MASK, tmpreg); 
 8003132:	f442 628b 	orr.w	r2, r2, #1112	; 0x458
 8003136:	f042 0201 	orr.w	r2, r2, #1
 800313a:	60c2      	str	r2, [r0, #12]
    if (count-- == 0U)
 800313c:	f113 33ff 	adds.w	r3, r3, #4294967295
 8003140:	d313      	bcc.n	800316a <SDMMC_CmdWriteMultiBlock+0x5a>
    sta_reg = SDIOx->STA;
 8003142:	6b42      	ldr	r2, [r0, #52]	; 0x34
         ((sta_reg & SDIO_FLAG_CMDACT) != 0U ));
 8003144:	f012 0f45 	tst.w	r2, #69	; 0x45
 8003148:	d0f8      	beq.n	800313c <SDMMC_CmdWriteMultiBlock+0x2c>
  }while(((sta_reg & (SDIO_FLAG_CCRCFAIL | SDIO_FLAG_CMDREND | SDIO_FLAG_CTIMEOUT)) == 0U) ||
 800314a:	0511      	lsls	r1, r2, #20
 800314c:	d4f6      	bmi.n	800313c <SDMMC_CmdWriteMultiBlock+0x2c>
  if(__SDIO_GET_FLAG(SDIOx, SDIO_FLAG_CTIMEOUT))
 800314e:	6b43      	ldr	r3, [r0, #52]	; 0x34
 8003150:	075a      	lsls	r2, r3, #29
 8003152:	d413      	bmi.n	800317c <SDMMC_CmdWriteMultiBlock+0x6c>
  else if(__SDIO_GET_FLAG(SDIOx, SDIO_FLAG_CCRCFAIL))
 8003154:	6b43      	ldr	r3, [r0, #52]	; 0x34
 8003156:	07db      	lsls	r3, r3, #31
 8003158:	d40b      	bmi.n	8003172 <SDMMC_CmdWriteMultiBlock+0x62>
  __SDIO_CLEAR_FLAG(SDIOx, SDIO_STATIC_CMD_FLAGS);
 800315a:	23c5      	movs	r3, #197	; 0xc5
 800315c:	6383      	str	r3, [r0, #56]	; 0x38
  return (uint8_t)(SDIOx->RESPCMD);
 800315e:	6903      	ldr	r3, [r0, #16]
  if(SDIO_GetCommandResponse(SDIOx) != SD_CMD)
 8003160:	b2db      	uxtb	r3, r3
 8003162:	2b19      	cmp	r3, #25
 8003164:	d00e      	beq.n	8003184 <SDMMC_CmdWriteMultiBlock+0x74>
    return SDMMC_ERROR_CMD_CRC_FAIL;
 8003166:	2001      	movs	r0, #1
  return errorstate;
 8003168:	e001      	b.n	800316e <SDMMC_CmdWriteMultiBlock+0x5e>
      return SDMMC_ERROR_TIMEOUT;
 800316a:	f04f 4000 	mov.w	r0, #2147483648	; 0x80000000
}
 800316e:	bc10      	pop	{r4}
 8003170:	4770      	bx	lr
    __SDIO_CLEAR_FLAG(SDIOx, SDIO_FLAG_CCRCFAIL);
 8003172:	2301      	movs	r3, #1
}
 8003174:	bc10      	pop	{r4}
    __SDIO_CLEAR_FLAG(SDIOx, SDIO_FLAG_CCRCFAIL);
 8003176:	6383      	str	r3, [r0, #56]	; 0x38
    return SDMMC_ERROR_CMD_CRC_FAIL;
 8003178:	4618      	mov	r0, r3
}
 800317a:	4770      	bx	lr
    __SDIO_CLEAR_FLAG(SDIOx, SDIO_FLAG_CTIMEOUT);
 800317c:	2304      	movs	r3, #4
 800317e:	6383      	str	r3, [r0, #56]	; 0x38
    return SDMMC_ERROR_CMD_RSP_TIMEOUT;
 8003180:	4618      	mov	r0, r3
 8003182:	e7f4      	b.n	800316e <SDMMC_CmdWriteMultiBlock+0x5e>
}
 8003184:	bc10      	pop	{r4}
 8003186:	f7ff be0f 	b.w	8002da8 <SDMMC_GetCmdResp1.part.2>
 800318a:	bf00      	nop
 800318c:	20000000 	.word	0x20000000
 8003190:	10624dd3 	.word	0x10624dd3

08003194 <SDMMC_CmdStopTransfer>:
  SDIOx->ARG = Command->Argument;
 8003194:	2200      	movs	r2, #0
  register uint32_t count = Timeout * (SystemCoreClock / 8U /1000U);
 8003196:	4b1b      	ldr	r3, [pc, #108]	; (8003204 <SDMMC_CmdStopTransfer+0x70>)
  SDIOx->ARG = Command->Argument;
 8003198:	6082      	str	r2, [r0, #8]
  register uint32_t count = Timeout * (SystemCoreClock / 8U /1000U);
 800319a:	6819      	ldr	r1, [r3, #0]
 800319c:	4b1a      	ldr	r3, [pc, #104]	; (8003208 <SDMMC_CmdStopTransfer+0x74>)
  MODIFY_REG(SDIOx->CMD, CMD_CLEAR_MASK, tmpreg); 
 800319e:	68c2      	ldr	r2, [r0, #12]
  register uint32_t count = Timeout * (SystemCoreClock / 8U /1000U);
 80031a0:	fba3 3101 	umull	r3, r1, r3, r1
 80031a4:	4b19      	ldr	r3, [pc, #100]	; (800320c <SDMMC_CmdStopTransfer+0x78>)
  MODIFY_REG(SDIOx->CMD, CMD_CLEAR_MASK, tmpreg); 
 80031a6:	f422 627f 	bic.w	r2, r2, #4080	; 0xff0
  register uint32_t count = Timeout * (SystemCoreClock / 8U /1000U);
 80031aa:	0a49      	lsrs	r1, r1, #9
  MODIFY_REG(SDIOx->CMD, CMD_CLEAR_MASK, tmpreg); 
 80031ac:	f022 020f 	bic.w	r2, r2, #15
  register uint32_t count = Timeout * (SystemCoreClock / 8U /1000U);
 80031b0:	fb03 f301 	mul.w	r3, r3, r1
  MODIFY_REG(SDIOx->CMD, CMD_CLEAR_MASK, tmpreg); 
 80031b4:	f442 6289 	orr.w	r2, r2, #1096	; 0x448
 80031b8:	f042 0204 	orr.w	r2, r2, #4
 80031bc:	60c2      	str	r2, [r0, #12]
    if (count-- == 0U)
 80031be:	b1a3      	cbz	r3, 80031ea <SDMMC_CmdStopTransfer+0x56>
    sta_reg = SDIOx->STA;
 80031c0:	6b42      	ldr	r2, [r0, #52]	; 0x34
 80031c2:	3b01      	subs	r3, #1
         ((sta_reg & SDIO_FLAG_CMDACT) != 0U ));
 80031c4:	f012 0f45 	tst.w	r2, #69	; 0x45
 80031c8:	d0f9      	beq.n	80031be <SDMMC_CmdStopTransfer+0x2a>
  }while(((sta_reg & (SDIO_FLAG_CCRCFAIL | SDIO_FLAG_CMDREND | SDIO_FLAG_CTIMEOUT)) == 0U) ||
 80031ca:	0511      	lsls	r1, r2, #20
 80031cc:	d4f7      	bmi.n	80031be <SDMMC_CmdStopTransfer+0x2a>
  if(__SDIO_GET_FLAG(SDIOx, SDIO_FLAG_CTIMEOUT))
 80031ce:	6b43      	ldr	r3, [r0, #52]	; 0x34
 80031d0:	075a      	lsls	r2, r3, #29
 80031d2:	d411      	bmi.n	80031f8 <SDMMC_CmdStopTransfer+0x64>
  else if(__SDIO_GET_FLAG(SDIOx, SDIO_FLAG_CCRCFAIL))
 80031d4:	6b43      	ldr	r3, [r0, #52]	; 0x34
 80031d6:	07db      	lsls	r3, r3, #31
 80031d8:	d40a      	bmi.n	80031f0 <SDMMC_CmdStopTransfer+0x5c>
  __SDIO_CLEAR_FLAG(SDIOx, SDIO_STATIC_CMD_FLAGS);
 80031da:	23c5      	movs	r3, #197	; 0xc5
 80031dc:	6383      	str	r3, [r0, #56]	; 0x38
  return (uint8_t)(SDIOx->RESPCMD);
 80031de:	6903      	ldr	r3, [r0, #16]
  if(SDIO_GetCommandResponse(SDIOx) != SD_CMD)
 80031e0:	b2db      	uxtb	r3, r3
 80031e2:	2b0c      	cmp	r3, #12
 80031e4:	d00c      	beq.n	8003200 <SDMMC_CmdStopTransfer+0x6c>
    return SDMMC_ERROR_CMD_CRC_FAIL;
 80031e6:	2001      	movs	r0, #1
}
 80031e8:	4770      	bx	lr
      return SDMMC_ERROR_TIMEOUT;
 80031ea:	f04f 4000 	mov.w	r0, #2147483648	; 0x80000000
 80031ee:	4770      	bx	lr
    __SDIO_CLEAR_FLAG(SDIOx, SDIO_FLAG_CCRCFAIL);
 80031f0:	2301      	movs	r3, #1
 80031f2:	6383      	str	r3, [r0, #56]	; 0x38
    return SDMMC_ERROR_CMD_CRC_FAIL;
 80031f4:	4618      	mov	r0, r3
 80031f6:	4770      	bx	lr
    __SDIO_CLEAR_FLAG(SDIOx, SDIO_FLAG_CTIMEOUT);
 80031f8:	2304      	movs	r3, #4
 80031fa:	6383      	str	r3, [r0, #56]	; 0x38
    return SDMMC_ERROR_CMD_RSP_TIMEOUT;
 80031fc:	4618      	mov	r0, r3
 80031fe:	4770      	bx	lr
 8003200:	f7ff bdd2 	b.w	8002da8 <SDMMC_GetCmdResp1.part.2>
 8003204:	20000000 	.word	0x20000000
 8003208:	10624dd3 	.word	0x10624dd3
 800320c:	05f5e100 	.word	0x05f5e100

08003210 <SDMMC_CmdSelDesel>:
  register uint32_t count = Timeout * (SystemCoreClock / 8U /1000U);
 8003210:	f241 3388 	movw	r3, #5000	; 0x1388
 8003214:	491d      	ldr	r1, [pc, #116]	; (800328c <SDMMC_CmdSelDesel+0x7c>)
{
 8003216:	b410      	push	{r4}
  register uint32_t count = Timeout * (SystemCoreClock / 8U /1000U);
 8003218:	6809      	ldr	r1, [r1, #0]
 800321a:	4c1d      	ldr	r4, [pc, #116]	; (8003290 <SDMMC_CmdSelDesel+0x80>)
  SDIOx->ARG = Command->Argument;
 800321c:	6082      	str	r2, [r0, #8]
  register uint32_t count = Timeout * (SystemCoreClock / 8U /1000U);
 800321e:	fba4 2101 	umull	r2, r1, r4, r1
  MODIFY_REG(SDIOx->CMD, CMD_CLEAR_MASK, tmpreg); 
 8003222:	68c2      	ldr	r2, [r0, #12]
  register uint32_t count = Timeout * (SystemCoreClock / 8U /1000U);
 8003224:	0a49      	lsrs	r1, r1, #9
  MODIFY_REG(SDIOx->CMD, CMD_CLEAR_MASK, tmpreg); 
 8003226:	f422 627f 	bic.w	r2, r2, #4080	; 0xff0
 800322a:	f022 020f 	bic.w	r2, r2, #15
  register uint32_t count = Timeout * (SystemCoreClock / 8U /1000U);
 800322e:	fb03 f301 	mul.w	r3, r3, r1
  MODIFY_REG(SDIOx->CMD, CMD_CLEAR_MASK, tmpreg); 
 8003232:	f442 6288 	orr.w	r2, r2, #1088	; 0x440
 8003236:	f042 0207 	orr.w	r2, r2, #7
 800323a:	60c2      	str	r2, [r0, #12]
    if (count-- == 0U)
 800323c:	f113 33ff 	adds.w	r3, r3, #4294967295
 8003240:	d313      	bcc.n	800326a <SDMMC_CmdSelDesel+0x5a>
    sta_reg = SDIOx->STA;
 8003242:	6b42      	ldr	r2, [r0, #52]	; 0x34
         ((sta_reg & SDIO_FLAG_CMDACT) != 0U ));
 8003244:	f012 0f45 	tst.w	r2, #69	; 0x45
 8003248:	d0f8      	beq.n	800323c <SDMMC_CmdSelDesel+0x2c>
  }while(((sta_reg & (SDIO_FLAG_CCRCFAIL | SDIO_FLAG_CMDREND | SDIO_FLAG_CTIMEOUT)) == 0U) ||
 800324a:	0511      	lsls	r1, r2, #20
 800324c:	d4f6      	bmi.n	800323c <SDMMC_CmdSelDesel+0x2c>
  if(__SDIO_GET_FLAG(SDIOx, SDIO_FLAG_CTIMEOUT))
 800324e:	6b43      	ldr	r3, [r0, #52]	; 0x34
 8003250:	075a      	lsls	r2, r3, #29
 8003252:	d413      	bmi.n	800327c <SDMMC_CmdSelDesel+0x6c>
  else if(__SDIO_GET_FLAG(SDIOx, SDIO_FLAG_CCRCFAIL))
 8003254:	6b43      	ldr	r3, [r0, #52]	; 0x34
 8003256:	07db      	lsls	r3, r3, #31
 8003258:	d40b      	bmi.n	8003272 <SDMMC_CmdSelDesel+0x62>
  __SDIO_CLEAR_FLAG(SDIOx, SDIO_STATIC_CMD_FLAGS);
 800325a:	23c5      	movs	r3, #197	; 0xc5
 800325c:	6383      	str	r3, [r0, #56]	; 0x38
  return (uint8_t)(SDIOx->RESPCMD);
 800325e:	6903      	ldr	r3, [r0, #16]
  if(SDIO_GetCommandResponse(SDIOx) != SD_CMD)
 8003260:	b2db      	uxtb	r3, r3
 8003262:	2b07      	cmp	r3, #7
 8003264:	d00e      	beq.n	8003284 <SDMMC_CmdSelDesel+0x74>
    return SDMMC_ERROR_CMD_CRC_FAIL;
 8003266:	2001      	movs	r0, #1
  return errorstate;
 8003268:	e001      	b.n	800326e <SDMMC_CmdSelDesel+0x5e>
      return SDMMC_ERROR_TIMEOUT;
 800326a:	f04f 4000 	mov.w	r0, #2147483648	; 0x80000000
}
 800326e:	bc10      	pop	{r4}
 8003270:	4770      	bx	lr
    __SDIO_CLEAR_FLAG(SDIOx, SDIO_FLAG_CCRCFAIL);
 8003272:	2301      	movs	r3, #1
}
 8003274:	bc10      	pop	{r4}
    __SDIO_CLEAR_FLAG(SDIOx, SDIO_FLAG_CCRCFAIL);
 8003276:	6383      	str	r3, [r0, #56]	; 0x38
    return SDMMC_ERROR_CMD_CRC_FAIL;
 8003278:	4618      	mov	r0, r3
}
 800327a:	4770      	bx	lr
    __SDIO_CLEAR_FLAG(SDIOx, SDIO_FLAG_CTIMEOUT);
 800327c:	2304      	movs	r3, #4
 800327e:	6383      	str	r3, [r0, #56]	; 0x38
    return SDMMC_ERROR_CMD_RSP_TIMEOUT;
 8003280:	4618      	mov	r0, r3
 8003282:	e7f4      	b.n	800326e <SDMMC_CmdSelDesel+0x5e>
}
 8003284:	bc10      	pop	{r4}
 8003286:	f7ff bd8f 	b.w	8002da8 <SDMMC_GetCmdResp1.part.2>
 800328a:	bf00      	nop
 800328c:	20000000 	.word	0x20000000
 8003290:	10624dd3 	.word	0x10624dd3

08003294 <SDMMC_CmdGoIdleState>:
{
 8003294:	4601      	mov	r1, r0
 8003296:	b410      	push	{r4}
  SDIOx->ARG = Command->Argument;
 8003298:	2400      	movs	r4, #0
  register uint32_t count = SDIO_CMDTIMEOUT * (SystemCoreClock / 8U /1000U);
 800329a:	f241 3388 	movw	r3, #5000	; 0x1388
 800329e:	4810      	ldr	r0, [pc, #64]	; (80032e0 <SDMMC_CmdGoIdleState+0x4c>)
 80032a0:	4a10      	ldr	r2, [pc, #64]	; (80032e4 <SDMMC_CmdGoIdleState+0x50>)
 80032a2:	6800      	ldr	r0, [r0, #0]
  SDIOx->ARG = Command->Argument;
 80032a4:	608c      	str	r4, [r1, #8]
  register uint32_t count = SDIO_CMDTIMEOUT * (SystemCoreClock / 8U /1000U);
 80032a6:	fba2 2000 	umull	r2, r0, r2, r0
  MODIFY_REG(SDIOx->CMD, CMD_CLEAR_MASK, tmpreg); 
 80032aa:	68ca      	ldr	r2, [r1, #12]
  register uint32_t count = SDIO_CMDTIMEOUT * (SystemCoreClock / 8U /1000U);
 80032ac:	0a40      	lsrs	r0, r0, #9
  MODIFY_REG(SDIOx->CMD, CMD_CLEAR_MASK, tmpreg); 
 80032ae:	f422 627f 	bic.w	r2, r2, #4080	; 0xff0
 80032b2:	f022 020f 	bic.w	r2, r2, #15
 80032b6:	f442 6280 	orr.w	r2, r2, #1024	; 0x400
  register uint32_t count = SDIO_CMDTIMEOUT * (SystemCoreClock / 8U /1000U);
 80032ba:	fb03 f300 	mul.w	r3, r3, r0
  MODIFY_REG(SDIOx->CMD, CMD_CLEAR_MASK, tmpreg); 
 80032be:	60ca      	str	r2, [r1, #12]
 80032c0:	e002      	b.n	80032c8 <SDMMC_CmdGoIdleState+0x34>
  }while(!__SDIO_GET_FLAG(SDIOx, SDIO_FLAG_CMDSENT));
 80032c2:	6b4a      	ldr	r2, [r1, #52]	; 0x34
 80032c4:	0612      	lsls	r2, r2, #24
 80032c6:	d406      	bmi.n	80032d6 <SDMMC_CmdGoIdleState+0x42>
    if (count-- == 0U)
 80032c8:	f113 33ff 	adds.w	r3, r3, #4294967295
 80032cc:	d2f9      	bcs.n	80032c2 <SDMMC_CmdGoIdleState+0x2e>
      return SDMMC_ERROR_TIMEOUT;
 80032ce:	f04f 4000 	mov.w	r0, #2147483648	; 0x80000000
}
 80032d2:	bc10      	pop	{r4}
 80032d4:	4770      	bx	lr
  __SDIO_CLEAR_FLAG(SDIOx, SDIO_STATIC_CMD_FLAGS);
 80032d6:	23c5      	movs	r3, #197	; 0xc5
  return SDMMC_ERROR_NONE;
 80032d8:	2000      	movs	r0, #0
  __SDIO_CLEAR_FLAG(SDIOx, SDIO_STATIC_CMD_FLAGS);
 80032da:	638b      	str	r3, [r1, #56]	; 0x38
}
 80032dc:	bc10      	pop	{r4}
 80032de:	4770      	bx	lr
 80032e0:	20000000 	.word	0x20000000
 80032e4:	10624dd3 	.word	0x10624dd3

080032e8 <SDMMC_CmdOperCond>:
{
 80032e8:	4601      	mov	r1, r0
 80032ea:	b410      	push	{r4}
  SDIOx->ARG = Command->Argument;
 80032ec:	f44f 74d5 	mov.w	r4, #426	; 0x1aa
static uint32_t SDMMC_GetCmdResp7(SDIO_TypeDef *SDIOx)
{
  uint32_t sta_reg;
  /* 8 is the number of required instructions cycles for the below loop statement.
  The SDIO_CMDTIMEOUT is expressed in ms */
  register uint32_t count = SDIO_CMDTIMEOUT * (SystemCoreClock / 8U /1000U);
 80032f0:	f241 3388 	movw	r3, #5000	; 0x1388
 80032f4:	481a      	ldr	r0, [pc, #104]	; (8003360 <SDMMC_CmdOperCond+0x78>)
 80032f6:	4a1b      	ldr	r2, [pc, #108]	; (8003364 <SDMMC_CmdOperCond+0x7c>)
 80032f8:	6800      	ldr	r0, [r0, #0]
  SDIOx->ARG = Command->Argument;
 80032fa:	608c      	str	r4, [r1, #8]
  register uint32_t count = SDIO_CMDTIMEOUT * (SystemCoreClock / 8U /1000U);
 80032fc:	fba2 2000 	umull	r2, r0, r2, r0
  MODIFY_REG(SDIOx->CMD, CMD_CLEAR_MASK, tmpreg); 
 8003300:	68ca      	ldr	r2, [r1, #12]
  register uint32_t count = SDIO_CMDTIMEOUT * (SystemCoreClock / 8U /1000U);
 8003302:	0a40      	lsrs	r0, r0, #9
  MODIFY_REG(SDIOx->CMD, CMD_CLEAR_MASK, tmpreg); 
 8003304:	f422 627f 	bic.w	r2, r2, #4080	; 0xff0
  register uint32_t count = SDIO_CMDTIMEOUT * (SystemCoreClock / 8U /1000U);
 8003308:	fb03 f300 	mul.w	r3, r3, r0
  MODIFY_REG(SDIOx->CMD, CMD_CLEAR_MASK, tmpreg); 
 800330c:	f022 020f 	bic.w	r2, r2, #15
 8003310:	f442 6289 	orr.w	r2, r2, #1096	; 0x448
 8003314:	60ca      	str	r2, [r1, #12]
  
  do
  {
    if (count-- == 0U)
 8003316:	f113 33ff 	adds.w	r3, r3, #4294967295
 800331a:	d313      	bcc.n	8003344 <SDMMC_CmdOperCond+0x5c>
    {
      return SDMMC_ERROR_TIMEOUT;
    }
    sta_reg = SDIOx->STA;
 800331c:	6b4a      	ldr	r2, [r1, #52]	; 0x34
  }while(((sta_reg & (SDIO_FLAG_CCRCFAIL | SDIO_FLAG_CMDREND | SDIO_FLAG_CTIMEOUT)) == 0U) ||
         ((sta_reg & SDIO_FLAG_CMDACT) != 0U ));
 800331e:	f012 0f45 	tst.w	r2, #69	; 0x45
 8003322:	d0f8      	beq.n	8003316 <SDMMC_CmdOperCond+0x2e>
  }while(((sta_reg & (SDIO_FLAG_CCRCFAIL | SDIO_FLAG_CMDREND | SDIO_FLAG_CTIMEOUT)) == 0U) ||
 8003324:	0512      	lsls	r2, r2, #20
 8003326:	d4f6      	bmi.n	8003316 <SDMMC_CmdOperCond+0x2e>
    
  if(__SDIO_GET_FLAG(SDIOx, SDIO_FLAG_CTIMEOUT))
 8003328:	6b4b      	ldr	r3, [r1, #52]	; 0x34
 800332a:	075b      	lsls	r3, r3, #29
 800332c:	d412      	bmi.n	8003354 <SDMMC_CmdOperCond+0x6c>
    /* Card is SD V2.0 compliant */
    __SDIO_CLEAR_FLAG(SDIOx, SDIO_FLAG_CTIMEOUT);
    
    return SDMMC_ERROR_CMD_RSP_TIMEOUT;
  }
  else if(__SDIO_GET_FLAG(SDIOx, SDIO_FLAG_CCRCFAIL))
 800332e:	6b48      	ldr	r0, [r1, #52]	; 0x34
 8003330:	f010 0001 	ands.w	r0, r0, #1
 8003334:	d10a      	bne.n	800334c <SDMMC_CmdOperCond+0x64>
  else
  {
    /* Nothing to do */
  }
  
  if(__SDIO_GET_FLAG(SDIOx, SDIO_FLAG_CMDREND))
 8003336:	6b4b      	ldr	r3, [r1, #52]	; 0x34
 8003338:	f013 0340 	ands.w	r3, r3, #64	; 0x40
 800333c:	d00d      	beq.n	800335a <SDMMC_CmdOperCond+0x72>
  {
    /* Card is SD V2.0 compliant */
    __SDIO_CLEAR_FLAG(SDIOx, SDIO_FLAG_CMDREND);
 800333e:	2340      	movs	r3, #64	; 0x40
 8003340:	638b      	str	r3, [r1, #56]	; 0x38
 8003342:	e001      	b.n	8003348 <SDMMC_CmdOperCond+0x60>
      return SDMMC_ERROR_TIMEOUT;
 8003344:	f04f 4000 	mov.w	r0, #2147483648	; 0x80000000
}
 8003348:	bc10      	pop	{r4}
 800334a:	4770      	bx	lr
    __SDIO_CLEAR_FLAG(SDIOx, SDIO_FLAG_CCRCFAIL);
 800334c:	2001      	movs	r0, #1
 800334e:	6388      	str	r0, [r1, #56]	; 0x38
}
 8003350:	bc10      	pop	{r4}
 8003352:	4770      	bx	lr
    __SDIO_CLEAR_FLAG(SDIOx, SDIO_FLAG_CTIMEOUT);
 8003354:	2004      	movs	r0, #4
 8003356:	6388      	str	r0, [r1, #56]	; 0x38
 8003358:	e7f6      	b.n	8003348 <SDMMC_CmdOperCond+0x60>
  }
  
  return SDMMC_ERROR_NONE;
 800335a:	4618      	mov	r0, r3
  return errorstate;
 800335c:	e7f4      	b.n	8003348 <SDMMC_CmdOperCond+0x60>
 800335e:	bf00      	nop
 8003360:	20000000 	.word	0x20000000
 8003364:	10624dd3 	.word	0x10624dd3

08003368 <SDMMC_CmdAppCommand>:
  register uint32_t count = Timeout * (SystemCoreClock / 8U /1000U);
 8003368:	f241 3388 	movw	r3, #5000	; 0x1388
 800336c:	4a1d      	ldr	r2, [pc, #116]	; (80033e4 <SDMMC_CmdAppCommand+0x7c>)
{
 800336e:	b410      	push	{r4}
  register uint32_t count = Timeout * (SystemCoreClock / 8U /1000U);
 8003370:	6812      	ldr	r2, [r2, #0]
 8003372:	4c1d      	ldr	r4, [pc, #116]	; (80033e8 <SDMMC_CmdAppCommand+0x80>)
  SDIOx->ARG = Command->Argument;
 8003374:	6081      	str	r1, [r0, #8]
  register uint32_t count = Timeout * (SystemCoreClock / 8U /1000U);
 8003376:	fba4 2102 	umull	r2, r1, r4, r2
  MODIFY_REG(SDIOx->CMD, CMD_CLEAR_MASK, tmpreg); 
 800337a:	68c2      	ldr	r2, [r0, #12]
  register uint32_t count = Timeout * (SystemCoreClock / 8U /1000U);
 800337c:	0a49      	lsrs	r1, r1, #9
  MODIFY_REG(SDIOx->CMD, CMD_CLEAR_MASK, tmpreg); 
 800337e:	f422 627f 	bic.w	r2, r2, #4080	; 0xff0
 8003382:	f022 020f 	bic.w	r2, r2, #15
  register uint32_t count = Timeout * (SystemCoreClock / 8U /1000U);
 8003386:	fb03 f301 	mul.w	r3, r3, r1
  MODIFY_REG(SDIOx->CMD, CMD_CLEAR_MASK, tmpreg); 
 800338a:	f442 628e 	orr.w	r2, r2, #1136	; 0x470
 800338e:	f042 0207 	orr.w	r2, r2, #7
 8003392:	60c2      	str	r2, [r0, #12]
    if (count-- == 0U)
 8003394:	f113 33ff 	adds.w	r3, r3, #4294967295
 8003398:	d313      	bcc.n	80033c2 <SDMMC_CmdAppCommand+0x5a>
    sta_reg = SDIOx->STA;
 800339a:	6b42      	ldr	r2, [r0, #52]	; 0x34
         ((sta_reg & SDIO_FLAG_CMDACT) != 0U ));
 800339c:	f012 0f45 	tst.w	r2, #69	; 0x45
 80033a0:	d0f8      	beq.n	8003394 <SDMMC_CmdAppCommand+0x2c>
  }while(((sta_reg & (SDIO_FLAG_CCRCFAIL | SDIO_FLAG_CMDREND | SDIO_FLAG_CTIMEOUT)) == 0U) ||
 80033a2:	0511      	lsls	r1, r2, #20
 80033a4:	d4f6      	bmi.n	8003394 <SDMMC_CmdAppCommand+0x2c>
  if(__SDIO_GET_FLAG(SDIOx, SDIO_FLAG_CTIMEOUT))
 80033a6:	6b43      	ldr	r3, [r0, #52]	; 0x34
 80033a8:	075a      	lsls	r2, r3, #29
 80033aa:	d413      	bmi.n	80033d4 <SDMMC_CmdAppCommand+0x6c>
  else if(__SDIO_GET_FLAG(SDIOx, SDIO_FLAG_CCRCFAIL))
 80033ac:	6b43      	ldr	r3, [r0, #52]	; 0x34
 80033ae:	07db      	lsls	r3, r3, #31
 80033b0:	d40b      	bmi.n	80033ca <SDMMC_CmdAppCommand+0x62>
  __SDIO_CLEAR_FLAG(SDIOx, SDIO_STATIC_CMD_FLAGS);
 80033b2:	23c5      	movs	r3, #197	; 0xc5
 80033b4:	6383      	str	r3, [r0, #56]	; 0x38
  return (uint8_t)(SDIOx->RESPCMD);
 80033b6:	6903      	ldr	r3, [r0, #16]
  if(SDIO_GetCommandResponse(SDIOx) != SD_CMD)
 80033b8:	b2db      	uxtb	r3, r3
 80033ba:	2b37      	cmp	r3, #55	; 0x37
 80033bc:	d00e      	beq.n	80033dc <SDMMC_CmdAppCommand+0x74>
    return SDMMC_ERROR_CMD_CRC_FAIL;
 80033be:	2001      	movs	r0, #1
  return errorstate;
 80033c0:	e001      	b.n	80033c6 <SDMMC_CmdAppCommand+0x5e>
      return SDMMC_ERROR_TIMEOUT;
 80033c2:	f04f 4000 	mov.w	r0, #2147483648	; 0x80000000
}
 80033c6:	bc10      	pop	{r4}
 80033c8:	4770      	bx	lr
    __SDIO_CLEAR_FLAG(SDIOx, SDIO_FLAG_CCRCFAIL);
 80033ca:	2301      	movs	r3, #1
}
 80033cc:	bc10      	pop	{r4}
    __SDIO_CLEAR_FLAG(SDIOx, SDIO_FLAG_CCRCFAIL);
 80033ce:	6383      	str	r3, [r0, #56]	; 0x38
    return SDMMC_ERROR_CMD_CRC_FAIL;
 80033d0:	4618      	mov	r0, r3
}
 80033d2:	4770      	bx	lr
    __SDIO_CLEAR_FLAG(SDIOx, SDIO_FLAG_CTIMEOUT);
 80033d4:	2304      	movs	r3, #4
 80033d6:	6383      	str	r3, [r0, #56]	; 0x38
    return SDMMC_ERROR_CMD_RSP_TIMEOUT;
 80033d8:	4618      	mov	r0, r3
 80033da:	e7f4      	b.n	80033c6 <SDMMC_CmdAppCommand+0x5e>
}
 80033dc:	bc10      	pop	{r4}
 80033de:	f7ff bce3 	b.w	8002da8 <SDMMC_GetCmdResp1.part.2>
 80033e2:	bf00      	nop
 80033e4:	20000000 	.word	0x20000000
 80033e8:	10624dd3 	.word	0x10624dd3

080033ec <SDMMC_CmdAppOperCommand>:
{
 80033ec:	b430      	push	{r4, r5}
 80033ee:	4604      	mov	r4, r0
  register uint32_t count = SDIO_CMDTIMEOUT * (SystemCoreClock / 8U /1000U);
 80033f0:	f241 3388 	movw	r3, #5000	; 0x1388
 80033f4:	4a16      	ldr	r2, [pc, #88]	; (8003450 <SDMMC_CmdAppOperCommand+0x64>)
 80033f6:	4d17      	ldr	r5, [pc, #92]	; (8003454 <SDMMC_CmdAppOperCommand+0x68>)
 80033f8:	6812      	ldr	r2, [r2, #0]
  sdmmc_cmdinit.Argument         = SDMMC_VOLTAGE_WINDOW_SD | Argument;
 80033fa:	f041 4000 	orr.w	r0, r1, #2147483648	; 0x80000000
 80033fe:	f440 1080 	orr.w	r0, r0, #1048576	; 0x100000
  register uint32_t count = SDIO_CMDTIMEOUT * (SystemCoreClock / 8U /1000U);
 8003402:	fba5 2102 	umull	r2, r1, r5, r2
  SDIOx->ARG = Command->Argument;
 8003406:	60a0      	str	r0, [r4, #8]
  MODIFY_REG(SDIOx->CMD, CMD_CLEAR_MASK, tmpreg); 
 8003408:	68e2      	ldr	r2, [r4, #12]
  register uint32_t count = SDIO_CMDTIMEOUT * (SystemCoreClock / 8U /1000U);
 800340a:	0a49      	lsrs	r1, r1, #9
  MODIFY_REG(SDIOx->CMD, CMD_CLEAR_MASK, tmpreg); 
 800340c:	f422 627f 	bic.w	r2, r2, #4080	; 0xff0
 8003410:	f022 020f 	bic.w	r2, r2, #15
  register uint32_t count = SDIO_CMDTIMEOUT * (SystemCoreClock / 8U /1000U);
 8003414:	fb03 f301 	mul.w	r3, r3, r1
  MODIFY_REG(SDIOx->CMD, CMD_CLEAR_MASK, tmpreg); 
 8003418:	f442 628d 	orr.w	r2, r2, #1128	; 0x468
 800341c:	f042 0201 	orr.w	r2, r2, #1
 8003420:	60e2      	str	r2, [r4, #12]
    if (count-- == 0U)
 8003422:	f113 33ff 	adds.w	r3, r3, #4294967295
 8003426:	d30f      	bcc.n	8003448 <SDMMC_CmdAppOperCommand+0x5c>
    sta_reg = SDIOx->STA;
 8003428:	6b62      	ldr	r2, [r4, #52]	; 0x34
         ((sta_reg & SDIO_FLAG_CMDACT) != 0U ));
 800342a:	f012 0f45 	tst.w	r2, #69	; 0x45
 800342e:	d0f8      	beq.n	8003422 <SDMMC_CmdAppOperCommand+0x36>
  }while(((sta_reg & (SDIO_FLAG_CCRCFAIL | SDIO_FLAG_CMDREND | SDIO_FLAG_CTIMEOUT)) == 0U) ||
 8003430:	0512      	lsls	r2, r2, #20
 8003432:	d4f6      	bmi.n	8003422 <SDMMC_CmdAppOperCommand+0x36>
  if(__SDIO_GET_FLAG(SDIOx, SDIO_FLAG_CTIMEOUT))
 8003434:	6b60      	ldr	r0, [r4, #52]	; 0x34
 8003436:	f010 0004 	ands.w	r0, r0, #4
    __SDIO_CLEAR_FLAG(SDIOx, SDIO_FLAG_CTIMEOUT);
 800343a:	bf15      	itete	ne
 800343c:	2004      	movne	r0, #4
    __SDIO_CLEAR_FLAG(SDIOx, SDIO_STATIC_CMD_FLAGS);
 800343e:	23c5      	moveq	r3, #197	; 0xc5
    __SDIO_CLEAR_FLAG(SDIOx, SDIO_FLAG_CTIMEOUT);
 8003440:	63a0      	strne	r0, [r4, #56]	; 0x38
    __SDIO_CLEAR_FLAG(SDIOx, SDIO_STATIC_CMD_FLAGS);
 8003442:	63a3      	streq	r3, [r4, #56]	; 0x38
}
 8003444:	bc30      	pop	{r4, r5}
 8003446:	4770      	bx	lr
      return SDMMC_ERROR_TIMEOUT;
 8003448:	f04f 4000 	mov.w	r0, #2147483648	; 0x80000000
}
 800344c:	bc30      	pop	{r4, r5}
 800344e:	4770      	bx	lr
 8003450:	20000000 	.word	0x20000000
 8003454:	10624dd3 	.word	0x10624dd3

08003458 <SDMMC_CmdBusWidth>:
  register uint32_t count = Timeout * (SystemCoreClock / 8U /1000U);
 8003458:	f241 3388 	movw	r3, #5000	; 0x1388
 800345c:	4a1d      	ldr	r2, [pc, #116]	; (80034d4 <SDMMC_CmdBusWidth+0x7c>)
{
 800345e:	b410      	push	{r4}
  register uint32_t count = Timeout * (SystemCoreClock / 8U /1000U);
 8003460:	6812      	ldr	r2, [r2, #0]
 8003462:	4c1d      	ldr	r4, [pc, #116]	; (80034d8 <SDMMC_CmdBusWidth+0x80>)
  SDIOx->ARG = Command->Argument;
 8003464:	6081      	str	r1, [r0, #8]
  register uint32_t count = Timeout * (SystemCoreClock / 8U /1000U);
 8003466:	fba4 2102 	umull	r2, r1, r4, r2
  MODIFY_REG(SDIOx->CMD, CMD_CLEAR_MASK, tmpreg); 
 800346a:	68c2      	ldr	r2, [r0, #12]
  register uint32_t count = Timeout * (SystemCoreClock / 8U /1000U);
 800346c:	0a49      	lsrs	r1, r1, #9
  MODIFY_REG(SDIOx->CMD, CMD_CLEAR_MASK, tmpreg); 
 800346e:	f422 627f 	bic.w	r2, r2, #4080	; 0xff0
 8003472:	f022 020f 	bic.w	r2, r2, #15
  register uint32_t count = Timeout * (SystemCoreClock / 8U /1000U);
 8003476:	fb03 f301 	mul.w	r3, r3, r1
  MODIFY_REG(SDIOx->CMD, CMD_CLEAR_MASK, tmpreg); 
 800347a:	f442 6288 	orr.w	r2, r2, #1088	; 0x440
 800347e:	f042 0206 	orr.w	r2, r2, #6
 8003482:	60c2      	str	r2, [r0, #12]
    if (count-- == 0U)
 8003484:	f113 33ff 	adds.w	r3, r3, #4294967295
 8003488:	d313      	bcc.n	80034b2 <SDMMC_CmdBusWidth+0x5a>
    sta_reg = SDIOx->STA;
 800348a:	6b42      	ldr	r2, [r0, #52]	; 0x34
         ((sta_reg & SDIO_FLAG_CMDACT) != 0U ));
 800348c:	f012 0f45 	tst.w	r2, #69	; 0x45
 8003490:	d0f8      	beq.n	8003484 <SDMMC_CmdBusWidth+0x2c>
  }while(((sta_reg & (SDIO_FLAG_CCRCFAIL | SDIO_FLAG_CMDREND | SDIO_FLAG_CTIMEOUT)) == 0U) ||
 8003492:	0511      	lsls	r1, r2, #20
 8003494:	d4f6      	bmi.n	8003484 <SDMMC_CmdBusWidth+0x2c>
  if(__SDIO_GET_FLAG(SDIOx, SDIO_FLAG_CTIMEOUT))
 8003496:	6b43      	ldr	r3, [r0, #52]	; 0x34
 8003498:	075a      	lsls	r2, r3, #29
 800349a:	d413      	bmi.n	80034c4 <SDMMC_CmdBusWidth+0x6c>
  else if(__SDIO_GET_FLAG(SDIOx, SDIO_FLAG_CCRCFAIL))
 800349c:	6b43      	ldr	r3, [r0, #52]	; 0x34
 800349e:	07db      	lsls	r3, r3, #31
 80034a0:	d40b      	bmi.n	80034ba <SDMMC_CmdBusWidth+0x62>
  __SDIO_CLEAR_FLAG(SDIOx, SDIO_STATIC_CMD_FLAGS);
 80034a2:	23c5      	movs	r3, #197	; 0xc5
 80034a4:	6383      	str	r3, [r0, #56]	; 0x38
  return (uint8_t)(SDIOx->RESPCMD);
 80034a6:	6903      	ldr	r3, [r0, #16]
  if(SDIO_GetCommandResponse(SDIOx) != SD_CMD)
 80034a8:	b2db      	uxtb	r3, r3
 80034aa:	2b06      	cmp	r3, #6
 80034ac:	d00e      	beq.n	80034cc <SDMMC_CmdBusWidth+0x74>
    return SDMMC_ERROR_CMD_CRC_FAIL;
 80034ae:	2001      	movs	r0, #1
  return errorstate;
 80034b0:	e001      	b.n	80034b6 <SDMMC_CmdBusWidth+0x5e>
      return SDMMC_ERROR_TIMEOUT;
 80034b2:	f04f 4000 	mov.w	r0, #2147483648	; 0x80000000
}
 80034b6:	bc10      	pop	{r4}
 80034b8:	4770      	bx	lr
    __SDIO_CLEAR_FLAG(SDIOx, SDIO_FLAG_CCRCFAIL);
 80034ba:	2301      	movs	r3, #1
}
 80034bc:	bc10      	pop	{r4}
    __SDIO_CLEAR_FLAG(SDIOx, SDIO_FLAG_CCRCFAIL);
 80034be:	6383      	str	r3, [r0, #56]	; 0x38
    return SDMMC_ERROR_CMD_CRC_FAIL;
 80034c0:	4618      	mov	r0, r3
}
 80034c2:	4770      	bx	lr
    __SDIO_CLEAR_FLAG(SDIOx, SDIO_FLAG_CTIMEOUT);
 80034c4:	2304      	movs	r3, #4
 80034c6:	6383      	str	r3, [r0, #56]	; 0x38
    return SDMMC_ERROR_CMD_RSP_TIMEOUT;
 80034c8:	4618      	mov	r0, r3
 80034ca:	e7f4      	b.n	80034b6 <SDMMC_CmdBusWidth+0x5e>
}
 80034cc:	bc10      	pop	{r4}
 80034ce:	f7ff bc6b 	b.w	8002da8 <SDMMC_GetCmdResp1.part.2>
 80034d2:	bf00      	nop
 80034d4:	20000000 	.word	0x20000000
 80034d8:	10624dd3 	.word	0x10624dd3

080034dc <SDMMC_CmdSendSCR>:
{
 80034dc:	b410      	push	{r4}
  SDIOx->ARG = Command->Argument;
 80034de:	2400      	movs	r4, #0
  register uint32_t count = Timeout * (SystemCoreClock / 8U /1000U);
 80034e0:	f241 3388 	movw	r3, #5000	; 0x1388
 80034e4:	491c      	ldr	r1, [pc, #112]	; (8003558 <SDMMC_CmdSendSCR+0x7c>)
 80034e6:	4a1d      	ldr	r2, [pc, #116]	; (800355c <SDMMC_CmdSendSCR+0x80>)
 80034e8:	6809      	ldr	r1, [r1, #0]
  SDIOx->ARG = Command->Argument;
 80034ea:	6084      	str	r4, [r0, #8]
  register uint32_t count = Timeout * (SystemCoreClock / 8U /1000U);
 80034ec:	fba2 2101 	umull	r2, r1, r2, r1
  MODIFY_REG(SDIOx->CMD, CMD_CLEAR_MASK, tmpreg); 
 80034f0:	68c2      	ldr	r2, [r0, #12]
  register uint32_t count = Timeout * (SystemCoreClock / 8U /1000U);
 80034f2:	0a49      	lsrs	r1, r1, #9
  MODIFY_REG(SDIOx->CMD, CMD_CLEAR_MASK, tmpreg); 
 80034f4:	f422 627f 	bic.w	r2, r2, #4080	; 0xff0
 80034f8:	f022 020f 	bic.w	r2, r2, #15
  register uint32_t count = Timeout * (SystemCoreClock / 8U /1000U);
 80034fc:	fb03 f301 	mul.w	r3, r3, r1
  MODIFY_REG(SDIOx->CMD, CMD_CLEAR_MASK, tmpreg); 
 8003500:	f442 628e 	orr.w	r2, r2, #1136	; 0x470
 8003504:	f042 0203 	orr.w	r2, r2, #3
 8003508:	60c2      	str	r2, [r0, #12]
    if (count-- == 0U)
 800350a:	f113 33ff 	adds.w	r3, r3, #4294967295
 800350e:	d313      	bcc.n	8003538 <SDMMC_CmdSendSCR+0x5c>
    sta_reg = SDIOx->STA;
 8003510:	6b42      	ldr	r2, [r0, #52]	; 0x34
         ((sta_reg & SDIO_FLAG_CMDACT) != 0U ));
 8003512:	f012 0f45 	tst.w	r2, #69	; 0x45
 8003516:	d0f8      	beq.n	800350a <SDMMC_CmdSendSCR+0x2e>
  }while(((sta_reg & (SDIO_FLAG_CCRCFAIL | SDIO_FLAG_CMDREND | SDIO_FLAG_CTIMEOUT)) == 0U) ||
 8003518:	0511      	lsls	r1, r2, #20
 800351a:	d4f6      	bmi.n	800350a <SDMMC_CmdSendSCR+0x2e>
  if(__SDIO_GET_FLAG(SDIOx, SDIO_FLAG_CTIMEOUT))
 800351c:	6b43      	ldr	r3, [r0, #52]	; 0x34
 800351e:	075a      	lsls	r2, r3, #29
 8003520:	d413      	bmi.n	800354a <SDMMC_CmdSendSCR+0x6e>
  else if(__SDIO_GET_FLAG(SDIOx, SDIO_FLAG_CCRCFAIL))
 8003522:	6b43      	ldr	r3, [r0, #52]	; 0x34
 8003524:	07db      	lsls	r3, r3, #31
 8003526:	d40b      	bmi.n	8003540 <SDMMC_CmdSendSCR+0x64>
  __SDIO_CLEAR_FLAG(SDIOx, SDIO_STATIC_CMD_FLAGS);
 8003528:	23c5      	movs	r3, #197	; 0xc5
 800352a:	6383      	str	r3, [r0, #56]	; 0x38
  return (uint8_t)(SDIOx->RESPCMD);
 800352c:	6903      	ldr	r3, [r0, #16]
  if(SDIO_GetCommandResponse(SDIOx) != SD_CMD)
 800352e:	b2db      	uxtb	r3, r3
 8003530:	2b33      	cmp	r3, #51	; 0x33
 8003532:	d00e      	beq.n	8003552 <SDMMC_CmdSendSCR+0x76>
    return SDMMC_ERROR_CMD_CRC_FAIL;
 8003534:	2001      	movs	r0, #1
  return errorstate;
 8003536:	e001      	b.n	800353c <SDMMC_CmdSendSCR+0x60>
      return SDMMC_ERROR_TIMEOUT;
 8003538:	f04f 4000 	mov.w	r0, #2147483648	; 0x80000000
}
 800353c:	bc10      	pop	{r4}
 800353e:	4770      	bx	lr
    __SDIO_CLEAR_FLAG(SDIOx, SDIO_FLAG_CCRCFAIL);
 8003540:	2301      	movs	r3, #1
}
 8003542:	bc10      	pop	{r4}
    __SDIO_CLEAR_FLAG(SDIOx, SDIO_FLAG_CCRCFAIL);
 8003544:	6383      	str	r3, [r0, #56]	; 0x38
    return SDMMC_ERROR_CMD_CRC_FAIL;
 8003546:	4618      	mov	r0, r3
}
 8003548:	4770      	bx	lr
    __SDIO_CLEAR_FLAG(SDIOx, SDIO_FLAG_CTIMEOUT);
 800354a:	2304      	movs	r3, #4
 800354c:	6383      	str	r3, [r0, #56]	; 0x38
    return SDMMC_ERROR_CMD_RSP_TIMEOUT;
 800354e:	4618      	mov	r0, r3
 8003550:	e7f4      	b.n	800353c <SDMMC_CmdSendSCR+0x60>
}
 8003552:	bc10      	pop	{r4}
 8003554:	f7ff bc28 	b.w	8002da8 <SDMMC_GetCmdResp1.part.2>
 8003558:	20000000 	.word	0x20000000
 800355c:	10624dd3 	.word	0x10624dd3

08003560 <SDMMC_CmdSendCID>:
{
 8003560:	4601      	mov	r1, r0
 8003562:	b410      	push	{r4}
  SDIOx->ARG = Command->Argument;
 8003564:	2400      	movs	r4, #0
  register uint32_t count = SDIO_CMDTIMEOUT * (SystemCoreClock / 8U /1000U);
 8003566:	f241 3388 	movw	r3, #5000	; 0x1388
 800356a:	4818      	ldr	r0, [pc, #96]	; (80035cc <SDMMC_CmdSendCID+0x6c>)
 800356c:	4a18      	ldr	r2, [pc, #96]	; (80035d0 <SDMMC_CmdSendCID+0x70>)
 800356e:	6800      	ldr	r0, [r0, #0]
  SDIOx->ARG = Command->Argument;
 8003570:	608c      	str	r4, [r1, #8]
  register uint32_t count = SDIO_CMDTIMEOUT * (SystemCoreClock / 8U /1000U);
 8003572:	fba2 2000 	umull	r2, r0, r2, r0
  MODIFY_REG(SDIOx->CMD, CMD_CLEAR_MASK, tmpreg); 
 8003576:	68ca      	ldr	r2, [r1, #12]
  register uint32_t count = SDIO_CMDTIMEOUT * (SystemCoreClock / 8U /1000U);
 8003578:	0a40      	lsrs	r0, r0, #9
  MODIFY_REG(SDIOx->CMD, CMD_CLEAR_MASK, tmpreg); 
 800357a:	f422 627f 	bic.w	r2, r2, #4080	; 0xff0
 800357e:	f022 020f 	bic.w	r2, r2, #15
  register uint32_t count = SDIO_CMDTIMEOUT * (SystemCoreClock / 8U /1000U);
 8003582:	fb03 f300 	mul.w	r3, r3, r0
  MODIFY_REG(SDIOx->CMD, CMD_CLEAR_MASK, tmpreg); 
 8003586:	f442 6298 	orr.w	r2, r2, #1216	; 0x4c0
 800358a:	f042 0202 	orr.w	r2, r2, #2
 800358e:	60ca      	str	r2, [r1, #12]
    if (count-- == 0U)
 8003590:	f113 33ff 	adds.w	r3, r3, #4294967295
 8003594:	d312      	bcc.n	80035bc <SDMMC_CmdSendCID+0x5c>
    sta_reg = SDIOx->STA;
 8003596:	6b4a      	ldr	r2, [r1, #52]	; 0x34
         ((sta_reg & SDIO_FLAG_CMDACT) != 0U ));
 8003598:	f012 0f45 	tst.w	r2, #69	; 0x45
 800359c:	d0f8      	beq.n	8003590 <SDMMC_CmdSendCID+0x30>
  }while(((sta_reg & (SDIO_FLAG_CCRCFAIL | SDIO_FLAG_CMDREND | SDIO_FLAG_CTIMEOUT)) == 0U) ||
 800359e:	0512      	lsls	r2, r2, #20
 80035a0:	d4f6      	bmi.n	8003590 <SDMMC_CmdSendCID+0x30>
  if (__SDIO_GET_FLAG(SDIOx, SDIO_FLAG_CTIMEOUT))
 80035a2:	6b4b      	ldr	r3, [r1, #52]	; 0x34
 80035a4:	075b      	lsls	r3, r3, #29
 80035a6:	d40d      	bmi.n	80035c4 <SDMMC_CmdSendCID+0x64>
  else if (__SDIO_GET_FLAG(SDIOx, SDIO_FLAG_CCRCFAIL))
 80035a8:	6b48      	ldr	r0, [r1, #52]	; 0x34
}
 80035aa:	bc10      	pop	{r4}
  else if (__SDIO_GET_FLAG(SDIOx, SDIO_FLAG_CCRCFAIL))
 80035ac:	f010 0001 	ands.w	r0, r0, #1
    __SDIO_CLEAR_FLAG(SDIOx, SDIO_FLAG_CCRCFAIL);
 80035b0:	bf15      	itete	ne
 80035b2:	2001      	movne	r0, #1
    __SDIO_CLEAR_FLAG(SDIOx, SDIO_STATIC_CMD_FLAGS);
 80035b4:	23c5      	moveq	r3, #197	; 0xc5
    __SDIO_CLEAR_FLAG(SDIOx, SDIO_FLAG_CCRCFAIL);
 80035b6:	6388      	strne	r0, [r1, #56]	; 0x38
    __SDIO_CLEAR_FLAG(SDIOx, SDIO_STATIC_CMD_FLAGS);
 80035b8:	638b      	streq	r3, [r1, #56]	; 0x38
}
 80035ba:	4770      	bx	lr
      return SDMMC_ERROR_TIMEOUT;
 80035bc:	f04f 4000 	mov.w	r0, #2147483648	; 0x80000000
}
 80035c0:	bc10      	pop	{r4}
 80035c2:	4770      	bx	lr
    __SDIO_CLEAR_FLAG(SDIOx, SDIO_FLAG_CTIMEOUT);
 80035c4:	2004      	movs	r0, #4
 80035c6:	6388      	str	r0, [r1, #56]	; 0x38
 80035c8:	e7fa      	b.n	80035c0 <SDMMC_CmdSendCID+0x60>
 80035ca:	bf00      	nop
 80035cc:	20000000 	.word	0x20000000
 80035d0:	10624dd3 	.word	0x10624dd3

080035d4 <SDMMC_CmdSendCSD>:
{
 80035d4:	b410      	push	{r4}
 80035d6:	4604      	mov	r4, r0
  register uint32_t count = SDIO_CMDTIMEOUT * (SystemCoreClock / 8U /1000U);
 80035d8:	f241 3388 	movw	r3, #5000	; 0x1388
 80035dc:	4a17      	ldr	r2, [pc, #92]	; (800363c <SDMMC_CmdSendCSD+0x68>)
 80035de:	4818      	ldr	r0, [pc, #96]	; (8003640 <SDMMC_CmdSendCSD+0x6c>)
 80035e0:	6812      	ldr	r2, [r2, #0]
  SDIOx->ARG = Command->Argument;
 80035e2:	60a1      	str	r1, [r4, #8]
  register uint32_t count = SDIO_CMDTIMEOUT * (SystemCoreClock / 8U /1000U);
 80035e4:	fba0 2102 	umull	r2, r1, r0, r2
  MODIFY_REG(SDIOx->CMD, CMD_CLEAR_MASK, tmpreg); 
 80035e8:	68e2      	ldr	r2, [r4, #12]
  register uint32_t count = SDIO_CMDTIMEOUT * (SystemCoreClock / 8U /1000U);
 80035ea:	0a49      	lsrs	r1, r1, #9
  MODIFY_REG(SDIOx->CMD, CMD_CLEAR_MASK, tmpreg); 
 80035ec:	f422 627f 	bic.w	r2, r2, #4080	; 0xff0
 80035f0:	f022 020f 	bic.w	r2, r2, #15
  register uint32_t count = SDIO_CMDTIMEOUT * (SystemCoreClock / 8U /1000U);
 80035f4:	fb03 f301 	mul.w	r3, r3, r1
  MODIFY_REG(SDIOx->CMD, CMD_CLEAR_MASK, tmpreg); 
 80035f8:	f442 6299 	orr.w	r2, r2, #1224	; 0x4c8
 80035fc:	f042 0201 	orr.w	r2, r2, #1
 8003600:	60e2      	str	r2, [r4, #12]
    if (count-- == 0U)
 8003602:	f113 33ff 	adds.w	r3, r3, #4294967295
 8003606:	d312      	bcc.n	800362e <SDMMC_CmdSendCSD+0x5a>
    sta_reg = SDIOx->STA;
 8003608:	6b62      	ldr	r2, [r4, #52]	; 0x34
         ((sta_reg & SDIO_FLAG_CMDACT) != 0U ));
 800360a:	f012 0f45 	tst.w	r2, #69	; 0x45
 800360e:	d0f8      	beq.n	8003602 <SDMMC_CmdSendCSD+0x2e>
  }while(((sta_reg & (SDIO_FLAG_CCRCFAIL | SDIO_FLAG_CMDREND | SDIO_FLAG_CTIMEOUT)) == 0U) ||
 8003610:	0512      	lsls	r2, r2, #20
 8003612:	d4f6      	bmi.n	8003602 <SDMMC_CmdSendCSD+0x2e>
  if (__SDIO_GET_FLAG(SDIOx, SDIO_FLAG_CTIMEOUT))
 8003614:	6b63      	ldr	r3, [r4, #52]	; 0x34
 8003616:	075b      	lsls	r3, r3, #29
 8003618:	d40d      	bmi.n	8003636 <SDMMC_CmdSendCSD+0x62>
  else if (__SDIO_GET_FLAG(SDIOx, SDIO_FLAG_CCRCFAIL))
 800361a:	6b60      	ldr	r0, [r4, #52]	; 0x34
 800361c:	f010 0001 	ands.w	r0, r0, #1
    __SDIO_CLEAR_FLAG(SDIOx, SDIO_FLAG_CCRCFAIL);
 8003620:	bf15      	itete	ne
 8003622:	2001      	movne	r0, #1
    __SDIO_CLEAR_FLAG(SDIOx, SDIO_STATIC_CMD_FLAGS);
 8003624:	23c5      	moveq	r3, #197	; 0xc5
    __SDIO_CLEAR_FLAG(SDIOx, SDIO_FLAG_CCRCFAIL);
 8003626:	63a0      	strne	r0, [r4, #56]	; 0x38
    __SDIO_CLEAR_FLAG(SDIOx, SDIO_STATIC_CMD_FLAGS);
 8003628:	63a3      	streq	r3, [r4, #56]	; 0x38
}
 800362a:	bc10      	pop	{r4}
 800362c:	4770      	bx	lr
      return SDMMC_ERROR_TIMEOUT;
 800362e:	f04f 4000 	mov.w	r0, #2147483648	; 0x80000000
}
 8003632:	bc10      	pop	{r4}
 8003634:	4770      	bx	lr
    __SDIO_CLEAR_FLAG(SDIOx, SDIO_FLAG_CTIMEOUT);
 8003636:	2004      	movs	r0, #4
 8003638:	63a0      	str	r0, [r4, #56]	; 0x38
 800363a:	e7fa      	b.n	8003632 <SDMMC_CmdSendCSD+0x5e>
 800363c:	20000000 	.word	0x20000000
 8003640:	10624dd3 	.word	0x10624dd3

08003644 <SDMMC_CmdSetRelAdd>:
{
 8003644:	b430      	push	{r4, r5}
  SDIOx->ARG = Command->Argument;
 8003646:	2500      	movs	r5, #0
  register uint32_t count = SDIO_CMDTIMEOUT * (SystemCoreClock / 8U /1000U);
 8003648:	f241 3388 	movw	r3, #5000	; 0x1388
 800364c:	4c25      	ldr	r4, [pc, #148]	; (80036e4 <SDMMC_CmdSetRelAdd+0xa0>)
 800364e:	4a26      	ldr	r2, [pc, #152]	; (80036e8 <SDMMC_CmdSetRelAdd+0xa4>)
 8003650:	6824      	ldr	r4, [r4, #0]
  SDIOx->ARG = Command->Argument;
 8003652:	6085      	str	r5, [r0, #8]
  register uint32_t count = SDIO_CMDTIMEOUT * (SystemCoreClock / 8U /1000U);
 8003654:	fba2 2404 	umull	r2, r4, r2, r4
  MODIFY_REG(SDIOx->CMD, CMD_CLEAR_MASK, tmpreg); 
 8003658:	68c2      	ldr	r2, [r0, #12]
  register uint32_t count = SDIO_CMDTIMEOUT * (SystemCoreClock / 8U /1000U);
 800365a:	0a64      	lsrs	r4, r4, #9
  MODIFY_REG(SDIOx->CMD, CMD_CLEAR_MASK, tmpreg); 
 800365c:	f422 627f 	bic.w	r2, r2, #4080	; 0xff0
 8003660:	f022 020f 	bic.w	r2, r2, #15
  register uint32_t count = SDIO_CMDTIMEOUT * (SystemCoreClock / 8U /1000U);
 8003664:	fb03 f304 	mul.w	r3, r3, r4
  MODIFY_REG(SDIOx->CMD, CMD_CLEAR_MASK, tmpreg); 
 8003668:	f442 6288 	orr.w	r2, r2, #1088	; 0x440
 800366c:	f042 0203 	orr.w	r2, r2, #3
 8003670:	60c2      	str	r2, [r0, #12]
    if (count-- == 0U)
 8003672:	f113 33ff 	adds.w	r3, r3, #4294967295
 8003676:	d311      	bcc.n	800369c <SDMMC_CmdSetRelAdd+0x58>
    sta_reg = SDIOx->STA;
 8003678:	6b42      	ldr	r2, [r0, #52]	; 0x34
         ((sta_reg & SDIO_FLAG_CMDACT) != 0U ));
 800367a:	f012 0f45 	tst.w	r2, #69	; 0x45
 800367e:	d0f8      	beq.n	8003672 <SDMMC_CmdSetRelAdd+0x2e>
  }while(((sta_reg & (SDIO_FLAG_CCRCFAIL | SDIO_FLAG_CMDREND | SDIO_FLAG_CTIMEOUT)) == 0U) ||
 8003680:	0512      	lsls	r2, r2, #20
 8003682:	d4f6      	bmi.n	8003672 <SDMMC_CmdSetRelAdd+0x2e>
  if(__SDIO_GET_FLAG(SDIOx, SDIO_FLAG_CTIMEOUT))
 8003684:	6b43      	ldr	r3, [r0, #52]	; 0x34
 8003686:	075d      	lsls	r5, r3, #29
 8003688:	d411      	bmi.n	80036ae <SDMMC_CmdSetRelAdd+0x6a>
  else if(__SDIO_GET_FLAG(SDIOx, SDIO_FLAG_CCRCFAIL))
 800368a:	6b43      	ldr	r3, [r0, #52]	; 0x34
 800368c:	07dc      	lsls	r4, r3, #31
 800368e:	d409      	bmi.n	80036a4 <SDMMC_CmdSetRelAdd+0x60>
  return (uint8_t)(SDIOx->RESPCMD);
 8003690:	6903      	ldr	r3, [r0, #16]
  if(SDIO_GetCommandResponse(SDIOx) != SD_CMD)
 8003692:	b2db      	uxtb	r3, r3
 8003694:	2b03      	cmp	r3, #3
 8003696:	d00e      	beq.n	80036b6 <SDMMC_CmdSetRelAdd+0x72>
    return SDMMC_ERROR_CMD_CRC_FAIL;
 8003698:	2001      	movs	r0, #1
 800369a:	e001      	b.n	80036a0 <SDMMC_CmdSetRelAdd+0x5c>
      return SDMMC_ERROR_TIMEOUT;
 800369c:	f04f 4000 	mov.w	r0, #2147483648	; 0x80000000
}
 80036a0:	bc30      	pop	{r4, r5}
 80036a2:	4770      	bx	lr
    __SDIO_CLEAR_FLAG(SDIOx, SDIO_FLAG_CCRCFAIL);
 80036a4:	2301      	movs	r3, #1
}
 80036a6:	bc30      	pop	{r4, r5}
    __SDIO_CLEAR_FLAG(SDIOx, SDIO_FLAG_CCRCFAIL);
 80036a8:	6383      	str	r3, [r0, #56]	; 0x38
    return SDMMC_ERROR_CMD_CRC_FAIL;
 80036aa:	4618      	mov	r0, r3
}
 80036ac:	4770      	bx	lr
    __SDIO_CLEAR_FLAG(SDIOx, SDIO_FLAG_CTIMEOUT);
 80036ae:	2304      	movs	r3, #4
 80036b0:	6383      	str	r3, [r0, #56]	; 0x38
    return SDMMC_ERROR_CMD_RSP_TIMEOUT;
 80036b2:	4618      	mov	r0, r3
 80036b4:	e7f4      	b.n	80036a0 <SDMMC_CmdSetRelAdd+0x5c>
  __SDIO_CLEAR_FLAG(SDIOx, SDIO_STATIC_CMD_FLAGS);
 80036b6:	23c5      	movs	r3, #197	; 0xc5
 80036b8:	6383      	str	r3, [r0, #56]	; 0x38
  return (*(__IO uint32_t *) tmp);
 80036ba:	6943      	ldr	r3, [r0, #20]
  if((response_r1 & (SDMMC_R6_GENERAL_UNKNOWN_ERROR | SDMMC_R6_ILLEGAL_CMD | SDMMC_R6_COM_CRC_FAILED)) == SDMMC_ALLZERO)
 80036bc:	f413 4060 	ands.w	r0, r3, #57344	; 0xe000
 80036c0:	d009      	beq.n	80036d6 <SDMMC_CmdSetRelAdd+0x92>
  else if((response_r1 & SDMMC_R6_ILLEGAL_CMD) == SDMMC_R6_ILLEGAL_CMD)
 80036c2:	045a      	lsls	r2, r3, #17
 80036c4:	d40a      	bmi.n	80036dc <SDMMC_CmdSetRelAdd+0x98>
    return SDMMC_ERROR_COM_CRC_FAILED;
 80036c6:	f413 4f00 	tst.w	r3, #32768	; 0x8000
 80036ca:	bf0c      	ite	eq
 80036cc:	f44f 3080 	moveq.w	r0, #65536	; 0x10000
 80036d0:	f44f 5080 	movne.w	r0, #4096	; 0x1000
 80036d4:	e7e4      	b.n	80036a0 <SDMMC_CmdSetRelAdd+0x5c>
    *pRCA = (uint16_t) (response_r1 >> 16);
 80036d6:	0c1b      	lsrs	r3, r3, #16
 80036d8:	800b      	strh	r3, [r1, #0]
 80036da:	e7e1      	b.n	80036a0 <SDMMC_CmdSetRelAdd+0x5c>
    return SDMMC_ERROR_ILLEGAL_CMD;
 80036dc:	f44f 5000 	mov.w	r0, #8192	; 0x2000
 80036e0:	e7de      	b.n	80036a0 <SDMMC_CmdSetRelAdd+0x5c>
 80036e2:	bf00      	nop
 80036e4:	20000000 	.word	0x20000000
 80036e8:	10624dd3 	.word	0x10624dd3

080036ec <SDMMC_CmdSendStatus>:
  register uint32_t count = Timeout * (SystemCoreClock / 8U /1000U);
 80036ec:	f241 3388 	movw	r3, #5000	; 0x1388
 80036f0:	4a1d      	ldr	r2, [pc, #116]	; (8003768 <SDMMC_CmdSendStatus+0x7c>)
{
 80036f2:	b410      	push	{r4}
  register uint32_t count = Timeout * (SystemCoreClock / 8U /1000U);
 80036f4:	6812      	ldr	r2, [r2, #0]
 80036f6:	4c1d      	ldr	r4, [pc, #116]	; (800376c <SDMMC_CmdSendStatus+0x80>)
  SDIOx->ARG = Command->Argument;
 80036f8:	6081      	str	r1, [r0, #8]
  register uint32_t count = Timeout * (SystemCoreClock / 8U /1000U);
 80036fa:	fba4 2102 	umull	r2, r1, r4, r2
  MODIFY_REG(SDIOx->CMD, CMD_CLEAR_MASK, tmpreg); 
 80036fe:	68c2      	ldr	r2, [r0, #12]
  register uint32_t count = Timeout * (SystemCoreClock / 8U /1000U);
 8003700:	0a49      	lsrs	r1, r1, #9
  MODIFY_REG(SDIOx->CMD, CMD_CLEAR_MASK, tmpreg); 
 8003702:	f422 627f 	bic.w	r2, r2, #4080	; 0xff0
 8003706:	f022 020f 	bic.w	r2, r2, #15
  register uint32_t count = Timeout * (SystemCoreClock / 8U /1000U);
 800370a:	fb03 f301 	mul.w	r3, r3, r1
  MODIFY_REG(SDIOx->CMD, CMD_CLEAR_MASK, tmpreg); 
 800370e:	f442 6289 	orr.w	r2, r2, #1096	; 0x448
 8003712:	f042 0205 	orr.w	r2, r2, #5
 8003716:	60c2      	str	r2, [r0, #12]
    if (count-- == 0U)
 8003718:	f113 33ff 	adds.w	r3, r3, #4294967295
 800371c:	d313      	bcc.n	8003746 <SDMMC_CmdSendStatus+0x5a>
    sta_reg = SDIOx->STA;
 800371e:	6b42      	ldr	r2, [r0, #52]	; 0x34
         ((sta_reg & SDIO_FLAG_CMDACT) != 0U ));
 8003720:	f012 0f45 	tst.w	r2, #69	; 0x45
 8003724:	d0f8      	beq.n	8003718 <SDMMC_CmdSendStatus+0x2c>
  }while(((sta_reg & (SDIO_FLAG_CCRCFAIL | SDIO_FLAG_CMDREND | SDIO_FLAG_CTIMEOUT)) == 0U) ||
 8003726:	0511      	lsls	r1, r2, #20
 8003728:	d4f6      	bmi.n	8003718 <SDMMC_CmdSendStatus+0x2c>
  if(__SDIO_GET_FLAG(SDIOx, SDIO_FLAG_CTIMEOUT))
 800372a:	6b43      	ldr	r3, [r0, #52]	; 0x34
 800372c:	075a      	lsls	r2, r3, #29
 800372e:	d413      	bmi.n	8003758 <SDMMC_CmdSendStatus+0x6c>
  else if(__SDIO_GET_FLAG(SDIOx, SDIO_FLAG_CCRCFAIL))
 8003730:	6b43      	ldr	r3, [r0, #52]	; 0x34
 8003732:	07db      	lsls	r3, r3, #31
 8003734:	d40b      	bmi.n	800374e <SDMMC_CmdSendStatus+0x62>
  __SDIO_CLEAR_FLAG(SDIOx, SDIO_STATIC_CMD_FLAGS);
 8003736:	23c5      	movs	r3, #197	; 0xc5
 8003738:	6383      	str	r3, [r0, #56]	; 0x38
  return (uint8_t)(SDIOx->RESPCMD);
 800373a:	6903      	ldr	r3, [r0, #16]
  if(SDIO_GetCommandResponse(SDIOx) != SD_CMD)
 800373c:	b2db      	uxtb	r3, r3
 800373e:	2b0d      	cmp	r3, #13
 8003740:	d00e      	beq.n	8003760 <SDMMC_CmdSendStatus+0x74>
    return SDMMC_ERROR_CMD_CRC_FAIL;
 8003742:	2001      	movs	r0, #1
  return errorstate;
 8003744:	e001      	b.n	800374a <SDMMC_CmdSendStatus+0x5e>
      return SDMMC_ERROR_TIMEOUT;
 8003746:	f04f 4000 	mov.w	r0, #2147483648	; 0x80000000
}
 800374a:	bc10      	pop	{r4}
 800374c:	4770      	bx	lr
    __SDIO_CLEAR_FLAG(SDIOx, SDIO_FLAG_CCRCFAIL);
 800374e:	2301      	movs	r3, #1
}
 8003750:	bc10      	pop	{r4}
    __SDIO_CLEAR_FLAG(SDIOx, SDIO_FLAG_CCRCFAIL);
 8003752:	6383      	str	r3, [r0, #56]	; 0x38
    return SDMMC_ERROR_CMD_CRC_FAIL;
 8003754:	4618      	mov	r0, r3
}
 8003756:	4770      	bx	lr
    __SDIO_CLEAR_FLAG(SDIOx, SDIO_FLAG_CTIMEOUT);
 8003758:	2304      	movs	r3, #4
 800375a:	6383      	str	r3, [r0, #56]	; 0x38
    return SDMMC_ERROR_CMD_RSP_TIMEOUT;
 800375c:	4618      	mov	r0, r3
 800375e:	e7f4      	b.n	800374a <SDMMC_CmdSendStatus+0x5e>
}
 8003760:	bc10      	pop	{r4}
 8003762:	f7ff bb21 	b.w	8002da8 <SDMMC_GetCmdResp1.part.2>
 8003766:	bf00      	nop
 8003768:	20000000 	.word	0x20000000
 800376c:	10624dd3 	.word	0x10624dd3

08003770 <MX_FATFS_Init>:
/* USER CODE BEGIN Variables */

/* USER CODE END Variables */

void MX_FATFS_Init(void)
{
 8003770:	b508      	push	{r3, lr}
  /*## FatFS: Link the SD driver ###########################*/
  retSD = FATFS_LinkDriver(&SD_Driver, SDPath);
 8003772:	4903      	ldr	r1, [pc, #12]	; (8003780 <MX_FATFS_Init+0x10>)
 8003774:	4803      	ldr	r0, [pc, #12]	; (8003784 <MX_FATFS_Init+0x14>)
 8003776:	f003 ffd9 	bl	800772c <FATFS_LinkDriver>
 800377a:	4b03      	ldr	r3, [pc, #12]	; (8003788 <MX_FATFS_Init+0x18>)
 800377c:	7018      	strb	r0, [r3, #0]

  /* USER CODE BEGIN Init */
  /* additional user code for init */
  /* USER CODE END Init */
}
 800377e:	bd08      	pop	{r3, pc}
 8003780:	200042d4 	.word	0x200042d4
 8003784:	08009af8 	.word	0x08009af8
 8003788:	200048ac 	.word	0x200048ac

0800378c <get_fattime>:
DWORD get_fattime(void)
{
  /* USER CODE BEGIN get_fattime */
  return 0;
  /* USER CODE END get_fattime */
}
 800378c:	2000      	movs	r0, #0
 800378e:	4770      	bx	lr

08003790 <BSP_SD_ReadBlocks>:
  * @param  NumOfBlocks: Number of SD blocks to read
  * @param  Timeout: Timeout for read operation
  * @retval SD status
  */
__weak uint8_t BSP_SD_ReadBlocks(uint32_t *pData, uint32_t ReadAddr, uint32_t NumOfBlocks, uint32_t Timeout)
{
 8003790:	b500      	push	{lr}
 8003792:	b083      	sub	sp, #12
  uint8_t sd_state = MSD_OK;

  if (HAL_SD_ReadBlocks(&hsd, (uint8_t *)pData, ReadAddr, NumOfBlocks, Timeout) != HAL_OK)
 8003794:	9300      	str	r3, [sp, #0]
 8003796:	4613      	mov	r3, r2
 8003798:	460a      	mov	r2, r1
 800379a:	4601      	mov	r1, r0
 800379c:	4804      	ldr	r0, [pc, #16]	; (80037b0 <BSP_SD_ReadBlocks+0x20>)
 800379e:	f7fe fa91 	bl	8001cc4 <HAL_SD_ReadBlocks>
  {
    sd_state = MSD_ERROR;
  }

  return sd_state;
}
 80037a2:	3000      	adds	r0, #0
 80037a4:	bf18      	it	ne
 80037a6:	2001      	movne	r0, #1
 80037a8:	b003      	add	sp, #12
 80037aa:	f85d fb04 	ldr.w	pc, [sp], #4
 80037ae:	bf00      	nop
 80037b0:	20004574 	.word	0x20004574

080037b4 <BSP_SD_WriteBlocks>:
  * @param  NumOfBlocks: Number of SD blocks to write
  * @param  Timeout: Timeout for write operation
  * @retval SD status
  */
__weak uint8_t BSP_SD_WriteBlocks(uint32_t *pData, uint32_t WriteAddr, uint32_t NumOfBlocks, uint32_t Timeout)
{
 80037b4:	b500      	push	{lr}
 80037b6:	b083      	sub	sp, #12
  uint8_t sd_state = MSD_OK;

  if (HAL_SD_WriteBlocks(&hsd, (uint8_t *)pData, WriteAddr, NumOfBlocks, Timeout) != HAL_OK)
 80037b8:	9300      	str	r3, [sp, #0]
 80037ba:	4613      	mov	r3, r2
 80037bc:	460a      	mov	r2, r1
 80037be:	4601      	mov	r1, r0
 80037c0:	4804      	ldr	r0, [pc, #16]	; (80037d4 <BSP_SD_WriteBlocks+0x20>)
 80037c2:	f7fe fbbd 	bl	8001f40 <HAL_SD_WriteBlocks>
  {
    sd_state = MSD_ERROR;
  }

  return sd_state;
}
 80037c6:	3000      	adds	r0, #0
 80037c8:	bf18      	it	ne
 80037ca:	2001      	movne	r0, #1
 80037cc:	b003      	add	sp, #12
 80037ce:	f85d fb04 	ldr.w	pc, [sp], #4
 80037d2:	bf00      	nop
 80037d4:	20004574 	.word	0x20004574

080037d8 <BSP_SD_GetCardState>:
  *          This value can be one of the following values:
  *            @arg  SD_TRANSFER_OK: No data transfer is acting
  *            @arg  SD_TRANSFER_BUSY: Data transfer is acting
  */
__weak uint8_t BSP_SD_GetCardState(void)
{
 80037d8:	b508      	push	{r3, lr}
  return ((HAL_SD_GetCardState(&hsd) == HAL_SD_CARD_TRANSFER ) ? SD_TRANSFER_OK : SD_TRANSFER_BUSY);
 80037da:	4803      	ldr	r0, [pc, #12]	; (80037e8 <BSP_SD_GetCardState+0x10>)
 80037dc:	f7ff f8ba 	bl	8002954 <HAL_SD_GetCardState>
}
 80037e0:	3804      	subs	r0, #4
 80037e2:	bf18      	it	ne
 80037e4:	2001      	movne	r0, #1
 80037e6:	bd08      	pop	{r3, pc}
 80037e8:	20004574 	.word	0x20004574

080037ec <BSP_SD_GetCardInfo>:
  * @retval None
  */
__weak void BSP_SD_GetCardInfo(HAL_SD_CardInfoTypeDef *CardInfo)
{
  /* Get SD card Information */
  HAL_SD_GetCardInfo(&hsd, CardInfo);
 80037ec:	4601      	mov	r1, r0
 80037ee:	4801      	ldr	r0, [pc, #4]	; (80037f4 <BSP_SD_GetCardInfo+0x8>)
 80037f0:	f7ff b812 	b.w	8002818 <HAL_SD_GetCardInfo>
 80037f4:	20004574 	.word	0x20004574

080037f8 <BSP_SD_AbortCallback>:
 80037f8:	4770      	bx	lr
 80037fa:	bf00      	nop

080037fc <HAL_SD_AbortCallback>:
  * @brief SD Abort callbacks
  * @param hsd: SD handle
  * @retval None
  */
void HAL_SD_AbortCallback(SD_HandleTypeDef *hsd)
{
 80037fc:	b508      	push	{r3, lr}
  BSP_SD_AbortCallback();
 80037fe:	f7ff fffb 	bl	80037f8 <BSP_SD_AbortCallback>
}
 8003802:	bd08      	pop	{r3, pc}

08003804 <BSP_SD_WriteCpltCallback>:
 8003804:	4770      	bx	lr
 8003806:	bf00      	nop

08003808 <HAL_SD_TxCpltCallback>:
  * @brief Tx Transfer completed callback
  * @param hsd: SD handle
  * @retval None
  */
void HAL_SD_TxCpltCallback(SD_HandleTypeDef *hsd)
{
 8003808:	b508      	push	{r3, lr}
  BSP_SD_WriteCpltCallback();
 800380a:	f7ff fffb 	bl	8003804 <BSP_SD_WriteCpltCallback>
}
 800380e:	bd08      	pop	{r3, pc}

08003810 <BSP_SD_ReadCpltCallback>:
 8003810:	4770      	bx	lr
 8003812:	bf00      	nop

08003814 <HAL_SD_RxCpltCallback>:
  * @brief Rx Transfer completed callback
  * @param hsd: SD handle
  * @retval None
  */
void HAL_SD_RxCpltCallback(SD_HandleTypeDef *hsd)
{
 8003814:	b508      	push	{r3, lr}
  BSP_SD_ReadCpltCallback();
 8003816:	f7ff fffb 	bl	8003810 <BSP_SD_ReadCpltCallback>
}
 800381a:	bd08      	pop	{r3, pc}

0800381c <BSP_SD_IsDetected>:
 * @param  None
 * @retval Returns if SD is detected or not
 */
__weak uint8_t BSP_SD_IsDetected(void)
{
  __IO uint8_t status = SD_PRESENT;
 800381c:	2301      	movs	r3, #1
{
 800381e:	b500      	push	{lr}
 8003820:	b083      	sub	sp, #12
  __IO uint8_t status = SD_PRESENT;
 8003822:	f88d 3007 	strb.w	r3, [sp, #7]

  if (BSP_PlatformIsDetected() == 0x0)
 8003826:	f000 f821 	bl	800386c <BSP_PlatformIsDetected>
 800382a:	b908      	cbnz	r0, 8003830 <BSP_SD_IsDetected+0x14>
  {
    status = SD_NOT_PRESENT;
 800382c:	f88d 0007 	strb.w	r0, [sp, #7]
  }

  return status;
 8003830:	f89d 0007 	ldrb.w	r0, [sp, #7]
}
 8003834:	b003      	add	sp, #12
 8003836:	f85d fb04 	ldr.w	pc, [sp], #4
 800383a:	bf00      	nop

0800383c <BSP_SD_Init>:
{
 800383c:	b508      	push	{r3, lr}
  if (BSP_SD_IsDetected() != SD_PRESENT)
 800383e:	f7ff ffed 	bl	800381c <BSP_SD_IsDetected>
 8003842:	2801      	cmp	r0, #1
 8003844:	d001      	beq.n	800384a <BSP_SD_Init+0xe>
    return MSD_ERROR;
 8003846:	2001      	movs	r0, #1
}
 8003848:	bd08      	pop	{r3, pc}
  sd_state = HAL_SD_Init(&hsd);
 800384a:	4807      	ldr	r0, [pc, #28]	; (8003868 <BSP_SD_Init+0x2c>)
 800384c:	f7fe feca 	bl	80025e4 <HAL_SD_Init>
  if (sd_state == MSD_OK)
 8003850:	2800      	cmp	r0, #0
 8003852:	d1f9      	bne.n	8003848 <BSP_SD_Init+0xc>
    if (HAL_SD_ConfigWideBusOperation(&hsd, SDIO_BUS_WIDE_4B) != HAL_OK)
 8003854:	f44f 6100 	mov.w	r1, #2048	; 0x800
 8003858:	4803      	ldr	r0, [pc, #12]	; (8003868 <BSP_SD_Init+0x2c>)
 800385a:	f7fe fff1 	bl	8002840 <HAL_SD_ConfigWideBusOperation>
    return MSD_ERROR;
 800385e:	3000      	adds	r0, #0
 8003860:	bf18      	it	ne
 8003862:	2001      	movne	r0, #1
}
 8003864:	bd08      	pop	{r3, pc}
 8003866:	bf00      	nop
 8003868:	20004574 	.word	0x20004574

0800386c <BSP_PlatformIsDetected>:
  *
  ******************************************************************************
*/
#include "fatfs_platform.h"

uint8_t	BSP_PlatformIsDetected(void) {
 800386c:	b508      	push	{r3, lr}
    uint8_t status = SD_PRESENT;
    /* Check SD card detect pin */
    if(HAL_GPIO_ReadPin(SD_DETECT_GPIO_PORT, SD_DETECT_PIN) != GPIO_PIN_RESET)
 800386e:	2104      	movs	r1, #4
 8003870:	4803      	ldr	r0, [pc, #12]	; (8003880 <BSP_PlatformIsDetected+0x14>)
 8003872:	f7fd febf 	bl	80015f4 <HAL_GPIO_ReadPin>
    }
    /* USER CODE BEGIN 1 */
    /* user code can be inserted here */
    /* USER CODE END 1 */
    return status;
}
 8003876:	fab0 f080 	clz	r0, r0
 800387a:	0940      	lsrs	r0, r0, #5
 800387c:	bd08      	pop	{r3, pc}
 800387e:	bf00      	nop
 8003880:	40021800 	.word	0x40021800

08003884 <disk_status>:
	BYTE pdrv		/* Physical drive nmuber to identify the drive */
)
{
  DSTATUS stat;
  
  stat = disk.drv[pdrv]->disk_status(disk.lun[pdrv]);
 8003884:	4b03      	ldr	r3, [pc, #12]	; (8003894 <disk_status+0x10>)
 8003886:	eb03 0280 	add.w	r2, r3, r0, lsl #2
 800388a:	6852      	ldr	r2, [r2, #4]
 800388c:	4403      	add	r3, r0
 800388e:	6852      	ldr	r2, [r2, #4]
 8003890:	7a18      	ldrb	r0, [r3, #8]
 8003892:	4710      	bx	r2
 8003894:	200000b8 	.word	0x200000b8

08003898 <disk_initialize>:
	BYTE pdrv				/* Physical drive nmuber to identify the drive */
)
{
  DSTATUS stat = RES_OK;
  
  if(disk.is_initialized[pdrv] == 0)
 8003898:	4b06      	ldr	r3, [pc, #24]	; (80038b4 <disk_initialize+0x1c>)
 800389a:	5c1a      	ldrb	r2, [r3, r0]
 800389c:	b942      	cbnz	r2, 80038b0 <disk_initialize+0x18>
  { 
    disk.is_initialized[pdrv] = 1;
 800389e:	2101      	movs	r1, #1
    stat = disk.drv[pdrv]->disk_initialize(disk.lun[pdrv]);
 80038a0:	eb03 0280 	add.w	r2, r3, r0, lsl #2
 80038a4:	6852      	ldr	r2, [r2, #4]
    disk.is_initialized[pdrv] = 1;
 80038a6:	5419      	strb	r1, [r3, r0]
    stat = disk.drv[pdrv]->disk_initialize(disk.lun[pdrv]);
 80038a8:	4403      	add	r3, r0
 80038aa:	6812      	ldr	r2, [r2, #0]
 80038ac:	7a18      	ldrb	r0, [r3, #8]
 80038ae:	4710      	bx	r2
  }
  return stat;
}
 80038b0:	2000      	movs	r0, #0
 80038b2:	4770      	bx	lr
 80038b4:	200000b8 	.word	0x200000b8

080038b8 <disk_read>:
	BYTE pdrv,		/* Physical drive nmuber to identify the drive */
	BYTE *buff,		/* Data buffer to store read data */
	DWORD sector,	        /* Sector address in LBA */
	UINT count		/* Number of sectors to read */
)
{
 80038b8:	b430      	push	{r4, r5}
  DRESULT res;
 
  res = disk.drv[pdrv]->disk_read(disk.lun[pdrv], buff, sector, count);
 80038ba:	4c05      	ldr	r4, [pc, #20]	; (80038d0 <disk_read+0x18>)
 80038bc:	eb04 0580 	add.w	r5, r4, r0, lsl #2
 80038c0:	686d      	ldr	r5, [r5, #4]
 80038c2:	4404      	add	r4, r0
 80038c4:	68ad      	ldr	r5, [r5, #8]
 80038c6:	7a20      	ldrb	r0, [r4, #8]
 80038c8:	46ac      	mov	ip, r5
  return res;
}
 80038ca:	bc30      	pop	{r4, r5}
  res = disk.drv[pdrv]->disk_read(disk.lun[pdrv], buff, sector, count);
 80038cc:	4760      	bx	ip
 80038ce:	bf00      	nop
 80038d0:	200000b8 	.word	0x200000b8

080038d4 <disk_write>:
	BYTE pdrv,		/* Physical drive nmuber to identify the drive */
	const BYTE *buff,	/* Data to be written */
	DWORD sector,		/* Sector address in LBA */
	UINT count        	/* Number of sectors to write */
)
{
 80038d4:	b430      	push	{r4, r5}
  DRESULT res;
  
  res = disk.drv[pdrv]->disk_write(disk.lun[pdrv], buff, sector, count);
 80038d6:	4c05      	ldr	r4, [pc, #20]	; (80038ec <disk_write+0x18>)
 80038d8:	eb04 0580 	add.w	r5, r4, r0, lsl #2
 80038dc:	686d      	ldr	r5, [r5, #4]
 80038de:	4404      	add	r4, r0
 80038e0:	68ed      	ldr	r5, [r5, #12]
 80038e2:	7a20      	ldrb	r0, [r4, #8]
 80038e4:	46ac      	mov	ip, r5
  return res;
}
 80038e6:	bc30      	pop	{r4, r5}
  res = disk.drv[pdrv]->disk_write(disk.lun[pdrv], buff, sector, count);
 80038e8:	4760      	bx	ip
 80038ea:	bf00      	nop
 80038ec:	200000b8 	.word	0x200000b8

080038f0 <disk_ioctl>:
	void *buff		/* Buffer to send/receive control data */
)
{
  DRESULT res;

  res = disk.drv[pdrv]->disk_ioctl(disk.lun[pdrv], cmd, buff);
 80038f0:	4b05      	ldr	r3, [pc, #20]	; (8003908 <disk_ioctl+0x18>)
{
 80038f2:	b410      	push	{r4}
  res = disk.drv[pdrv]->disk_ioctl(disk.lun[pdrv], cmd, buff);
 80038f4:	eb03 0480 	add.w	r4, r3, r0, lsl #2
 80038f8:	6864      	ldr	r4, [r4, #4]
 80038fa:	4403      	add	r3, r0
 80038fc:	6924      	ldr	r4, [r4, #16]
 80038fe:	7a18      	ldrb	r0, [r3, #8]
 8003900:	4623      	mov	r3, r4
  return res;
}
 8003902:	bc10      	pop	{r4}
  res = disk.drv[pdrv]->disk_ioctl(disk.lun[pdrv], cmd, buff);
 8003904:	4718      	bx	r3
 8003906:	bf00      	nop
 8003908:	200000b8 	.word	0x200000b8

0800390c <move_window.part.3>:
}
#endif


static
FRESULT move_window (
 800390c:	b5f8      	push	{r3, r4, r5, r6, r7, lr}
	if (fs->wflag) {	/* Write back the sector if it is dirty */
 800390e:	f890 3204 	ldrb.w	r3, [r0, #516]	; 0x204
FRESULT move_window (
 8003912:	4604      	mov	r4, r0
 8003914:	460e      	mov	r6, r1
	if (fs->wflag) {	/* Write back the sector if it is dirty */
 8003916:	b97b      	cbnz	r3, 8003938 <move_window.part.3+0x2c>
	if (sector != fs->winsect) {	/* Window offset changed? */
#if !_FS_READONLY
		res = sync_window(fs);		/* Write-back changes */
#endif
		if (res == FR_OK) {			/* Fill sector window with new data */
			if (disk_read(fs->drv, fs->win.d8, sector, 1) != RES_OK) {
 8003918:	4632      	mov	r2, r6
 800391a:	2301      	movs	r3, #1
 800391c:	4621      	mov	r1, r4
 800391e:	f894 0201 	ldrb.w	r0, [r4, #513]	; 0x201
 8003922:	f7ff ffc9 	bl	80038b8 <disk_read>
 8003926:	2800      	cmp	r0, #0
 8003928:	bf1a      	itte	ne
 800392a:	f04f 36ff 	movne.w	r6, #4294967295
 800392e:	2001      	movne	r0, #1
 8003930:	2000      	moveq	r0, #0
				sector = 0xFFFFFFFF;	/* Invalidate window if data is not reliable */
				res = FR_DISK_ERR;
			}
			fs->winsect = sector;
 8003932:	f8c4 6230 	str.w	r6, [r4, #560]	; 0x230
 8003936:	e023      	b.n	8003980 <move_window.part.3+0x74>
		wsect = fs->winsect;	/* Current sector number */
 8003938:	f8d0 5230 	ldr.w	r5, [r0, #560]	; 0x230
		if (disk_write(fs->drv, fs->win.d8, wsect, 1) != RES_OK) {
 800393c:	4601      	mov	r1, r0
 800393e:	2301      	movs	r3, #1
 8003940:	462a      	mov	r2, r5
 8003942:	f890 0201 	ldrb.w	r0, [r0, #513]	; 0x201
 8003946:	f7ff ffc5 	bl	80038d4 <disk_write>
 800394a:	b9c0      	cbnz	r0, 800397e <move_window.part.3+0x72>
			if (wsect - fs->fatbase < fs->fsize) {		/* Is it in the FAT area? */
 800394c:	f8d4 3224 	ldr.w	r3, [r4, #548]	; 0x224
 8003950:	f8d4 221c 	ldr.w	r2, [r4, #540]	; 0x21c
 8003954:	1aeb      	subs	r3, r5, r3
 8003956:	4293      	cmp	r3, r2
			fs->wflag = 0;
 8003958:	f884 0204 	strb.w	r0, [r4, #516]	; 0x204
			if (wsect - fs->fatbase < fs->fsize) {		/* Is it in the FAT area? */
 800395c:	d2dc      	bcs.n	8003918 <move_window.part.3+0xc>
				for (nf = fs->n_fats; nf >= 2; nf--) {	/* Reflect the change to all FAT copies */
 800395e:	f894 7203 	ldrb.w	r7, [r4, #515]	; 0x203
 8003962:	2f01      	cmp	r7, #1
 8003964:	f894 0201 	ldrb.w	r0, [r4, #513]	; 0x201
 8003968:	d9d6      	bls.n	8003918 <move_window.part.3+0xc>
					wsect += fs->fsize;
 800396a:	f8d4 321c 	ldr.w	r3, [r4, #540]	; 0x21c
					disk_write(fs->drv, fs->win.d8, wsect, 1);
 800396e:	4621      	mov	r1, r4
					wsect += fs->fsize;
 8003970:	441d      	add	r5, r3
					disk_write(fs->drv, fs->win.d8, wsect, 1);
 8003972:	462a      	mov	r2, r5
 8003974:	2301      	movs	r3, #1
 8003976:	f7ff ffad 	bl	80038d4 <disk_write>
				for (nf = fs->n_fats; nf >= 2; nf--) {	/* Reflect the change to all FAT copies */
 800397a:	3f01      	subs	r7, #1
 800397c:	e7f1      	b.n	8003962 <move_window.part.3+0x56>
			res = FR_DISK_ERR;
 800397e:	2001      	movs	r0, #1
		}
	}
	return res;
}
 8003980:	bdf8      	pop	{r3, r4, r5, r6, r7, pc}
	...

08003984 <sync_fs>:
#if !_FS_READONLY
static
FRESULT sync_fs (	/* FR_OK: successful, FR_DISK_ERR: failed */
	FATFS* fs		/* File system object */
)
{
 8003984:	b570      	push	{r4, r5, r6, lr}
	if (fs->wflag) {	/* Write back the sector if it is dirty */
 8003986:	f890 3204 	ldrb.w	r3, [r0, #516]	; 0x204
{
 800398a:	4604      	mov	r4, r0
	if (fs->wflag) {	/* Write back the sector if it is dirty */
 800398c:	b96b      	cbnz	r3, 80039aa <sync_fs+0x26>


	res = sync_window(fs);
	if (res == FR_OK) {
		/* Update FSINFO sector if needed */
		if (fs->fs_type == FS_FAT32 && fs->fsi_flag == 1) {
 800398e:	f894 3200 	ldrb.w	r3, [r4, #512]	; 0x200
 8003992:	2b03      	cmp	r3, #3
 8003994:	d030      	beq.n	80039f8 <sync_fs+0x74>
			fs->winsect = fs->volbase + 1;
			disk_write(fs->drv, fs->win.d8, fs->winsect, 1);
			fs->fsi_flag = 0;
		}
		/* Make sure that no pending write process in the physical drive */
		if (disk_ioctl(fs->drv, CTRL_SYNC, 0) != RES_OK)
 8003996:	2200      	movs	r2, #0
 8003998:	f894 0201 	ldrb.w	r0, [r4, #513]	; 0x201
 800399c:	4611      	mov	r1, r2
 800399e:	f7ff ffa7 	bl	80038f0 <disk_ioctl>
			res = FR_DISK_ERR;
 80039a2:	3000      	adds	r0, #0
 80039a4:	bf18      	it	ne
 80039a6:	2001      	movne	r0, #1
			res = FR_DISK_ERR;
	}

	return res;
}
 80039a8:	bd70      	pop	{r4, r5, r6, pc}
		wsect = fs->winsect;	/* Current sector number */
 80039aa:	f8d0 5230 	ldr.w	r5, [r0, #560]	; 0x230
		if (disk_write(fs->drv, fs->win.d8, wsect, 1) != RES_OK) {
 80039ae:	4601      	mov	r1, r0
 80039b0:	2301      	movs	r3, #1
 80039b2:	462a      	mov	r2, r5
 80039b4:	f890 0201 	ldrb.w	r0, [r0, #513]	; 0x201
 80039b8:	f7ff ff8c 	bl	80038d4 <disk_write>
 80039bc:	2800      	cmp	r0, #0
 80039be:	d145      	bne.n	8003a4c <sync_fs+0xc8>
			if (wsect - fs->fatbase < fs->fsize) {		/* Is it in the FAT area? */
 80039c0:	f8d4 2224 	ldr.w	r2, [r4, #548]	; 0x224
 80039c4:	f8d4 321c 	ldr.w	r3, [r4, #540]	; 0x21c
 80039c8:	1aaa      	subs	r2, r5, r2
 80039ca:	429a      	cmp	r2, r3
			fs->wflag = 0;
 80039cc:	f884 0204 	strb.w	r0, [r4, #516]	; 0x204
			if (wsect - fs->fatbase < fs->fsize) {		/* Is it in the FAT area? */
 80039d0:	d2dd      	bcs.n	800398e <sync_fs+0xa>
				for (nf = fs->n_fats; nf >= 2; nf--) {	/* Reflect the change to all FAT copies */
 80039d2:	f894 6203 	ldrb.w	r6, [r4, #515]	; 0x203
 80039d6:	2e01      	cmp	r6, #1
 80039d8:	d802      	bhi.n	80039e0 <sync_fs+0x5c>
 80039da:	e7d8      	b.n	800398e <sync_fs+0xa>
 80039dc:	f8d4 321c 	ldr.w	r3, [r4, #540]	; 0x21c
					wsect += fs->fsize;
 80039e0:	441d      	add	r5, r3
				for (nf = fs->n_fats; nf >= 2; nf--) {	/* Reflect the change to all FAT copies */
 80039e2:	3e01      	subs	r6, #1
					disk_write(fs->drv, fs->win.d8, wsect, 1);
 80039e4:	462a      	mov	r2, r5
 80039e6:	2301      	movs	r3, #1
 80039e8:	4621      	mov	r1, r4
 80039ea:	f894 0201 	ldrb.w	r0, [r4, #513]	; 0x201
 80039ee:	f7ff ff71 	bl	80038d4 <disk_write>
				for (nf = fs->n_fats; nf >= 2; nf--) {	/* Reflect the change to all FAT copies */
 80039f2:	2e01      	cmp	r6, #1
 80039f4:	d1f2      	bne.n	80039dc <sync_fs+0x58>
 80039f6:	e7ca      	b.n	800398e <sync_fs+0xa>
		if (fs->fs_type == FS_FAT32 && fs->fsi_flag == 1) {
 80039f8:	f894 5205 	ldrb.w	r5, [r4, #517]	; 0x205
 80039fc:	2d01      	cmp	r5, #1
 80039fe:	d1ca      	bne.n	8003996 <sync_fs+0x12>
 8003a00:	f44f 7200 	mov.w	r2, #512	; 0x200
 8003a04:	2100      	movs	r1, #0
 8003a06:	4620      	mov	r0, r4
 8003a08:	f005 ff17 	bl	800983a <memset>
			ST_WORD(fs->win.d8 + BS_55AA, 0xAA55);
 8003a0c:	f64a 2055 	movw	r0, #43605	; 0xaa55
			ST_DWORD(fs->win.d8 + FSI_LeadSig, 0x41615252);
 8003a10:	490f      	ldr	r1, [pc, #60]	; (8003a50 <sync_fs+0xcc>)
			fs->winsect = fs->volbase + 1;
 8003a12:	f8d4 2220 	ldr.w	r2, [r4, #544]	; 0x220
			ST_WORD(fs->win.d8 + BS_55AA, 0xAA55);
 8003a16:	f8a4 01fe 	strh.w	r0, [r4, #510]	; 0x1fe
			ST_DWORD(fs->win.d8 + FSI_LeadSig, 0x41615252);
 8003a1a:	6021      	str	r1, [r4, #0]
			ST_DWORD(fs->win.d8 + FSI_Free_Count, fs->free_clust);
 8003a1c:	f8d4 0214 	ldr.w	r0, [r4, #532]	; 0x214
			ST_DWORD(fs->win.d8 + FSI_Nxt_Free, fs->last_clust);
 8003a20:	f8d4 1210 	ldr.w	r1, [r4, #528]	; 0x210
			ST_DWORD(fs->win.d8 + FSI_StrucSig, 0x61417272);
 8003a24:	4e0b      	ldr	r6, [pc, #44]	; (8003a54 <sync_fs+0xd0>)
			fs->winsect = fs->volbase + 1;
 8003a26:	3201      	adds	r2, #1
			disk_write(fs->drv, fs->win.d8, fs->winsect, 1);
 8003a28:	462b      	mov	r3, r5
			ST_DWORD(fs->win.d8 + FSI_Free_Count, fs->free_clust);
 8003a2a:	f8c4 01e8 	str.w	r0, [r4, #488]	; 0x1e8
			ST_DWORD(fs->win.d8 + FSI_Nxt_Free, fs->last_clust);
 8003a2e:	f8c4 11ec 	str.w	r1, [r4, #492]	; 0x1ec
			fs->winsect = fs->volbase + 1;
 8003a32:	f8c4 2230 	str.w	r2, [r4, #560]	; 0x230
			ST_DWORD(fs->win.d8 + FSI_StrucSig, 0x61417272);
 8003a36:	f8c4 61e4 	str.w	r6, [r4, #484]	; 0x1e4
			disk_write(fs->drv, fs->win.d8, fs->winsect, 1);
 8003a3a:	4621      	mov	r1, r4
 8003a3c:	f894 0201 	ldrb.w	r0, [r4, #513]	; 0x201
 8003a40:	f7ff ff48 	bl	80038d4 <disk_write>
			fs->fsi_flag = 0;
 8003a44:	2300      	movs	r3, #0
 8003a46:	f884 3205 	strb.w	r3, [r4, #517]	; 0x205
 8003a4a:	e7a4      	b.n	8003996 <sync_fs+0x12>
			res = FR_DISK_ERR;
 8003a4c:	2001      	movs	r0, #1
}
 8003a4e:	bd70      	pop	{r4, r5, r6, pc}
 8003a50:	41615252 	.word	0x41615252
 8003a54:	61417272 	.word	0x61417272

08003a58 <remove_chain.part.12>:
/*-----------------------------------------------------------------------*/
/* FAT handling - Remove a cluster chain                                 */
/*-----------------------------------------------------------------------*/
#if !_FS_READONLY
static
FRESULT remove_chain (
 8003a58:	e92d 4ff8 	stmdb	sp!, {r3, r4, r5, r6, r7, r8, r9, sl, fp, lr}
 8003a5c:	460d      	mov	r5, r1
 8003a5e:	f8d0 1218 	ldr.w	r1, [r0, #536]	; 0x218
 8003a62:	4604      	mov	r4, r0
	if (clst < 2 || clst >= fs->n_fatent) {	/* Check range */
		res = FR_INT_ERR;

	} else {
		res = FR_OK;
		while (clst < fs->n_fatent) {			/* Not a last link? */
 8003a64:	428d      	cmp	r5, r1
			if (disk_read(fs->drv, fs->win.d8, sector, 1) != RES_OK) {
 8003a66:	f04f 0901 	mov.w	r9, #1
		while (clst < fs->n_fatent) {			/* Not a last link? */
 8003a6a:	f080 81ab 	bcs.w	8003dc4 <remove_chain.part.12+0x36c>
	if (clst < 2 || clst >= fs->n_fatent) {	/* Check range */
 8003a6e:	2d01      	cmp	r5, #1
 8003a70:	d908      	bls.n	8003a84 <remove_chain.part.12+0x2c>
		switch (fs->fs_type) {
 8003a72:	f894 3200 	ldrb.w	r3, [r4, #512]	; 0x200
 8003a76:	2b02      	cmp	r3, #2
 8003a78:	f000 813b 	beq.w	8003cf2 <remove_chain.part.12+0x29a>
 8003a7c:	2b03      	cmp	r3, #3
 8003a7e:	d04a      	beq.n	8003b16 <remove_chain.part.12+0xbe>
 8003a80:	2b01      	cmp	r3, #1
 8003a82:	d002      	beq.n	8003a8a <remove_chain.part.12+0x32>
			nxt = get_fat(fs, clst);			/* Get cluster status */
			if (nxt == 0) break;				/* Empty cluster? */
			if (nxt == 1) { res = FR_INT_ERR; break; }	/* Internal error? */
 8003a84:	2002      	movs	r0, #2
			clst = nxt;	/* Next cluster */
		}
	}

	return res;
}
 8003a86:	e8bd 8ff8 	ldmia.w	sp!, {r3, r4, r5, r6, r7, r8, r9, sl, fp, pc}
			if (move_window(fs, fs->fatbase + (bc / SS(fs))) != FR_OK) break;
 8003a8a:	f8d4 2224 	ldr.w	r2, [r4, #548]	; 0x224
			bc = (UINT)clst; bc += bc / 2;
 8003a8e:	eb05 0655 	add.w	r6, r5, r5, lsr #1
	if (sector != fs->winsect) {	/* Window offset changed? */
 8003a92:	f8d4 7230 	ldr.w	r7, [r4, #560]	; 0x230
			if (move_window(fs, fs->fatbase + (bc / SS(fs))) != FR_OK) break;
 8003a96:	eb02 2856 	add.w	r8, r2, r6, lsr #9
	if (sector != fs->winsect) {	/* Window offset changed? */
 8003a9a:	45b8      	cmp	r8, r7
 8003a9c:	f000 81e2 	beq.w	8003e64 <remove_chain.part.12+0x40c>
	if (fs->wflag) {	/* Write back the sector if it is dirty */
 8003aa0:	f894 2204 	ldrb.w	r2, [r4, #516]	; 0x204
 8003aa4:	f894 0201 	ldrb.w	r0, [r4, #513]	; 0x201
 8003aa8:	b332      	cbz	r2, 8003af8 <remove_chain.part.12+0xa0>
		if (disk_write(fs->drv, fs->win.d8, wsect, 1) != RES_OK) {
 8003aaa:	463a      	mov	r2, r7
 8003aac:	4621      	mov	r1, r4
 8003aae:	f7ff ff11 	bl	80038d4 <disk_write>
 8003ab2:	2800      	cmp	r0, #0
 8003ab4:	f040 8200 	bne.w	8003eb8 <remove_chain.part.12+0x460>
			if (wsect - fs->fatbase < fs->fsize) {		/* Is it in the FAT area? */
 8003ab8:	f8d4 2224 	ldr.w	r2, [r4, #548]	; 0x224
 8003abc:	f8d4 321c 	ldr.w	r3, [r4, #540]	; 0x21c
 8003ac0:	1aba      	subs	r2, r7, r2
 8003ac2:	429a      	cmp	r2, r3
			fs->wflag = 0;
 8003ac4:	f884 0204 	strb.w	r0, [r4, #516]	; 0x204
			if (wsect - fs->fatbase < fs->fsize) {		/* Is it in the FAT area? */
 8003ac8:	d214      	bcs.n	8003af4 <remove_chain.part.12+0x9c>
				for (nf = fs->n_fats; nf >= 2; nf--) {	/* Reflect the change to all FAT copies */
 8003aca:	f894 a203 	ldrb.w	sl, [r4, #515]	; 0x203
 8003ace:	f1ba 0f01 	cmp.w	sl, #1
 8003ad2:	d802      	bhi.n	8003ada <remove_chain.part.12+0x82>
 8003ad4:	e00e      	b.n	8003af4 <remove_chain.part.12+0x9c>
 8003ad6:	f8d4 321c 	ldr.w	r3, [r4, #540]	; 0x21c
					wsect += fs->fsize;
 8003ada:	441f      	add	r7, r3
				for (nf = fs->n_fats; nf >= 2; nf--) {	/* Reflect the change to all FAT copies */
 8003adc:	f10a 3aff 	add.w	sl, sl, #4294967295
					disk_write(fs->drv, fs->win.d8, wsect, 1);
 8003ae0:	463a      	mov	r2, r7
 8003ae2:	2301      	movs	r3, #1
 8003ae4:	4621      	mov	r1, r4
 8003ae6:	f894 0201 	ldrb.w	r0, [r4, #513]	; 0x201
 8003aea:	f7ff fef3 	bl	80038d4 <disk_write>
				for (nf = fs->n_fats; nf >= 2; nf--) {	/* Reflect the change to all FAT copies */
 8003aee:	f1ba 0f01 	cmp.w	sl, #1
 8003af2:	d1f0      	bne.n	8003ad6 <remove_chain.part.12+0x7e>
 8003af4:	f894 0201 	ldrb.w	r0, [r4, #513]	; 0x201
			if (disk_read(fs->drv, fs->win.d8, sector, 1) != RES_OK) {
 8003af8:	2301      	movs	r3, #1
 8003afa:	4642      	mov	r2, r8
 8003afc:	4621      	mov	r1, r4
 8003afe:	f7ff fedb 	bl	80038b8 <disk_read>
 8003b02:	2800      	cmp	r0, #0
 8003b04:	f000 81a9 	beq.w	8003e5a <remove_chain.part.12+0x402>
			fs->winsect = sector;
 8003b08:	f04f 33ff 	mov.w	r3, #4294967295
			if (nxt == 0xFFFFFFFF) { res = FR_DISK_ERR; break; }	/* Disk error? */
 8003b0c:	2001      	movs	r0, #1
			fs->winsect = sector;
 8003b0e:	f8c4 3230 	str.w	r3, [r4, #560]	; 0x230
}
 8003b12:	e8bd 8ff8 	ldmia.w	sp!, {r3, r4, r5, r6, r7, r8, r9, sl, fp, pc}
			if (move_window(fs, fs->fatbase + (clst / (SS(fs) / 4))) != FR_OK) break;
 8003b16:	f8d4 6224 	ldr.w	r6, [r4, #548]	; 0x224
	if (sector != fs->winsect) {	/* Window offset changed? */
 8003b1a:	f8d4 7230 	ldr.w	r7, [r4, #560]	; 0x230
			if (move_window(fs, fs->fatbase + (clst / (SS(fs) / 4))) != FR_OK) break;
 8003b1e:	eb06 16d5 	add.w	r6, r6, r5, lsr #7
	if (sector != fs->winsect) {	/* Window offset changed? */
 8003b22:	42be      	cmp	r6, r7
 8003b24:	d037      	beq.n	8003b96 <remove_chain.part.12+0x13e>
	if (fs->wflag) {	/* Write back the sector if it is dirty */
 8003b26:	f894 3204 	ldrb.w	r3, [r4, #516]	; 0x204
 8003b2a:	f894 0201 	ldrb.w	r0, [r4, #513]	; 0x201
 8003b2e:	b34b      	cbz	r3, 8003b84 <remove_chain.part.12+0x12c>
		if (disk_write(fs->drv, fs->win.d8, wsect, 1) != RES_OK) {
 8003b30:	2301      	movs	r3, #1
 8003b32:	463a      	mov	r2, r7
 8003b34:	4621      	mov	r1, r4
 8003b36:	f7ff fecd 	bl	80038d4 <disk_write>
 8003b3a:	2800      	cmp	r0, #0
 8003b3c:	f040 81bc 	bne.w	8003eb8 <remove_chain.part.12+0x460>
			if (wsect - fs->fatbase < fs->fsize) {		/* Is it in the FAT area? */
 8003b40:	f8d4 2224 	ldr.w	r2, [r4, #548]	; 0x224
 8003b44:	f8d4 321c 	ldr.w	r3, [r4, #540]	; 0x21c
 8003b48:	1aba      	subs	r2, r7, r2
 8003b4a:	429a      	cmp	r2, r3
			fs->wflag = 0;
 8003b4c:	f884 0204 	strb.w	r0, [r4, #516]	; 0x204
 8003b50:	f894 0201 	ldrb.w	r0, [r4, #513]	; 0x201
			if (wsect - fs->fatbase < fs->fsize) {		/* Is it in the FAT area? */
 8003b54:	d216      	bcs.n	8003b84 <remove_chain.part.12+0x12c>
				for (nf = fs->n_fats; nf >= 2; nf--) {	/* Reflect the change to all FAT copies */
 8003b56:	f894 8203 	ldrb.w	r8, [r4, #515]	; 0x203
 8003b5a:	f1b8 0f01 	cmp.w	r8, #1
 8003b5e:	d804      	bhi.n	8003b6a <remove_chain.part.12+0x112>
 8003b60:	e010      	b.n	8003b84 <remove_chain.part.12+0x12c>
 8003b62:	f8d4 321c 	ldr.w	r3, [r4, #540]	; 0x21c
 8003b66:	f894 0201 	ldrb.w	r0, [r4, #513]	; 0x201
					wsect += fs->fsize;
 8003b6a:	441f      	add	r7, r3
				for (nf = fs->n_fats; nf >= 2; nf--) {	/* Reflect the change to all FAT copies */
 8003b6c:	f108 38ff 	add.w	r8, r8, #4294967295
					disk_write(fs->drv, fs->win.d8, wsect, 1);
 8003b70:	463a      	mov	r2, r7
 8003b72:	2301      	movs	r3, #1
 8003b74:	4621      	mov	r1, r4
 8003b76:	f7ff fead 	bl	80038d4 <disk_write>
				for (nf = fs->n_fats; nf >= 2; nf--) {	/* Reflect the change to all FAT copies */
 8003b7a:	f1b8 0f01 	cmp.w	r8, #1
 8003b7e:	d1f0      	bne.n	8003b62 <remove_chain.part.12+0x10a>
 8003b80:	f894 0201 	ldrb.w	r0, [r4, #513]	; 0x201
			if (disk_read(fs->drv, fs->win.d8, sector, 1) != RES_OK) {
 8003b84:	2301      	movs	r3, #1
 8003b86:	4632      	mov	r2, r6
 8003b88:	4621      	mov	r1, r4
 8003b8a:	f7ff fe95 	bl	80038b8 <disk_read>
 8003b8e:	2800      	cmp	r0, #0
 8003b90:	d1ba      	bne.n	8003b08 <remove_chain.part.12+0xb0>
			fs->winsect = sector;
 8003b92:	f8c4 6230 	str.w	r6, [r4, #560]	; 0x230
			p = &fs->win.d8[clst * 4 % SS(fs)];
 8003b96:	00ab      	lsls	r3, r5, #2
 8003b98:	f403 73fe 	and.w	r3, r3, #508	; 0x1fc
			val = LD_DWORD(p) & 0x0FFFFFFF;
 8003b9c:	58e6      	ldr	r6, [r4, r3]
 8003b9e:	f026 4670 	bic.w	r6, r6, #4026531840	; 0xf0000000
			if (nxt == 0) break;				/* Empty cluster? */
 8003ba2:	2e00      	cmp	r6, #0
 8003ba4:	f000 810e 	beq.w	8003dc4 <remove_chain.part.12+0x36c>
			if (nxt == 1) { res = FR_INT_ERR; break; }	/* Internal error? */
 8003ba8:	2e01      	cmp	r6, #1
 8003baa:	f43f af6b 	beq.w	8003a84 <remove_chain.part.12+0x2c>
	if (clst < 2 || clst >= fs->n_fatent) {	/* Check range */
 8003bae:	f8d4 1218 	ldr.w	r1, [r4, #536]	; 0x218
 8003bb2:	428d      	cmp	r5, r1
 8003bb4:	f4bf af66 	bcs.w	8003a84 <remove_chain.part.12+0x2c>
		switch (fs->fs_type) {
 8003bb8:	f894 3200 	ldrb.w	r3, [r4, #512]	; 0x200
 8003bbc:	2b02      	cmp	r3, #2
 8003bbe:	f000 8103 	beq.w	8003dc8 <remove_chain.part.12+0x370>
 8003bc2:	2b03      	cmp	r3, #3
 8003bc4:	f000 80d9 	beq.w	8003d7a <remove_chain.part.12+0x322>
 8003bc8:	2b01      	cmp	r3, #1
 8003bca:	f47f af5b 	bne.w	8003a84 <remove_chain.part.12+0x2c>
			res = move_window(fs, fs->fatbase + (bc / SS(fs)));
 8003bce:	f8d4 2224 	ldr.w	r2, [r4, #548]	; 0x224
			bc = (UINT)clst; bc += bc / 2;
 8003bd2:	eb05 0855 	add.w	r8, r5, r5, lsr #1
	if (sector != fs->winsect) {	/* Window offset changed? */
 8003bd6:	f8d4 7230 	ldr.w	r7, [r4, #560]	; 0x230
			res = move_window(fs, fs->fatbase + (bc / SS(fs)));
 8003bda:	eb02 2b58 	add.w	fp, r2, r8, lsr #9
	if (sector != fs->winsect) {	/* Window offset changed? */
 8003bde:	45bb      	cmp	fp, r7
 8003be0:	d038      	beq.n	8003c54 <remove_chain.part.12+0x1fc>
	if (fs->wflag) {	/* Write back the sector if it is dirty */
 8003be2:	f894 2204 	ldrb.w	r2, [r4, #516]	; 0x204
 8003be6:	f894 0201 	ldrb.w	r0, [r4, #513]	; 0x201
 8003bea:	b332      	cbz	r2, 8003c3a <remove_chain.part.12+0x1e2>
		if (disk_write(fs->drv, fs->win.d8, wsect, 1) != RES_OK) {
 8003bec:	463a      	mov	r2, r7
 8003bee:	4621      	mov	r1, r4
 8003bf0:	f7ff fe70 	bl	80038d4 <disk_write>
 8003bf4:	2800      	cmp	r0, #0
 8003bf6:	f040 815f 	bne.w	8003eb8 <remove_chain.part.12+0x460>
			if (wsect - fs->fatbase < fs->fsize) {		/* Is it in the FAT area? */
 8003bfa:	f8d4 2224 	ldr.w	r2, [r4, #548]	; 0x224
 8003bfe:	f8d4 321c 	ldr.w	r3, [r4, #540]	; 0x21c
 8003c02:	1aba      	subs	r2, r7, r2
 8003c04:	429a      	cmp	r2, r3
			fs->wflag = 0;
 8003c06:	f884 0204 	strb.w	r0, [r4, #516]	; 0x204
			if (wsect - fs->fatbase < fs->fsize) {		/* Is it in the FAT area? */
 8003c0a:	d214      	bcs.n	8003c36 <remove_chain.part.12+0x1de>
				for (nf = fs->n_fats; nf >= 2; nf--) {	/* Reflect the change to all FAT copies */
 8003c0c:	f894 a203 	ldrb.w	sl, [r4, #515]	; 0x203
 8003c10:	f1ba 0f01 	cmp.w	sl, #1
 8003c14:	d802      	bhi.n	8003c1c <remove_chain.part.12+0x1c4>
 8003c16:	e00e      	b.n	8003c36 <remove_chain.part.12+0x1de>
 8003c18:	f8d4 321c 	ldr.w	r3, [r4, #540]	; 0x21c
					wsect += fs->fsize;
 8003c1c:	441f      	add	r7, r3
				for (nf = fs->n_fats; nf >= 2; nf--) {	/* Reflect the change to all FAT copies */
 8003c1e:	f10a 3aff 	add.w	sl, sl, #4294967295
					disk_write(fs->drv, fs->win.d8, wsect, 1);
 8003c22:	463a      	mov	r2, r7
 8003c24:	2301      	movs	r3, #1
 8003c26:	4621      	mov	r1, r4
 8003c28:	f894 0201 	ldrb.w	r0, [r4, #513]	; 0x201
 8003c2c:	f7ff fe52 	bl	80038d4 <disk_write>
				for (nf = fs->n_fats; nf >= 2; nf--) {	/* Reflect the change to all FAT copies */
 8003c30:	f1ba 0f01 	cmp.w	sl, #1
 8003c34:	d1f0      	bne.n	8003c18 <remove_chain.part.12+0x1c0>
 8003c36:	f894 0201 	ldrb.w	r0, [r4, #513]	; 0x201
			if (disk_read(fs->drv, fs->win.d8, sector, 1) != RES_OK) {
 8003c3a:	2301      	movs	r3, #1
 8003c3c:	465a      	mov	r2, fp
 8003c3e:	4621      	mov	r1, r4
 8003c40:	f7ff fe3a 	bl	80038b8 <disk_read>
 8003c44:	2800      	cmp	r0, #0
 8003c46:	f47f af5f 	bne.w	8003b08 <remove_chain.part.12+0xb0>
			fs->winsect = sector;
 8003c4a:	465f      	mov	r7, fp
 8003c4c:	f8d4 2224 	ldr.w	r2, [r4, #548]	; 0x224
 8003c50:	f8c4 b230 	str.w	fp, [r4, #560]	; 0x230
			p = &fs->win.d8[bc++ % SS(fs)];
 8003c54:	f108 0b01 	add.w	fp, r8, #1
			*p = (clst & 1) ? ((*p & 0x0F) | ((BYTE)val << 4)) : (BYTE)val;
 8003c58:	f015 0501 	ands.w	r5, r5, #1
 8003c5c:	eb02 2a5b 	add.w	sl, r2, fp, lsr #9
			p = &fs->win.d8[bc++ % SS(fs)];
 8003c60:	f3c8 0808 	ubfx	r8, r8, #0, #9
			*p = (clst & 1) ? ((*p & 0x0F) | ((BYTE)val << 4)) : (BYTE)val;
 8003c64:	f000 8170 	beq.w	8003f48 <remove_chain.part.12+0x4f0>
 8003c68:	f814 3008 	ldrb.w	r3, [r4, r8]
	if (sector != fs->winsect) {	/* Window offset changed? */
 8003c6c:	45ba      	cmp	sl, r7
			*p = (clst & 1) ? ((*p & 0x0F) | ((BYTE)val << 4)) : (BYTE)val;
 8003c6e:	f003 030f 	and.w	r3, r3, #15
 8003c72:	f804 3008 	strb.w	r3, [r4, r8]
			fs->wflag = 1;
 8003c76:	f884 9204 	strb.w	r9, [r4, #516]	; 0x204
	if (sector != fs->winsect) {	/* Window offset changed? */
 8003c7a:	f000 819d 	beq.w	8003fb8 <remove_chain.part.12+0x560>
		if (disk_write(fs->drv, fs->win.d8, wsect, 1) != RES_OK) {
 8003c7e:	2301      	movs	r3, #1
 8003c80:	463a      	mov	r2, r7
 8003c82:	4621      	mov	r1, r4
 8003c84:	f894 0201 	ldrb.w	r0, [r4, #513]	; 0x201
 8003c88:	f7ff fe24 	bl	80038d4 <disk_write>
 8003c8c:	2800      	cmp	r0, #0
 8003c8e:	f040 8113 	bne.w	8003eb8 <remove_chain.part.12+0x460>
			if (wsect - fs->fatbase < fs->fsize) {		/* Is it in the FAT area? */
 8003c92:	f8d4 2224 	ldr.w	r2, [r4, #548]	; 0x224
 8003c96:	f8d4 321c 	ldr.w	r3, [r4, #540]	; 0x21c
 8003c9a:	1aba      	subs	r2, r7, r2
 8003c9c:	429a      	cmp	r2, r3
			fs->wflag = 0;
 8003c9e:	f884 0204 	strb.w	r0, [r4, #516]	; 0x204
			if (wsect - fs->fatbase < fs->fsize) {		/* Is it in the FAT area? */
 8003ca2:	d214      	bcs.n	8003cce <remove_chain.part.12+0x276>
				for (nf = fs->n_fats; nf >= 2; nf--) {	/* Reflect the change to all FAT copies */
 8003ca4:	f894 8203 	ldrb.w	r8, [r4, #515]	; 0x203
 8003ca8:	f1b8 0f01 	cmp.w	r8, #1
 8003cac:	d802      	bhi.n	8003cb4 <remove_chain.part.12+0x25c>
 8003cae:	e00e      	b.n	8003cce <remove_chain.part.12+0x276>
 8003cb0:	f8d4 321c 	ldr.w	r3, [r4, #540]	; 0x21c
					wsect += fs->fsize;
 8003cb4:	441f      	add	r7, r3
				for (nf = fs->n_fats; nf >= 2; nf--) {	/* Reflect the change to all FAT copies */
 8003cb6:	f108 38ff 	add.w	r8, r8, #4294967295
					disk_write(fs->drv, fs->win.d8, wsect, 1);
 8003cba:	463a      	mov	r2, r7
 8003cbc:	2301      	movs	r3, #1
 8003cbe:	4621      	mov	r1, r4
 8003cc0:	f894 0201 	ldrb.w	r0, [r4, #513]	; 0x201
 8003cc4:	f7ff fe06 	bl	80038d4 <disk_write>
				for (nf = fs->n_fats; nf >= 2; nf--) {	/* Reflect the change to all FAT copies */
 8003cc8:	f1b8 0f01 	cmp.w	r8, #1
 8003ccc:	d1f0      	bne.n	8003cb0 <remove_chain.part.12+0x258>
			if (disk_read(fs->drv, fs->win.d8, sector, 1) != RES_OK) {
 8003cce:	2301      	movs	r3, #1
 8003cd0:	4652      	mov	r2, sl
 8003cd2:	4621      	mov	r1, r4
 8003cd4:	f894 0201 	ldrb.w	r0, [r4, #513]	; 0x201
 8003cd8:	f7ff fdee 	bl	80038b8 <disk_read>
 8003cdc:	2800      	cmp	r0, #0
 8003cde:	f47f af13 	bne.w	8003b08 <remove_chain.part.12+0xb0>
			fs->winsect = sector;
 8003ce2:	f8c4 a230 	str.w	sl, [r4, #560]	; 0x230
			p = &fs->win.d8[bc % SS(fs)];
 8003ce6:	f3cb 0b08 	ubfx	fp, fp, #0, #9
			*p = (clst & 1) ? (BYTE)(val >> 4) : ((*p & 0xF0) | ((BYTE)(val >> 8) & 0x0F));
 8003cea:	2d00      	cmp	r5, #0
 8003cec:	f040 8139 	bne.w	8003f62 <remove_chain.part.12+0x50a>
 8003cf0:	e133      	b.n	8003f5a <remove_chain.part.12+0x502>
			if (move_window(fs, fs->fatbase + (clst / (SS(fs) / 2))) != FR_OK) break;
 8003cf2:	f8d4 6224 	ldr.w	r6, [r4, #548]	; 0x224
	if (sector != fs->winsect) {	/* Window offset changed? */
 8003cf6:	f8d4 7230 	ldr.w	r7, [r4, #560]	; 0x230
			if (move_window(fs, fs->fatbase + (clst / (SS(fs) / 2))) != FR_OK) break;
 8003cfa:	eb06 2615 	add.w	r6, r6, r5, lsr #8
	if (sector != fs->winsect) {	/* Window offset changed? */
 8003cfe:	42be      	cmp	r6, r7
 8003d00:	d036      	beq.n	8003d70 <remove_chain.part.12+0x318>
	if (fs->wflag) {	/* Write back the sector if it is dirty */
 8003d02:	f894 3204 	ldrb.w	r3, [r4, #516]	; 0x204
 8003d06:	f894 0201 	ldrb.w	r0, [r4, #513]	; 0x201
 8003d0a:	b33b      	cbz	r3, 8003d5c <remove_chain.part.12+0x304>
		if (disk_write(fs->drv, fs->win.d8, wsect, 1) != RES_OK) {
 8003d0c:	2301      	movs	r3, #1
 8003d0e:	463a      	mov	r2, r7
 8003d10:	4621      	mov	r1, r4
 8003d12:	f7ff fddf 	bl	80038d4 <disk_write>
 8003d16:	2800      	cmp	r0, #0
 8003d18:	f040 80ce 	bne.w	8003eb8 <remove_chain.part.12+0x460>
			if (wsect - fs->fatbase < fs->fsize) {		/* Is it in the FAT area? */
 8003d1c:	f8d4 2224 	ldr.w	r2, [r4, #548]	; 0x224
 8003d20:	f8d4 321c 	ldr.w	r3, [r4, #540]	; 0x21c
 8003d24:	1aba      	subs	r2, r7, r2
 8003d26:	429a      	cmp	r2, r3
			fs->wflag = 0;
 8003d28:	f884 0204 	strb.w	r0, [r4, #516]	; 0x204
			if (wsect - fs->fatbase < fs->fsize) {		/* Is it in the FAT area? */
 8003d2c:	d214      	bcs.n	8003d58 <remove_chain.part.12+0x300>
				for (nf = fs->n_fats; nf >= 2; nf--) {	/* Reflect the change to all FAT copies */
 8003d2e:	f894 8203 	ldrb.w	r8, [r4, #515]	; 0x203
 8003d32:	f1b8 0f01 	cmp.w	r8, #1
 8003d36:	d802      	bhi.n	8003d3e <remove_chain.part.12+0x2e6>
 8003d38:	e00e      	b.n	8003d58 <remove_chain.part.12+0x300>
 8003d3a:	f8d4 321c 	ldr.w	r3, [r4, #540]	; 0x21c
					wsect += fs->fsize;
 8003d3e:	441f      	add	r7, r3
				for (nf = fs->n_fats; nf >= 2; nf--) {	/* Reflect the change to all FAT copies */
 8003d40:	f108 38ff 	add.w	r8, r8, #4294967295
					disk_write(fs->drv, fs->win.d8, wsect, 1);
 8003d44:	463a      	mov	r2, r7
 8003d46:	2301      	movs	r3, #1
 8003d48:	4621      	mov	r1, r4
 8003d4a:	f894 0201 	ldrb.w	r0, [r4, #513]	; 0x201
 8003d4e:	f7ff fdc1 	bl	80038d4 <disk_write>
				for (nf = fs->n_fats; nf >= 2; nf--) {	/* Reflect the change to all FAT copies */
 8003d52:	f1b8 0f01 	cmp.w	r8, #1
 8003d56:	d1f0      	bne.n	8003d3a <remove_chain.part.12+0x2e2>
 8003d58:	f894 0201 	ldrb.w	r0, [r4, #513]	; 0x201
			if (disk_read(fs->drv, fs->win.d8, sector, 1) != RES_OK) {
 8003d5c:	2301      	movs	r3, #1
 8003d5e:	4632      	mov	r2, r6
 8003d60:	4621      	mov	r1, r4
 8003d62:	f7ff fda9 	bl	80038b8 <disk_read>
 8003d66:	2800      	cmp	r0, #0
 8003d68:	f47f aece 	bne.w	8003b08 <remove_chain.part.12+0xb0>
			fs->winsect = sector;
 8003d6c:	f8c4 6230 	str.w	r6, [r4, #560]	; 0x230
			p = &fs->win.d8[clst * 2 % SS(fs)];
 8003d70:	006b      	lsls	r3, r5, #1
 8003d72:	f403 73ff 	and.w	r3, r3, #510	; 0x1fe
			val = LD_WORD(p);
 8003d76:	5ae6      	ldrh	r6, [r4, r3]
 8003d78:	e713      	b.n	8003ba2 <remove_chain.part.12+0x14a>
			res = move_window(fs, fs->fatbase + (clst / (SS(fs) / 4)));
 8003d7a:	f8d4 7224 	ldr.w	r7, [r4, #548]	; 0x224
	if (sector != fs->winsect) {	/* Window offset changed? */
 8003d7e:	f8d4 8230 	ldr.w	r8, [r4, #560]	; 0x230
			res = move_window(fs, fs->fatbase + (clst / (SS(fs) / 4)));
 8003d82:	eb07 17d5 	add.w	r7, r7, r5, lsr #7
	if (sector != fs->winsect) {	/* Window offset changed? */
 8003d86:	4547      	cmp	r7, r8
 8003d88:	f040 8098 	bne.w	8003ebc <remove_chain.part.12+0x464>
			p = &fs->win.d8[clst * 4 % SS(fs)];
 8003d8c:	00ad      	lsls	r5, r5, #2
 8003d8e:	f405 75fe 	and.w	r5, r5, #508	; 0x1fc
			val |= LD_DWORD(p) & 0xF0000000;
 8003d92:	5963      	ldr	r3, [r4, r5]
 8003d94:	f003 4370 	and.w	r3, r3, #4026531840	; 0xf0000000
			ST_DWORD(p, val);
 8003d98:	5163      	str	r3, [r4, r5]
 8003d9a:	f8d4 1218 	ldr.w	r1, [r4, #536]	; 0x218
			fs->wflag = 1;
 8003d9e:	f884 9204 	strb.w	r9, [r4, #516]	; 0x204
			if (fs->free_clust != 0xFFFFFFFF) {	/* Update FSINFO */
 8003da2:	f8d4 3214 	ldr.w	r3, [r4, #532]	; 0x214
 8003da6:	1c5a      	adds	r2, r3, #1
 8003da8:	d008      	beq.n	8003dbc <remove_chain.part.12+0x364>
				fs->fsi_flag |= 1;
 8003daa:	f894 2205 	ldrb.w	r2, [r4, #517]	; 0x205
				fs->free_clust++;
 8003dae:	3301      	adds	r3, #1
				fs->fsi_flag |= 1;
 8003db0:	f042 0201 	orr.w	r2, r2, #1
				fs->free_clust++;
 8003db4:	f8c4 3214 	str.w	r3, [r4, #532]	; 0x214
				fs->fsi_flag |= 1;
 8003db8:	f884 2205 	strb.w	r2, [r4, #517]	; 0x205
			*p = (clst & 1) ? (BYTE)(val >> 4) : ((*p & 0xF0) | ((BYTE)(val >> 8) & 0x0F));
 8003dbc:	4635      	mov	r5, r6
		while (clst < fs->n_fatent) {			/* Not a last link? */
 8003dbe:	428d      	cmp	r5, r1
 8003dc0:	f4ff ae55 	bcc.w	8003a6e <remove_chain.part.12+0x16>
			*p = (clst & 1) ? (BYTE)(val >> 4) : ((*p & 0xF0) | ((BYTE)(val >> 8) & 0x0F));
 8003dc4:	2000      	movs	r0, #0
 8003dc6:	e65e      	b.n	8003a86 <remove_chain.part.12+0x2e>
			res = move_window(fs, fs->fatbase + (clst / (SS(fs) / 2)));
 8003dc8:	f8d4 7224 	ldr.w	r7, [r4, #548]	; 0x224
	if (sector != fs->winsect) {	/* Window offset changed? */
 8003dcc:	f8d4 8230 	ldr.w	r8, [r4, #560]	; 0x230
			res = move_window(fs, fs->fatbase + (clst / (SS(fs) / 2)));
 8003dd0:	eb07 2715 	add.w	r7, r7, r5, lsr #8
	if (sector != fs->winsect) {	/* Window offset changed? */
 8003dd4:	4547      	cmp	r7, r8
 8003dd6:	f000 80ae 	beq.w	8003f36 <remove_chain.part.12+0x4de>
	if (fs->wflag) {	/* Write back the sector if it is dirty */
 8003dda:	f894 3204 	ldrb.w	r3, [r4, #516]	; 0x204
 8003dde:	f894 0201 	ldrb.w	r0, [r4, #513]	; 0x201
 8003de2:	b33b      	cbz	r3, 8003e34 <remove_chain.part.12+0x3dc>
		if (disk_write(fs->drv, fs->win.d8, wsect, 1) != RES_OK) {
 8003de4:	2301      	movs	r3, #1
 8003de6:	4642      	mov	r2, r8
 8003de8:	4621      	mov	r1, r4
 8003dea:	f7ff fd73 	bl	80038d4 <disk_write>
 8003dee:	2800      	cmp	r0, #0
 8003df0:	d162      	bne.n	8003eb8 <remove_chain.part.12+0x460>
			if (wsect - fs->fatbase < fs->fsize) {		/* Is it in the FAT area? */
 8003df2:	f8d4 2224 	ldr.w	r2, [r4, #548]	; 0x224
 8003df6:	f8d4 321c 	ldr.w	r3, [r4, #540]	; 0x21c
 8003dfa:	eba8 0202 	sub.w	r2, r8, r2
 8003dfe:	429a      	cmp	r2, r3
			fs->wflag = 0;
 8003e00:	f884 0204 	strb.w	r0, [r4, #516]	; 0x204
			if (wsect - fs->fatbase < fs->fsize) {		/* Is it in the FAT area? */
 8003e04:	d214      	bcs.n	8003e30 <remove_chain.part.12+0x3d8>
				for (nf = fs->n_fats; nf >= 2; nf--) {	/* Reflect the change to all FAT copies */
 8003e06:	f894 a203 	ldrb.w	sl, [r4, #515]	; 0x203
 8003e0a:	f1ba 0f01 	cmp.w	sl, #1
 8003e0e:	d802      	bhi.n	8003e16 <remove_chain.part.12+0x3be>
 8003e10:	e00e      	b.n	8003e30 <remove_chain.part.12+0x3d8>
 8003e12:	f8d4 321c 	ldr.w	r3, [r4, #540]	; 0x21c
					wsect += fs->fsize;
 8003e16:	4498      	add	r8, r3
				for (nf = fs->n_fats; nf >= 2; nf--) {	/* Reflect the change to all FAT copies */
 8003e18:	f10a 3aff 	add.w	sl, sl, #4294967295
					disk_write(fs->drv, fs->win.d8, wsect, 1);
 8003e1c:	4642      	mov	r2, r8
 8003e1e:	2301      	movs	r3, #1
 8003e20:	4621      	mov	r1, r4
 8003e22:	f894 0201 	ldrb.w	r0, [r4, #513]	; 0x201
 8003e26:	f7ff fd55 	bl	80038d4 <disk_write>
				for (nf = fs->n_fats; nf >= 2; nf--) {	/* Reflect the change to all FAT copies */
 8003e2a:	f1ba 0f01 	cmp.w	sl, #1
 8003e2e:	d1f0      	bne.n	8003e12 <remove_chain.part.12+0x3ba>
 8003e30:	f894 0201 	ldrb.w	r0, [r4, #513]	; 0x201
			if (disk_read(fs->drv, fs->win.d8, sector, 1) != RES_OK) {
 8003e34:	2301      	movs	r3, #1
 8003e36:	463a      	mov	r2, r7
 8003e38:	4621      	mov	r1, r4
 8003e3a:	f7ff fd3d 	bl	80038b8 <disk_read>
 8003e3e:	2800      	cmp	r0, #0
 8003e40:	f47f ae62 	bne.w	8003b08 <remove_chain.part.12+0xb0>
			p = &fs->win.d8[clst * 2 % SS(fs)];
 8003e44:	006d      	lsls	r5, r5, #1
 8003e46:	f405 75ff 	and.w	r5, r5, #510	; 0x1fe
			fs->winsect = sector;
 8003e4a:	f8c4 7230 	str.w	r7, [r4, #560]	; 0x230
 8003e4e:	f8d4 1218 	ldr.w	r1, [r4, #536]	; 0x218
			ST_WORD(p, (WORD)val);
 8003e52:	5360      	strh	r0, [r4, r5]
			fs->wflag = 1;
 8003e54:	f884 9204 	strb.w	r9, [r4, #516]	; 0x204
 8003e58:	e7a3      	b.n	8003da2 <remove_chain.part.12+0x34a>
			fs->winsect = sector;
 8003e5a:	4647      	mov	r7, r8
 8003e5c:	f8d4 2224 	ldr.w	r2, [r4, #548]	; 0x224
 8003e60:	f8c4 8230 	str.w	r8, [r4, #560]	; 0x230
			wc = fs->win.d8[bc++ % SS(fs)];
 8003e64:	f106 0801 	add.w	r8, r6, #1
			if (move_window(fs, fs->fatbase + (bc / SS(fs))) != FR_OK) break;
 8003e68:	eb02 2a58 	add.w	sl, r2, r8, lsr #9
			wc = fs->win.d8[bc++ % SS(fs)];
 8003e6c:	f3c6 0608 	ubfx	r6, r6, #0, #9
	if (sector != fs->winsect) {	/* Window offset changed? */
 8003e70:	45ba      	cmp	sl, r7
			wc = fs->win.d8[bc++ % SS(fs)];
 8003e72:	5da6      	ldrb	r6, [r4, r6]
	if (sector != fs->winsect) {	/* Window offset changed? */
 8003e74:	d00e      	beq.n	8003e94 <remove_chain.part.12+0x43c>
	if (fs->wflag) {	/* Write back the sector if it is dirty */
 8003e76:	f894 3204 	ldrb.w	r3, [r4, #516]	; 0x204
 8003e7a:	f894 0201 	ldrb.w	r0, [r4, #513]	; 0x201
 8003e7e:	b9a3      	cbnz	r3, 8003eaa <remove_chain.part.12+0x452>
			if (disk_read(fs->drv, fs->win.d8, sector, 1) != RES_OK) {
 8003e80:	2301      	movs	r3, #1
 8003e82:	4652      	mov	r2, sl
 8003e84:	4621      	mov	r1, r4
 8003e86:	f7ff fd17 	bl	80038b8 <disk_read>
 8003e8a:	2800      	cmp	r0, #0
 8003e8c:	f47f ae3c 	bne.w	8003b08 <remove_chain.part.12+0xb0>
			fs->winsect = sector;
 8003e90:	f8c4 a230 	str.w	sl, [r4, #560]	; 0x230
			wc |= fs->win.d8[bc % SS(fs)] << 8;
 8003e94:	f3c8 0308 	ubfx	r3, r8, #0, #9
 8003e98:	5ce3      	ldrb	r3, [r4, r3]
			val = clst & 1 ? wc >> 4 : (wc & 0xFFF);
 8003e9a:	07e9      	lsls	r1, r5, #31
			wc |= fs->win.d8[bc % SS(fs)] << 8;
 8003e9c:	ea46 2603 	orr.w	r6, r6, r3, lsl #8
			val = clst & 1 ? wc >> 4 : (wc & 0xFFF);
 8003ea0:	bf4c      	ite	mi
 8003ea2:	0936      	lsrmi	r6, r6, #4
 8003ea4:	f3c6 060b 	ubfxpl	r6, r6, #0, #12
 8003ea8:	e67b      	b.n	8003ba2 <remove_chain.part.12+0x14a>
		if (disk_write(fs->drv, fs->win.d8, wsect, 1) != RES_OK) {
 8003eaa:	2301      	movs	r3, #1
 8003eac:	463a      	mov	r2, r7
 8003eae:	4621      	mov	r1, r4
 8003eb0:	f7ff fd10 	bl	80038d4 <disk_write>
 8003eb4:	2800      	cmp	r0, #0
 8003eb6:	d05b      	beq.n	8003f70 <remove_chain.part.12+0x518>
			if (nxt == 0xFFFFFFFF) { res = FR_DISK_ERR; break; }	/* Disk error? */
 8003eb8:	2001      	movs	r0, #1
 8003eba:	e5e4      	b.n	8003a86 <remove_chain.part.12+0x2e>
	if (fs->wflag) {	/* Write back the sector if it is dirty */
 8003ebc:	f894 3204 	ldrb.w	r3, [r4, #516]	; 0x204
 8003ec0:	f894 0201 	ldrb.w	r0, [r4, #513]	; 0x201
 8003ec4:	b34b      	cbz	r3, 8003f1a <remove_chain.part.12+0x4c2>
		if (disk_write(fs->drv, fs->win.d8, wsect, 1) != RES_OK) {
 8003ec6:	2301      	movs	r3, #1
 8003ec8:	4642      	mov	r2, r8
 8003eca:	4621      	mov	r1, r4
 8003ecc:	f7ff fd02 	bl	80038d4 <disk_write>
 8003ed0:	2800      	cmp	r0, #0
 8003ed2:	d1f1      	bne.n	8003eb8 <remove_chain.part.12+0x460>
			if (wsect - fs->fatbase < fs->fsize) {		/* Is it in the FAT area? */
 8003ed4:	f8d4 2224 	ldr.w	r2, [r4, #548]	; 0x224
 8003ed8:	f8d4 321c 	ldr.w	r3, [r4, #540]	; 0x21c
 8003edc:	eba8 0202 	sub.w	r2, r8, r2
 8003ee0:	429a      	cmp	r2, r3
			fs->wflag = 0;
 8003ee2:	f884 0204 	strb.w	r0, [r4, #516]	; 0x204
 8003ee6:	f894 0201 	ldrb.w	r0, [r4, #513]	; 0x201
			if (wsect - fs->fatbase < fs->fsize) {		/* Is it in the FAT area? */
 8003eea:	d216      	bcs.n	8003f1a <remove_chain.part.12+0x4c2>
				for (nf = fs->n_fats; nf >= 2; nf--) {	/* Reflect the change to all FAT copies */
 8003eec:	f894 a203 	ldrb.w	sl, [r4, #515]	; 0x203
 8003ef0:	f1ba 0f01 	cmp.w	sl, #1
 8003ef4:	d804      	bhi.n	8003f00 <remove_chain.part.12+0x4a8>
 8003ef6:	e010      	b.n	8003f1a <remove_chain.part.12+0x4c2>
 8003ef8:	f8d4 321c 	ldr.w	r3, [r4, #540]	; 0x21c
 8003efc:	f894 0201 	ldrb.w	r0, [r4, #513]	; 0x201
					wsect += fs->fsize;
 8003f00:	4498      	add	r8, r3
				for (nf = fs->n_fats; nf >= 2; nf--) {	/* Reflect the change to all FAT copies */
 8003f02:	f10a 3aff 	add.w	sl, sl, #4294967295
					disk_write(fs->drv, fs->win.d8, wsect, 1);
 8003f06:	4642      	mov	r2, r8
 8003f08:	2301      	movs	r3, #1
 8003f0a:	4621      	mov	r1, r4
 8003f0c:	f7ff fce2 	bl	80038d4 <disk_write>
				for (nf = fs->n_fats; nf >= 2; nf--) {	/* Reflect the change to all FAT copies */
 8003f10:	f1ba 0f01 	cmp.w	sl, #1
 8003f14:	d1f0      	bne.n	8003ef8 <remove_chain.part.12+0x4a0>
 8003f16:	f894 0201 	ldrb.w	r0, [r4, #513]	; 0x201
			if (disk_read(fs->drv, fs->win.d8, sector, 1) != RES_OK) {
 8003f1a:	2301      	movs	r3, #1
 8003f1c:	463a      	mov	r2, r7
 8003f1e:	4621      	mov	r1, r4
 8003f20:	f7ff fcca 	bl	80038b8 <disk_read>
 8003f24:	2800      	cmp	r0, #0
 8003f26:	f47f adef 	bne.w	8003b08 <remove_chain.part.12+0xb0>
			p = &fs->win.d8[clst * 4 % SS(fs)];
 8003f2a:	00ad      	lsls	r5, r5, #2
 8003f2c:	f405 75fe 	and.w	r5, r5, #508	; 0x1fc
			fs->winsect = sector;
 8003f30:	f8c4 7230 	str.w	r7, [r4, #560]	; 0x230
 8003f34:	e72d      	b.n	8003d92 <remove_chain.part.12+0x33a>
			ST_WORD(p, (WORD)val);
 8003f36:	f04f 0300 	mov.w	r3, #0
			p = &fs->win.d8[clst * 2 % SS(fs)];
 8003f3a:	006d      	lsls	r5, r5, #1
 8003f3c:	f405 75ff 	and.w	r5, r5, #510	; 0x1fe
			ST_WORD(p, (WORD)val);
 8003f40:	5363      	strh	r3, [r4, r5]
			fs->wflag = 1;
 8003f42:	f884 9204 	strb.w	r9, [r4, #516]	; 0x204
 8003f46:	e72c      	b.n	8003da2 <remove_chain.part.12+0x34a>
	if (sector != fs->winsect) {	/* Window offset changed? */
 8003f48:	45ba      	cmp	sl, r7
			*p = (clst & 1) ? ((*p & 0x0F) | ((BYTE)val << 4)) : (BYTE)val;
 8003f4a:	f804 5008 	strb.w	r5, [r4, r8]
			fs->wflag = 1;
 8003f4e:	f884 9204 	strb.w	r9, [r4, #516]	; 0x204
	if (sector != fs->winsect) {	/* Window offset changed? */
 8003f52:	f47f ae94 	bne.w	8003c7e <remove_chain.part.12+0x226>
			p = &fs->win.d8[bc % SS(fs)];
 8003f56:	f3cb 0b08 	ubfx	fp, fp, #0, #9
			*p = (clst & 1) ? (BYTE)(val >> 4) : ((*p & 0xF0) | ((BYTE)(val >> 8) & 0x0F));
 8003f5a:	f814 000b 	ldrb.w	r0, [r4, fp]
 8003f5e:	f000 00f0 	and.w	r0, r0, #240	; 0xf0
 8003f62:	f804 000b 	strb.w	r0, [r4, fp]
 8003f66:	f8d4 1218 	ldr.w	r1, [r4, #536]	; 0x218
			fs->wflag = 1;
 8003f6a:	f884 9204 	strb.w	r9, [r4, #516]	; 0x204
 8003f6e:	e718      	b.n	8003da2 <remove_chain.part.12+0x34a>
			if (wsect - fs->fatbase < fs->fsize) {		/* Is it in the FAT area? */
 8003f70:	f8d4 2224 	ldr.w	r2, [r4, #548]	; 0x224
 8003f74:	f8d4 321c 	ldr.w	r3, [r4, #540]	; 0x21c
 8003f78:	1aba      	subs	r2, r7, r2
 8003f7a:	429a      	cmp	r2, r3
			fs->wflag = 0;
 8003f7c:	f884 0204 	strb.w	r0, [r4, #516]	; 0x204
 8003f80:	f894 0201 	ldrb.w	r0, [r4, #513]	; 0x201
			if (wsect - fs->fatbase < fs->fsize) {		/* Is it in the FAT area? */
 8003f84:	f4bf af7c 	bcs.w	8003e80 <remove_chain.part.12+0x428>
				for (nf = fs->n_fats; nf >= 2; nf--) {	/* Reflect the change to all FAT copies */
 8003f88:	f894 b203 	ldrb.w	fp, [r4, #515]	; 0x203
 8003f8c:	f1bb 0f01 	cmp.w	fp, #1
 8003f90:	d804      	bhi.n	8003f9c <remove_chain.part.12+0x544>
 8003f92:	e775      	b.n	8003e80 <remove_chain.part.12+0x428>
 8003f94:	f8d4 321c 	ldr.w	r3, [r4, #540]	; 0x21c
 8003f98:	f894 0201 	ldrb.w	r0, [r4, #513]	; 0x201
					wsect += fs->fsize;
 8003f9c:	441f      	add	r7, r3
				for (nf = fs->n_fats; nf >= 2; nf--) {	/* Reflect the change to all FAT copies */
 8003f9e:	f10b 3bff 	add.w	fp, fp, #4294967295
					disk_write(fs->drv, fs->win.d8, wsect, 1);
 8003fa2:	463a      	mov	r2, r7
 8003fa4:	2301      	movs	r3, #1
 8003fa6:	4621      	mov	r1, r4
 8003fa8:	f7ff fc94 	bl	80038d4 <disk_write>
				for (nf = fs->n_fats; nf >= 2; nf--) {	/* Reflect the change to all FAT copies */
 8003fac:	f1bb 0f01 	cmp.w	fp, #1
 8003fb0:	d1f0      	bne.n	8003f94 <remove_chain.part.12+0x53c>
 8003fb2:	f894 0201 	ldrb.w	r0, [r4, #513]	; 0x201
 8003fb6:	e763      	b.n	8003e80 <remove_chain.part.12+0x428>
			p = &fs->win.d8[bc % SS(fs)];
 8003fb8:	f3cb 0b08 	ubfx	fp, fp, #0, #9
			*p = (clst & 1) ? (BYTE)(val >> 4) : ((*p & 0xF0) | ((BYTE)(val >> 8) & 0x0F));
 8003fbc:	2000      	movs	r0, #0
 8003fbe:	e7d0      	b.n	8003f62 <remove_chain.part.12+0x50a>

08003fc0 <get_fat.part.9>:
DWORD get_fat (	/* 0xFFFFFFFF:Disk error, 1:Internal error, 2..0x0FFFFFFF:Cluster status */
 8003fc0:	e92d 47f0 	stmdb	sp!, {r4, r5, r6, r7, r8, r9, sl, lr}
		switch (fs->fs_type) {
 8003fc4:	f890 3200 	ldrb.w	r3, [r0, #512]	; 0x200
DWORD get_fat (	/* 0xFFFFFFFF:Disk error, 1:Internal error, 2..0x0FFFFFFF:Cluster status */
 8003fc8:	4604      	mov	r4, r0
		switch (fs->fs_type) {
 8003fca:	2b02      	cmp	r3, #2
DWORD get_fat (	/* 0xFFFFFFFF:Disk error, 1:Internal error, 2..0x0FFFFFFF:Cluster status */
 8003fcc:	460d      	mov	r5, r1
		switch (fs->fs_type) {
 8003fce:	d037      	beq.n	8004040 <get_fat.part.9+0x80>
 8003fd0:	2b03      	cmp	r3, #3
 8003fd2:	d025      	beq.n	8004020 <get_fat.part.9+0x60>
 8003fd4:	2b01      	cmp	r3, #1
 8003fd6:	d002      	beq.n	8003fde <get_fat.part.9+0x1e>
			val = 1;	/* Internal error */
 8003fd8:	2001      	movs	r0, #1
}
 8003fda:	e8bd 87f0 	ldmia.w	sp!, {r4, r5, r6, r7, r8, r9, sl, pc}
			if (move_window(fs, fs->fatbase + (bc / SS(fs))) != FR_OK) break;
 8003fde:	f8d0 2224 	ldr.w	r2, [r0, #548]	; 0x224
			bc = (UINT)clst; bc += bc / 2;
 8003fe2:	eb01 0651 	add.w	r6, r1, r1, lsr #1
	if (sector != fs->winsect) {	/* Window offset changed? */
 8003fe6:	f8d0 7230 	ldr.w	r7, [r0, #560]	; 0x230
			if (move_window(fs, fs->fatbase + (bc / SS(fs))) != FR_OK) break;
 8003fea:	eb02 2856 	add.w	r8, r2, r6, lsr #9
	if (sector != fs->winsect) {	/* Window offset changed? */
 8003fee:	45b8      	cmp	r8, r7
 8003ff0:	f040 80a6 	bne.w	8004140 <get_fat.part.9+0x180>
			wc = fs->win.d8[bc++ % SS(fs)];
 8003ff4:	f106 0801 	add.w	r8, r6, #1
			if (move_window(fs, fs->fatbase + (bc / SS(fs))) != FR_OK) break;
 8003ff8:	eb02 2958 	add.w	r9, r2, r8, lsr #9
			wc = fs->win.d8[bc++ % SS(fs)];
 8003ffc:	f3c6 0608 	ubfx	r6, r6, #0, #9
	if (sector != fs->winsect) {	/* Window offset changed? */
 8004000:	45b9      	cmp	r9, r7
			wc = fs->win.d8[bc++ % SS(fs)];
 8004002:	5da6      	ldrb	r6, [r4, r6]
	if (sector != fs->winsect) {	/* Window offset changed? */
 8004004:	f040 80d4 	bne.w	80041b0 <get_fat.part.9+0x1f0>
			wc |= fs->win.d8[bc % SS(fs)] << 8;
 8004008:	f3c8 0308 	ubfx	r3, r8, #0, #9
 800400c:	5ce0      	ldrb	r0, [r4, r3]
			val = clst & 1 ? wc >> 4 : (wc & 0xFFF);
 800400e:	07eb      	lsls	r3, r5, #31
			wc |= fs->win.d8[bc % SS(fs)] << 8;
 8004010:	ea46 2000 	orr.w	r0, r6, r0, lsl #8
			val = clst & 1 ? wc >> 4 : (wc & 0xFFF);
 8004014:	bf4c      	ite	mi
 8004016:	0900      	lsrmi	r0, r0, #4
 8004018:	f3c0 000b 	ubfxpl	r0, r0, #0, #12
}
 800401c:	e8bd 87f0 	ldmia.w	sp!, {r4, r5, r6, r7, r8, r9, sl, pc}
			if (move_window(fs, fs->fatbase + (clst / (SS(fs) / 4))) != FR_OK) break;
 8004020:	f8d0 6224 	ldr.w	r6, [r0, #548]	; 0x224
	if (sector != fs->winsect) {	/* Window offset changed? */
 8004024:	f8d0 7230 	ldr.w	r7, [r0, #560]	; 0x230
			if (move_window(fs, fs->fatbase + (clst / (SS(fs) / 4))) != FR_OK) break;
 8004028:	eb06 16d1 	add.w	r6, r6, r1, lsr #7
	if (sector != fs->winsect) {	/* Window offset changed? */
 800402c:	42be      	cmp	r6, r7
 800402e:	d14b      	bne.n	80040c8 <get_fat.part.9+0x108>
			p = &fs->win.d8[clst * 4 % SS(fs)];
 8004030:	00ad      	lsls	r5, r5, #2
 8004032:	f405 75fe 	and.w	r5, r5, #508	; 0x1fc
			val = LD_DWORD(p) & 0x0FFFFFFF;
 8004036:	5960      	ldr	r0, [r4, r5]
 8004038:	f020 4070 	bic.w	r0, r0, #4026531840	; 0xf0000000
}
 800403c:	e8bd 87f0 	ldmia.w	sp!, {r4, r5, r6, r7, r8, r9, sl, pc}
			if (move_window(fs, fs->fatbase + (clst / (SS(fs) / 2))) != FR_OK) break;
 8004040:	f8d0 6224 	ldr.w	r6, [r0, #548]	; 0x224
	if (sector != fs->winsect) {	/* Window offset changed? */
 8004044:	f8d0 7230 	ldr.w	r7, [r0, #560]	; 0x230
			if (move_window(fs, fs->fatbase + (clst / (SS(fs) / 2))) != FR_OK) break;
 8004048:	eb06 2611 	add.w	r6, r6, r1, lsr #8
	if (sector != fs->winsect) {	/* Window offset changed? */
 800404c:	42be      	cmp	r6, r7
 800404e:	d035      	beq.n	80040bc <get_fat.part.9+0xfc>
	if (fs->wflag) {	/* Write back the sector if it is dirty */
 8004050:	f890 3204 	ldrb.w	r3, [r0, #516]	; 0x204
 8004054:	f890 0201 	ldrb.w	r0, [r0, #513]	; 0x201
 8004058:	b33b      	cbz	r3, 80040aa <get_fat.part.9+0xea>
		if (disk_write(fs->drv, fs->win.d8, wsect, 1) != RES_OK) {
 800405a:	2301      	movs	r3, #1
 800405c:	463a      	mov	r2, r7
 800405e:	4621      	mov	r1, r4
 8004060:	f7ff fc38 	bl	80038d4 <disk_write>
 8004064:	2800      	cmp	r0, #0
 8004066:	f040 80da 	bne.w	800421e <get_fat.part.9+0x25e>
			if (wsect - fs->fatbase < fs->fsize) {		/* Is it in the FAT area? */
 800406a:	f8d4 2224 	ldr.w	r2, [r4, #548]	; 0x224
 800406e:	f8d4 321c 	ldr.w	r3, [r4, #540]	; 0x21c
 8004072:	1aba      	subs	r2, r7, r2
 8004074:	429a      	cmp	r2, r3
			fs->wflag = 0;
 8004076:	f884 0204 	strb.w	r0, [r4, #516]	; 0x204
			if (wsect - fs->fatbase < fs->fsize) {		/* Is it in the FAT area? */
 800407a:	d214      	bcs.n	80040a6 <get_fat.part.9+0xe6>
				for (nf = fs->n_fats; nf >= 2; nf--) {	/* Reflect the change to all FAT copies */
 800407c:	f894 8203 	ldrb.w	r8, [r4, #515]	; 0x203
 8004080:	f1b8 0f01 	cmp.w	r8, #1
 8004084:	d802      	bhi.n	800408c <get_fat.part.9+0xcc>
 8004086:	e00e      	b.n	80040a6 <get_fat.part.9+0xe6>
 8004088:	f8d4 321c 	ldr.w	r3, [r4, #540]	; 0x21c
					wsect += fs->fsize;
 800408c:	441f      	add	r7, r3
				for (nf = fs->n_fats; nf >= 2; nf--) {	/* Reflect the change to all FAT copies */
 800408e:	f108 38ff 	add.w	r8, r8, #4294967295
					disk_write(fs->drv, fs->win.d8, wsect, 1);
 8004092:	463a      	mov	r2, r7
 8004094:	2301      	movs	r3, #1
 8004096:	4621      	mov	r1, r4
 8004098:	f894 0201 	ldrb.w	r0, [r4, #513]	; 0x201
 800409c:	f7ff fc1a 	bl	80038d4 <disk_write>
				for (nf = fs->n_fats; nf >= 2; nf--) {	/* Reflect the change to all FAT copies */
 80040a0:	f1b8 0f01 	cmp.w	r8, #1
 80040a4:	d1f0      	bne.n	8004088 <get_fat.part.9+0xc8>
 80040a6:	f894 0201 	ldrb.w	r0, [r4, #513]	; 0x201
			if (disk_read(fs->drv, fs->win.d8, sector, 1) != RES_OK) {
 80040aa:	2301      	movs	r3, #1
 80040ac:	4632      	mov	r2, r6
 80040ae:	4621      	mov	r1, r4
 80040b0:	f7ff fc02 	bl	80038b8 <disk_read>
 80040b4:	2800      	cmp	r0, #0
 80040b6:	d13d      	bne.n	8004134 <get_fat.part.9+0x174>
			fs->winsect = sector;
 80040b8:	f8c4 6230 	str.w	r6, [r4, #560]	; 0x230
			p = &fs->win.d8[clst * 2 % SS(fs)];
 80040bc:	006d      	lsls	r5, r5, #1
 80040be:	f405 75ff 	and.w	r5, r5, #510	; 0x1fe
			val = LD_WORD(p);
 80040c2:	5b60      	ldrh	r0, [r4, r5]
}
 80040c4:	e8bd 87f0 	ldmia.w	sp!, {r4, r5, r6, r7, r8, r9, sl, pc}
	if (fs->wflag) {	/* Write back the sector if it is dirty */
 80040c8:	f890 3204 	ldrb.w	r3, [r0, #516]	; 0x204
 80040cc:	f890 0201 	ldrb.w	r0, [r0, #513]	; 0x201
 80040d0:	b34b      	cbz	r3, 8004126 <get_fat.part.9+0x166>
		if (disk_write(fs->drv, fs->win.d8, wsect, 1) != RES_OK) {
 80040d2:	2301      	movs	r3, #1
 80040d4:	463a      	mov	r2, r7
 80040d6:	4621      	mov	r1, r4
 80040d8:	f7ff fbfc 	bl	80038d4 <disk_write>
 80040dc:	2800      	cmp	r0, #0
 80040de:	f040 809e 	bne.w	800421e <get_fat.part.9+0x25e>
			if (wsect - fs->fatbase < fs->fsize) {		/* Is it in the FAT area? */
 80040e2:	f8d4 2224 	ldr.w	r2, [r4, #548]	; 0x224
 80040e6:	f8d4 321c 	ldr.w	r3, [r4, #540]	; 0x21c
 80040ea:	1aba      	subs	r2, r7, r2
 80040ec:	429a      	cmp	r2, r3
			fs->wflag = 0;
 80040ee:	f884 0204 	strb.w	r0, [r4, #516]	; 0x204
 80040f2:	f894 0201 	ldrb.w	r0, [r4, #513]	; 0x201
			if (wsect - fs->fatbase < fs->fsize) {		/* Is it in the FAT area? */
 80040f6:	d216      	bcs.n	8004126 <get_fat.part.9+0x166>
				for (nf = fs->n_fats; nf >= 2; nf--) {	/* Reflect the change to all FAT copies */
 80040f8:	f894 8203 	ldrb.w	r8, [r4, #515]	; 0x203
 80040fc:	f1b8 0f01 	cmp.w	r8, #1
 8004100:	d804      	bhi.n	800410c <get_fat.part.9+0x14c>
 8004102:	e010      	b.n	8004126 <get_fat.part.9+0x166>
 8004104:	f8d4 321c 	ldr.w	r3, [r4, #540]	; 0x21c
 8004108:	f894 0201 	ldrb.w	r0, [r4, #513]	; 0x201
					wsect += fs->fsize;
 800410c:	441f      	add	r7, r3
				for (nf = fs->n_fats; nf >= 2; nf--) {	/* Reflect the change to all FAT copies */
 800410e:	f108 38ff 	add.w	r8, r8, #4294967295
					disk_write(fs->drv, fs->win.d8, wsect, 1);
 8004112:	463a      	mov	r2, r7
 8004114:	2301      	movs	r3, #1
 8004116:	4621      	mov	r1, r4
 8004118:	f7ff fbdc 	bl	80038d4 <disk_write>
				for (nf = fs->n_fats; nf >= 2; nf--) {	/* Reflect the change to all FAT copies */
 800411c:	f1b8 0f01 	cmp.w	r8, #1
 8004120:	d1f0      	bne.n	8004104 <get_fat.part.9+0x144>
 8004122:	f894 0201 	ldrb.w	r0, [r4, #513]	; 0x201
			if (disk_read(fs->drv, fs->win.d8, sector, 1) != RES_OK) {
 8004126:	2301      	movs	r3, #1
 8004128:	4632      	mov	r2, r6
 800412a:	4621      	mov	r1, r4
 800412c:	f7ff fbc4 	bl	80038b8 <disk_read>
 8004130:	2800      	cmp	r0, #0
 8004132:	d078      	beq.n	8004226 <get_fat.part.9+0x266>
			fs->winsect = sector;
 8004134:	f04f 30ff 	mov.w	r0, #4294967295
 8004138:	f8c4 0230 	str.w	r0, [r4, #560]	; 0x230
}
 800413c:	e8bd 87f0 	ldmia.w	sp!, {r4, r5, r6, r7, r8, r9, sl, pc}
	if (fs->wflag) {	/* Write back the sector if it is dirty */
 8004140:	f890 2204 	ldrb.w	r2, [r0, #516]	; 0x204
 8004144:	f890 0201 	ldrb.w	r0, [r0, #513]	; 0x201
 8004148:	b32a      	cbz	r2, 8004196 <get_fat.part.9+0x1d6>
		if (disk_write(fs->drv, fs->win.d8, wsect, 1) != RES_OK) {
 800414a:	463a      	mov	r2, r7
 800414c:	4621      	mov	r1, r4
 800414e:	f7ff fbc1 	bl	80038d4 <disk_write>
 8004152:	2800      	cmp	r0, #0
 8004154:	d163      	bne.n	800421e <get_fat.part.9+0x25e>
			if (wsect - fs->fatbase < fs->fsize) {		/* Is it in the FAT area? */
 8004156:	f8d4 2224 	ldr.w	r2, [r4, #548]	; 0x224
 800415a:	f8d4 321c 	ldr.w	r3, [r4, #540]	; 0x21c
 800415e:	1aba      	subs	r2, r7, r2
 8004160:	429a      	cmp	r2, r3
			fs->wflag = 0;
 8004162:	f884 0204 	strb.w	r0, [r4, #516]	; 0x204
			if (wsect - fs->fatbase < fs->fsize) {		/* Is it in the FAT area? */
 8004166:	d214      	bcs.n	8004192 <get_fat.part.9+0x1d2>
				for (nf = fs->n_fats; nf >= 2; nf--) {	/* Reflect the change to all FAT copies */
 8004168:	f894 9203 	ldrb.w	r9, [r4, #515]	; 0x203
 800416c:	f1b9 0f01 	cmp.w	r9, #1
 8004170:	d802      	bhi.n	8004178 <get_fat.part.9+0x1b8>
 8004172:	e00e      	b.n	8004192 <get_fat.part.9+0x1d2>
 8004174:	f8d4 321c 	ldr.w	r3, [r4, #540]	; 0x21c
					wsect += fs->fsize;
 8004178:	441f      	add	r7, r3
				for (nf = fs->n_fats; nf >= 2; nf--) {	/* Reflect the change to all FAT copies */
 800417a:	f109 39ff 	add.w	r9, r9, #4294967295
					disk_write(fs->drv, fs->win.d8, wsect, 1);
 800417e:	463a      	mov	r2, r7
 8004180:	2301      	movs	r3, #1
 8004182:	4621      	mov	r1, r4
 8004184:	f894 0201 	ldrb.w	r0, [r4, #513]	; 0x201
 8004188:	f7ff fba4 	bl	80038d4 <disk_write>
				for (nf = fs->n_fats; nf >= 2; nf--) {	/* Reflect the change to all FAT copies */
 800418c:	f1b9 0f01 	cmp.w	r9, #1
 8004190:	d1f0      	bne.n	8004174 <get_fat.part.9+0x1b4>
 8004192:	f894 0201 	ldrb.w	r0, [r4, #513]	; 0x201
			if (disk_read(fs->drv, fs->win.d8, sector, 1) != RES_OK) {
 8004196:	2301      	movs	r3, #1
 8004198:	4642      	mov	r2, r8
 800419a:	4621      	mov	r1, r4
 800419c:	f7ff fb8c 	bl	80038b8 <disk_read>
 80041a0:	2800      	cmp	r0, #0
 80041a2:	d1c7      	bne.n	8004134 <get_fat.part.9+0x174>
			fs->winsect = sector;
 80041a4:	4647      	mov	r7, r8
 80041a6:	f8d4 2224 	ldr.w	r2, [r4, #548]	; 0x224
 80041aa:	f8c4 8230 	str.w	r8, [r4, #560]	; 0x230
 80041ae:	e721      	b.n	8003ff4 <get_fat.part.9+0x34>
	if (fs->wflag) {	/* Write back the sector if it is dirty */
 80041b0:	f894 3204 	ldrb.w	r3, [r4, #516]	; 0x204
 80041b4:	f894 0201 	ldrb.w	r0, [r4, #513]	; 0x201
 80041b8:	b33b      	cbz	r3, 800420a <get_fat.part.9+0x24a>
		if (disk_write(fs->drv, fs->win.d8, wsect, 1) != RES_OK) {
 80041ba:	2301      	movs	r3, #1
 80041bc:	463a      	mov	r2, r7
 80041be:	4621      	mov	r1, r4
 80041c0:	f7ff fb88 	bl	80038d4 <disk_write>
 80041c4:	bb58      	cbnz	r0, 800421e <get_fat.part.9+0x25e>
			if (wsect - fs->fatbase < fs->fsize) {		/* Is it in the FAT area? */
 80041c6:	f8d4 2224 	ldr.w	r2, [r4, #548]	; 0x224
 80041ca:	f8d4 321c 	ldr.w	r3, [r4, #540]	; 0x21c
 80041ce:	1aba      	subs	r2, r7, r2
 80041d0:	429a      	cmp	r2, r3
			fs->wflag = 0;
 80041d2:	f884 0204 	strb.w	r0, [r4, #516]	; 0x204
 80041d6:	f894 0201 	ldrb.w	r0, [r4, #513]	; 0x201
			if (wsect - fs->fatbase < fs->fsize) {		/* Is it in the FAT area? */
 80041da:	d216      	bcs.n	800420a <get_fat.part.9+0x24a>
				for (nf = fs->n_fats; nf >= 2; nf--) {	/* Reflect the change to all FAT copies */
 80041dc:	f894 a203 	ldrb.w	sl, [r4, #515]	; 0x203
 80041e0:	f1ba 0f01 	cmp.w	sl, #1
 80041e4:	d804      	bhi.n	80041f0 <get_fat.part.9+0x230>
 80041e6:	e010      	b.n	800420a <get_fat.part.9+0x24a>
 80041e8:	f8d4 321c 	ldr.w	r3, [r4, #540]	; 0x21c
 80041ec:	f894 0201 	ldrb.w	r0, [r4, #513]	; 0x201
					wsect += fs->fsize;
 80041f0:	441f      	add	r7, r3
				for (nf = fs->n_fats; nf >= 2; nf--) {	/* Reflect the change to all FAT copies */
 80041f2:	f10a 3aff 	add.w	sl, sl, #4294967295
					disk_write(fs->drv, fs->win.d8, wsect, 1);
 80041f6:	463a      	mov	r2, r7
 80041f8:	2301      	movs	r3, #1
 80041fa:	4621      	mov	r1, r4
 80041fc:	f7ff fb6a 	bl	80038d4 <disk_write>
				for (nf = fs->n_fats; nf >= 2; nf--) {	/* Reflect the change to all FAT copies */
 8004200:	f1ba 0f01 	cmp.w	sl, #1
 8004204:	d1f0      	bne.n	80041e8 <get_fat.part.9+0x228>
 8004206:	f894 0201 	ldrb.w	r0, [r4, #513]	; 0x201
			if (disk_read(fs->drv, fs->win.d8, sector, 1) != RES_OK) {
 800420a:	2301      	movs	r3, #1
 800420c:	464a      	mov	r2, r9
 800420e:	4621      	mov	r1, r4
 8004210:	f7ff fb52 	bl	80038b8 <disk_read>
 8004214:	2800      	cmp	r0, #0
 8004216:	d18d      	bne.n	8004134 <get_fat.part.9+0x174>
			fs->winsect = sector;
 8004218:	f8c4 9230 	str.w	r9, [r4, #560]	; 0x230
 800421c:	e6f4      	b.n	8004008 <get_fat.part.9+0x48>
		val = 0xFFFFFFFF;	/* Default value falls on disk error */
 800421e:	f04f 30ff 	mov.w	r0, #4294967295
}
 8004222:	e8bd 87f0 	ldmia.w	sp!, {r4, r5, r6, r7, r8, r9, sl, pc}
			fs->winsect = sector;
 8004226:	f8c4 6230 	str.w	r6, [r4, #560]	; 0x230
 800422a:	e701      	b.n	8004030 <get_fat.part.9+0x70>

0800422c <dir_next.constprop.16>:
/*-----------------------------------------------------------------------*/
/* Directory handling - Move directory table index next                  */
/*-----------------------------------------------------------------------*/

static
FRESULT dir_next (	/* FR_OK:Succeeded, FR_NO_FILE:End of table, FR_DENIED:Could not stretch */
 800422c:	b570      	push	{r4, r5, r6, lr}
#if !_FS_READONLY
	UINT c;
#endif


	i = dp->index + 1;
 800422e:	f8b0 4206 	ldrh.w	r4, [r0, #518]	; 0x206
 8004232:	3401      	adds	r4, #1
	if (!(i & 0xFFFF) || !dp->sect)	/* Report EOT when index has reached 65535 */
 8004234:	b2a3      	uxth	r3, r4
 8004236:	2b00      	cmp	r3, #0
 8004238:	d044      	beq.n	80042c4 <dir_next.constprop.16+0x98>
 800423a:	f8d0 3210 	ldr.w	r3, [r0, #528]	; 0x210
 800423e:	2b00      	cmp	r3, #0
 8004240:	d040      	beq.n	80042c4 <dir_next.constprop.16+0x98>
		return FR_NO_FILE;

	if (!(i % (SS(dp->fs) / SZ_DIRE))) {	/* Sector changed? */
 8004242:	f014 060f 	ands.w	r6, r4, #15
 8004246:	4605      	mov	r5, r0
 8004248:	f8d0 2200 	ldr.w	r2, [r0, #512]	; 0x200
 800424c:	d12e      	bne.n	80042ac <dir_next.constprop.16+0x80>
		dp->sect++;					/* Next sector */

		if (!dp->clust) {		/* Static table */
 800424e:	f8d0 120c 	ldr.w	r1, [r0, #524]	; 0x20c
		dp->sect++;					/* Next sector */
 8004252:	3301      	adds	r3, #1
 8004254:	f8c0 3210 	str.w	r3, [r0, #528]	; 0x210
		if (!dp->clust) {		/* Static table */
 8004258:	b381      	cbz	r1, 80042bc <dir_next.constprop.16+0x90>
			if (i >= dp->fs->n_rootdir)	/* Report EOT if it reached end of static table */
				return FR_NO_FILE;
		}
		else {					/* Dynamic table */
			if (((i / (SS(dp->fs) / SZ_DIRE)) & (dp->fs->csize - 1)) == 0) {	/* Cluster changed? */
 800425a:	f892 3202 	ldrb.w	r3, [r2, #514]	; 0x202
 800425e:	3b01      	subs	r3, #1
 8004260:	ea13 1314 	ands.w	r3, r3, r4, lsr #4
 8004264:	d122      	bne.n	80042ac <dir_next.constprop.16+0x80>
	if (clst < 2 || clst >= fs->n_fatent) {	/* Check range */
 8004266:	2901      	cmp	r1, #1
 8004268:	d92e      	bls.n	80042c8 <dir_next.constprop.16+0x9c>
 800426a:	f8d2 3218 	ldr.w	r3, [r2, #536]	; 0x218
 800426e:	4299      	cmp	r1, r3
 8004270:	d22a      	bcs.n	80042c8 <dir_next.constprop.16+0x9c>
 8004272:	4610      	mov	r0, r2
 8004274:	f7ff fea4 	bl	8003fc0 <get_fat.part.9>
				clst = get_fat(dp->fs, dp->clust);				/* Get next cluster */
				if (clst <= 1) return FR_INT_ERR;
 8004278:	2801      	cmp	r0, #1
 800427a:	d925      	bls.n	80042c8 <dir_next.constprop.16+0x9c>
				if (clst == 0xFFFFFFFF) return FR_DISK_ERR;
 800427c:	1c43      	adds	r3, r0, #1
 800427e:	d025      	beq.n	80042cc <dir_next.constprop.16+0xa0>
				if (clst >= dp->fs->n_fatent) {					/* If it reached end of dynamic table, */
 8004280:	f8d5 2200 	ldr.w	r2, [r5, #512]	; 0x200
 8004284:	f8d2 3218 	ldr.w	r3, [r2, #536]	; 0x218
 8004288:	4298      	cmp	r0, r3
 800428a:	d21b      	bcs.n	80042c4 <dir_next.constprop.16+0x98>
	if (clst >= fs->n_fatent - 2) return 0;		/* Invalid cluster# */
 800428c:	3b02      	subs	r3, #2
	clst -= 2;
 800428e:	1e81      	subs	r1, r0, #2
	if (clst >= fs->n_fatent - 2) return 0;		/* Invalid cluster# */
 8004290:	4299      	cmp	r1, r3
 8004292:	bf28      	it	cs
 8004294:	2300      	movcs	r3, #0
#else
					if (!stretch) return FR_NO_FILE;			/* If do not stretch, report EOT (this is to suppress warning) */
					return FR_NO_FILE;							/* Report EOT */
#endif
				}
				dp->clust = clst;				/* Initialize data for new cluster */
 8004296:	f8c5 020c 	str.w	r0, [r5, #524]	; 0x20c
	return clst * fs->csize + fs->database;
 800429a:	bf3e      	ittt	cc
 800429c:	f892 3202 	ldrbcc.w	r3, [r2, #514]	; 0x202
 80042a0:	f8d2 022c 	ldrcc.w	r0, [r2, #556]	; 0x22c
 80042a4:	fb01 0303 	mlacc	r3, r1, r3, r0
				dp->sect = clust2sect(dp->fs, clst);
 80042a8:	f8c5 3210 	str.w	r3, [r5, #528]	; 0x210
			}
		}
	}

	dp->index = (WORD)i;	/* Current index */
	dp->dir = dp->fs->win.d8 + (i % (SS(dp->fs) / SZ_DIRE)) * SZ_DIRE;	/* Current entry in the window */
 80042ac:	eb02 1246 	add.w	r2, r2, r6, lsl #5
 80042b0:	f8c5 2214 	str.w	r2, [r5, #532]	; 0x214
	dp->index = (WORD)i;	/* Current index */
 80042b4:	f8a5 4206 	strh.w	r4, [r5, #518]	; 0x206

	return FR_OK;
 80042b8:	2000      	movs	r0, #0
}
 80042ba:	bd70      	pop	{r4, r5, r6, pc}
			if (i >= dp->fs->n_rootdir)	/* Report EOT if it reached end of static table */
 80042bc:	f8b2 3208 	ldrh.w	r3, [r2, #520]	; 0x208
 80042c0:	429c      	cmp	r4, r3
 80042c2:	d3f3      	bcc.n	80042ac <dir_next.constprop.16+0x80>
		return FR_NO_FILE;
 80042c4:	2004      	movs	r0, #4
}
 80042c6:	bd70      	pop	{r4, r5, r6, pc}
				if (clst <= 1) return FR_INT_ERR;
 80042c8:	2002      	movs	r0, #2
}
 80042ca:	bd70      	pop	{r4, r5, r6, pc}
				if (clst == 0xFFFFFFFF) return FR_DISK_ERR;
 80042cc:	2001      	movs	r0, #1
}
 80042ce:	bd70      	pop	{r4, r5, r6, pc}

080042d0 <dir_find.part.11>:
/*-----------------------------------------------------------------------*/
/* Directory handling - Find an object in the directory                  */
/*-----------------------------------------------------------------------*/

static
FRESULT dir_find (
 80042d0:	e92d 4ff0 	stmdb	sp!, {r4, r5, r6, r7, r8, r9, sl, fp, lr}

	res = dir_sdi(dp, 0);			/* Rewind directory object */
	if (res != FR_OK) return res;

#if _USE_LFN
	ord = sum = 0xFF; dp->lfn_idx = 0xFFFF;	/* Reset LFN sequence */
 80042d4:	f64f 73ff 	movw	r3, #65535	; 0xffff
 80042d8:	f04f 0aff 	mov.w	sl, #255	; 0xff
FRESULT dir_find (
 80042dc:	4605      	mov	r5, r0
		c = dir[DIR_Name];
		if (c == 0) { res = FR_NO_FILE; break; }	/* Reached to end of table */
#if _USE_LFN	/* LFN configuration */
		a = dir[DIR_Attr] & AM_MASK;
		if (c == DDEM || ((a & AM_VOL) && a != AM_LFN)) {	/* An entry without valid data */
			ord = 0xFF; dp->lfn_idx = 0xFFFF;	/* Reset LFN sequence */
 80042de:	4699      	mov	r9, r3
	ord = sum = 0xFF; dp->lfn_idx = 0xFFFF;	/* Reset LFN sequence */
 80042e0:	46d0      	mov	r8, sl
 80042e2:	f8d0 4200 	ldr.w	r4, [r0, #512]	; 0x200
 80042e6:	f8d0 7210 	ldr.w	r7, [r0, #528]	; 0x210
FRESULT dir_find (
 80042ea:	b083      	sub	sp, #12
	ord = sum = 0xFF; dp->lfn_idx = 0xFFFF;	/* Reset LFN sequence */
 80042ec:	f8a0 3224 	strh.w	r3, [r0, #548]	; 0x224
	if (sector != fs->winsect) {	/* Window offset changed? */
 80042f0:	f8d4 6230 	ldr.w	r6, [r4, #560]	; 0x230
 80042f4:	42be      	cmp	r6, r7
 80042f6:	d03e      	beq.n	8004376 <dir_find.part.11+0xa6>
	if (fs->wflag) {	/* Write back the sector if it is dirty */
 80042f8:	f894 3204 	ldrb.w	r3, [r4, #516]	; 0x204
 80042fc:	f894 0201 	ldrb.w	r0, [r4, #513]	; 0x201
 8004300:	b34b      	cbz	r3, 8004356 <dir_find.part.11+0x86>
		if (disk_write(fs->drv, fs->win.d8, wsect, 1) != RES_OK) {
 8004302:	2301      	movs	r3, #1
 8004304:	4632      	mov	r2, r6
 8004306:	4621      	mov	r1, r4
 8004308:	f7ff fae4 	bl	80038d4 <disk_write>
 800430c:	2800      	cmp	r0, #0
 800430e:	f040 811c 	bne.w	800454a <dir_find.part.11+0x27a>
			if (wsect - fs->fatbase < fs->fsize) {		/* Is it in the FAT area? */
 8004312:	f8d4 2224 	ldr.w	r2, [r4, #548]	; 0x224
 8004316:	f8d4 321c 	ldr.w	r3, [r4, #540]	; 0x21c
 800431a:	1ab2      	subs	r2, r6, r2
 800431c:	429a      	cmp	r2, r3
			fs->wflag = 0;
 800431e:	f884 0204 	strb.w	r0, [r4, #516]	; 0x204
 8004322:	f894 0201 	ldrb.w	r0, [r4, #513]	; 0x201
			if (wsect - fs->fatbase < fs->fsize) {		/* Is it in the FAT area? */
 8004326:	d216      	bcs.n	8004356 <dir_find.part.11+0x86>
				for (nf = fs->n_fats; nf >= 2; nf--) {	/* Reflect the change to all FAT copies */
 8004328:	f894 b203 	ldrb.w	fp, [r4, #515]	; 0x203
 800432c:	f1bb 0f01 	cmp.w	fp, #1
 8004330:	d804      	bhi.n	800433c <dir_find.part.11+0x6c>
 8004332:	e010      	b.n	8004356 <dir_find.part.11+0x86>
 8004334:	f8d4 321c 	ldr.w	r3, [r4, #540]	; 0x21c
 8004338:	f894 0201 	ldrb.w	r0, [r4, #513]	; 0x201
					wsect += fs->fsize;
 800433c:	441e      	add	r6, r3
				for (nf = fs->n_fats; nf >= 2; nf--) {	/* Reflect the change to all FAT copies */
 800433e:	f10b 3bff 	add.w	fp, fp, #4294967295
					disk_write(fs->drv, fs->win.d8, wsect, 1);
 8004342:	4632      	mov	r2, r6
 8004344:	2301      	movs	r3, #1
 8004346:	4621      	mov	r1, r4
 8004348:	f7ff fac4 	bl	80038d4 <disk_write>
				for (nf = fs->n_fats; nf >= 2; nf--) {	/* Reflect the change to all FAT copies */
 800434c:	f1bb 0f01 	cmp.w	fp, #1
 8004350:	d1f0      	bne.n	8004334 <dir_find.part.11+0x64>
 8004352:	f894 0201 	ldrb.w	r0, [r4, #513]	; 0x201
			if (disk_read(fs->drv, fs->win.d8, sector, 1) != RES_OK) {
 8004356:	2301      	movs	r3, #1
 8004358:	463a      	mov	r2, r7
 800435a:	4621      	mov	r1, r4
 800435c:	f7ff faac 	bl	80038b8 <disk_read>
 8004360:	b138      	cbz	r0, 8004372 <dir_find.part.11+0xa2>
			fs->winsect = sector;
 8004362:	f04f 33ff 	mov.w	r3, #4294967295
				res = FR_DISK_ERR;
 8004366:	2001      	movs	r0, #1
			fs->winsect = sector;
 8004368:	f8c4 3230 	str.w	r3, [r4, #560]	; 0x230
#endif
		res = dir_next(dp, 0);		/* Next entry */
	} while (res == FR_OK);

	return res;
}
 800436c:	b003      	add	sp, #12
 800436e:	e8bd 8ff0 	ldmia.w	sp!, {r4, r5, r6, r7, r8, r9, sl, fp, pc}
			fs->winsect = sector;
 8004372:	f8c4 7230 	str.w	r7, [r4, #560]	; 0x230
		dir = dp->dir;					/* Ptr to the directory entry of current index */
 8004376:	f8d5 4214 	ldr.w	r4, [r5, #532]	; 0x214
		c = dir[DIR_Name];
 800437a:	7823      	ldrb	r3, [r4, #0]
		if (c == 0) { res = FR_NO_FILE; break; }	/* Reached to end of table */
 800437c:	b363      	cbz	r3, 80043d8 <dir_find.part.11+0x108>
		if (c == DDEM || ((a & AM_VOL) && a != AM_LFN)) {	/* An entry without valid data */
 800437e:	2be5      	cmp	r3, #229	; 0xe5
 8004380:	d006      	beq.n	8004390 <dir_find.part.11+0xc0>
		a = dir[DIR_Attr] & AM_MASK;
 8004382:	7ae2      	ldrb	r2, [r4, #11]
		if (c == DDEM || ((a & AM_VOL) && a != AM_LFN)) {	/* An entry without valid data */
 8004384:	0717      	lsls	r7, r2, #28
		a = dir[DIR_Attr] & AM_MASK;
 8004386:	f002 013f 	and.w	r1, r2, #63	; 0x3f
		if (c == DDEM || ((a & AM_VOL) && a != AM_LFN)) {	/* An entry without valid data */
 800438a:	d529      	bpl.n	80043e0 <dir_find.part.11+0x110>
 800438c:	290f      	cmp	r1, #15
 800438e:	d05f      	beq.n	8004450 <dir_find.part.11+0x180>
				ord = 0xFF; dp->lfn_idx = 0xFFFF;	/* Reset LFN sequence */
 8004390:	f8a5 9224 	strh.w	r9, [r5, #548]	; 0x224
					ord = (c == ord && sum == dir[LDIR_Chksum] && cmp_lfn(dp->lfn, dir)) ? ord - 1 : 0xFF;
 8004394:	f04f 08ff 	mov.w	r8, #255	; 0xff
	i = dp->index + 1;
 8004398:	f8b5 6206 	ldrh.w	r6, [r5, #518]	; 0x206
 800439c:	3601      	adds	r6, #1
	if (!(i & 0xFFFF) || !dp->sect)	/* Report EOT when index has reached 65535 */
 800439e:	b2b3      	uxth	r3, r6
 80043a0:	b1d3      	cbz	r3, 80043d8 <dir_find.part.11+0x108>
 80043a2:	f8d5 7210 	ldr.w	r7, [r5, #528]	; 0x210
 80043a6:	b1bf      	cbz	r7, 80043d8 <dir_find.part.11+0x108>
	if (!(i % (SS(dp->fs) / SZ_DIRE))) {	/* Sector changed? */
 80043a8:	f016 0b0f 	ands.w	fp, r6, #15
 80043ac:	f8d5 4200 	ldr.w	r4, [r5, #512]	; 0x200
 80043b0:	d10b      	bne.n	80043ca <dir_find.part.11+0xfa>
		if (!dp->clust) {		/* Static table */
 80043b2:	f8d5 120c 	ldr.w	r1, [r5, #524]	; 0x20c
		dp->sect++;					/* Next sector */
 80043b6:	3701      	adds	r7, #1
 80043b8:	f8c5 7210 	str.w	r7, [r5, #528]	; 0x210
		if (!dp->clust) {		/* Static table */
 80043bc:	2900      	cmp	r1, #0
 80043be:	f040 80b0 	bne.w	8004522 <dir_find.part.11+0x252>
			if (i >= dp->fs->n_rootdir)	/* Report EOT if it reached end of static table */
 80043c2:	f8b4 3208 	ldrh.w	r3, [r4, #520]	; 0x208
 80043c6:	429e      	cmp	r6, r3
 80043c8:	d206      	bcs.n	80043d8 <dir_find.part.11+0x108>
	dp->dir = dp->fs->win.d8 + (i % (SS(dp->fs) / SZ_DIRE)) * SZ_DIRE;	/* Current entry in the window */
 80043ca:	eb04 134b 	add.w	r3, r4, fp, lsl #5
 80043ce:	f8c5 3214 	str.w	r3, [r5, #532]	; 0x214
	dp->index = (WORD)i;	/* Current index */
 80043d2:	f8a5 6206 	strh.w	r6, [r5, #518]	; 0x206
 80043d6:	e78b      	b.n	80042f0 <dir_find.part.11+0x20>
		if (c == 0) { res = FR_NO_FILE; break; }	/* Reached to end of table */
 80043d8:	2004      	movs	r0, #4
}
 80043da:	b003      	add	sp, #12
 80043dc:	e8bd 8ff0 	ldmia.w	sp!, {r4, r5, r6, r7, r8, r9, sl, fp, pc}
			if (a == AM_LFN) {			/* An LFN entry is found */
 80043e0:	290f      	cmp	r1, #15
 80043e2:	d035      	beq.n	8004450 <dir_find.part.11+0x180>
				if (!ord && sum == sum_sfn(dir)) break;	/* LFN matched? */
 80043e4:	f1b8 0f00 	cmp.w	r8, #0
 80043e8:	f000 80b1 	beq.w	800454e <dir_find.part.11+0x27e>
				if (!(dp->fn[NSFLAG] & NS_LOSS) && !mem_cmp(dir, dp->fn, 11)) break;	/* SFN matched? */
 80043ec:	f8d5 2218 	ldr.w	r2, [r5, #536]	; 0x218
 80043f0:	7ad1      	ldrb	r1, [r2, #11]
 80043f2:	07c9      	lsls	r1, r1, #31
 80043f4:	d4cc      	bmi.n	8004390 <dir_find.part.11+0xc0>
	while (cnt-- && (r = *d++ - *s++) == 0) ;
 80043f6:	7811      	ldrb	r1, [r2, #0]
 80043f8:	4299      	cmp	r1, r3
 80043fa:	d1c9      	bne.n	8004390 <dir_find.part.11+0xc0>
 80043fc:	7861      	ldrb	r1, [r4, #1]
 80043fe:	7853      	ldrb	r3, [r2, #1]
 8004400:	4299      	cmp	r1, r3
 8004402:	d1c5      	bne.n	8004390 <dir_find.part.11+0xc0>
 8004404:	78a1      	ldrb	r1, [r4, #2]
 8004406:	7893      	ldrb	r3, [r2, #2]
 8004408:	4299      	cmp	r1, r3
 800440a:	d1c1      	bne.n	8004390 <dir_find.part.11+0xc0>
 800440c:	78e1      	ldrb	r1, [r4, #3]
 800440e:	78d3      	ldrb	r3, [r2, #3]
 8004410:	4299      	cmp	r1, r3
 8004412:	d1bd      	bne.n	8004390 <dir_find.part.11+0xc0>
 8004414:	7921      	ldrb	r1, [r4, #4]
 8004416:	7913      	ldrb	r3, [r2, #4]
 8004418:	4299      	cmp	r1, r3
 800441a:	d1b9      	bne.n	8004390 <dir_find.part.11+0xc0>
 800441c:	7961      	ldrb	r1, [r4, #5]
 800441e:	7953      	ldrb	r3, [r2, #5]
 8004420:	4299      	cmp	r1, r3
 8004422:	d1b5      	bne.n	8004390 <dir_find.part.11+0xc0>
 8004424:	79a1      	ldrb	r1, [r4, #6]
 8004426:	7993      	ldrb	r3, [r2, #6]
 8004428:	4299      	cmp	r1, r3
 800442a:	d1b1      	bne.n	8004390 <dir_find.part.11+0xc0>
 800442c:	79e1      	ldrb	r1, [r4, #7]
 800442e:	79d3      	ldrb	r3, [r2, #7]
 8004430:	4299      	cmp	r1, r3
 8004432:	d1ad      	bne.n	8004390 <dir_find.part.11+0xc0>
 8004434:	7a21      	ldrb	r1, [r4, #8]
 8004436:	7a13      	ldrb	r3, [r2, #8]
 8004438:	4299      	cmp	r1, r3
 800443a:	d1a9      	bne.n	8004390 <dir_find.part.11+0xc0>
 800443c:	7a61      	ldrb	r1, [r4, #9]
 800443e:	7a53      	ldrb	r3, [r2, #9]
 8004440:	4299      	cmp	r1, r3
 8004442:	d1a5      	bne.n	8004390 <dir_find.part.11+0xc0>
 8004444:	7aa1      	ldrb	r1, [r4, #10]
 8004446:	7a93      	ldrb	r3, [r2, #10]
 8004448:	4299      	cmp	r1, r3
 800444a:	d1a1      	bne.n	8004390 <dir_find.part.11+0xc0>
 800444c:	2000      	movs	r0, #0
 800444e:	e78d      	b.n	800436c <dir_find.part.11+0x9c>
				if (dp->lfn) {
 8004450:	f8d5 7220 	ldr.w	r7, [r5, #544]	; 0x220
 8004454:	2f00      	cmp	r7, #0
 8004456:	d09f      	beq.n	8004398 <dir_find.part.11+0xc8>
					if (c & LLEF) {		/* Is it start of LFN sequence? */
 8004458:	065e      	lsls	r6, r3, #25
 800445a:	f140 80c1 	bpl.w	80045e0 <dir_find.part.11+0x310>
						dp->lfn_idx = dp->index;	/* Start index of LFN */
 800445e:	f8b5 1206 	ldrh.w	r1, [r5, #518]	; 0x206
						sum = dir[LDIR_Chksum];
 8004462:	f894 a00d 	ldrb.w	sl, [r4, #13]
						c &= ~LLEF; ord = c;	/* LFN start order */
 8004466:	f003 08bf 	and.w	r8, r3, #191	; 0xbf
						dp->lfn_idx = dp->index;	/* Start index of LFN */
 800446a:	f8a5 1224 	strh.w	r1, [r5, #548]	; 0x224
					ord = (c == ord && sum == dir[LDIR_Chksum] && cmp_lfn(dp->lfn, dir)) ? ord - 1 : 0xFF;
 800446e:	7b63      	ldrb	r3, [r4, #13]
 8004470:	4553      	cmp	r3, sl
 8004472:	d18f      	bne.n	8004394 <dir_find.part.11+0xc4>
	i = ((dir[LDIR_Ord] & ~LLEF) - 1) * 13;	/* Get offset in the LFN buffer */
 8004474:	7826      	ldrb	r6, [r4, #0]
			wc = ff_wtoupper(uc);		/* Convert it to upper case */
 8004476:	f8b4 0001 	ldrh.w	r0, [r4, #1]
	i = ((dir[LDIR_Ord] & ~LLEF) - 1) * 13;	/* Get offset in the LFN buffer */
 800447a:	f026 0640 	bic.w	r6, r6, #64	; 0x40
 800447e:	3e01      	subs	r6, #1
 8004480:	eb06 0346 	add.w	r3, r6, r6, lsl #1
 8004484:	eb06 0683 	add.w	r6, r6, r3, lsl #2
			wc = ff_wtoupper(uc);		/* Convert it to upper case */
 8004488:	f003 fade 	bl	8007a48 <ff_wtoupper>
			if (i >= _MAX_LFN || wc != ff_wtoupper(lfnbuf[i++]))	/* Compare it */
 800448c:	2efe      	cmp	r6, #254	; 0xfe
			wc = ff_wtoupper(uc);		/* Convert it to upper case */
 800448e:	9000      	str	r0, [sp, #0]
			if (i >= _MAX_LFN || wc != ff_wtoupper(lfnbuf[i++]))	/* Compare it */
 8004490:	d880      	bhi.n	8004394 <dir_find.part.11+0xc4>
 8004492:	0073      	lsls	r3, r6, #1
 8004494:	f837 0016 	ldrh.w	r0, [r7, r6, lsl #1]
 8004498:	9301      	str	r3, [sp, #4]
 800449a:	f003 fad5 	bl	8007a48 <ff_wtoupper>
 800449e:	9b00      	ldr	r3, [sp, #0]
 80044a0:	f106 0b01 	add.w	fp, r6, #1
 80044a4:	4283      	cmp	r3, r0
 80044a6:	f47f af75 	bne.w	8004394 <dir_find.part.11+0xc4>
		uc = LD_WORD(dir + LfnOfs[s]);	/* Pick an LFN character from the entry */
 80044aa:	f8b4 0003 	ldrh.w	r0, [r4, #3]
		if (wc) {	/* Last character has not been processed */
 80044ae:	2b00      	cmp	r3, #0
 80044b0:	f040 80b4 	bne.w	800461c <dir_find.part.11+0x34c>
			if (uc != 0xFFFF) return 0;	/* Check filler */
 80044b4:	4548      	cmp	r0, r9
 80044b6:	f47f af6d 	bne.w	8004394 <dir_find.part.11+0xc4>
		uc = LD_WORD(dir + LfnOfs[s]);	/* Pick an LFN character from the entry */
 80044ba:	f8b4 0005 	ldrh.w	r0, [r4, #5]
			if (uc != 0xFFFF) return 0;	/* Check filler */
 80044be:	4548      	cmp	r0, r9
 80044c0:	f47f af68 	bne.w	8004394 <dir_find.part.11+0xc4>
		uc = LD_WORD(dir + LfnOfs[s]);	/* Pick an LFN character from the entry */
 80044c4:	f8b4 0007 	ldrh.w	r0, [r4, #7]
			if (uc != 0xFFFF) return 0;	/* Check filler */
 80044c8:	4548      	cmp	r0, r9
 80044ca:	f47f af63 	bne.w	8004394 <dir_find.part.11+0xc4>
		uc = LD_WORD(dir + LfnOfs[s]);	/* Pick an LFN character from the entry */
 80044ce:	f8b4 0009 	ldrh.w	r0, [r4, #9]
			if (uc != 0xFFFF) return 0;	/* Check filler */
 80044d2:	4548      	cmp	r0, r9
 80044d4:	f47f af5e 	bne.w	8004394 <dir_find.part.11+0xc4>
		uc = LD_WORD(dir + LfnOfs[s]);	/* Pick an LFN character from the entry */
 80044d8:	89e0      	ldrh	r0, [r4, #14]
			if (uc != 0xFFFF) return 0;	/* Check filler */
 80044da:	4548      	cmp	r0, r9
 80044dc:	f47f af5a 	bne.w	8004394 <dir_find.part.11+0xc4>
		uc = LD_WORD(dir + LfnOfs[s]);	/* Pick an LFN character from the entry */
 80044e0:	8a20      	ldrh	r0, [r4, #16]
			if (uc != 0xFFFF) return 0;	/* Check filler */
 80044e2:	4548      	cmp	r0, r9
 80044e4:	f47f af56 	bne.w	8004394 <dir_find.part.11+0xc4>
		uc = LD_WORD(dir + LfnOfs[s]);	/* Pick an LFN character from the entry */
 80044e8:	8a60      	ldrh	r0, [r4, #18]
			if (uc != 0xFFFF) return 0;	/* Check filler */
 80044ea:	4548      	cmp	r0, r9
 80044ec:	f47f af52 	bne.w	8004394 <dir_find.part.11+0xc4>
		uc = LD_WORD(dir + LfnOfs[s]);	/* Pick an LFN character from the entry */
 80044f0:	8aa0      	ldrh	r0, [r4, #20]
			if (uc != 0xFFFF) return 0;	/* Check filler */
 80044f2:	4548      	cmp	r0, r9
 80044f4:	f47f af4e 	bne.w	8004394 <dir_find.part.11+0xc4>
		uc = LD_WORD(dir + LfnOfs[s]);	/* Pick an LFN character from the entry */
 80044f8:	8ae0      	ldrh	r0, [r4, #22]
			if (uc != 0xFFFF) return 0;	/* Check filler */
 80044fa:	4548      	cmp	r0, r9
 80044fc:	f47f af4a 	bne.w	8004394 <dir_find.part.11+0xc4>
		uc = LD_WORD(dir + LfnOfs[s]);	/* Pick an LFN character from the entry */
 8004500:	8b20      	ldrh	r0, [r4, #24]
			if (uc != 0xFFFF) return 0;	/* Check filler */
 8004502:	4548      	cmp	r0, r9
 8004504:	f47f af46 	bne.w	8004394 <dir_find.part.11+0xc4>
		uc = LD_WORD(dir + LfnOfs[s]);	/* Pick an LFN character from the entry */
 8004508:	8ba0      	ldrh	r0, [r4, #28]
			if (uc != 0xFFFF) return 0;	/* Check filler */
 800450a:	4548      	cmp	r0, r9
 800450c:	f47f af42 	bne.w	8004394 <dir_find.part.11+0xc4>
		uc = LD_WORD(dir + LfnOfs[s]);	/* Pick an LFN character from the entry */
 8004510:	8be0      	ldrh	r0, [r4, #30]
			if (uc != 0xFFFF) return 0;	/* Check filler */
 8004512:	4548      	cmp	r0, r9
 8004514:	f47f af3e 	bne.w	8004394 <dir_find.part.11+0xc4>
					ord = (c == ord && sum == dir[LDIR_Chksum] && cmp_lfn(dp->lfn, dir)) ? ord - 1 : 0xFF;
 8004518:	f108 38ff 	add.w	r8, r8, #4294967295
 800451c:	fa5f f888 	uxtb.w	r8, r8
 8004520:	e73a      	b.n	8004398 <dir_find.part.11+0xc8>
			if (((i / (SS(dp->fs) / SZ_DIRE)) & (dp->fs->csize - 1)) == 0) {	/* Cluster changed? */
 8004522:	f894 3202 	ldrb.w	r3, [r4, #514]	; 0x202
 8004526:	3b01      	subs	r3, #1
 8004528:	ea13 1316 	ands.w	r3, r3, r6, lsr #4
 800452c:	f47f af4d 	bne.w	80043ca <dir_find.part.11+0xfa>
	if (clst < 2 || clst >= fs->n_fatent) {	/* Check range */
 8004530:	2901      	cmp	r1, #1
 8004532:	d959      	bls.n	80045e8 <dir_find.part.11+0x318>
 8004534:	f8d4 3218 	ldr.w	r3, [r4, #536]	; 0x218
 8004538:	4299      	cmp	r1, r3
 800453a:	d255      	bcs.n	80045e8 <dir_find.part.11+0x318>
 800453c:	4620      	mov	r0, r4
 800453e:	f7ff fd3f 	bl	8003fc0 <get_fat.part.9>
				if (clst <= 1) return FR_INT_ERR;
 8004542:	2801      	cmp	r0, #1
 8004544:	d950      	bls.n	80045e8 <dir_find.part.11+0x318>
				if (clst == 0xFFFFFFFF) return FR_DISK_ERR;
 8004546:	1c43      	adds	r3, r0, #1
 8004548:	d150      	bne.n	80045ec <dir_find.part.11+0x31c>
	if (clst >= fs->n_fatent - 2) return 0;		/* Invalid cluster# */
 800454a:	2001      	movs	r0, #1
 800454c:	e70e      	b.n	800436c <dir_find.part.11+0x9c>
	do sum = (sum >> 1) + (sum << 7) + *dir++; while (--n);
 800454e:	01da      	lsls	r2, r3, #7
 8004550:	7861      	ldrb	r1, [r4, #1]
 8004552:	ea42 0253 	orr.w	r2, r2, r3, lsr #1
 8004556:	4411      	add	r1, r2
 8004558:	f3c1 0246 	ubfx	r2, r1, #1, #7
 800455c:	ea42 12c1 	orr.w	r2, r2, r1, lsl #7
 8004560:	78a1      	ldrb	r1, [r4, #2]
 8004562:	b2d2      	uxtb	r2, r2
 8004564:	4411      	add	r1, r2
 8004566:	f3c1 0246 	ubfx	r2, r1, #1, #7
 800456a:	ea42 12c1 	orr.w	r2, r2, r1, lsl #7
 800456e:	78e1      	ldrb	r1, [r4, #3]
 8004570:	b2d2      	uxtb	r2, r2
 8004572:	4411      	add	r1, r2
 8004574:	f3c1 0246 	ubfx	r2, r1, #1, #7
 8004578:	ea42 12c1 	orr.w	r2, r2, r1, lsl #7
 800457c:	7921      	ldrb	r1, [r4, #4]
 800457e:	b2d2      	uxtb	r2, r2
 8004580:	4411      	add	r1, r2
 8004582:	f3c1 0246 	ubfx	r2, r1, #1, #7
 8004586:	ea42 12c1 	orr.w	r2, r2, r1, lsl #7
 800458a:	7961      	ldrb	r1, [r4, #5]
 800458c:	b2d2      	uxtb	r2, r2
 800458e:	4411      	add	r1, r2
 8004590:	f3c1 0246 	ubfx	r2, r1, #1, #7
 8004594:	ea42 12c1 	orr.w	r2, r2, r1, lsl #7
 8004598:	79a1      	ldrb	r1, [r4, #6]
 800459a:	b2d2      	uxtb	r2, r2
 800459c:	4411      	add	r1, r2
 800459e:	f3c1 0246 	ubfx	r2, r1, #1, #7
 80045a2:	ea42 12c1 	orr.w	r2, r2, r1, lsl #7
 80045a6:	79e1      	ldrb	r1, [r4, #7]
 80045a8:	b2d2      	uxtb	r2, r2
 80045aa:	4411      	add	r1, r2
 80045ac:	f3c1 0246 	ubfx	r2, r1, #1, #7
 80045b0:	ea42 12c1 	orr.w	r2, r2, r1, lsl #7
 80045b4:	7a21      	ldrb	r1, [r4, #8]
 80045b6:	b2d2      	uxtb	r2, r2
 80045b8:	4411      	add	r1, r2
 80045ba:	f3c1 0246 	ubfx	r2, r1, #1, #7
 80045be:	ea42 12c1 	orr.w	r2, r2, r1, lsl #7
 80045c2:	7a61      	ldrb	r1, [r4, #9]
 80045c4:	b2d2      	uxtb	r2, r2
 80045c6:	440a      	add	r2, r1
 80045c8:	f3c2 0146 	ubfx	r1, r2, #1, #7
 80045cc:	7aa0      	ldrb	r0, [r4, #10]
 80045ce:	ea41 12c2 	orr.w	r2, r1, r2, lsl #7
 80045d2:	4402      	add	r2, r0
				if (!ord && sum == sum_sfn(dir)) break;	/* LFN matched? */
 80045d4:	f002 02ff 	and.w	r2, r2, #255	; 0xff
 80045d8:	4552      	cmp	r2, sl
 80045da:	f47f af07 	bne.w	80043ec <dir_find.part.11+0x11c>
 80045de:	e735      	b.n	800444c <dir_find.part.11+0x17c>
					ord = (c == ord && sum == dir[LDIR_Chksum] && cmp_lfn(dp->lfn, dir)) ? ord - 1 : 0xFF;
 80045e0:	4543      	cmp	r3, r8
 80045e2:	f47f aed7 	bne.w	8004394 <dir_find.part.11+0xc4>
 80045e6:	e742      	b.n	800446e <dir_find.part.11+0x19e>
				if (clst <= 1) return FR_INT_ERR;
 80045e8:	2002      	movs	r0, #2
 80045ea:	e6bf      	b.n	800436c <dir_find.part.11+0x9c>
				if (clst >= dp->fs->n_fatent) {					/* If it reached end of dynamic table, */
 80045ec:	f8d5 4200 	ldr.w	r4, [r5, #512]	; 0x200
 80045f0:	f8d4 3218 	ldr.w	r3, [r4, #536]	; 0x218
 80045f4:	4298      	cmp	r0, r3
 80045f6:	f4bf aeef 	bcs.w	80043d8 <dir_find.part.11+0x108>
	if (clst >= fs->n_fatent - 2) return 0;		/* Invalid cluster# */
 80045fa:	3b02      	subs	r3, #2
	clst -= 2;
 80045fc:	1e82      	subs	r2, r0, #2
	if (clst >= fs->n_fatent - 2) return 0;		/* Invalid cluster# */
 80045fe:	429a      	cmp	r2, r3
 8004600:	bf28      	it	cs
 8004602:	2700      	movcs	r7, #0
				dp->clust = clst;				/* Initialize data for new cluster */
 8004604:	f8c5 020c 	str.w	r0, [r5, #524]	; 0x20c
	return clst * fs->csize + fs->database;
 8004608:	bf3e      	ittt	cc
 800460a:	f894 7202 	ldrbcc.w	r7, [r4, #514]	; 0x202
 800460e:	f8d4 322c 	ldrcc.w	r3, [r4, #556]	; 0x22c
 8004612:	fb02 3707 	mlacc	r7, r2, r7, r3
				dp->sect = clust2sect(dp->fs, clst);
 8004616:	f8c5 7210 	str.w	r7, [r5, #528]	; 0x210
 800461a:	e6d6      	b.n	80043ca <dir_find.part.11+0xfa>
			wc = ff_wtoupper(uc);		/* Convert it to upper case */
 800461c:	f003 fa14 	bl	8007a48 <ff_wtoupper>
			if (i >= _MAX_LFN || wc != ff_wtoupper(lfnbuf[i++]))	/* Compare it */
 8004620:	f1bb 0fff 	cmp.w	fp, #255	; 0xff
			wc = ff_wtoupper(uc);		/* Convert it to upper case */
 8004624:	9000      	str	r0, [sp, #0]
			if (i >= _MAX_LFN || wc != ff_wtoupper(lfnbuf[i++]))	/* Compare it */
 8004626:	f43f aeb5 	beq.w	8004394 <dir_find.part.11+0xc4>
 800462a:	f837 001b 	ldrh.w	r0, [r7, fp, lsl #1]
 800462e:	f003 fa0b 	bl	8007a48 <ff_wtoupper>
 8004632:	9b00      	ldr	r3, [sp, #0]
 8004634:	ea4f 0b4b 	mov.w	fp, fp, lsl #1
 8004638:	4283      	cmp	r3, r0
 800463a:	f47f aeab 	bne.w	8004394 <dir_find.part.11+0xc4>
		uc = LD_WORD(dir + LfnOfs[s]);	/* Pick an LFN character from the entry */
 800463e:	f8b4 0005 	ldrh.w	r0, [r4, #5]
		if (wc) {	/* Last character has not been processed */
 8004642:	2b00      	cmp	r3, #0
 8004644:	f43f af3b 	beq.w	80044be <dir_find.part.11+0x1ee>
			wc = ff_wtoupper(uc);		/* Convert it to upper case */
 8004648:	f003 f9fe 	bl	8007a48 <ff_wtoupper>
			if (i >= _MAX_LFN || wc != ff_wtoupper(lfnbuf[i++]))	/* Compare it */
 800464c:	2efd      	cmp	r6, #253	; 0xfd
			wc = ff_wtoupper(uc);		/* Convert it to upper case */
 800464e:	9000      	str	r0, [sp, #0]
			if (i >= _MAX_LFN || wc != ff_wtoupper(lfnbuf[i++]))	/* Compare it */
 8004650:	f43f aea0 	beq.w	8004394 <dir_find.part.11+0xc4>
 8004654:	44bb      	add	fp, r7
 8004656:	f8bb 0002 	ldrh.w	r0, [fp, #2]
 800465a:	f003 f9f5 	bl	8007a48 <ff_wtoupper>
 800465e:	9b00      	ldr	r3, [sp, #0]
 8004660:	4283      	cmp	r3, r0
 8004662:	f47f ae97 	bne.w	8004394 <dir_find.part.11+0xc4>
		uc = LD_WORD(dir + LfnOfs[s]);	/* Pick an LFN character from the entry */
 8004666:	f8b4 0007 	ldrh.w	r0, [r4, #7]
		if (wc) {	/* Last character has not been processed */
 800466a:	2b00      	cmp	r3, #0
 800466c:	f43f af2c 	beq.w	80044c8 <dir_find.part.11+0x1f8>
			wc = ff_wtoupper(uc);		/* Convert it to upper case */
 8004670:	f003 f9ea 	bl	8007a48 <ff_wtoupper>
			if (i >= _MAX_LFN || wc != ff_wtoupper(lfnbuf[i++]))	/* Compare it */
 8004674:	2efc      	cmp	r6, #252	; 0xfc
			wc = ff_wtoupper(uc);		/* Convert it to upper case */
 8004676:	9000      	str	r0, [sp, #0]
			if (i >= _MAX_LFN || wc != ff_wtoupper(lfnbuf[i++]))	/* Compare it */
 8004678:	f43f ae8c 	beq.w	8004394 <dir_find.part.11+0xc4>
 800467c:	f8bb 0004 	ldrh.w	r0, [fp, #4]
 8004680:	f003 f9e2 	bl	8007a48 <ff_wtoupper>
 8004684:	9b00      	ldr	r3, [sp, #0]
 8004686:	4283      	cmp	r3, r0
 8004688:	f47f ae84 	bne.w	8004394 <dir_find.part.11+0xc4>
		uc = LD_WORD(dir + LfnOfs[s]);	/* Pick an LFN character from the entry */
 800468c:	f8b4 0009 	ldrh.w	r0, [r4, #9]
		if (wc) {	/* Last character has not been processed */
 8004690:	2b00      	cmp	r3, #0
 8004692:	f43f af1e 	beq.w	80044d2 <dir_find.part.11+0x202>
			wc = ff_wtoupper(uc);		/* Convert it to upper case */
 8004696:	f003 f9d7 	bl	8007a48 <ff_wtoupper>
			if (i >= _MAX_LFN || wc != ff_wtoupper(lfnbuf[i++]))	/* Compare it */
 800469a:	2efb      	cmp	r6, #251	; 0xfb
			wc = ff_wtoupper(uc);		/* Convert it to upper case */
 800469c:	9000      	str	r0, [sp, #0]
			if (i >= _MAX_LFN || wc != ff_wtoupper(lfnbuf[i++]))	/* Compare it */
 800469e:	f43f ae79 	beq.w	8004394 <dir_find.part.11+0xc4>
 80046a2:	f8bb 0006 	ldrh.w	r0, [fp, #6]
 80046a6:	f003 f9cf 	bl	8007a48 <ff_wtoupper>
 80046aa:	9b00      	ldr	r3, [sp, #0]
 80046ac:	4283      	cmp	r3, r0
 80046ae:	f47f ae71 	bne.w	8004394 <dir_find.part.11+0xc4>
		uc = LD_WORD(dir + LfnOfs[s]);	/* Pick an LFN character from the entry */
 80046b2:	89e0      	ldrh	r0, [r4, #14]
		if (wc) {	/* Last character has not been processed */
 80046b4:	2b00      	cmp	r3, #0
 80046b6:	f43f af10 	beq.w	80044da <dir_find.part.11+0x20a>
			wc = ff_wtoupper(uc);		/* Convert it to upper case */
 80046ba:	f003 f9c5 	bl	8007a48 <ff_wtoupper>
			if (i >= _MAX_LFN || wc != ff_wtoupper(lfnbuf[i++]))	/* Compare it */
 80046be:	2efa      	cmp	r6, #250	; 0xfa
			wc = ff_wtoupper(uc);		/* Convert it to upper case */
 80046c0:	9000      	str	r0, [sp, #0]
			if (i >= _MAX_LFN || wc != ff_wtoupper(lfnbuf[i++]))	/* Compare it */
 80046c2:	f43f ae67 	beq.w	8004394 <dir_find.part.11+0xc4>
 80046c6:	f8bb 0008 	ldrh.w	r0, [fp, #8]
 80046ca:	f003 f9bd 	bl	8007a48 <ff_wtoupper>
 80046ce:	9b00      	ldr	r3, [sp, #0]
 80046d0:	4283      	cmp	r3, r0
 80046d2:	f47f ae5f 	bne.w	8004394 <dir_find.part.11+0xc4>
		uc = LD_WORD(dir + LfnOfs[s]);	/* Pick an LFN character from the entry */
 80046d6:	8a20      	ldrh	r0, [r4, #16]
		if (wc) {	/* Last character has not been processed */
 80046d8:	2b00      	cmp	r3, #0
 80046da:	f43f af02 	beq.w	80044e2 <dir_find.part.11+0x212>
			wc = ff_wtoupper(uc);		/* Convert it to upper case */
 80046de:	f003 f9b3 	bl	8007a48 <ff_wtoupper>
			if (i >= _MAX_LFN || wc != ff_wtoupper(lfnbuf[i++]))	/* Compare it */
 80046e2:	2ef9      	cmp	r6, #249	; 0xf9
			wc = ff_wtoupper(uc);		/* Convert it to upper case */
 80046e4:	9000      	str	r0, [sp, #0]
			if (i >= _MAX_LFN || wc != ff_wtoupper(lfnbuf[i++]))	/* Compare it */
 80046e6:	f43f ae55 	beq.w	8004394 <dir_find.part.11+0xc4>
 80046ea:	f8bb 000a 	ldrh.w	r0, [fp, #10]
 80046ee:	f003 f9ab 	bl	8007a48 <ff_wtoupper>
 80046f2:	9b00      	ldr	r3, [sp, #0]
 80046f4:	4283      	cmp	r3, r0
 80046f6:	f47f ae4d 	bne.w	8004394 <dir_find.part.11+0xc4>
		uc = LD_WORD(dir + LfnOfs[s]);	/* Pick an LFN character from the entry */
 80046fa:	8a60      	ldrh	r0, [r4, #18]
		if (wc) {	/* Last character has not been processed */
 80046fc:	2b00      	cmp	r3, #0
 80046fe:	f43f aef4 	beq.w	80044ea <dir_find.part.11+0x21a>
			wc = ff_wtoupper(uc);		/* Convert it to upper case */
 8004702:	f003 f9a1 	bl	8007a48 <ff_wtoupper>
			if (i >= _MAX_LFN || wc != ff_wtoupper(lfnbuf[i++]))	/* Compare it */
 8004706:	2ef8      	cmp	r6, #248	; 0xf8
			wc = ff_wtoupper(uc);		/* Convert it to upper case */
 8004708:	9000      	str	r0, [sp, #0]
			if (i >= _MAX_LFN || wc != ff_wtoupper(lfnbuf[i++]))	/* Compare it */
 800470a:	f43f ae43 	beq.w	8004394 <dir_find.part.11+0xc4>
 800470e:	f8bb 000c 	ldrh.w	r0, [fp, #12]
 8004712:	f003 f999 	bl	8007a48 <ff_wtoupper>
 8004716:	9b00      	ldr	r3, [sp, #0]
 8004718:	4283      	cmp	r3, r0
 800471a:	f47f ae3b 	bne.w	8004394 <dir_find.part.11+0xc4>
		uc = LD_WORD(dir + LfnOfs[s]);	/* Pick an LFN character from the entry */
 800471e:	8aa0      	ldrh	r0, [r4, #20]
		if (wc) {	/* Last character has not been processed */
 8004720:	2b00      	cmp	r3, #0
 8004722:	f43f aee6 	beq.w	80044f2 <dir_find.part.11+0x222>
			wc = ff_wtoupper(uc);		/* Convert it to upper case */
 8004726:	f003 f98f 	bl	8007a48 <ff_wtoupper>
			if (i >= _MAX_LFN || wc != ff_wtoupper(lfnbuf[i++]))	/* Compare it */
 800472a:	2ef7      	cmp	r6, #247	; 0xf7
			wc = ff_wtoupper(uc);		/* Convert it to upper case */
 800472c:	9000      	str	r0, [sp, #0]
			if (i >= _MAX_LFN || wc != ff_wtoupper(lfnbuf[i++]))	/* Compare it */
 800472e:	f43f ae31 	beq.w	8004394 <dir_find.part.11+0xc4>
 8004732:	f8bb 000e 	ldrh.w	r0, [fp, #14]
 8004736:	f003 f987 	bl	8007a48 <ff_wtoupper>
 800473a:	9b00      	ldr	r3, [sp, #0]
 800473c:	4283      	cmp	r3, r0
 800473e:	f47f ae29 	bne.w	8004394 <dir_find.part.11+0xc4>
		uc = LD_WORD(dir + LfnOfs[s]);	/* Pick an LFN character from the entry */
 8004742:	8ae0      	ldrh	r0, [r4, #22]
		if (wc) {	/* Last character has not been processed */
 8004744:	2b00      	cmp	r3, #0
 8004746:	f43f aed8 	beq.w	80044fa <dir_find.part.11+0x22a>
			wc = ff_wtoupper(uc);		/* Convert it to upper case */
 800474a:	f003 f97d 	bl	8007a48 <ff_wtoupper>
			if (i >= _MAX_LFN || wc != ff_wtoupper(lfnbuf[i++]))	/* Compare it */
 800474e:	2ef6      	cmp	r6, #246	; 0xf6
			wc = ff_wtoupper(uc);		/* Convert it to upper case */
 8004750:	9000      	str	r0, [sp, #0]
			if (i >= _MAX_LFN || wc != ff_wtoupper(lfnbuf[i++]))	/* Compare it */
 8004752:	f43f ae1f 	beq.w	8004394 <dir_find.part.11+0xc4>
 8004756:	f8bb 0010 	ldrh.w	r0, [fp, #16]
 800475a:	f003 f975 	bl	8007a48 <ff_wtoupper>
 800475e:	9b00      	ldr	r3, [sp, #0]
 8004760:	4283      	cmp	r3, r0
 8004762:	f47f ae17 	bne.w	8004394 <dir_find.part.11+0xc4>
		uc = LD_WORD(dir + LfnOfs[s]);	/* Pick an LFN character from the entry */
 8004766:	8b20      	ldrh	r0, [r4, #24]
		if (wc) {	/* Last character has not been processed */
 8004768:	2b00      	cmp	r3, #0
 800476a:	f43f aeca 	beq.w	8004502 <dir_find.part.11+0x232>
			wc = ff_wtoupper(uc);		/* Convert it to upper case */
 800476e:	f003 f96b 	bl	8007a48 <ff_wtoupper>
			if (i >= _MAX_LFN || wc != ff_wtoupper(lfnbuf[i++]))	/* Compare it */
 8004772:	2ef5      	cmp	r6, #245	; 0xf5
			wc = ff_wtoupper(uc);		/* Convert it to upper case */
 8004774:	9000      	str	r0, [sp, #0]
			if (i >= _MAX_LFN || wc != ff_wtoupper(lfnbuf[i++]))	/* Compare it */
 8004776:	f43f ae0d 	beq.w	8004394 <dir_find.part.11+0xc4>
 800477a:	f8bb 0012 	ldrh.w	r0, [fp, #18]
 800477e:	f003 f963 	bl	8007a48 <ff_wtoupper>
 8004782:	9b00      	ldr	r3, [sp, #0]
 8004784:	4283      	cmp	r3, r0
 8004786:	f47f ae05 	bne.w	8004394 <dir_find.part.11+0xc4>
		uc = LD_WORD(dir + LfnOfs[s]);	/* Pick an LFN character from the entry */
 800478a:	8ba0      	ldrh	r0, [r4, #28]
		if (wc) {	/* Last character has not been processed */
 800478c:	2b00      	cmp	r3, #0
 800478e:	f43f aebc 	beq.w	800450a <dir_find.part.11+0x23a>
			wc = ff_wtoupper(uc);		/* Convert it to upper case */
 8004792:	f003 f959 	bl	8007a48 <ff_wtoupper>
			if (i >= _MAX_LFN || wc != ff_wtoupper(lfnbuf[i++]))	/* Compare it */
 8004796:	2ef4      	cmp	r6, #244	; 0xf4
			wc = ff_wtoupper(uc);		/* Convert it to upper case */
 8004798:	9000      	str	r0, [sp, #0]
			if (i >= _MAX_LFN || wc != ff_wtoupper(lfnbuf[i++]))	/* Compare it */
 800479a:	f43f adfb 	beq.w	8004394 <dir_find.part.11+0xc4>
 800479e:	f8bb 0014 	ldrh.w	r0, [fp, #20]
 80047a2:	f003 f951 	bl	8007a48 <ff_wtoupper>
 80047a6:	9b00      	ldr	r3, [sp, #0]
 80047a8:	4283      	cmp	r3, r0
 80047aa:	f47f adf3 	bne.w	8004394 <dir_find.part.11+0xc4>
		uc = LD_WORD(dir + LfnOfs[s]);	/* Pick an LFN character from the entry */
 80047ae:	8be0      	ldrh	r0, [r4, #30]
		if (wc) {	/* Last character has not been processed */
 80047b0:	2b00      	cmp	r3, #0
 80047b2:	f43f aeae 	beq.w	8004512 <dir_find.part.11+0x242>
			wc = ff_wtoupper(uc);		/* Convert it to upper case */
 80047b6:	f003 f947 	bl	8007a48 <ff_wtoupper>
			if (i >= _MAX_LFN || wc != ff_wtoupper(lfnbuf[i++]))	/* Compare it */
 80047ba:	2ef3      	cmp	r6, #243	; 0xf3
			wc = ff_wtoupper(uc);		/* Convert it to upper case */
 80047bc:	9000      	str	r0, [sp, #0]
			if (i >= _MAX_LFN || wc != ff_wtoupper(lfnbuf[i++]))	/* Compare it */
 80047be:	f43f ade9 	beq.w	8004394 <dir_find.part.11+0xc4>
 80047c2:	f8bb 0016 	ldrh.w	r0, [fp, #22]
 80047c6:	f003 f93f 	bl	8007a48 <ff_wtoupper>
 80047ca:	9b00      	ldr	r3, [sp, #0]
 80047cc:	4283      	cmp	r3, r0
 80047ce:	f47f ade1 	bne.w	8004394 <dir_find.part.11+0xc4>
	if ((dir[LDIR_Ord] & LLEF) && wc && lfnbuf[i])	/* Last segment matched but different length */
 80047d2:	7821      	ldrb	r1, [r4, #0]
 80047d4:	0648      	lsls	r0, r1, #25
 80047d6:	f57f ae9f 	bpl.w	8004518 <dir_find.part.11+0x248>
 80047da:	2b00      	cmp	r3, #0
 80047dc:	f43f ae9c 	beq.w	8004518 <dir_find.part.11+0x248>
 80047e0:	9b01      	ldr	r3, [sp, #4]
 80047e2:	443b      	add	r3, r7
 80047e4:	8b5b      	ldrh	r3, [r3, #26]
 80047e6:	2b00      	cmp	r3, #0
 80047e8:	f43f ae96 	beq.w	8004518 <dir_find.part.11+0x248>
 80047ec:	e5d2      	b.n	8004394 <dir_find.part.11+0xc4>
 80047ee:	bf00      	nop

080047f0 <put_fat.part.10>:
FRESULT put_fat (
 80047f0:	e92d 47f0 	stmdb	sp!, {r4, r5, r6, r7, r8, r9, sl, lr}
		switch (fs->fs_type) {
 80047f4:	f890 3200 	ldrb.w	r3, [r0, #512]	; 0x200
FRESULT put_fat (
 80047f8:	4604      	mov	r4, r0
		switch (fs->fs_type) {
 80047fa:	2b02      	cmp	r3, #2
FRESULT put_fat (
 80047fc:	460d      	mov	r5, r1
 80047fe:	4616      	mov	r6, r2
		switch (fs->fs_type) {
 8004800:	f000 8082 	beq.w	8004908 <put_fat.part.10+0x118>
 8004804:	2b03      	cmp	r3, #3
 8004806:	d069      	beq.n	80048dc <put_fat.part.10+0xec>
 8004808:	2b01      	cmp	r3, #1
 800480a:	d002      	beq.n	8004812 <put_fat.part.10+0x22>
			res = FR_INT_ERR;
 800480c:	2002      	movs	r0, #2
}
 800480e:	e8bd 87f0 	ldmia.w	sp!, {r4, r5, r6, r7, r8, r9, sl, pc}
			res = move_window(fs, fs->fatbase + (bc / SS(fs)));
 8004812:	f8d0 2224 	ldr.w	r2, [r0, #548]	; 0x224
			bc = (UINT)clst; bc += bc / 2;
 8004816:	eb01 0851 	add.w	r8, r1, r1, lsr #1
	if (sector != fs->winsect) {	/* Window offset changed? */
 800481a:	f8d0 7230 	ldr.w	r7, [r0, #560]	; 0x230
			res = move_window(fs, fs->fatbase + (bc / SS(fs)));
 800481e:	eb02 2958 	add.w	r9, r2, r8, lsr #9
	if (sector != fs->winsect) {	/* Window offset changed? */
 8004822:	45b9      	cmp	r9, r7
 8004824:	f040 80f6 	bne.w	8004a14 <put_fat.part.10+0x224>
			p = &fs->win.d8[bc++ % SS(fs)];
 8004828:	f108 0901 	add.w	r9, r8, #1
			*p = (clst & 1) ? ((*p & 0x0F) | ((BYTE)val << 4)) : (BYTE)val;
 800482c:	f015 0501 	ands.w	r5, r5, #1
 8004830:	eb02 2a59 	add.w	sl, r2, r9, lsr #9
			p = &fs->win.d8[bc++ % SS(fs)];
 8004834:	f3c8 0808 	ubfx	r8, r8, #0, #9
			*p = (clst & 1) ? ((*p & 0x0F) | ((BYTE)val << 4)) : (BYTE)val;
 8004838:	f000 8126 	beq.w	8004a88 <put_fat.part.10+0x298>
			fs->wflag = 1;
 800483c:	2201      	movs	r2, #1
			*p = (clst & 1) ? ((*p & 0x0F) | ((BYTE)val << 4)) : (BYTE)val;
 800483e:	f814 3008 	ldrb.w	r3, [r4, r8]
	if (sector != fs->winsect) {	/* Window offset changed? */
 8004842:	4557      	cmp	r7, sl
			*p = (clst & 1) ? ((*p & 0x0F) | ((BYTE)val << 4)) : (BYTE)val;
 8004844:	f003 030f 	and.w	r3, r3, #15
 8004848:	ea43 1306 	orr.w	r3, r3, r6, lsl #4
 800484c:	f804 3008 	strb.w	r3, [r4, r8]
			fs->wflag = 1;
 8004850:	f884 2204 	strb.w	r2, [r4, #516]	; 0x204
	if (sector != fs->winsect) {	/* Window offset changed? */
 8004854:	f000 812c 	beq.w	8004ab0 <put_fat.part.10+0x2c0>
		if (disk_write(fs->drv, fs->win.d8, wsect, 1) != RES_OK) {
 8004858:	2301      	movs	r3, #1
 800485a:	463a      	mov	r2, r7
 800485c:	4621      	mov	r1, r4
 800485e:	f894 0201 	ldrb.w	r0, [r4, #513]	; 0x201
 8004862:	f7ff f837 	bl	80038d4 <disk_write>
 8004866:	2800      	cmp	r0, #0
 8004868:	f040 810b 	bne.w	8004a82 <put_fat.part.10+0x292>
			if (wsect - fs->fatbase < fs->fsize) {		/* Is it in the FAT area? */
 800486c:	f8d4 2224 	ldr.w	r2, [r4, #548]	; 0x224
 8004870:	f8d4 321c 	ldr.w	r3, [r4, #540]	; 0x21c
 8004874:	1aba      	subs	r2, r7, r2
 8004876:	429a      	cmp	r2, r3
			fs->wflag = 0;
 8004878:	f884 0204 	strb.w	r0, [r4, #516]	; 0x204
			if (wsect - fs->fatbase < fs->fsize) {		/* Is it in the FAT area? */
 800487c:	d214      	bcs.n	80048a8 <put_fat.part.10+0xb8>
				for (nf = fs->n_fats; nf >= 2; nf--) {	/* Reflect the change to all FAT copies */
 800487e:	f894 8203 	ldrb.w	r8, [r4, #515]	; 0x203
 8004882:	f1b8 0f01 	cmp.w	r8, #1
 8004886:	d802      	bhi.n	800488e <put_fat.part.10+0x9e>
 8004888:	e00e      	b.n	80048a8 <put_fat.part.10+0xb8>
 800488a:	f8d4 321c 	ldr.w	r3, [r4, #540]	; 0x21c
					wsect += fs->fsize;
 800488e:	441f      	add	r7, r3
				for (nf = fs->n_fats; nf >= 2; nf--) {	/* Reflect the change to all FAT copies */
 8004890:	f108 38ff 	add.w	r8, r8, #4294967295
					disk_write(fs->drv, fs->win.d8, wsect, 1);
 8004894:	463a      	mov	r2, r7
 8004896:	2301      	movs	r3, #1
 8004898:	4621      	mov	r1, r4
 800489a:	f894 0201 	ldrb.w	r0, [r4, #513]	; 0x201
 800489e:	f7ff f819 	bl	80038d4 <disk_write>
				for (nf = fs->n_fats; nf >= 2; nf--) {	/* Reflect the change to all FAT copies */
 80048a2:	f1b8 0f01 	cmp.w	r8, #1
 80048a6:	d1f0      	bne.n	800488a <put_fat.part.10+0x9a>
			if (disk_read(fs->drv, fs->win.d8, sector, 1) != RES_OK) {
 80048a8:	2301      	movs	r3, #1
 80048aa:	4652      	mov	r2, sl
 80048ac:	4621      	mov	r1, r4
 80048ae:	f894 0201 	ldrb.w	r0, [r4, #513]	; 0x201
 80048b2:	f7ff f801 	bl	80038b8 <disk_read>
 80048b6:	2800      	cmp	r0, #0
 80048b8:	f040 80a5 	bne.w	8004a06 <put_fat.part.10+0x216>
			fs->winsect = sector;
 80048bc:	f8c4 a230 	str.w	sl, [r4, #560]	; 0x230
			p = &fs->win.d8[bc % SS(fs)];
 80048c0:	f3c9 0308 	ubfx	r3, r9, #0, #9
			*p = (clst & 1) ? (BYTE)(val >> 4) : ((*p & 0xF0) | ((BYTE)(val >> 8) & 0x0F));
 80048c4:	2d00      	cmp	r5, #0
 80048c6:	f000 80e9 	beq.w	8004a9c <put_fat.part.10+0x2ac>
 80048ca:	f3c6 1607 	ubfx	r6, r6, #4, #8
			fs->wflag = 1;
 80048ce:	2201      	movs	r2, #1
			*p = (clst & 1) ? (BYTE)(val >> 4) : ((*p & 0xF0) | ((BYTE)(val >> 8) & 0x0F));
 80048d0:	54e6      	strb	r6, [r4, r3]
			fs->wflag = 1;
 80048d2:	f884 2204 	strb.w	r2, [r4, #516]	; 0x204
 80048d6:	2000      	movs	r0, #0
}
 80048d8:	e8bd 87f0 	ldmia.w	sp!, {r4, r5, r6, r7, r8, r9, sl, pc}
			res = move_window(fs, fs->fatbase + (clst / (SS(fs) / 4)));
 80048dc:	f8d0 7224 	ldr.w	r7, [r0, #548]	; 0x224
	if (sector != fs->winsect) {	/* Window offset changed? */
 80048e0:	f8d0 8230 	ldr.w	r8, [r0, #560]	; 0x230
			res = move_window(fs, fs->fatbase + (clst / (SS(fs) / 4)));
 80048e4:	eb07 17d1 	add.w	r7, r7, r1, lsr #7
	if (sector != fs->winsect) {	/* Window offset changed? */
 80048e8:	4547      	cmp	r7, r8
 80048ea:	d156      	bne.n	800499a <put_fat.part.10+0x1aa>
			fs->wflag = 1;
 80048ec:	2201      	movs	r2, #1
			p = &fs->win.d8[clst * 4 % SS(fs)];
 80048ee:	00ad      	lsls	r5, r5, #2
 80048f0:	f405 75fe 	and.w	r5, r5, #508	; 0x1fc
			val |= LD_DWORD(p) & 0xF0000000;
 80048f4:	5963      	ldr	r3, [r4, r5]
			fs->wflag = 1;
 80048f6:	2000      	movs	r0, #0
			val |= LD_DWORD(p) & 0xF0000000;
 80048f8:	f003 4370 	and.w	r3, r3, #4026531840	; 0xf0000000
 80048fc:	431e      	orrs	r6, r3
			ST_DWORD(p, val);
 80048fe:	5166      	str	r6, [r4, r5]
			fs->wflag = 1;
 8004900:	f884 2204 	strb.w	r2, [r4, #516]	; 0x204
}
 8004904:	e8bd 87f0 	ldmia.w	sp!, {r4, r5, r6, r7, r8, r9, sl, pc}
			res = move_window(fs, fs->fatbase + (clst / (SS(fs) / 2)));
 8004908:	f8d0 7224 	ldr.w	r7, [r0, #548]	; 0x224
	if (sector != fs->winsect) {	/* Window offset changed? */
 800490c:	f8d0 8230 	ldr.w	r8, [r0, #560]	; 0x230
			res = move_window(fs, fs->fatbase + (clst / (SS(fs) / 2)));
 8004910:	eb07 2711 	add.w	r7, r7, r1, lsr #8
	if (sector != fs->winsect) {	/* Window offset changed? */
 8004914:	4547      	cmp	r7, r8
 8004916:	d036      	beq.n	8004986 <put_fat.part.10+0x196>
	if (fs->wflag) {	/* Write back the sector if it is dirty */
 8004918:	f890 3204 	ldrb.w	r3, [r0, #516]	; 0x204
 800491c:	f890 0201 	ldrb.w	r0, [r0, #513]	; 0x201
 8004920:	b343      	cbz	r3, 8004974 <put_fat.part.10+0x184>
		if (disk_write(fs->drv, fs->win.d8, wsect, 1) != RES_OK) {
 8004922:	2301      	movs	r3, #1
 8004924:	4642      	mov	r2, r8
 8004926:	4621      	mov	r1, r4
 8004928:	f7fe ffd4 	bl	80038d4 <disk_write>
 800492c:	2800      	cmp	r0, #0
 800492e:	f040 80a8 	bne.w	8004a82 <put_fat.part.10+0x292>
			if (wsect - fs->fatbase < fs->fsize) {		/* Is it in the FAT area? */
 8004932:	f8d4 2224 	ldr.w	r2, [r4, #548]	; 0x224
 8004936:	f8d4 321c 	ldr.w	r3, [r4, #540]	; 0x21c
 800493a:	eba8 0202 	sub.w	r2, r8, r2
 800493e:	429a      	cmp	r2, r3
			fs->wflag = 0;
 8004940:	f884 0204 	strb.w	r0, [r4, #516]	; 0x204
			if (wsect - fs->fatbase < fs->fsize) {		/* Is it in the FAT area? */
 8004944:	d214      	bcs.n	8004970 <put_fat.part.10+0x180>
				for (nf = fs->n_fats; nf >= 2; nf--) {	/* Reflect the change to all FAT copies */
 8004946:	f894 9203 	ldrb.w	r9, [r4, #515]	; 0x203
 800494a:	f1b9 0f01 	cmp.w	r9, #1
 800494e:	d802      	bhi.n	8004956 <put_fat.part.10+0x166>
 8004950:	e00e      	b.n	8004970 <put_fat.part.10+0x180>
 8004952:	f8d4 321c 	ldr.w	r3, [r4, #540]	; 0x21c
					wsect += fs->fsize;
 8004956:	4498      	add	r8, r3
				for (nf = fs->n_fats; nf >= 2; nf--) {	/* Reflect the change to all FAT copies */
 8004958:	f109 39ff 	add.w	r9, r9, #4294967295
					disk_write(fs->drv, fs->win.d8, wsect, 1);
 800495c:	4642      	mov	r2, r8
 800495e:	2301      	movs	r3, #1
 8004960:	4621      	mov	r1, r4
 8004962:	f894 0201 	ldrb.w	r0, [r4, #513]	; 0x201
 8004966:	f7fe ffb5 	bl	80038d4 <disk_write>
				for (nf = fs->n_fats; nf >= 2; nf--) {	/* Reflect the change to all FAT copies */
 800496a:	f1b9 0f01 	cmp.w	r9, #1
 800496e:	d1f0      	bne.n	8004952 <put_fat.part.10+0x162>
 8004970:	f894 0201 	ldrb.w	r0, [r4, #513]	; 0x201
			if (disk_read(fs->drv, fs->win.d8, sector, 1) != RES_OK) {
 8004974:	2301      	movs	r3, #1
 8004976:	463a      	mov	r2, r7
 8004978:	4621      	mov	r1, r4
 800497a:	f7fe ff9d 	bl	80038b8 <disk_read>
 800497e:	2800      	cmp	r0, #0
 8004980:	d141      	bne.n	8004a06 <put_fat.part.10+0x216>
			fs->winsect = sector;
 8004982:	f8c4 7230 	str.w	r7, [r4, #560]	; 0x230
			fs->wflag = 1;
 8004986:	2301      	movs	r3, #1
			p = &fs->win.d8[clst * 2 % SS(fs)];
 8004988:	409d      	lsls	r5, r3
 800498a:	f405 75ff 	and.w	r5, r5, #510	; 0x1fe
			ST_WORD(p, (WORD)val);
 800498e:	5366      	strh	r6, [r4, r5]
			fs->wflag = 1;
 8004990:	f884 3204 	strb.w	r3, [r4, #516]	; 0x204
 8004994:	2000      	movs	r0, #0
}
 8004996:	e8bd 87f0 	ldmia.w	sp!, {r4, r5, r6, r7, r8, r9, sl, pc}
	if (fs->wflag) {	/* Write back the sector if it is dirty */
 800499a:	f890 3204 	ldrb.w	r3, [r0, #516]	; 0x204
 800499e:	f890 0201 	ldrb.w	r0, [r0, #513]	; 0x201
 80049a2:	b34b      	cbz	r3, 80049f8 <put_fat.part.10+0x208>
		if (disk_write(fs->drv, fs->win.d8, wsect, 1) != RES_OK) {
 80049a4:	2301      	movs	r3, #1
 80049a6:	4642      	mov	r2, r8
 80049a8:	4621      	mov	r1, r4
 80049aa:	f7fe ff93 	bl	80038d4 <disk_write>
 80049ae:	2800      	cmp	r0, #0
 80049b0:	d167      	bne.n	8004a82 <put_fat.part.10+0x292>
			if (wsect - fs->fatbase < fs->fsize) {		/* Is it in the FAT area? */
 80049b2:	f8d4 2224 	ldr.w	r2, [r4, #548]	; 0x224
 80049b6:	f8d4 321c 	ldr.w	r3, [r4, #540]	; 0x21c
 80049ba:	eba8 0202 	sub.w	r2, r8, r2
 80049be:	429a      	cmp	r2, r3
			fs->wflag = 0;
 80049c0:	f884 0204 	strb.w	r0, [r4, #516]	; 0x204
 80049c4:	f894 0201 	ldrb.w	r0, [r4, #513]	; 0x201
			if (wsect - fs->fatbase < fs->fsize) {		/* Is it in the FAT area? */
 80049c8:	d216      	bcs.n	80049f8 <put_fat.part.10+0x208>
				for (nf = fs->n_fats; nf >= 2; nf--) {	/* Reflect the change to all FAT copies */
 80049ca:	f894 9203 	ldrb.w	r9, [r4, #515]	; 0x203
 80049ce:	f1b9 0f01 	cmp.w	r9, #1
 80049d2:	d804      	bhi.n	80049de <put_fat.part.10+0x1ee>
 80049d4:	e010      	b.n	80049f8 <put_fat.part.10+0x208>
 80049d6:	f8d4 321c 	ldr.w	r3, [r4, #540]	; 0x21c
 80049da:	f894 0201 	ldrb.w	r0, [r4, #513]	; 0x201
					wsect += fs->fsize;
 80049de:	4498      	add	r8, r3
				for (nf = fs->n_fats; nf >= 2; nf--) {	/* Reflect the change to all FAT copies */
 80049e0:	f109 39ff 	add.w	r9, r9, #4294967295
					disk_write(fs->drv, fs->win.d8, wsect, 1);
 80049e4:	4642      	mov	r2, r8
 80049e6:	2301      	movs	r3, #1
 80049e8:	4621      	mov	r1, r4
 80049ea:	f7fe ff73 	bl	80038d4 <disk_write>
				for (nf = fs->n_fats; nf >= 2; nf--) {	/* Reflect the change to all FAT copies */
 80049ee:	f1b9 0f01 	cmp.w	r9, #1
 80049f2:	d1f0      	bne.n	80049d6 <put_fat.part.10+0x1e6>
 80049f4:	f894 0201 	ldrb.w	r0, [r4, #513]	; 0x201
			if (disk_read(fs->drv, fs->win.d8, sector, 1) != RES_OK) {
 80049f8:	2301      	movs	r3, #1
 80049fa:	463a      	mov	r2, r7
 80049fc:	4621      	mov	r1, r4
 80049fe:	f7fe ff5b 	bl	80038b8 <disk_read>
 8004a02:	2800      	cmp	r0, #0
 8004a04:	d051      	beq.n	8004aaa <put_fat.part.10+0x2ba>
			fs->winsect = sector;
 8004a06:	f04f 33ff 	mov.w	r3, #4294967295
				res = FR_DISK_ERR;
 8004a0a:	2001      	movs	r0, #1
			fs->winsect = sector;
 8004a0c:	f8c4 3230 	str.w	r3, [r4, #560]	; 0x230
}
 8004a10:	e8bd 87f0 	ldmia.w	sp!, {r4, r5, r6, r7, r8, r9, sl, pc}
	if (fs->wflag) {	/* Write back the sector if it is dirty */
 8004a14:	f890 2204 	ldrb.w	r2, [r0, #516]	; 0x204
 8004a18:	f890 0201 	ldrb.w	r0, [r0, #513]	; 0x201
 8004a1c:	b322      	cbz	r2, 8004a68 <put_fat.part.10+0x278>
		if (disk_write(fs->drv, fs->win.d8, wsect, 1) != RES_OK) {
 8004a1e:	463a      	mov	r2, r7
 8004a20:	4621      	mov	r1, r4
 8004a22:	f7fe ff57 	bl	80038d4 <disk_write>
 8004a26:	bb60      	cbnz	r0, 8004a82 <put_fat.part.10+0x292>
			if (wsect - fs->fatbase < fs->fsize) {		/* Is it in the FAT area? */
 8004a28:	f8d4 2224 	ldr.w	r2, [r4, #548]	; 0x224
 8004a2c:	f8d4 321c 	ldr.w	r3, [r4, #540]	; 0x21c
 8004a30:	1aba      	subs	r2, r7, r2
 8004a32:	429a      	cmp	r2, r3
			fs->wflag = 0;
 8004a34:	f884 0204 	strb.w	r0, [r4, #516]	; 0x204
			if (wsect - fs->fatbase < fs->fsize) {		/* Is it in the FAT area? */
 8004a38:	d214      	bcs.n	8004a64 <put_fat.part.10+0x274>
				for (nf = fs->n_fats; nf >= 2; nf--) {	/* Reflect the change to all FAT copies */
 8004a3a:	f894 a203 	ldrb.w	sl, [r4, #515]	; 0x203
 8004a3e:	f1ba 0f01 	cmp.w	sl, #1
 8004a42:	d802      	bhi.n	8004a4a <put_fat.part.10+0x25a>
 8004a44:	e00e      	b.n	8004a64 <put_fat.part.10+0x274>
 8004a46:	f8d4 321c 	ldr.w	r3, [r4, #540]	; 0x21c
					wsect += fs->fsize;
 8004a4a:	441f      	add	r7, r3
				for (nf = fs->n_fats; nf >= 2; nf--) {	/* Reflect the change to all FAT copies */
 8004a4c:	f10a 3aff 	add.w	sl, sl, #4294967295
					disk_write(fs->drv, fs->win.d8, wsect, 1);
 8004a50:	463a      	mov	r2, r7
 8004a52:	2301      	movs	r3, #1
 8004a54:	4621      	mov	r1, r4
 8004a56:	f894 0201 	ldrb.w	r0, [r4, #513]	; 0x201
 8004a5a:	f7fe ff3b 	bl	80038d4 <disk_write>
				for (nf = fs->n_fats; nf >= 2; nf--) {	/* Reflect the change to all FAT copies */
 8004a5e:	f1ba 0f01 	cmp.w	sl, #1
 8004a62:	d1f0      	bne.n	8004a46 <put_fat.part.10+0x256>
 8004a64:	f894 0201 	ldrb.w	r0, [r4, #513]	; 0x201
			if (disk_read(fs->drv, fs->win.d8, sector, 1) != RES_OK) {
 8004a68:	2301      	movs	r3, #1
 8004a6a:	464a      	mov	r2, r9
 8004a6c:	4621      	mov	r1, r4
 8004a6e:	f7fe ff23 	bl	80038b8 <disk_read>
 8004a72:	2800      	cmp	r0, #0
 8004a74:	d1c7      	bne.n	8004a06 <put_fat.part.10+0x216>
			fs->winsect = sector;
 8004a76:	464f      	mov	r7, r9
 8004a78:	f8d4 2224 	ldr.w	r2, [r4, #548]	; 0x224
 8004a7c:	f8c4 9230 	str.w	r9, [r4, #560]	; 0x230
 8004a80:	e6d2      	b.n	8004828 <put_fat.part.10+0x38>
			res = FR_INT_ERR;
 8004a82:	2001      	movs	r0, #1
}
 8004a84:	e8bd 87f0 	ldmia.w	sp!, {r4, r5, r6, r7, r8, r9, sl, pc}
			fs->wflag = 1;
 8004a88:	2301      	movs	r3, #1
	if (sector != fs->winsect) {	/* Window offset changed? */
 8004a8a:	4557      	cmp	r7, sl
			*p = (clst & 1) ? ((*p & 0x0F) | ((BYTE)val << 4)) : (BYTE)val;
 8004a8c:	f804 6008 	strb.w	r6, [r4, r8]
			fs->wflag = 1;
 8004a90:	f884 3204 	strb.w	r3, [r4, #516]	; 0x204
	if (sector != fs->winsect) {	/* Window offset changed? */
 8004a94:	f47f aee0 	bne.w	8004858 <put_fat.part.10+0x68>
			p = &fs->win.d8[bc % SS(fs)];
 8004a98:	f3c9 0308 	ubfx	r3, r9, #0, #9
			*p = (clst & 1) ? (BYTE)(val >> 4) : ((*p & 0xF0) | ((BYTE)(val >> 8) & 0x0F));
 8004a9c:	5ce2      	ldrb	r2, [r4, r3]
 8004a9e:	f3c6 2103 	ubfx	r1, r6, #8, #4
 8004aa2:	f022 060f 	bic.w	r6, r2, #15
 8004aa6:	430e      	orrs	r6, r1
 8004aa8:	e711      	b.n	80048ce <put_fat.part.10+0xde>
			fs->winsect = sector;
 8004aaa:	f8c4 7230 	str.w	r7, [r4, #560]	; 0x230
 8004aae:	e71d      	b.n	80048ec <put_fat.part.10+0xfc>
			p = &fs->win.d8[bc % SS(fs)];
 8004ab0:	f3c9 0308 	ubfx	r3, r9, #0, #9
 8004ab4:	e709      	b.n	80048ca <put_fat.part.10+0xda>
 8004ab6:	bf00      	nop

08004ab8 <create_chain>:
{
 8004ab8:	e92d 4ff0 	stmdb	sp!, {r4, r5, r6, r7, r8, r9, sl, fp, lr}
 8004abc:	4605      	mov	r5, r0
 8004abe:	b083      	sub	sp, #12
	if (clst == 0) {		/* Create a new chain */
 8004ac0:	468b      	mov	fp, r1
 8004ac2:	2900      	cmp	r1, #0
 8004ac4:	d153      	bne.n	8004b6e <create_chain+0xb6>
		scl = fs->last_clust;			/* Get suggested start point */
 8004ac6:	f8d0 7210 	ldr.w	r7, [r0, #528]	; 0x210
 8004aca:	f8d0 3218 	ldr.w	r3, [r0, #536]	; 0x218
		if (!scl || scl >= fs->n_fatent) scl = 1;
 8004ace:	2f00      	cmp	r7, #0
 8004ad0:	d159      	bne.n	8004b86 <create_chain+0xce>
 8004ad2:	2701      	movs	r7, #1
 8004ad4:	463c      	mov	r4, r7
 8004ad6:	f8cd b004 	str.w	fp, [sp, #4]
		ncl++;							/* Next cluster */
 8004ada:	3401      	adds	r4, #1
		if (ncl >= fs->n_fatent) {		/* Check wrap around */
 8004adc:	429c      	cmp	r4, r3
 8004ade:	d36d      	bcc.n	8004bbc <create_chain+0x104>
			if (ncl > scl) return 0;	/* No free cluster */
 8004ae0:	2f01      	cmp	r7, #1
 8004ae2:	f240 8179 	bls.w	8004dd8 <create_chain+0x320>
	if (clst < 2 || clst >= fs->n_fatent) {	/* Check range */
 8004ae6:	2b02      	cmp	r3, #2
 8004ae8:	d948      	bls.n	8004b7c <create_chain+0xc4>
		switch (fs->fs_type) {
 8004aea:	f895 3200 	ldrb.w	r3, [r5, #512]	; 0x200
			ncl = 2;
 8004aee:	2402      	movs	r4, #2
		switch (fs->fs_type) {
 8004af0:	2b02      	cmp	r3, #2
 8004af2:	d069      	beq.n	8004bc8 <create_chain+0x110>
 8004af4:	2b03      	cmp	r3, #3
 8004af6:	f000 80b3 	beq.w	8004c60 <create_chain+0x1a8>
 8004afa:	2b01      	cmp	r3, #1
 8004afc:	d13e      	bne.n	8004b7c <create_chain+0xc4>
			if (move_window(fs, fs->fatbase + (bc / SS(fs))) != FR_OK) break;
 8004afe:	f8d5 2224 	ldr.w	r2, [r5, #548]	; 0x224
			bc = (UINT)clst; bc += bc / 2;
 8004b02:	eb04 0654 	add.w	r6, r4, r4, lsr #1
	if (sector != fs->winsect) {	/* Window offset changed? */
 8004b06:	f8d5 8230 	ldr.w	r8, [r5, #560]	; 0x230
			if (move_window(fs, fs->fatbase + (bc / SS(fs))) != FR_OK) break;
 8004b0a:	eb02 2a56 	add.w	sl, r2, r6, lsr #9
	if (sector != fs->winsect) {	/* Window offset changed? */
 8004b0e:	45c2      	cmp	sl, r8
 8004b10:	f000 80e1 	beq.w	8004cd6 <create_chain+0x21e>
	if (fs->wflag) {	/* Write back the sector if it is dirty */
 8004b14:	f895 2204 	ldrb.w	r2, [r5, #516]	; 0x204
 8004b18:	f895 0201 	ldrb.w	r0, [r5, #513]	; 0x201
 8004b1c:	b1ba      	cbz	r2, 8004b4e <create_chain+0x96>
		if (disk_write(fs->drv, fs->win.d8, wsect, 1) != RES_OK) {
 8004b1e:	4642      	mov	r2, r8
 8004b20:	4629      	mov	r1, r5
 8004b22:	f7fe fed7 	bl	80038d4 <disk_write>
 8004b26:	2800      	cmp	r0, #0
 8004b28:	d142      	bne.n	8004bb0 <create_chain+0xf8>
			if (wsect - fs->fatbase < fs->fsize) {		/* Is it in the FAT area? */
 8004b2a:	f8d5 2224 	ldr.w	r2, [r5, #548]	; 0x224
 8004b2e:	f8d5 321c 	ldr.w	r3, [r5, #540]	; 0x21c
 8004b32:	eba8 0202 	sub.w	r2, r8, r2
 8004b36:	429a      	cmp	r2, r3
			fs->wflag = 0;
 8004b38:	f885 0204 	strb.w	r0, [r5, #516]	; 0x204
			if (wsect - fs->fatbase < fs->fsize) {		/* Is it in the FAT area? */
 8004b3c:	d205      	bcs.n	8004b4a <create_chain+0x92>
				for (nf = fs->n_fats; nf >= 2; nf--) {	/* Reflect the change to all FAT copies */
 8004b3e:	f895 9203 	ldrb.w	r9, [r5, #515]	; 0x203
 8004b42:	f1b9 0f01 	cmp.w	r9, #1
 8004b46:	f200 8139 	bhi.w	8004dbc <create_chain+0x304>
 8004b4a:	f895 0201 	ldrb.w	r0, [r5, #513]	; 0x201
			if (disk_read(fs->drv, fs->win.d8, sector, 1) != RES_OK) {
 8004b4e:	2301      	movs	r3, #1
 8004b50:	4652      	mov	r2, sl
 8004b52:	4629      	mov	r1, r5
 8004b54:	f7fe feb0 	bl	80038b8 <disk_read>
 8004b58:	2800      	cmp	r0, #0
 8004b5a:	f000 80b7 	beq.w	8004ccc <create_chain+0x214>
			fs->winsect = sector;
 8004b5e:	f04f 34ff 	mov.w	r4, #4294967295
}
 8004b62:	4620      	mov	r0, r4
			fs->winsect = sector;
 8004b64:	f8c5 4230 	str.w	r4, [r5, #560]	; 0x230
}
 8004b68:	b003      	add	sp, #12
 8004b6a:	e8bd 8ff0 	ldmia.w	sp!, {r4, r5, r6, r7, r8, r9, sl, fp, pc}
	if (clst < 2 || clst >= fs->n_fatent) {	/* Check range */
 8004b6e:	2901      	cmp	r1, #1
 8004b70:	d904      	bls.n	8004b7c <create_chain+0xc4>
 8004b72:	f8d0 3218 	ldr.w	r3, [r0, #536]	; 0x218
 8004b76:	4299      	cmp	r1, r3
 8004b78:	f0c0 80fc 	bcc.w	8004d74 <create_chain+0x2bc>
			val = 1;	/* Internal error */
 8004b7c:	2401      	movs	r4, #1
}
 8004b7e:	4620      	mov	r0, r4
 8004b80:	b003      	add	sp, #12
 8004b82:	e8bd 8ff0 	ldmia.w	sp!, {r4, r5, r6, r7, r8, r9, sl, fp, pc}
		if (!scl || scl >= fs->n_fatent) scl = 1;
 8004b86:	429f      	cmp	r7, r3
 8004b88:	bf28      	it	cs
 8004b8a:	2701      	movcs	r7, #1
 8004b8c:	e7a2      	b.n	8004ad4 <create_chain+0x1c>
	if (clst < 2 || clst >= fs->n_fatent) {	/* Check range */
 8004b8e:	f8d5 3218 	ldr.w	r3, [r5, #536]	; 0x218
 8004b92:	f8dd b004 	ldr.w	fp, [sp, #4]
 8004b96:	42a3      	cmp	r3, r4
 8004b98:	d9f0      	bls.n	8004b7c <create_chain+0xc4>
 8004b9a:	f06f 4270 	mvn.w	r2, #4026531840	; 0xf0000000
 8004b9e:	4621      	mov	r1, r4
 8004ba0:	4628      	mov	r0, r5
 8004ba2:	f7ff fe25 	bl	80047f0 <put_fat.part.10>
	if (res == FR_OK && clst != 0) {
 8004ba6:	2800      	cmp	r0, #0
 8004ba8:	f000 811b 	beq.w	8004de2 <create_chain+0x32a>
		ncl = (res == FR_DISK_ERR) ? 0xFFFFFFFF : 1;
 8004bac:	2801      	cmp	r0, #1
 8004bae:	d1e5      	bne.n	8004b7c <create_chain+0xc4>
			fs->winsect = sector;
 8004bb0:	f04f 34ff 	mov.w	r4, #4294967295
}
 8004bb4:	4620      	mov	r0, r4
 8004bb6:	b003      	add	sp, #12
 8004bb8:	e8bd 8ff0 	ldmia.w	sp!, {r4, r5, r6, r7, r8, r9, sl, fp, pc}
	if (clst < 2 || clst >= fs->n_fatent) {	/* Check range */
 8004bbc:	2c01      	cmp	r4, #1
 8004bbe:	d9dd      	bls.n	8004b7c <create_chain+0xc4>
		switch (fs->fs_type) {
 8004bc0:	f895 3200 	ldrb.w	r3, [r5, #512]	; 0x200
 8004bc4:	2b02      	cmp	r3, #2
 8004bc6:	d195      	bne.n	8004af4 <create_chain+0x3c>
			if (move_window(fs, fs->fatbase + (clst / (SS(fs) / 2))) != FR_OK) break;
 8004bc8:	f8d5 6224 	ldr.w	r6, [r5, #548]	; 0x224
	if (sector != fs->winsect) {	/* Window offset changed? */
 8004bcc:	f8d5 8230 	ldr.w	r8, [r5, #560]	; 0x230
			if (move_window(fs, fs->fatbase + (clst / (SS(fs) / 2))) != FR_OK) break;
 8004bd0:	eb06 2614 	add.w	r6, r6, r4, lsr #8
	if (sector != fs->winsect) {	/* Window offset changed? */
 8004bd4:	4546      	cmp	r6, r8
 8004bd6:	d035      	beq.n	8004c44 <create_chain+0x18c>
	if (fs->wflag) {	/* Write back the sector if it is dirty */
 8004bd8:	f895 3204 	ldrb.w	r3, [r5, #516]	; 0x204
 8004bdc:	f895 0201 	ldrb.w	r0, [r5, #513]	; 0x201
 8004be0:	b33b      	cbz	r3, 8004c32 <create_chain+0x17a>
		if (disk_write(fs->drv, fs->win.d8, wsect, 1) != RES_OK) {
 8004be2:	2301      	movs	r3, #1
 8004be4:	4642      	mov	r2, r8
 8004be6:	4629      	mov	r1, r5
 8004be8:	f7fe fe74 	bl	80038d4 <disk_write>
 8004bec:	2800      	cmp	r0, #0
 8004bee:	d1df      	bne.n	8004bb0 <create_chain+0xf8>
			if (wsect - fs->fatbase < fs->fsize) {		/* Is it in the FAT area? */
 8004bf0:	f8d5 2224 	ldr.w	r2, [r5, #548]	; 0x224
 8004bf4:	f8d5 321c 	ldr.w	r3, [r5, #540]	; 0x21c
 8004bf8:	eba8 0202 	sub.w	r2, r8, r2
 8004bfc:	429a      	cmp	r2, r3
			fs->wflag = 0;
 8004bfe:	f885 0204 	strb.w	r0, [r5, #516]	; 0x204
			if (wsect - fs->fatbase < fs->fsize) {		/* Is it in the FAT area? */
 8004c02:	d214      	bcs.n	8004c2e <create_chain+0x176>
				for (nf = fs->n_fats; nf >= 2; nf--) {	/* Reflect the change to all FAT copies */
 8004c04:	f895 9203 	ldrb.w	r9, [r5, #515]	; 0x203
 8004c08:	f1b9 0f01 	cmp.w	r9, #1
 8004c0c:	d802      	bhi.n	8004c14 <create_chain+0x15c>
 8004c0e:	e00e      	b.n	8004c2e <create_chain+0x176>
 8004c10:	f8d5 321c 	ldr.w	r3, [r5, #540]	; 0x21c
					wsect += fs->fsize;
 8004c14:	4498      	add	r8, r3
				for (nf = fs->n_fats; nf >= 2; nf--) {	/* Reflect the change to all FAT copies */
 8004c16:	f109 39ff 	add.w	r9, r9, #4294967295
					disk_write(fs->drv, fs->win.d8, wsect, 1);
 8004c1a:	4642      	mov	r2, r8
 8004c1c:	2301      	movs	r3, #1
 8004c1e:	4629      	mov	r1, r5
 8004c20:	f895 0201 	ldrb.w	r0, [r5, #513]	; 0x201
 8004c24:	f7fe fe56 	bl	80038d4 <disk_write>
				for (nf = fs->n_fats; nf >= 2; nf--) {	/* Reflect the change to all FAT copies */
 8004c28:	f1b9 0f01 	cmp.w	r9, #1
 8004c2c:	d1f0      	bne.n	8004c10 <create_chain+0x158>
 8004c2e:	f895 0201 	ldrb.w	r0, [r5, #513]	; 0x201
			if (disk_read(fs->drv, fs->win.d8, sector, 1) != RES_OK) {
 8004c32:	2301      	movs	r3, #1
 8004c34:	4632      	mov	r2, r6
 8004c36:	4629      	mov	r1, r5
 8004c38:	f7fe fe3e 	bl	80038b8 <disk_read>
 8004c3c:	2800      	cmp	r0, #0
 8004c3e:	d18e      	bne.n	8004b5e <create_chain+0xa6>
			fs->winsect = sector;
 8004c40:	f8c5 6230 	str.w	r6, [r5, #560]	; 0x230
			p = &fs->win.d8[clst * 2 % SS(fs)];
 8004c44:	0063      	lsls	r3, r4, #1
 8004c46:	f403 73ff 	and.w	r3, r3, #510	; 0x1fe
			val = LD_WORD(p);
 8004c4a:	5aee      	ldrh	r6, [r5, r3]
		if (cs == 0) break;				/* Found a free cluster */
 8004c4c:	2e00      	cmp	r6, #0
 8004c4e:	d09e      	beq.n	8004b8e <create_chain+0xd6>
		if (cs == 0xFFFFFFFF || cs == 1)/* An error occurred */
 8004c50:	2e01      	cmp	r6, #1
 8004c52:	d093      	beq.n	8004b7c <create_chain+0xc4>
		if (ncl == scl) return 0;		/* No free cluster */
 8004c54:	42a7      	cmp	r7, r4
 8004c56:	f000 80bf 	beq.w	8004dd8 <create_chain+0x320>
 8004c5a:	f8d5 3218 	ldr.w	r3, [r5, #536]	; 0x218
 8004c5e:	e73c      	b.n	8004ada <create_chain+0x22>
			if (move_window(fs, fs->fatbase + (clst / (SS(fs) / 4))) != FR_OK) break;
 8004c60:	f8d5 6224 	ldr.w	r6, [r5, #548]	; 0x224
	if (sector != fs->winsect) {	/* Window offset changed? */
 8004c64:	f8d5 8230 	ldr.w	r8, [r5, #560]	; 0x230
			if (move_window(fs, fs->fatbase + (clst / (SS(fs) / 4))) != FR_OK) break;
 8004c68:	eb06 16d4 	add.w	r6, r6, r4, lsr #7
	if (sector != fs->winsect) {	/* Window offset changed? */
 8004c6c:	4546      	cmp	r6, r8
 8004c6e:	d026      	beq.n	8004cbe <create_chain+0x206>
	if (fs->wflag) {	/* Write back the sector if it is dirty */
 8004c70:	f895 3204 	ldrb.w	r3, [r5, #516]	; 0x204
 8004c74:	f895 0201 	ldrb.w	r0, [r5, #513]	; 0x201
 8004c78:	b1bb      	cbz	r3, 8004caa <create_chain+0x1f2>
		if (disk_write(fs->drv, fs->win.d8, wsect, 1) != RES_OK) {
 8004c7a:	2301      	movs	r3, #1
 8004c7c:	4642      	mov	r2, r8
 8004c7e:	4629      	mov	r1, r5
 8004c80:	f7fe fe28 	bl	80038d4 <disk_write>
 8004c84:	2800      	cmp	r0, #0
 8004c86:	d193      	bne.n	8004bb0 <create_chain+0xf8>
			if (wsect - fs->fatbase < fs->fsize) {		/* Is it in the FAT area? */
 8004c88:	f8d5 2224 	ldr.w	r2, [r5, #548]	; 0x224
 8004c8c:	f8d5 321c 	ldr.w	r3, [r5, #540]	; 0x21c
 8004c90:	eba8 0202 	sub.w	r2, r8, r2
 8004c94:	429a      	cmp	r2, r3
			fs->wflag = 0;
 8004c96:	f885 0204 	strb.w	r0, [r5, #516]	; 0x204
 8004c9a:	f895 0201 	ldrb.w	r0, [r5, #513]	; 0x201
			if (wsect - fs->fatbase < fs->fsize) {		/* Is it in the FAT area? */
 8004c9e:	d204      	bcs.n	8004caa <create_chain+0x1f2>
				for (nf = fs->n_fats; nf >= 2; nf--) {	/* Reflect the change to all FAT copies */
 8004ca0:	f895 9203 	ldrb.w	r9, [r5, #515]	; 0x203
 8004ca4:	f1b9 0f01 	cmp.w	r9, #1
 8004ca8:	d878      	bhi.n	8004d9c <create_chain+0x2e4>
			if (disk_read(fs->drv, fs->win.d8, sector, 1) != RES_OK) {
 8004caa:	2301      	movs	r3, #1
 8004cac:	4632      	mov	r2, r6
 8004cae:	4629      	mov	r1, r5
 8004cb0:	f7fe fe02 	bl	80038b8 <disk_read>
 8004cb4:	2800      	cmp	r0, #0
 8004cb6:	f47f af52 	bne.w	8004b5e <create_chain+0xa6>
			fs->winsect = sector;
 8004cba:	f8c5 6230 	str.w	r6, [r5, #560]	; 0x230
			p = &fs->win.d8[clst * 4 % SS(fs)];
 8004cbe:	00a3      	lsls	r3, r4, #2
 8004cc0:	f403 73fe 	and.w	r3, r3, #508	; 0x1fc
			val = LD_DWORD(p) & 0x0FFFFFFF;
 8004cc4:	58ee      	ldr	r6, [r5, r3]
 8004cc6:	f026 4670 	bic.w	r6, r6, #4026531840	; 0xf0000000
 8004cca:	e7bf      	b.n	8004c4c <create_chain+0x194>
			fs->winsect = sector;
 8004ccc:	46d0      	mov	r8, sl
 8004cce:	f8d5 2224 	ldr.w	r2, [r5, #548]	; 0x224
 8004cd2:	f8c5 a230 	str.w	sl, [r5, #560]	; 0x230
			wc = fs->win.d8[bc++ % SS(fs)];
 8004cd6:	f106 0a01 	add.w	sl, r6, #1
			if (move_window(fs, fs->fatbase + (bc / SS(fs))) != FR_OK) break;
 8004cda:	eb02 295a 	add.w	r9, r2, sl, lsr #9
			wc = fs->win.d8[bc++ % SS(fs)];
 8004cde:	f3c6 0608 	ubfx	r6, r6, #0, #9
	if (sector != fs->winsect) {	/* Window offset changed? */
 8004ce2:	45c1      	cmp	r9, r8
			wc = fs->win.d8[bc++ % SS(fs)];
 8004ce4:	5dae      	ldrb	r6, [r5, r6]
	if (sector != fs->winsect) {	/* Window offset changed? */
 8004ce6:	d039      	beq.n	8004d5c <create_chain+0x2a4>
	if (fs->wflag) {	/* Write back the sector if it is dirty */
 8004ce8:	f895 3204 	ldrb.w	r3, [r5, #516]	; 0x204
 8004cec:	f895 0201 	ldrb.w	r0, [r5, #513]	; 0x201
 8004cf0:	b353      	cbz	r3, 8004d48 <create_chain+0x290>
		if (disk_write(fs->drv, fs->win.d8, wsect, 1) != RES_OK) {
 8004cf2:	2301      	movs	r3, #1
 8004cf4:	4642      	mov	r2, r8
 8004cf6:	4629      	mov	r1, r5
 8004cf8:	f7fe fdec 	bl	80038d4 <disk_write>
 8004cfc:	2800      	cmp	r0, #0
 8004cfe:	f47f af57 	bne.w	8004bb0 <create_chain+0xf8>
			if (wsect - fs->fatbase < fs->fsize) {		/* Is it in the FAT area? */
 8004d02:	f8d5 2224 	ldr.w	r2, [r5, #548]	; 0x224
 8004d06:	f8d5 321c 	ldr.w	r3, [r5, #540]	; 0x21c
 8004d0a:	eba8 0202 	sub.w	r2, r8, r2
 8004d0e:	429a      	cmp	r2, r3
			fs->wflag = 0;
 8004d10:	f885 0204 	strb.w	r0, [r5, #516]	; 0x204
 8004d14:	f895 0201 	ldrb.w	r0, [r5, #513]	; 0x201
			if (wsect - fs->fatbase < fs->fsize) {		/* Is it in the FAT area? */
 8004d18:	d216      	bcs.n	8004d48 <create_chain+0x290>
				for (nf = fs->n_fats; nf >= 2; nf--) {	/* Reflect the change to all FAT copies */
 8004d1a:	f895 b203 	ldrb.w	fp, [r5, #515]	; 0x203
 8004d1e:	f1bb 0f01 	cmp.w	fp, #1
 8004d22:	d804      	bhi.n	8004d2e <create_chain+0x276>
 8004d24:	e010      	b.n	8004d48 <create_chain+0x290>
 8004d26:	f8d5 321c 	ldr.w	r3, [r5, #540]	; 0x21c
 8004d2a:	f895 0201 	ldrb.w	r0, [r5, #513]	; 0x201
					wsect += fs->fsize;
 8004d2e:	4498      	add	r8, r3
				for (nf = fs->n_fats; nf >= 2; nf--) {	/* Reflect the change to all FAT copies */
 8004d30:	f10b 3bff 	add.w	fp, fp, #4294967295
					disk_write(fs->drv, fs->win.d8, wsect, 1);
 8004d34:	4642      	mov	r2, r8
 8004d36:	2301      	movs	r3, #1
 8004d38:	4629      	mov	r1, r5
 8004d3a:	f7fe fdcb 	bl	80038d4 <disk_write>
				for (nf = fs->n_fats; nf >= 2; nf--) {	/* Reflect the change to all FAT copies */
 8004d3e:	f1bb 0f01 	cmp.w	fp, #1
 8004d42:	d1f0      	bne.n	8004d26 <create_chain+0x26e>
 8004d44:	f895 0201 	ldrb.w	r0, [r5, #513]	; 0x201
			if (disk_read(fs->drv, fs->win.d8, sector, 1) != RES_OK) {
 8004d48:	2301      	movs	r3, #1
 8004d4a:	464a      	mov	r2, r9
 8004d4c:	4629      	mov	r1, r5
 8004d4e:	f7fe fdb3 	bl	80038b8 <disk_read>
 8004d52:	2800      	cmp	r0, #0
 8004d54:	f47f af03 	bne.w	8004b5e <create_chain+0xa6>
			fs->winsect = sector;
 8004d58:	f8c5 9230 	str.w	r9, [r5, #560]	; 0x230
			wc |= fs->win.d8[bc % SS(fs)] << 8;
 8004d5c:	f3ca 0a08 	ubfx	sl, sl, #0, #9
 8004d60:	f815 300a 	ldrb.w	r3, [r5, sl]
			val = clst & 1 ? wc >> 4 : (wc & 0xFFF);
 8004d64:	07e1      	lsls	r1, r4, #31
			wc |= fs->win.d8[bc % SS(fs)] << 8;
 8004d66:	ea46 2603 	orr.w	r6, r6, r3, lsl #8
			val = clst & 1 ? wc >> 4 : (wc & 0xFFF);
 8004d6a:	bf4c      	ite	mi
 8004d6c:	0936      	lsrmi	r6, r6, #4
 8004d6e:	f3c6 060b 	ubfxpl	r6, r6, #0, #12
 8004d72:	e76b      	b.n	8004c4c <create_chain+0x194>
 8004d74:	f7ff f924 	bl	8003fc0 <get_fat.part.9>
		if (cs < 2) return 1;			/* Invalid value */
 8004d78:	2801      	cmp	r0, #1
 8004d7a:	4604      	mov	r4, r0
 8004d7c:	f67f aefe 	bls.w	8004b7c <create_chain+0xc4>
		if (cs == 0xFFFFFFFF) return cs;	/* A disk error occurred */
 8004d80:	3001      	adds	r0, #1
 8004d82:	f43f af15 	beq.w	8004bb0 <create_chain+0xf8>
		if (cs < fs->n_fatent) return cs;	/* It is already followed by next cluster */
 8004d86:	f8d5 3218 	ldr.w	r3, [r5, #536]	; 0x218
 8004d8a:	42a3      	cmp	r3, r4
 8004d8c:	f63f aef7 	bhi.w	8004b7e <create_chain+0xc6>
 8004d90:	465f      	mov	r7, fp
 8004d92:	e69f      	b.n	8004ad4 <create_chain+0x1c>
 8004d94:	f8d5 321c 	ldr.w	r3, [r5, #540]	; 0x21c
 8004d98:	f895 0201 	ldrb.w	r0, [r5, #513]	; 0x201
					wsect += fs->fsize;
 8004d9c:	4498      	add	r8, r3
				for (nf = fs->n_fats; nf >= 2; nf--) {	/* Reflect the change to all FAT copies */
 8004d9e:	f109 39ff 	add.w	r9, r9, #4294967295
					disk_write(fs->drv, fs->win.d8, wsect, 1);
 8004da2:	4642      	mov	r2, r8
 8004da4:	2301      	movs	r3, #1
 8004da6:	4629      	mov	r1, r5
 8004da8:	f7fe fd94 	bl	80038d4 <disk_write>
				for (nf = fs->n_fats; nf >= 2; nf--) {	/* Reflect the change to all FAT copies */
 8004dac:	f1b9 0f01 	cmp.w	r9, #1
 8004db0:	d1f0      	bne.n	8004d94 <create_chain+0x2dc>
 8004db2:	f895 0201 	ldrb.w	r0, [r5, #513]	; 0x201
 8004db6:	e778      	b.n	8004caa <create_chain+0x1f2>
 8004db8:	f8d5 321c 	ldr.w	r3, [r5, #540]	; 0x21c
					wsect += fs->fsize;
 8004dbc:	4498      	add	r8, r3
				for (nf = fs->n_fats; nf >= 2; nf--) {	/* Reflect the change to all FAT copies */
 8004dbe:	f109 39ff 	add.w	r9, r9, #4294967295
					disk_write(fs->drv, fs->win.d8, wsect, 1);
 8004dc2:	4642      	mov	r2, r8
 8004dc4:	2301      	movs	r3, #1
 8004dc6:	4629      	mov	r1, r5
 8004dc8:	f895 0201 	ldrb.w	r0, [r5, #513]	; 0x201
 8004dcc:	f7fe fd82 	bl	80038d4 <disk_write>
				for (nf = fs->n_fats; nf >= 2; nf--) {	/* Reflect the change to all FAT copies */
 8004dd0:	f1b9 0f01 	cmp.w	r9, #1
 8004dd4:	d1f0      	bne.n	8004db8 <create_chain+0x300>
 8004dd6:	e6b8      	b.n	8004b4a <create_chain+0x92>
			if (ncl > scl) return 0;	/* No free cluster */
 8004dd8:	2400      	movs	r4, #0
}
 8004dda:	4620      	mov	r0, r4
 8004ddc:	b003      	add	sp, #12
 8004dde:	e8bd 8ff0 	ldmia.w	sp!, {r4, r5, r6, r7, r8, r9, sl, fp, pc}
	if (res == FR_OK && clst != 0) {
 8004de2:	f1bb 0f00 	cmp.w	fp, #0
 8004de6:	d010      	beq.n	8004e0a <create_chain+0x352>
	if (clst < 2 || clst >= fs->n_fatent) {	/* Check range */
 8004de8:	f1bb 0f01 	cmp.w	fp, #1
 8004dec:	f67f aec6 	bls.w	8004b7c <create_chain+0xc4>
 8004df0:	f8d5 3218 	ldr.w	r3, [r5, #536]	; 0x218
 8004df4:	459b      	cmp	fp, r3
 8004df6:	f4bf aec1 	bcs.w	8004b7c <create_chain+0xc4>
 8004dfa:	4659      	mov	r1, fp
 8004dfc:	4622      	mov	r2, r4
 8004dfe:	4628      	mov	r0, r5
 8004e00:	f7ff fcf6 	bl	80047f0 <put_fat.part.10>
	if (res == FR_OK) {
 8004e04:	2800      	cmp	r0, #0
 8004e06:	f47f aed1 	bne.w	8004bac <create_chain+0xf4>
		if (fs->free_clust != 0xFFFFFFFF) {
 8004e0a:	f8d5 3214 	ldr.w	r3, [r5, #532]	; 0x214
		fs->last_clust = ncl;			/* Update FSINFO */
 8004e0e:	f8c5 4210 	str.w	r4, [r5, #528]	; 0x210
		if (fs->free_clust != 0xFFFFFFFF) {
 8004e12:	1c5a      	adds	r2, r3, #1
 8004e14:	f43f aeb3 	beq.w	8004b7e <create_chain+0xc6>
			fs->fsi_flag |= 1;
 8004e18:	f895 2205 	ldrb.w	r2, [r5, #517]	; 0x205
			fs->free_clust--;
 8004e1c:	3b01      	subs	r3, #1
			fs->fsi_flag |= 1;
 8004e1e:	f042 0201 	orr.w	r2, r2, #1
			fs->free_clust--;
 8004e22:	f8c5 3214 	str.w	r3, [r5, #532]	; 0x214
			fs->fsi_flag |= 1;
 8004e26:	f885 2205 	strb.w	r2, [r5, #517]	; 0x205
 8004e2a:	e6a8      	b.n	8004b7e <create_chain+0xc6>

08004e2c <f_write.part.14>:
	if (res != FR_OK) LEAVE_FF(fp->fs, res);
	if (fp->err)							/* Check error */
		LEAVE_FF(fp->fs, (FRESULT)fp->err);
	if (!(fp->flag & FA_WRITE))				/* Check access mode */
		LEAVE_FF(fp->fs, FR_DENIED);
	if (fp->fptr + btw < fp->fptr) btw = 0;	/* File size cannot reach 4GB */
 8004e2c:	f8d0 c208 	ldr.w	ip, [r0, #520]	; 0x208
FRESULT f_write (
 8004e30:	e92d 4ff8 	stmdb	sp!, {r3, r4, r5, r6, r7, r8, r9, sl, fp, lr}
	if (fp->fptr + btw < fp->fptr) btw = 0;	/* File size cannot reach 4GB */
 8004e34:	eb1c 0f02 	cmn.w	ip, r2
FRESULT f_write (
 8004e38:	4604      	mov	r4, r0
	if (fp->fptr + btw < fp->fptr) btw = 0;	/* File size cannot reach 4GB */
 8004e3a:	f080 80b7 	bcs.w	8004fac <f_write.part.14+0x180>
 8004e3e:	4615      	mov	r5, r2

	for ( ;  btw;							/* Repeat until all data written */
 8004e40:	2a00      	cmp	r2, #0
 8004e42:	f000 80b3 	beq.w	8004fac <f_write.part.14+0x180>
 8004e46:	460f      	mov	r7, r1
 8004e48:	4698      	mov	r8, r3
 8004e4a:	f500 7600 	add.w	r6, r0, #512	; 0x200
		wbuff += wcnt, fp->fptr += wcnt, *bw += wcnt, btw -= wcnt) {
		if ((fp->fptr % SS(fp->fs)) == 0) {	/* On the sector boundary? */
 8004e4e:	f3cc 0308 	ubfx	r3, ip, #0, #9
 8004e52:	2b00      	cmp	r3, #0
 8004e54:	d16c      	bne.n	8004f30 <f_write.part.14+0x104>
			csect = (BYTE)(fp->fptr / SS(fp->fs) & (fp->fs->csize - 1));	/* Sector offset in the cluster */
 8004e56:	f8d4 0200 	ldr.w	r0, [r4, #512]	; 0x200
 8004e5a:	ea4f 235c 	mov.w	r3, ip, lsr #9
 8004e5e:	f890 e202 	ldrb.w	lr, [r0, #514]	; 0x202
 8004e62:	f10e 3bff 	add.w	fp, lr, #4294967295
 8004e66:	ea0b 0b03 	and.w	fp, fp, r3
			if (!csect) {					/* On the cluster boundary? */
 8004e6a:	f01b 0bff 	ands.w	fp, fp, #255	; 0xff
 8004e6e:	d115      	bne.n	8004e9c <f_write.part.14+0x70>
				if (fp->fptr == 0) {		/* On the top of the file? */
 8004e70:	f1bc 0f00 	cmp.w	ip, #0
 8004e74:	f040 80be 	bne.w	8004ff4 <f_write.part.14+0x1c8>
					clst = fp->sclust;		/* Follow from the origin */
 8004e78:	f8d4 3210 	ldr.w	r3, [r4, #528]	; 0x210
					if (clst == 0)			/* When no cluster is allocated, */
 8004e7c:	2b00      	cmp	r3, #0
 8004e7e:	f000 8107 	beq.w	8005090 <f_write.part.14+0x264>
					else
#endif
						clst = create_chain(fp->fs, fp->clust);	/* Follow or stretch cluster chain on the FAT */
				}
				if (clst == 0) break;		/* Could not allocate a new cluster (disk full) */
				if (clst == 1) ABORT(fp->fs, FR_INT_ERR);
 8004e82:	2b01      	cmp	r3, #1
 8004e84:	f000 8134 	beq.w	80050f0 <f_write.part.14+0x2c4>
				if (clst == 0xFFFFFFFF) ABORT(fp->fs, FR_DISK_ERR);
 8004e88:	1c5a      	adds	r2, r3, #1
 8004e8a:	f000 80d6 	beq.w	800503a <f_write.part.14+0x20e>
				fp->clust = clst;			/* Update current cluster */
				if (fp->sclust == 0) fp->sclust = clst;	/* Set start cluster if the first write */
 8004e8e:	f8d4 2210 	ldr.w	r2, [r4, #528]	; 0x210
				fp->clust = clst;			/* Update current cluster */
 8004e92:	f8c4 3214 	str.w	r3, [r4, #532]	; 0x214
				if (fp->sclust == 0) fp->sclust = clst;	/* Set start cluster if the first write */
 8004e96:	b90a      	cbnz	r2, 8004e9c <f_write.part.14+0x70>
 8004e98:	f8c4 3210 	str.w	r3, [r4, #528]	; 0x210
			}
#if _FS_TINY
			if (fp->fs->winsect == fp->dsect && sync_window(fp->fs))	/* Write-back sector cache */
				ABORT(fp->fs, FR_DISK_ERR);
#else
			if (fp->flag & FA__DIRTY) {		/* Write-back sector cache */
 8004e9c:	f894 3206 	ldrb.w	r3, [r4, #518]	; 0x206
 8004ea0:	065b      	lsls	r3, r3, #25
 8004ea2:	f100 8094 	bmi.w	8004fce <f_write.part.14+0x1a2>
	clst -= 2;
 8004ea6:	f8d4 2214 	ldr.w	r2, [r4, #532]	; 0x214
	if (clst >= fs->n_fatent - 2) return 0;		/* Invalid cluster# */
 8004eaa:	f8d0 3218 	ldr.w	r3, [r0, #536]	; 0x218
	clst -= 2;
 8004eae:	3a02      	subs	r2, #2
	if (clst >= fs->n_fatent - 2) return 0;		/* Invalid cluster# */
 8004eb0:	3b02      	subs	r3, #2
 8004eb2:	429a      	cmp	r2, r3
 8004eb4:	f080 8112 	bcs.w	80050dc <f_write.part.14+0x2b0>
	return clst * fs->csize + fs->database;
 8004eb8:	f890 3202 	ldrb.w	r3, [r0, #514]	; 0x202
 8004ebc:	f8d0 122c 	ldr.w	r1, [r0, #556]	; 0x22c
 8004ec0:	fb03 1202 	mla	r2, r3, r2, r1
					ABORT(fp->fs, FR_DISK_ERR);
				fp->flag &= ~FA__DIRTY;
			}
#endif
			sect = clust2sect(fp->fs, fp->clust);	/* Get current sector */
			if (!sect) ABORT(fp->fs, FR_INT_ERR);
 8004ec4:	2a00      	cmp	r2, #0
 8004ec6:	f000 8109 	beq.w	80050dc <f_write.part.14+0x2b0>
			sect += csect;
			cc = btw / SS(fp->fs);			/* When remaining bytes >= sector size, */
			if (cc) {						/* Write maximum contiguous sectors directly */
 8004eca:	ea5f 2955 	movs.w	r9, r5, lsr #9
			sect += csect;
 8004ece:	eb02 0a0b 	add.w	sl, r2, fp
			if (cc) {						/* Write maximum contiguous sectors directly */
 8004ed2:	d01e      	beq.n	8004f12 <f_write.part.14+0xe6>
				if (csect + cc > fp->fs->csize)	/* Clip at cluster boundary */
 8004ed4:	eb0b 0209 	add.w	r2, fp, r9
 8004ed8:	4293      	cmp	r3, r2
					cc = fp->fs->csize - csect;
 8004eda:	bf38      	it	cc
 8004edc:	eba3 090b 	subcc.w	r9, r3, fp
				if (disk_write(fp->fs->drv, wbuff, sect, cc) != RES_OK)
 8004ee0:	f890 0201 	ldrb.w	r0, [r0, #513]	; 0x201
 8004ee4:	464b      	mov	r3, r9
 8004ee6:	4652      	mov	r2, sl
 8004ee8:	4639      	mov	r1, r7
 8004eea:	f7fe fcf3 	bl	80038d4 <disk_write>
 8004eee:	2800      	cmp	r0, #0
 8004ef0:	f000 80ab 	beq.w	800504a <f_write.part.14+0x21e>
			}
#else
			if (fp->dsect != sect) {		/* Fill sector cache with file data */
				if (fp->fptr < fp->fsize &&
					disk_read(fp->fs->drv, fp->buf.d8, sect, 1) != RES_OK)
						ABORT(fp->fs, FR_DISK_ERR);
 8004ef4:	2501      	movs	r5, #1
 8004ef6:	f8d4 3200 	ldr.w	r3, [r4, #512]	; 0x200
 8004efa:	f884 5207 	strb.w	r5, [r4, #519]	; 0x207
	if (fs &&
 8004efe:	2b00      	cmp	r3, #0
 8004f00:	f000 80a0 	beq.w	8005044 <f_write.part.14+0x218>
		ff_rel_grant(fs->sobj);
 8004f04:	f8d3 020c 	ldr.w	r0, [r3, #524]	; 0x20c
 8004f08:	f002 fdd6 	bl	8007ab8 <ff_rel_grant>
						ABORT(fp->fs, FR_DISK_ERR);
 8004f0c:	4628      	mov	r0, r5

	if (fp->fptr > fp->fsize) fp->fsize = fp->fptr;	/* Update file size if needed */
	fp->flag |= FA__WRITTEN;						/* Set file change flag */

	LEAVE_FF(fp->fs, FR_OK);
}
 8004f0e:	e8bd 8ff8 	ldmia.w	sp!, {r3, r4, r5, r6, r7, r8, r9, sl, fp, pc}
			if (fp->dsect != sect) {		/* Fill sector cache with file data */
 8004f12:	f8d4 3218 	ldr.w	r3, [r4, #536]	; 0x218
 8004f16:	f8d4 c208 	ldr.w	ip, [r4, #520]	; 0x208
 8004f1a:	459a      	cmp	sl, r3
 8004f1c:	d004      	beq.n	8004f28 <f_write.part.14+0xfc>
				if (fp->fptr < fp->fsize &&
 8004f1e:	f8d4 320c 	ldr.w	r3, [r4, #524]	; 0x20c
 8004f22:	4563      	cmp	r3, ip
 8004f24:	f200 809f 	bhi.w	8005066 <f_write.part.14+0x23a>
			fp->dsect = sect;
 8004f28:	f8c4 a218 	str.w	sl, [r4, #536]	; 0x218
 8004f2c:	f3cc 0308 	ubfx	r3, ip, #0, #9
		wcnt = SS(fp->fs) - ((UINT)fp->fptr % SS(fp->fs));/* Put partial sector into file I/O buffer */
 8004f30:	f5c3 7200 	rsb	r2, r3, #512	; 0x200
 8004f34:	42aa      	cmp	r2, r5
 8004f36:	bf28      	it	cs
 8004f38:	462a      	movcs	r2, r5
	while (cnt >= sizeof (int)) {
 8004f3a:	2a03      	cmp	r2, #3
		mem_cpy(&fp->buf.d8[fp->fptr % SS(fp->fs)], wbuff, wcnt);	/* Fit partial sector */
 8004f3c:	4423      	add	r3, r4
	while (cnt >= sizeof (int)) {
 8004f3e:	f240 808f 	bls.w	8005060 <f_write.part.14+0x234>
 8004f42:	1f11      	subs	r1, r2, #4
 8004f44:	f021 0103 	bic.w	r1, r1, #3
 8004f48:	f101 0e04 	add.w	lr, r1, #4
 8004f4c:	eb03 090e 	add.w	r9, r3, lr
 8004f50:	1f39      	subs	r1, r7, #4
		*(int*)d = *(int*)s;
 8004f52:	f851 0f04 	ldr.w	r0, [r1, #4]!
 8004f56:	f843 0b04 	str.w	r0, [r3], #4
	while (cnt >= sizeof (int)) {
 8004f5a:	454b      	cmp	r3, r9
 8004f5c:	d1f9      	bne.n	8004f52 <f_write.part.14+0x126>
	while (cnt--)
 8004f5e:	f012 0003 	ands.w	r0, r2, #3
 8004f62:	eb07 010e 	add.w	r1, r7, lr
 8004f66:	d00f      	beq.n	8004f88 <f_write.part.14+0x15c>
		*d++ = *s++;
 8004f68:	f891 c000 	ldrb.w	ip, [r1]
	while (cnt--)
 8004f6c:	2801      	cmp	r0, #1
		*d++ = *s++;
 8004f6e:	f883 c000 	strb.w	ip, [r3]
	while (cnt--)
 8004f72:	d007      	beq.n	8004f84 <f_write.part.14+0x158>
		*d++ = *s++;
 8004f74:	f891 c001 	ldrb.w	ip, [r1, #1]
	while (cnt--)
 8004f78:	2802      	cmp	r0, #2
		*d++ = *s++;
 8004f7a:	f883 c001 	strb.w	ip, [r3, #1]
 8004f7e:	bf1c      	itt	ne
 8004f80:	7889      	ldrbne	r1, [r1, #2]
 8004f82:	7099      	strbne	r1, [r3, #2]
 8004f84:	f8d4 c208 	ldr.w	ip, [r4, #520]	; 0x208
		fp->flag |= FA__DIRTY;
 8004f88:	f894 3206 	ldrb.w	r3, [r4, #518]	; 0x206
 8004f8c:	f043 0340 	orr.w	r3, r3, #64	; 0x40
 8004f90:	f884 3206 	strb.w	r3, [r4, #518]	; 0x206
		wbuff += wcnt, fp->fptr += wcnt, *bw += wcnt, btw -= wcnt) {
 8004f94:	f8d8 3000 	ldr.w	r3, [r8]
 8004f98:	4494      	add	ip, r2
 8004f9a:	4413      	add	r3, r2
	for ( ;  btw;							/* Repeat until all data written */
 8004f9c:	1aad      	subs	r5, r5, r2
		wbuff += wcnt, fp->fptr += wcnt, *bw += wcnt, btw -= wcnt) {
 8004f9e:	f8c4 c208 	str.w	ip, [r4, #520]	; 0x208
 8004fa2:	4417      	add	r7, r2
 8004fa4:	f8c8 3000 	str.w	r3, [r8]
	for ( ;  btw;							/* Repeat until all data written */
 8004fa8:	f47f af51 	bne.w	8004e4e <f_write.part.14+0x22>
 8004fac:	f8d4 0200 	ldr.w	r0, [r4, #512]	; 0x200
	if (fp->fptr > fp->fsize) fp->fsize = fp->fptr;	/* Update file size if needed */
 8004fb0:	f8d4 320c 	ldr.w	r3, [r4, #524]	; 0x20c
 8004fb4:	4563      	cmp	r3, ip
 8004fb6:	d201      	bcs.n	8004fbc <f_write.part.14+0x190>
 8004fb8:	f8c4 c20c 	str.w	ip, [r4, #524]	; 0x20c
	fp->flag |= FA__WRITTEN;						/* Set file change flag */
 8004fbc:	f894 3206 	ldrb.w	r3, [r4, #518]	; 0x206
 8004fc0:	f043 0320 	orr.w	r3, r3, #32
 8004fc4:	f884 3206 	strb.w	r3, [r4, #518]	; 0x206
	if (fs &&
 8004fc8:	2800      	cmp	r0, #0
 8004fca:	d0a0      	beq.n	8004f0e <f_write.part.14+0xe2>
 8004fcc:	e02f      	b.n	800502e <f_write.part.14+0x202>
				if (disk_write(fp->fs->drv, fp->buf.d8, fp->dsect, 1) != RES_OK)
 8004fce:	f890 0201 	ldrb.w	r0, [r0, #513]	; 0x201
 8004fd2:	2301      	movs	r3, #1
 8004fd4:	f8d4 2218 	ldr.w	r2, [r4, #536]	; 0x218
 8004fd8:	4621      	mov	r1, r4
 8004fda:	f7fe fc7b 	bl	80038d4 <disk_write>
 8004fde:	2800      	cmp	r0, #0
 8004fe0:	d188      	bne.n	8004ef4 <f_write.part.14+0xc8>
				fp->flag &= ~FA__DIRTY;
 8004fe2:	f894 3206 	ldrb.w	r3, [r4, #518]	; 0x206
 8004fe6:	f8d4 0200 	ldr.w	r0, [r4, #512]	; 0x200
 8004fea:	f023 0340 	bic.w	r3, r3, #64	; 0x40
 8004fee:	f884 3206 	strb.w	r3, [r4, #518]	; 0x206
 8004ff2:	e758      	b.n	8004ea6 <f_write.part.14+0x7a>
					if (fp->cltbl)
 8004ff4:	f8d4 1224 	ldr.w	r1, [r4, #548]	; 0x224
 8004ff8:	2900      	cmp	r1, #0
 8004ffa:	d053      	beq.n	80050a4 <f_write.part.14+0x278>
		ncl = *tbl++;			/* Number of cluters in the fragment */
 8004ffc:	684a      	ldr	r2, [r1, #4]
	cl = ofs / SS(fp->fs) / fp->fs->csize;	/* Cluster order from top of the file */
 8004ffe:	fbb3 f3fe 	udiv	r3, r3, lr
	tbl = fp->cltbl + 1;	/* Top of CLMT */
 8005002:	3104      	adds	r1, #4
		if (!ncl) return 0;		/* End of table? (error) */
 8005004:	b14a      	cbz	r2, 800501a <f_write.part.14+0x1ee>
		if (cl < ncl) break;	/* In this fragment? */
 8005006:	4293      	cmp	r3, r2
 8005008:	d202      	bcs.n	8005010 <f_write.part.14+0x1e4>
 800500a:	e039      	b.n	8005080 <f_write.part.14+0x254>
 800500c:	429a      	cmp	r2, r3
 800500e:	d837      	bhi.n	8005080 <f_write.part.14+0x254>
		cl -= ncl; tbl++;		/* Next fragment */
 8005010:	1a9b      	subs	r3, r3, r2
		ncl = *tbl++;			/* Number of cluters in the fragment */
 8005012:	f851 2f08 	ldr.w	r2, [r1, #8]!
		if (!ncl) return 0;		/* End of table? (error) */
 8005016:	2a00      	cmp	r2, #0
 8005018:	d1f8      	bne.n	800500c <f_write.part.14+0x1e0>
	if (fp->fptr > fp->fsize) fp->fsize = fp->fptr;	/* Update file size if needed */
 800501a:	f8d4 320c 	ldr.w	r3, [r4, #524]	; 0x20c
 800501e:	459c      	cmp	ip, r3
 8005020:	d8ca      	bhi.n	8004fb8 <f_write.part.14+0x18c>
	fp->flag |= FA__WRITTEN;						/* Set file change flag */
 8005022:	f894 3206 	ldrb.w	r3, [r4, #518]	; 0x206
 8005026:	f043 0320 	orr.w	r3, r3, #32
 800502a:	f884 3206 	strb.w	r3, [r4, #518]	; 0x206
		ff_rel_grant(fs->sobj);
 800502e:	f8d0 020c 	ldr.w	r0, [r0, #524]	; 0x20c
 8005032:	f002 fd41 	bl	8007ab8 <ff_rel_grant>
	LEAVE_FF(fp->fs, FR_OK);
 8005036:	2000      	movs	r0, #0
 8005038:	e769      	b.n	8004f0e <f_write.part.14+0xe2>
				if (clst == 0xFFFFFFFF) ABORT(fp->fs, FR_DISK_ERR);
 800503a:	2501      	movs	r5, #1
 800503c:	f884 5207 	strb.w	r5, [r4, #519]	; 0x207
	if (fs &&
 8005040:	2800      	cmp	r0, #0
 8005042:	d14e      	bne.n	80050e2 <f_write.part.14+0x2b6>
				if (clst == 0xFFFFFFFF) ABORT(fp->fs, FR_DISK_ERR);
 8005044:	2001      	movs	r0, #1
}
 8005046:	e8bd 8ff8 	ldmia.w	sp!, {r3, r4, r5, r6, r7, r8, r9, sl, fp, pc}
				if (fp->dsect - sect < cc) { /* Refill sector cache if it gets invalidated by the direct write */
 800504a:	f8d4 2218 	ldr.w	r2, [r4, #536]	; 0x218
 800504e:	eba2 020a 	sub.w	r2, r2, sl
 8005052:	4591      	cmp	r9, r2
 8005054:	d831      	bhi.n	80050ba <f_write.part.14+0x28e>
				wcnt = SS(fp->fs) * cc;		/* Number of bytes transferred */
 8005056:	ea4f 2249 	mov.w	r2, r9, lsl #9
 800505a:	f8d4 c208 	ldr.w	ip, [r4, #520]	; 0x208
 800505e:	e799      	b.n	8004f94 <f_write.part.14+0x168>
	while (cnt >= sizeof (int)) {
 8005060:	4639      	mov	r1, r7
 8005062:	4610      	mov	r0, r2
 8005064:	e780      	b.n	8004f68 <f_write.part.14+0x13c>
					disk_read(fp->fs->drv, fp->buf.d8, sect, 1) != RES_OK)
 8005066:	f890 0201 	ldrb.w	r0, [r0, #513]	; 0x201
 800506a:	2301      	movs	r3, #1
 800506c:	4652      	mov	r2, sl
 800506e:	4621      	mov	r1, r4
 8005070:	f7fe fc22 	bl	80038b8 <disk_read>
				if (fp->fptr < fp->fsize &&
 8005074:	2800      	cmp	r0, #0
 8005076:	f47f af3d 	bne.w	8004ef4 <f_write.part.14+0xc8>
 800507a:	f8d4 c208 	ldr.w	ip, [r4, #520]	; 0x208
 800507e:	e753      	b.n	8004f28 <f_write.part.14+0xfc>
	return cl + *tbl;	/* Return the cluster number */
 8005080:	684a      	ldr	r2, [r1, #4]
 8005082:	4413      	add	r3, r2
				if (clst == 0) break;		/* Could not allocate a new cluster (disk full) */
 8005084:	2b00      	cmp	r3, #0
 8005086:	f47f aefc 	bne.w	8004e82 <f_write.part.14+0x56>
 800508a:	f8d4 c208 	ldr.w	ip, [r4, #520]	; 0x208
 800508e:	e78f      	b.n	8004fb0 <f_write.part.14+0x184>
						clst = create_chain(fp->fs, 0);	/* Create a new cluster chain */
 8005090:	4659      	mov	r1, fp
 8005092:	f7ff fd11 	bl	8004ab8 <create_chain>
 8005096:	4603      	mov	r3, r0
 8005098:	f8d4 0200 	ldr.w	r0, [r4, #512]	; 0x200
				if (clst == 0) break;		/* Could not allocate a new cluster (disk full) */
 800509c:	2b00      	cmp	r3, #0
 800509e:	f47f aef0 	bne.w	8004e82 <f_write.part.14+0x56>
 80050a2:	e7f2      	b.n	800508a <f_write.part.14+0x25e>
						clst = create_chain(fp->fs, fp->clust);	/* Follow or stretch cluster chain on the FAT */
 80050a4:	f8d4 1214 	ldr.w	r1, [r4, #532]	; 0x214
 80050a8:	f7ff fd06 	bl	8004ab8 <create_chain>
 80050ac:	4603      	mov	r3, r0
 80050ae:	f8d4 0200 	ldr.w	r0, [r4, #512]	; 0x200
				if (clst == 0) break;		/* Could not allocate a new cluster (disk full) */
 80050b2:	2b00      	cmp	r3, #0
 80050b4:	f47f aee5 	bne.w	8004e82 <f_write.part.14+0x56>
 80050b8:	e7e7      	b.n	800508a <f_write.part.14+0x25e>
					mem_cpy(fp->buf.d8, wbuff + ((fp->dsect - sect) * SS(fp->fs)), SS(fp->fs));
 80050ba:	4623      	mov	r3, r4
 80050bc:	eb07 2242 	add.w	r2, r7, r2, lsl #9
 80050c0:	3a04      	subs	r2, #4
		*(int*)d = *(int*)s;
 80050c2:	f852 1f04 	ldr.w	r1, [r2, #4]!
 80050c6:	f843 1b04 	str.w	r1, [r3], #4
	while (cnt >= sizeof (int)) {
 80050ca:	42b3      	cmp	r3, r6
 80050cc:	d1f9      	bne.n	80050c2 <f_write.part.14+0x296>
					fp->flag &= ~FA__DIRTY;
 80050ce:	f894 3206 	ldrb.w	r3, [r4, #518]	; 0x206
 80050d2:	f023 0340 	bic.w	r3, r3, #64	; 0x40
 80050d6:	f884 3206 	strb.w	r3, [r4, #518]	; 0x206
 80050da:	e7bc      	b.n	8005056 <f_write.part.14+0x22a>
			if (!sect) ABORT(fp->fs, FR_INT_ERR);
 80050dc:	2502      	movs	r5, #2
 80050de:	f884 5207 	strb.w	r5, [r4, #519]	; 0x207
		ff_rel_grant(fs->sobj);
 80050e2:	f8d0 020c 	ldr.w	r0, [r0, #524]	; 0x20c
 80050e6:	f002 fce7 	bl	8007ab8 <ff_rel_grant>
			if (!sect) ABORT(fp->fs, FR_INT_ERR);
 80050ea:	4628      	mov	r0, r5
}
 80050ec:	e8bd 8ff8 	ldmia.w	sp!, {r3, r4, r5, r6, r7, r8, r9, sl, fp, pc}
				if (clst == 1) ABORT(fp->fs, FR_INT_ERR);
 80050f0:	2502      	movs	r5, #2
 80050f2:	f884 5207 	strb.w	r5, [r4, #519]	; 0x207
	if (fs &&
 80050f6:	2800      	cmp	r0, #0
 80050f8:	d1f3      	bne.n	80050e2 <f_write.part.14+0x2b6>
			if (!sect) ABORT(fp->fs, FR_INT_ERR);
 80050fa:	4628      	mov	r0, r5
 80050fc:	e7f6      	b.n	80050ec <f_write.part.14+0x2c0>
 80050fe:	bf00      	nop

08005100 <dir_sdi>:
{
 8005100:	e92d 4ff0 	stmdb	sp!, {r4, r5, r6, r7, r8, r9, sl, fp, lr}
	clst = dp->sclust;		/* Table start cluster (0:root) */
 8005104:	f8d0 6208 	ldr.w	r6, [r0, #520]	; 0x208
{
 8005108:	b083      	sub	sp, #12
	if (clst == 1 || clst >= dp->fs->n_fatent)	/* Check start cluster range */
 800510a:	2e01      	cmp	r6, #1
{
 800510c:	4607      	mov	r7, r0
	dp->index = (WORD)idx;	/* Current index */
 800510e:	f8a0 1206 	strh.w	r1, [r0, #518]	; 0x206
	if (clst == 1 || clst >= dp->fs->n_fatent)	/* Check start cluster range */
 8005112:	f000 811b 	beq.w	800534c <dir_sdi+0x24c>
 8005116:	f8d0 4200 	ldr.w	r4, [r0, #512]	; 0x200
 800511a:	f8d4 3218 	ldr.w	r3, [r4, #536]	; 0x218
 800511e:	42b3      	cmp	r3, r6
 8005120:	f240 8114 	bls.w	800534c <dir_sdi+0x24c>
 8005124:	460d      	mov	r5, r1
	if (!clst && dp->fs->fs_type == FS_FAT32)	/* Replace cluster# 0 with root cluster# if in FAT32 */
 8005126:	2e00      	cmp	r6, #0
 8005128:	f000 8114 	beq.w	8005354 <dir_sdi+0x254>
		ic = SS(dp->fs) / SZ_DIRE * dp->fs->csize;	/* Entries per cluster */
 800512c:	f894 8202 	ldrb.w	r8, [r4, #514]	; 0x202
 8005130:	ea4f 1808 	mov.w	r8, r8, lsl #4
		while (idx >= ic) {	/* Follow cluster chain */
 8005134:	4545      	cmp	r5, r8
 8005136:	f0c0 8103 	bcc.w	8005340 <dir_sdi+0x240>
	if (clst < 2 || clst >= fs->n_fatent) {	/* Check range */
 800513a:	2e01      	cmp	r6, #1
 800513c:	f240 8106 	bls.w	800534c <dir_sdi+0x24c>
 8005140:	42b3      	cmp	r3, r6
 8005142:	f240 8103 	bls.w	800534c <dir_sdi+0x24c>
		switch (fs->fs_type) {
 8005146:	f894 3200 	ldrb.w	r3, [r4, #512]	; 0x200
 800514a:	2b02      	cmp	r3, #2
 800514c:	f000 8124 	beq.w	8005398 <dir_sdi+0x298>
 8005150:	2b03      	cmp	r3, #3
 8005152:	f000 80a1 	beq.w	8005298 <dir_sdi+0x198>
 8005156:	2b01      	cmp	r3, #1
 8005158:	f040 80f8 	bne.w	800534c <dir_sdi+0x24c>
			if (move_window(fs, fs->fatbase + (bc / SS(fs))) != FR_OK) break;
 800515c:	f8d4 2224 	ldr.w	r2, [r4, #548]	; 0x224
			bc = (UINT)clst; bc += bc / 2;
 8005160:	eb06 0a56 	add.w	sl, r6, r6, lsr #1
	if (sector != fs->winsect) {	/* Window offset changed? */
 8005164:	f8d4 9230 	ldr.w	r9, [r4, #560]	; 0x230
			if (move_window(fs, fs->fatbase + (bc / SS(fs))) != FR_OK) break;
 8005168:	eb02 2b5a 	add.w	fp, r2, sl, lsr #9
	if (sector != fs->winsect) {	/* Window offset changed? */
 800516c:	45cb      	cmp	fp, r9
 800516e:	d03d      	beq.n	80051ec <dir_sdi+0xec>
	if (fs->wflag) {	/* Write back the sector if it is dirty */
 8005170:	f894 2204 	ldrb.w	r2, [r4, #516]	; 0x204
 8005174:	f894 0201 	ldrb.w	r0, [r4, #513]	; 0x201
 8005178:	b35a      	cbz	r2, 80051d2 <dir_sdi+0xd2>
		if (disk_write(fs->drv, fs->win.d8, wsect, 1) != RES_OK) {
 800517a:	464a      	mov	r2, r9
 800517c:	4621      	mov	r1, r4
 800517e:	f7fe fba9 	bl	80038d4 <disk_write>
 8005182:	2800      	cmp	r0, #0
 8005184:	f040 8156 	bne.w	8005434 <dir_sdi+0x334>
			if (wsect - fs->fatbase < fs->fsize) {		/* Is it in the FAT area? */
 8005188:	f8d4 2224 	ldr.w	r2, [r4, #548]	; 0x224
 800518c:	f8d4 321c 	ldr.w	r3, [r4, #540]	; 0x21c
 8005190:	eba9 0202 	sub.w	r2, r9, r2
 8005194:	429a      	cmp	r2, r3
			fs->wflag = 0;
 8005196:	f884 0204 	strb.w	r0, [r4, #516]	; 0x204
			if (wsect - fs->fatbase < fs->fsize) {		/* Is it in the FAT area? */
 800519a:	d218      	bcs.n	80051ce <dir_sdi+0xce>
				for (nf = fs->n_fats; nf >= 2; nf--) {	/* Reflect the change to all FAT copies */
 800519c:	f894 2203 	ldrb.w	r2, [r4, #515]	; 0x203
 80051a0:	2a01      	cmp	r2, #1
 80051a2:	d914      	bls.n	80051ce <dir_sdi+0xce>
 80051a4:	f8cd 8000 	str.w	r8, [sp]
 80051a8:	4690      	mov	r8, r2
 80051aa:	e001      	b.n	80051b0 <dir_sdi+0xb0>
 80051ac:	f8d4 321c 	ldr.w	r3, [r4, #540]	; 0x21c
					wsect += fs->fsize;
 80051b0:	4499      	add	r9, r3
				for (nf = fs->n_fats; nf >= 2; nf--) {	/* Reflect the change to all FAT copies */
 80051b2:	f108 38ff 	add.w	r8, r8, #4294967295
					disk_write(fs->drv, fs->win.d8, wsect, 1);
 80051b6:	464a      	mov	r2, r9
 80051b8:	2301      	movs	r3, #1
 80051ba:	4621      	mov	r1, r4
 80051bc:	f894 0201 	ldrb.w	r0, [r4, #513]	; 0x201
 80051c0:	f7fe fb88 	bl	80038d4 <disk_write>
				for (nf = fs->n_fats; nf >= 2; nf--) {	/* Reflect the change to all FAT copies */
 80051c4:	f1b8 0f01 	cmp.w	r8, #1
 80051c8:	d1f0      	bne.n	80051ac <dir_sdi+0xac>
 80051ca:	f8dd 8000 	ldr.w	r8, [sp]
 80051ce:	f894 0201 	ldrb.w	r0, [r4, #513]	; 0x201
			if (disk_read(fs->drv, fs->win.d8, sector, 1) != RES_OK) {
 80051d2:	2301      	movs	r3, #1
 80051d4:	465a      	mov	r2, fp
 80051d6:	4621      	mov	r1, r4
 80051d8:	f7fe fb6e 	bl	80038b8 <disk_read>
 80051dc:	2800      	cmp	r0, #0
 80051de:	f040 8115 	bne.w	800540c <dir_sdi+0x30c>
			fs->winsect = sector;
 80051e2:	46d9      	mov	r9, fp
 80051e4:	f8d4 2224 	ldr.w	r2, [r4, #548]	; 0x224
 80051e8:	f8c4 b230 	str.w	fp, [r4, #560]	; 0x230
			wc = fs->win.d8[bc++ % SS(fs)];
 80051ec:	f10a 0b01 	add.w	fp, sl, #1
			if (move_window(fs, fs->fatbase + (bc / SS(fs))) != FR_OK) break;
 80051f0:	eb02 235b 	add.w	r3, r2, fp, lsr #9
			wc = fs->win.d8[bc++ % SS(fs)];
 80051f4:	f3ca 0a08 	ubfx	sl, sl, #0, #9
	if (sector != fs->winsect) {	/* Window offset changed? */
 80051f8:	454b      	cmp	r3, r9
			if (move_window(fs, fs->fatbase + (bc / SS(fs))) != FR_OK) break;
 80051fa:	9300      	str	r3, [sp, #0]
			wc = fs->win.d8[bc++ % SS(fs)];
 80051fc:	f814 a00a 	ldrb.w	sl, [r4, sl]
	if (sector != fs->winsect) {	/* Window offset changed? */
 8005200:	d03e      	beq.n	8005280 <dir_sdi+0x180>
	if (fs->wflag) {	/* Write back the sector if it is dirty */
 8005202:	f894 3204 	ldrb.w	r3, [r4, #516]	; 0x204
 8005206:	f894 0201 	ldrb.w	r0, [r4, #513]	; 0x201
 800520a:	b373      	cbz	r3, 800526a <dir_sdi+0x16a>
		if (disk_write(fs->drv, fs->win.d8, wsect, 1) != RES_OK) {
 800520c:	2301      	movs	r3, #1
 800520e:	464a      	mov	r2, r9
 8005210:	4621      	mov	r1, r4
 8005212:	f7fe fb5f 	bl	80038d4 <disk_write>
 8005216:	2800      	cmp	r0, #0
 8005218:	f040 810c 	bne.w	8005434 <dir_sdi+0x334>
			if (wsect - fs->fatbase < fs->fsize) {		/* Is it in the FAT area? */
 800521c:	f8d4 2224 	ldr.w	r2, [r4, #548]	; 0x224
 8005220:	f8d4 321c 	ldr.w	r3, [r4, #540]	; 0x21c
 8005224:	eba9 0202 	sub.w	r2, r9, r2
 8005228:	429a      	cmp	r2, r3
			fs->wflag = 0;
 800522a:	f884 0204 	strb.w	r0, [r4, #516]	; 0x204
 800522e:	f894 0201 	ldrb.w	r0, [r4, #513]	; 0x201
			if (wsect - fs->fatbase < fs->fsize) {		/* Is it in the FAT area? */
 8005232:	d21a      	bcs.n	800526a <dir_sdi+0x16a>
				for (nf = fs->n_fats; nf >= 2; nf--) {	/* Reflect the change to all FAT copies */
 8005234:	f894 2203 	ldrb.w	r2, [r4, #515]	; 0x203
 8005238:	2a01      	cmp	r2, #1
 800523a:	d916      	bls.n	800526a <dir_sdi+0x16a>
 800523c:	f8cd 8004 	str.w	r8, [sp, #4]
 8005240:	4690      	mov	r8, r2
 8005242:	e003      	b.n	800524c <dir_sdi+0x14c>
 8005244:	f8d4 321c 	ldr.w	r3, [r4, #540]	; 0x21c
 8005248:	f894 0201 	ldrb.w	r0, [r4, #513]	; 0x201
					wsect += fs->fsize;
 800524c:	4499      	add	r9, r3
				for (nf = fs->n_fats; nf >= 2; nf--) {	/* Reflect the change to all FAT copies */
 800524e:	f108 38ff 	add.w	r8, r8, #4294967295
					disk_write(fs->drv, fs->win.d8, wsect, 1);
 8005252:	464a      	mov	r2, r9
 8005254:	2301      	movs	r3, #1
 8005256:	4621      	mov	r1, r4
 8005258:	f7fe fb3c 	bl	80038d4 <disk_write>
				for (nf = fs->n_fats; nf >= 2; nf--) {	/* Reflect the change to all FAT copies */
 800525c:	f1b8 0f01 	cmp.w	r8, #1
 8005260:	d1f0      	bne.n	8005244 <dir_sdi+0x144>
 8005262:	f8dd 8004 	ldr.w	r8, [sp, #4]
 8005266:	f894 0201 	ldrb.w	r0, [r4, #513]	; 0x201
			if (disk_read(fs->drv, fs->win.d8, sector, 1) != RES_OK) {
 800526a:	2301      	movs	r3, #1
 800526c:	9a00      	ldr	r2, [sp, #0]
 800526e:	4621      	mov	r1, r4
 8005270:	f7fe fb22 	bl	80038b8 <disk_read>
 8005274:	2800      	cmp	r0, #0
 8005276:	f040 80c9 	bne.w	800540c <dir_sdi+0x30c>
			fs->winsect = sector;
 800527a:	9b00      	ldr	r3, [sp, #0]
 800527c:	f8c4 3230 	str.w	r3, [r4, #560]	; 0x230
			wc |= fs->win.d8[bc % SS(fs)] << 8;
 8005280:	f3cb 0b08 	ubfx	fp, fp, #0, #9
 8005284:	f814 300b 	ldrb.w	r3, [r4, fp]
			val = clst & 1 ? wc >> 4 : (wc & 0xFFF);
 8005288:	07f2      	lsls	r2, r6, #31
			wc |= fs->win.d8[bc % SS(fs)] << 8;
 800528a:	ea4a 2303 	orr.w	r3, sl, r3, lsl #8
			val = clst & 1 ? wc >> 4 : (wc & 0xFFF);
 800528e:	bf4c      	ite	mi
 8005290:	091e      	lsrmi	r6, r3, #4
 8005292:	f3c3 060b 	ubfxpl	r6, r3, #0, #12
 8005296:	e046      	b.n	8005326 <dir_sdi+0x226>
			if (move_window(fs, fs->fatbase + (clst / (SS(fs) / 4))) != FR_OK) break;
 8005298:	f8d4 3224 	ldr.w	r3, [r4, #548]	; 0x224
	if (sector != fs->winsect) {	/* Window offset changed? */
 800529c:	f8d4 a230 	ldr.w	sl, [r4, #560]	; 0x230
			if (move_window(fs, fs->fatbase + (clst / (SS(fs) / 4))) != FR_OK) break;
 80052a0:	eb03 19d6 	add.w	r9, r3, r6, lsr #7
	if (sector != fs->winsect) {	/* Window offset changed? */
 80052a4:	45d1      	cmp	r9, sl
 80052a6:	d038      	beq.n	800531a <dir_sdi+0x21a>
	if (fs->wflag) {	/* Write back the sector if it is dirty */
 80052a8:	f894 3204 	ldrb.w	r3, [r4, #516]	; 0x204
 80052ac:	f894 0201 	ldrb.w	r0, [r4, #513]	; 0x201
 80052b0:	b353      	cbz	r3, 8005308 <dir_sdi+0x208>
		if (disk_write(fs->drv, fs->win.d8, wsect, 1) != RES_OK) {
 80052b2:	2301      	movs	r3, #1
 80052b4:	4652      	mov	r2, sl
 80052b6:	4621      	mov	r1, r4
 80052b8:	f7fe fb0c 	bl	80038d4 <disk_write>
 80052bc:	2800      	cmp	r0, #0
 80052be:	f040 80b9 	bne.w	8005434 <dir_sdi+0x334>
			if (wsect - fs->fatbase < fs->fsize) {		/* Is it in the FAT area? */
 80052c2:	f8d4 2224 	ldr.w	r2, [r4, #548]	; 0x224
 80052c6:	f8d4 321c 	ldr.w	r3, [r4, #540]	; 0x21c
 80052ca:	ebaa 0202 	sub.w	r2, sl, r2
 80052ce:	429a      	cmp	r2, r3
			fs->wflag = 0;
 80052d0:	f884 0204 	strb.w	r0, [r4, #516]	; 0x204
 80052d4:	f894 0201 	ldrb.w	r0, [r4, #513]	; 0x201
			if (wsect - fs->fatbase < fs->fsize) {		/* Is it in the FAT area? */
 80052d8:	d216      	bcs.n	8005308 <dir_sdi+0x208>
				for (nf = fs->n_fats; nf >= 2; nf--) {	/* Reflect the change to all FAT copies */
 80052da:	f894 b203 	ldrb.w	fp, [r4, #515]	; 0x203
 80052de:	f1bb 0f01 	cmp.w	fp, #1
 80052e2:	d804      	bhi.n	80052ee <dir_sdi+0x1ee>
 80052e4:	e010      	b.n	8005308 <dir_sdi+0x208>
 80052e6:	f8d4 321c 	ldr.w	r3, [r4, #540]	; 0x21c
 80052ea:	f894 0201 	ldrb.w	r0, [r4, #513]	; 0x201
					wsect += fs->fsize;
 80052ee:	449a      	add	sl, r3
				for (nf = fs->n_fats; nf >= 2; nf--) {	/* Reflect the change to all FAT copies */
 80052f0:	f10b 3bff 	add.w	fp, fp, #4294967295
					disk_write(fs->drv, fs->win.d8, wsect, 1);
 80052f4:	4652      	mov	r2, sl
 80052f6:	2301      	movs	r3, #1
 80052f8:	4621      	mov	r1, r4
 80052fa:	f7fe faeb 	bl	80038d4 <disk_write>
				for (nf = fs->n_fats; nf >= 2; nf--) {	/* Reflect the change to all FAT copies */
 80052fe:	f1bb 0f01 	cmp.w	fp, #1
 8005302:	d1f0      	bne.n	80052e6 <dir_sdi+0x1e6>
 8005304:	f894 0201 	ldrb.w	r0, [r4, #513]	; 0x201
			if (disk_read(fs->drv, fs->win.d8, sector, 1) != RES_OK) {
 8005308:	2301      	movs	r3, #1
 800530a:	464a      	mov	r2, r9
 800530c:	4621      	mov	r1, r4
 800530e:	f7fe fad3 	bl	80038b8 <disk_read>
 8005312:	2800      	cmp	r0, #0
 8005314:	d17a      	bne.n	800540c <dir_sdi+0x30c>
			fs->winsect = sector;
 8005316:	f8c4 9230 	str.w	r9, [r4, #560]	; 0x230
			p = &fs->win.d8[clst * 4 % SS(fs)];
 800531a:	00b6      	lsls	r6, r6, #2
 800531c:	f406 76fe 	and.w	r6, r6, #508	; 0x1fc
			val = LD_DWORD(p) & 0x0FFFFFFF;
 8005320:	59a6      	ldr	r6, [r4, r6]
 8005322:	f026 4670 	bic.w	r6, r6, #4026531840	; 0xf0000000
			if (clst < 2 || clst >= dp->fs->n_fatent)	/* Reached to end of table or internal error */
 8005326:	2e01      	cmp	r6, #1
 8005328:	d910      	bls.n	800534c <dir_sdi+0x24c>
 800532a:	f8d7 4200 	ldr.w	r4, [r7, #512]	; 0x200
 800532e:	f8d4 3218 	ldr.w	r3, [r4, #536]	; 0x218
 8005332:	42b3      	cmp	r3, r6
 8005334:	d90a      	bls.n	800534c <dir_sdi+0x24c>
			idx -= ic;
 8005336:	eba5 0508 	sub.w	r5, r5, r8
		while (idx >= ic) {	/* Follow cluster chain */
 800533a:	45a8      	cmp	r8, r5
 800533c:	f67f af03 	bls.w	8005146 <dir_sdi+0x46>
	if (clst >= fs->n_fatent - 2) return 0;		/* Invalid cluster# */
 8005340:	3b02      	subs	r3, #2
	clst -= 2;
 8005342:	1eb2      	subs	r2, r6, #2
	if (clst >= fs->n_fatent - 2) return 0;		/* Invalid cluster# */
 8005344:	429a      	cmp	r2, r3
 8005346:	d36e      	bcc.n	8005426 <dir_sdi+0x326>
	dp->clust = clst;	/* Current cluster# */
 8005348:	f8c7 620c 	str.w	r6, [r7, #524]	; 0x20c
	if (!sect) return FR_INT_ERR;
 800534c:	2002      	movs	r0, #2
}
 800534e:	b003      	add	sp, #12
 8005350:	e8bd 8ff0 	ldmia.w	sp!, {r4, r5, r6, r7, r8, r9, sl, fp, pc}
	if (!clst && dp->fs->fs_type == FS_FAT32)	/* Replace cluster# 0 with root cluster# if in FAT32 */
 8005354:	f894 2200 	ldrb.w	r2, [r4, #512]	; 0x200
 8005358:	2a03      	cmp	r2, #3
 800535a:	d017      	beq.n	800538c <dir_sdi+0x28c>
		if (idx >= dp->fs->n_rootdir)	/* Is index out of range? */
 800535c:	f8b4 3208 	ldrh.w	r3, [r4, #520]	; 0x208
 8005360:	42ab      	cmp	r3, r5
 8005362:	d9f3      	bls.n	800534c <dir_sdi+0x24c>
		sect = dp->fs->dirbase;
 8005364:	f8d4 3228 	ldr.w	r3, [r4, #552]	; 0x228
	dp->clust = clst;	/* Current cluster# */
 8005368:	f8c7 620c 	str.w	r6, [r7, #524]	; 0x20c
	if (!sect) return FR_INT_ERR;
 800536c:	2b00      	cmp	r3, #0
 800536e:	d0ed      	beq.n	800534c <dir_sdi+0x24c>
	return FR_OK;
 8005370:	2000      	movs	r0, #0
	dp->dir = dp->fs->win.d8 + (idx % (SS(dp->fs) / SZ_DIRE)) * SZ_DIRE;	/* Ptr to the entry in the sector */
 8005372:	f005 020f 	and.w	r2, r5, #15
 8005376:	eb04 1442 	add.w	r4, r4, r2, lsl #5
	dp->sect = sect + idx / (SS(dp->fs) / SZ_DIRE);					/* Sector# of the directory entry */
 800537a:	eb03 1515 	add.w	r5, r3, r5, lsr #4
	dp->dir = dp->fs->win.d8 + (idx % (SS(dp->fs) / SZ_DIRE)) * SZ_DIRE;	/* Ptr to the entry in the sector */
 800537e:	f8c7 4214 	str.w	r4, [r7, #532]	; 0x214
	dp->sect = sect + idx / (SS(dp->fs) / SZ_DIRE);					/* Sector# of the directory entry */
 8005382:	f8c7 5210 	str.w	r5, [r7, #528]	; 0x210
}
 8005386:	b003      	add	sp, #12
 8005388:	e8bd 8ff0 	ldmia.w	sp!, {r4, r5, r6, r7, r8, r9, sl, fp, pc}
		clst = dp->fs->dirbase;
 800538c:	f8d4 2228 	ldr.w	r2, [r4, #552]	; 0x228
	if (clst == 0) {	/* Static table (root-directory in FAT12/16) */
 8005390:	2a00      	cmp	r2, #0
 8005392:	d0e3      	beq.n	800535c <dir_sdi+0x25c>
 8005394:	4616      	mov	r6, r2
 8005396:	e6c9      	b.n	800512c <dir_sdi+0x2c>
			if (move_window(fs, fs->fatbase + (clst / (SS(fs) / 2))) != FR_OK) break;
 8005398:	f8d4 3224 	ldr.w	r3, [r4, #548]	; 0x224
	if (sector != fs->winsect) {	/* Window offset changed? */
 800539c:	f8d4 a230 	ldr.w	sl, [r4, #560]	; 0x230
			if (move_window(fs, fs->fatbase + (clst / (SS(fs) / 2))) != FR_OK) break;
 80053a0:	eb03 2916 	add.w	r9, r3, r6, lsr #8
	if (sector != fs->winsect) {	/* Window offset changed? */
 80053a4:	45d1      	cmp	r9, sl
 80053a6:	d039      	beq.n	800541c <dir_sdi+0x31c>
	if (fs->wflag) {	/* Write back the sector if it is dirty */
 80053a8:	f894 3204 	ldrb.w	r3, [r4, #516]	; 0x204
 80053ac:	f894 0201 	ldrb.w	r0, [r4, #513]	; 0x201
 80053b0:	b333      	cbz	r3, 8005400 <dir_sdi+0x300>
		if (disk_write(fs->drv, fs->win.d8, wsect, 1) != RES_OK) {
 80053b2:	2301      	movs	r3, #1
 80053b4:	4652      	mov	r2, sl
 80053b6:	4621      	mov	r1, r4
 80053b8:	f7fe fa8c 	bl	80038d4 <disk_write>
 80053bc:	bbd0      	cbnz	r0, 8005434 <dir_sdi+0x334>
			if (wsect - fs->fatbase < fs->fsize) {		/* Is it in the FAT area? */
 80053be:	f8d4 2224 	ldr.w	r2, [r4, #548]	; 0x224
 80053c2:	f8d4 321c 	ldr.w	r3, [r4, #540]	; 0x21c
 80053c6:	ebaa 0202 	sub.w	r2, sl, r2
 80053ca:	429a      	cmp	r2, r3
			fs->wflag = 0;
 80053cc:	f884 0204 	strb.w	r0, [r4, #516]	; 0x204
			if (wsect - fs->fatbase < fs->fsize) {		/* Is it in the FAT area? */
 80053d0:	d214      	bcs.n	80053fc <dir_sdi+0x2fc>
				for (nf = fs->n_fats; nf >= 2; nf--) {	/* Reflect the change to all FAT copies */
 80053d2:	f894 b203 	ldrb.w	fp, [r4, #515]	; 0x203
 80053d6:	f1bb 0f01 	cmp.w	fp, #1
 80053da:	d802      	bhi.n	80053e2 <dir_sdi+0x2e2>
 80053dc:	e00e      	b.n	80053fc <dir_sdi+0x2fc>
 80053de:	f8d4 321c 	ldr.w	r3, [r4, #540]	; 0x21c
					wsect += fs->fsize;
 80053e2:	449a      	add	sl, r3
				for (nf = fs->n_fats; nf >= 2; nf--) {	/* Reflect the change to all FAT copies */
 80053e4:	f10b 3bff 	add.w	fp, fp, #4294967295
					disk_write(fs->drv, fs->win.d8, wsect, 1);
 80053e8:	4652      	mov	r2, sl
 80053ea:	2301      	movs	r3, #1
 80053ec:	4621      	mov	r1, r4
 80053ee:	f894 0201 	ldrb.w	r0, [r4, #513]	; 0x201
 80053f2:	f7fe fa6f 	bl	80038d4 <disk_write>
				for (nf = fs->n_fats; nf >= 2; nf--) {	/* Reflect the change to all FAT copies */
 80053f6:	f1bb 0f01 	cmp.w	fp, #1
 80053fa:	d1f0      	bne.n	80053de <dir_sdi+0x2de>
 80053fc:	f894 0201 	ldrb.w	r0, [r4, #513]	; 0x201
			if (disk_read(fs->drv, fs->win.d8, sector, 1) != RES_OK) {
 8005400:	2301      	movs	r3, #1
 8005402:	464a      	mov	r2, r9
 8005404:	4621      	mov	r1, r4
 8005406:	f7fe fa57 	bl	80038b8 <disk_read>
 800540a:	b128      	cbz	r0, 8005418 <dir_sdi+0x318>
			fs->winsect = sector;
 800540c:	f04f 33ff 	mov.w	r3, #4294967295
			if (clst == 0xFFFFFFFF) return FR_DISK_ERR;	/* Disk error */
 8005410:	2001      	movs	r0, #1
			fs->winsect = sector;
 8005412:	f8c4 3230 	str.w	r3, [r4, #560]	; 0x230
 8005416:	e79a      	b.n	800534e <dir_sdi+0x24e>
 8005418:	f8c4 9230 	str.w	r9, [r4, #560]	; 0x230
			p = &fs->win.d8[clst * 2 % SS(fs)];
 800541c:	0076      	lsls	r6, r6, #1
 800541e:	f406 76ff 	and.w	r6, r6, #510	; 0x1fe
			val = LD_WORD(p);
 8005422:	5ba6      	ldrh	r6, [r4, r6]
 8005424:	e77f      	b.n	8005326 <dir_sdi+0x226>
	return clst * fs->csize + fs->database;
 8005426:	f894 3202 	ldrb.w	r3, [r4, #514]	; 0x202
 800542a:	f8d4 122c 	ldr.w	r1, [r4, #556]	; 0x22c
 800542e:	fb02 1303 	mla	r3, r2, r3, r1
 8005432:	e799      	b.n	8005368 <dir_sdi+0x268>
			if (clst == 0xFFFFFFFF) return FR_DISK_ERR;	/* Disk error */
 8005434:	2001      	movs	r0, #1
 8005436:	e78a      	b.n	800534e <dir_sdi+0x24e>

08005438 <dir_register>:
{
 8005438:	e92d 4ff0 	stmdb	sp!, {r4, r5, r6, r7, r8, r9, sl, fp, lr}
	fn = dp->fn; lfn = dp->lfn;
 800543c:	f8d0 4218 	ldr.w	r4, [r0, #536]	; 0x218
 8005440:	f8d0 3220 	ldr.w	r3, [r0, #544]	; 0x220
		*(int*)d = *(int*)s;
 8005444:	68a2      	ldr	r2, [r4, #8]
{
 8005446:	b089      	sub	sp, #36	; 0x24
	fn = dp->fn; lfn = dp->lfn;
 8005448:	9303      	str	r3, [sp, #12]
 800544a:	f3c2 6307 	ubfx	r3, r2, #24, #8
 800544e:	f88d 3017 	strb.w	r3, [sp, #23]
 8005452:	b2db      	uxtb	r3, r3
	if (sn[NSFLAG] & NS_LOSS) {			/* When LFN is out of 8.3 format, generate a numbered name */
 8005454:	07dd      	lsls	r5, r3, #31
{
 8005456:	4683      	mov	fp, r0
 8005458:	9304      	str	r3, [sp, #16]
	if (sn[NSFLAG] & NS_LOSS) {			/* When LFN is out of 8.3 format, generate a numbered name */
 800545a:	f140 823c 	bpl.w	80058d6 <dir_register+0x49e>
		*(int*)d = *(int*)s;
 800545e:	e9d4 6500 	ldrd	r6, r5, [r4]
		for (n = 1; n < 100; n++) {
 8005462:	f04f 0801 	mov.w	r8, #1
		fn[NSFLAG] = 0; dp->lfn = 0;			/* Find only SFN */
 8005466:	2000      	movs	r0, #0
		for (n = 1; n < 100; n++) {
 8005468:	4643      	mov	r3, r8
 800546a:	b2d7      	uxtb	r7, r2
 800546c:	f3c2 2107 	ubfx	r1, r2, #8, #8
		fn[NSFLAG] = 0; dp->lfn = 0;			/* Find only SFN */
 8005470:	72e0      	strb	r0, [r4, #11]
 8005472:	f3c2 4207 	ubfx	r2, r2, #16, #8
 8005476:	f8cb 0220 	str.w	r0, [fp, #544]	; 0x220
		*(int*)d = *(int*)s;
 800547a:	e9c4 6500 	strd	r6, r5, [r4]
 800547e:	9701      	str	r7, [sp, #4]
 8005480:	b2c8      	uxtb	r0, r1
		*d++ = *s++;
 8005482:	7227      	strb	r7, [r4, #8]
 8005484:	72a2      	strb	r2, [r4, #10]
				if (sr & 0x10000) sr ^= 0x11021;
 8005486:	4fd5      	ldr	r7, [pc, #852]	; (80057dc <dir_register+0x3a4>)
 8005488:	b2d2      	uxtb	r2, r2
 800548a:	9002      	str	r0, [sp, #8]
		*d++ = *s++;
 800548c:	7261      	strb	r1, [r4, #9]
 800548e:	9200      	str	r2, [sp, #0]
		c = (seq % 16) + '0';
 8005490:	f003 020f 	and.w	r2, r3, #15
 8005494:	f102 0c30 	add.w	ip, r2, #48	; 0x30
		if (c > '9') c += 7;
 8005498:	f1bc 0f39 	cmp.w	ip, #57	; 0x39
 800549c:	bf88      	it	hi
 800549e:	f102 0c37 	addhi.w	ip, r2, #55	; 0x37
	} while (seq);
 80054a2:	091a      	lsrs	r2, r3, #4
		ns[i--] = c;
 80054a4:	f88d c01f 	strb.w	ip, [sp, #31]
	} while (seq);
 80054a8:	f000 81e8 	beq.w	800587c <dir_register+0x444>
		c = (seq % 16) + '0';
 80054ac:	f002 020f 	and.w	r2, r2, #15
 80054b0:	f102 0130 	add.w	r1, r2, #48	; 0x30
		if (c > '9') c += 7;
 80054b4:	2939      	cmp	r1, #57	; 0x39
 80054b6:	bf88      	it	hi
 80054b8:	f102 0137 	addhi.w	r1, r2, #55	; 0x37
	} while (seq);
 80054bc:	0a1a      	lsrs	r2, r3, #8
		ns[i--] = c;
 80054be:	f88d 101e 	strb.w	r1, [sp, #30]
	} while (seq);
 80054c2:	f000 81e6 	beq.w	8005892 <dir_register+0x45a>
		c = (seq % 16) + '0';
 80054c6:	f002 020f 	and.w	r2, r2, #15
 80054ca:	f102 0130 	add.w	r1, r2, #48	; 0x30
		if (c > '9') c += 7;
 80054ce:	2939      	cmp	r1, #57	; 0x39
 80054d0:	bf88      	it	hi
 80054d2:	f102 0137 	addhi.w	r1, r2, #55	; 0x37
	} while (seq);
 80054d6:	0b1a      	lsrs	r2, r3, #12
		ns[i--] = c;
 80054d8:	f88d 101d 	strb.w	r1, [sp, #29]
	} while (seq);
 80054dc:	f000 81ea 	beq.w	80058b4 <dir_register+0x47c>
		c = (seq % 16) + '0';
 80054e0:	f002 020f 	and.w	r2, r2, #15
 80054e4:	f102 0130 	add.w	r1, r2, #48	; 0x30
		if (c > '9') c += 7;
 80054e8:	2939      	cmp	r1, #57	; 0x39
 80054ea:	bf88      	it	hi
 80054ec:	f102 0137 	addhi.w	r1, r2, #55	; 0x37
	} while (seq);
 80054f0:	0c1a      	lsrs	r2, r3, #16
		ns[i--] = c;
 80054f2:	f88d 101c 	strb.w	r1, [sp, #28]
	} while (seq);
 80054f6:	f000 823f 	beq.w	8005978 <dir_register+0x540>
		c = (seq % 16) + '0';
 80054fa:	f002 020f 	and.w	r2, r2, #15
 80054fe:	f102 0130 	add.w	r1, r2, #48	; 0x30
		if (c > '9') c += 7;
 8005502:	2939      	cmp	r1, #57	; 0x39
 8005504:	bf88      	it	hi
 8005506:	f102 0137 	addhi.w	r1, r2, #55	; 0x37
	} while (seq);
 800550a:	0d1a      	lsrs	r2, r3, #20
		ns[i--] = c;
 800550c:	f88d 101b 	strb.w	r1, [sp, #27]
	} while (seq);
 8005510:	f000 82bc 	beq.w	8005a8c <dir_register+0x654>
		c = (seq % 16) + '0';
 8005514:	f002 020f 	and.w	r2, r2, #15
 8005518:	f102 0130 	add.w	r1, r2, #48	; 0x30
		if (c > '9') c += 7;
 800551c:	2939      	cmp	r1, #57	; 0x39
 800551e:	bf88      	it	hi
 8005520:	f102 0137 	addhi.w	r1, r2, #55	; 0x37
	} while (seq);
 8005524:	ea5f 6e13 	movs.w	lr, r3, lsr #24
		ns[i--] = c;
 8005528:	f88d 101a 	strb.w	r1, [sp, #26]
	} while (seq);
 800552c:	f000 82b5 	beq.w	8005a9a <dir_register+0x662>
		c = (seq % 16) + '0';
 8005530:	f00e 0e0f 	and.w	lr, lr, #15
 8005534:	f10e 0230 	add.w	r2, lr, #48	; 0x30
		if (c > '9') c += 7;
 8005538:	2a39      	cmp	r2, #57	; 0x39
 800553a:	bf88      	it	hi
 800553c:	f10e 0237 	addhi.w	r2, lr, #55	; 0x37
	} while (seq);
 8005540:	0f1b      	lsrs	r3, r3, #28
		ns[i--] = c;
 8005542:	f88d 2019 	strb.w	r2, [sp, #25]
	} while (seq);
 8005546:	f000 82ad 	beq.w	8005aa4 <dir_register+0x66c>
		c = (seq % 16) + '0';
 800554a:	b2db      	uxtb	r3, r3
 800554c:	f103 0130 	add.w	r1, r3, #48	; 0x30
	for (j = 0; j < i && dst[j] != ' '; j++) {
 8005550:	7822      	ldrb	r2, [r4, #0]
		if (c > '9') c += 7;
 8005552:	2939      	cmp	r1, #57	; 0x39
 8005554:	bf88      	it	hi
 8005556:	f103 0137 	addhi.w	r1, r3, #55	; 0x37
	for (j = 0; j < i && dst[j] != ' '; j++) {
 800555a:	2a20      	cmp	r2, #32
		ns[i--] = c;
 800555c:	f88d 1018 	strb.w	r1, [sp, #24]
	for (j = 0; j < i && dst[j] != ' '; j++) {
 8005560:	f000 842b 	beq.w	8005dba <dir_register+0x982>
		ns[i--] = c;
 8005564:	f04f 33ff 	mov.w	r3, #4294967295
	for (j = 0; j < i && dst[j] != ' '; j++) {
 8005568:	f06f 0e01 	mvn.w	lr, #1
 800556c:	2000      	movs	r0, #0
 800556e:	e003      	b.n	8005578 <dir_register+0x140>
 8005570:	5c62      	ldrb	r2, [r4, r1]
 8005572:	4608      	mov	r0, r1
 8005574:	2a20      	cmp	r2, #32
 8005576:	d00f      	beq.n	8005598 <dir_register+0x160>
		if (IsDBCS1(dst[j])) {
 8005578:	327f      	adds	r2, #127	; 0x7f
 800557a:	b2d2      	uxtb	r2, r2
 800557c:	2a7d      	cmp	r2, #125	; 0x7d
 800557e:	f100 0101 	add.w	r1, r0, #1
 8005582:	d803      	bhi.n	800558c <dir_register+0x154>
			if (j == i - 1) break;
 8005584:	4570      	cmp	r0, lr
 8005586:	f000 8174 	beq.w	8005872 <dir_register+0x43a>
 800558a:	1c81      	adds	r1, r0, #2
	for (j = 0; j < i && dst[j] != ' '; j++) {
 800558c:	4299      	cmp	r1, r3
 800558e:	eb04 0a01 	add.w	sl, r4, r1
 8005592:	f101 0901 	add.w	r9, r1, #1
 8005596:	d3eb      	bcc.n	8005570 <dir_register+0x138>
		dst[j++] = (i < 8) ? ns[i++] : ' ';
 8005598:	2b07      	cmp	r3, #7
 800559a:	f240 8121 	bls.w	80057e0 <dir_register+0x3a8>
 800559e:	2220      	movs	r2, #32
	} while (j < 8);
 80055a0:	f1b9 0f07 	cmp.w	r9, #7
		dst[j++] = (i < 8) ? ns[i++] : ' ';
 80055a4:	f88a 2000 	strb.w	r2, [sl]
	} while (j < 8);
 80055a8:	d861      	bhi.n	800566e <dir_register+0x236>
		dst[j++] = (i < 8) ? ns[i++] : ' ';
 80055aa:	1c88      	adds	r0, r1, #2
	} while (j < 8);
 80055ac:	2808      	cmp	r0, #8
		dst[j++] = (i < 8) ? ns[i++] : ' ';
 80055ae:	f804 2009 	strb.w	r2, [r4, r9]
	} while (j < 8);
 80055b2:	d05c      	beq.n	800566e <dir_register+0x236>
		dst[j++] = (i < 8) ? ns[i++] : ' ';
 80055b4:	2b07      	cmp	r3, #7
 80055b6:	f101 0203 	add.w	r2, r1, #3
 80055ba:	eb04 0e00 	add.w	lr, r4, r0
 80055be:	f200 812d 	bhi.w	800581c <dir_register+0x3e4>
 80055c2:	f10d 0e20 	add.w	lr, sp, #32
 80055c6:	449e      	add	lr, r3
 80055c8:	f81e 9c08 	ldrb.w	r9, [lr, #-8]
	} while (j < 8);
 80055cc:	2a08      	cmp	r2, #8
		dst[j++] = (i < 8) ? ns[i++] : ' ';
 80055ce:	f103 0e01 	add.w	lr, r3, #1
 80055d2:	f804 9000 	strb.w	r9, [r4, r0]
	} while (j < 8);
 80055d6:	d04a      	beq.n	800566e <dir_register+0x236>
		dst[j++] = (i < 8) ? ns[i++] : ' ';
 80055d8:	f1be 0f08 	cmp.w	lr, #8
 80055dc:	f000 8124 	beq.w	8005828 <dir_register+0x3f0>
 80055e0:	a808      	add	r0, sp, #32
 80055e2:	4486      	add	lr, r0
 80055e4:	f81e 0c08 	ldrb.w	r0, [lr, #-8]
 80055e8:	f101 0904 	add.w	r9, r1, #4
	} while (j < 8);
 80055ec:	f1b9 0f08 	cmp.w	r9, #8
		dst[j++] = (i < 8) ? ns[i++] : ' ';
 80055f0:	54a0      	strb	r0, [r4, r2]
 80055f2:	f103 0e02 	add.w	lr, r3, #2
	} while (j < 8);
 80055f6:	d03a      	beq.n	800566e <dir_register+0x236>
		dst[j++] = (i < 8) ? ns[i++] : ' ';
 80055f8:	f1be 0f08 	cmp.w	lr, #8
 80055fc:	f101 0005 	add.w	r0, r1, #5
 8005600:	eb04 0209 	add.w	r2, r4, r9
 8005604:	f000 8118 	beq.w	8005838 <dir_register+0x400>
 8005608:	aa08      	add	r2, sp, #32
 800560a:	4496      	add	lr, r2
 800560c:	f81e ec08 	ldrb.w	lr, [lr, #-8]
	} while (j < 8);
 8005610:	2808      	cmp	r0, #8
		dst[j++] = (i < 8) ? ns[i++] : ' ';
 8005612:	f103 0203 	add.w	r2, r3, #3
 8005616:	f804 e009 	strb.w	lr, [r4, r9]
	} while (j < 8);
 800561a:	d028      	beq.n	800566e <dir_register+0x236>
		dst[j++] = (i < 8) ? ns[i++] : ' ';
 800561c:	2a08      	cmp	r2, #8
 800561e:	f000 8110 	beq.w	8005842 <dir_register+0x40a>
 8005622:	f10d 0e20 	add.w	lr, sp, #32
 8005626:	4472      	add	r2, lr
 8005628:	f812 2c08 	ldrb.w	r2, [r2, #-8]
 800562c:	f101 0e06 	add.w	lr, r1, #6
	} while (j < 8);
 8005630:	f1be 0f08 	cmp.w	lr, #8
		dst[j++] = (i < 8) ? ns[i++] : ' ';
 8005634:	5422      	strb	r2, [r4, r0]
 8005636:	f103 0304 	add.w	r3, r3, #4
	} while (j < 8);
 800563a:	d018      	beq.n	800566e <dir_register+0x236>
		dst[j++] = (i < 8) ? ns[i++] : ' ';
 800563c:	2b08      	cmp	r3, #8
 800563e:	f101 0007 	add.w	r0, r1, #7
 8005642:	eb04 020e 	add.w	r2, r4, lr
 8005646:	f000 8104 	beq.w	8005852 <dir_register+0x41a>
 800564a:	aa08      	add	r2, sp, #32
 800564c:	441a      	add	r2, r3
 800564e:	f812 2c08 	ldrb.w	r2, [r2, #-8]
	} while (j < 8);
 8005652:	2808      	cmp	r0, #8
		dst[j++] = (i < 8) ? ns[i++] : ' ';
 8005654:	f804 200e 	strb.w	r2, [r4, lr]
	} while (j < 8);
 8005658:	d009      	beq.n	800566e <dir_register+0x236>
		dst[j++] = (i < 8) ? ns[i++] : ' ';
 800565a:	2b06      	cmp	r3, #6
 800565c:	f040 80fe 	bne.w	800585c <dir_register+0x424>
	} while (j < 8);
 8005660:	3101      	adds	r1, #1
		dst[j++] = (i < 8) ? ns[i++] : ' ';
 8005662:	bf08      	it	eq
 8005664:	2320      	moveq	r3, #32
 8005666:	f804 c000 	strb.w	ip, [r4, r0]
 800566a:	bf08      	it	eq
 800566c:	71e3      	strbeq	r3, [r4, #7]
	res = dir_sdi(dp, 0);			/* Rewind directory object */
 800566e:	2100      	movs	r1, #0
 8005670:	4658      	mov	r0, fp
 8005672:	f7ff fd45 	bl	8005100 <dir_sdi>
	if (res != FR_OK) return res;
 8005676:	2800      	cmp	r0, #0
 8005678:	f040 8123 	bne.w	80058c2 <dir_register+0x48a>
 800567c:	4658      	mov	r0, fp
 800567e:	f7fe fe27 	bl	80042d0 <dir_find.part.11>
			if (res != FR_OK) break;
 8005682:	2800      	cmp	r0, #0
 8005684:	f040 811d 	bne.w	80058c2 <dir_register+0x48a>
		for (n = 1; n < 100; n++) {
 8005688:	f108 0801 	add.w	r8, r8, #1
 800568c:	f1b8 0f64 	cmp.w	r8, #100	; 0x64
 8005690:	f000 80e9 	beq.w	8005866 <dir_register+0x42e>
		*d++ = *s++;
 8005694:	9b01      	ldr	r3, [sp, #4]
	if (seq > 5) {	/* On many collisions, generate a hash number instead of sequential number */
 8005696:	f1b8 0f05 	cmp.w	r8, #5
		*d++ = *s++;
 800569a:	7223      	strb	r3, [r4, #8]
 800569c:	9b02      	ldr	r3, [sp, #8]
		*(int*)d = *(int*)s;
 800569e:	e9c4 6500 	strd	r6, r5, [r4]
		*d++ = *s++;
 80056a2:	7263      	strb	r3, [r4, #9]
 80056a4:	9b00      	ldr	r3, [sp, #0]
 80056a6:	72a3      	strb	r3, [r4, #10]
	if (seq > 5) {	/* On many collisions, generate a hash number instead of sequential number */
 80056a8:	f240 80ab 	bls.w	8005802 <dir_register+0x3ca>
 80056ac:	9b03      	ldr	r3, [sp, #12]
 80056ae:	f1a3 0c02 	sub.w	ip, r3, #2
 80056b2:	4643      	mov	r3, r8
 80056b4:	e08b      	b.n	80057ce <dir_register+0x396>
				sr = (sr << 1) + (wc & 1);
 80056b6:	f002 0101 	and.w	r1, r2, #1
 80056ba:	eb01 0143 	add.w	r1, r1, r3, lsl #1
				if (sr & 0x10000) sr ^= 0x11021;
 80056be:	03c8      	lsls	r0, r1, #15
				wc >>= 1;
 80056c0:	ea4f 0352 	mov.w	r3, r2, lsr #1
				if (sr & 0x10000) sr ^= 0x11021;
 80056c4:	bf48      	it	mi
 80056c6:	4079      	eormi	r1, r7
				sr = (sr << 1) + (wc & 1);
 80056c8:	f003 0301 	and.w	r3, r3, #1
 80056cc:	eb03 0141 	add.w	r1, r3, r1, lsl #1
				if (sr & 0x10000) sr ^= 0x11021;
 80056d0:	03c8      	lsls	r0, r1, #15
				wc >>= 1;
 80056d2:	ea4f 0392 	mov.w	r3, r2, lsr #2
				if (sr & 0x10000) sr ^= 0x11021;
 80056d6:	bf48      	it	mi
 80056d8:	4079      	eormi	r1, r7
				sr = (sr << 1) + (wc & 1);
 80056da:	f003 0301 	and.w	r3, r3, #1
 80056de:	eb03 0341 	add.w	r3, r3, r1, lsl #1
				if (sr & 0x10000) sr ^= 0x11021;
 80056e2:	03d8      	lsls	r0, r3, #15
				wc >>= 1;
 80056e4:	ea4f 01d2 	mov.w	r1, r2, lsr #3
				if (sr & 0x10000) sr ^= 0x11021;
 80056e8:	bf48      	it	mi
 80056ea:	407b      	eormi	r3, r7
				sr = (sr << 1) + (wc & 1);
 80056ec:	f001 0101 	and.w	r1, r1, #1
 80056f0:	eb01 0343 	add.w	r3, r1, r3, lsl #1
				if (sr & 0x10000) sr ^= 0x11021;
 80056f4:	03d8      	lsls	r0, r3, #15
				wc >>= 1;
 80056f6:	ea4f 1112 	mov.w	r1, r2, lsr #4
				if (sr & 0x10000) sr ^= 0x11021;
 80056fa:	bf48      	it	mi
 80056fc:	407b      	eormi	r3, r7
				sr = (sr << 1) + (wc & 1);
 80056fe:	f001 0101 	and.w	r1, r1, #1
 8005702:	eb01 0143 	add.w	r1, r1, r3, lsl #1
				if (sr & 0x10000) sr ^= 0x11021;
 8005706:	03c8      	lsls	r0, r1, #15
				wc >>= 1;
 8005708:	ea4f 1352 	mov.w	r3, r2, lsr #5
				if (sr & 0x10000) sr ^= 0x11021;
 800570c:	bf48      	it	mi
 800570e:	4079      	eormi	r1, r7
				sr = (sr << 1) + (wc & 1);
 8005710:	f003 0301 	and.w	r3, r3, #1
 8005714:	eb03 0141 	add.w	r1, r3, r1, lsl #1
				if (sr & 0x10000) sr ^= 0x11021;
 8005718:	03c8      	lsls	r0, r1, #15
				wc >>= 1;
 800571a:	ea4f 1392 	mov.w	r3, r2, lsr #6
				if (sr & 0x10000) sr ^= 0x11021;
 800571e:	bf48      	it	mi
 8005720:	4079      	eormi	r1, r7
				sr = (sr << 1) + (wc & 1);
 8005722:	f003 0301 	and.w	r3, r3, #1
 8005726:	eb03 0341 	add.w	r3, r3, r1, lsl #1
				if (sr & 0x10000) sr ^= 0x11021;
 800572a:	03d8      	lsls	r0, r3, #15
				wc >>= 1;
 800572c:	ea4f 11d2 	mov.w	r1, r2, lsr #7
				if (sr & 0x10000) sr ^= 0x11021;
 8005730:	bf48      	it	mi
 8005732:	407b      	eormi	r3, r7
				sr = (sr << 1) + (wc & 1);
 8005734:	f001 0101 	and.w	r1, r1, #1
 8005738:	eb01 0343 	add.w	r3, r1, r3, lsl #1
				if (sr & 0x10000) sr ^= 0x11021;
 800573c:	03d8      	lsls	r0, r3, #15
				wc >>= 1;
 800573e:	ea4f 2112 	mov.w	r1, r2, lsr #8
				if (sr & 0x10000) sr ^= 0x11021;
 8005742:	bf48      	it	mi
 8005744:	407b      	eormi	r3, r7
				sr = (sr << 1) + (wc & 1);
 8005746:	f001 0101 	and.w	r1, r1, #1
 800574a:	eb01 0143 	add.w	r1, r1, r3, lsl #1
				if (sr & 0x10000) sr ^= 0x11021;
 800574e:	03c8      	lsls	r0, r1, #15
				wc >>= 1;
 8005750:	ea4f 2352 	mov.w	r3, r2, lsr #9
				if (sr & 0x10000) sr ^= 0x11021;
 8005754:	bf48      	it	mi
 8005756:	4079      	eormi	r1, r7
				sr = (sr << 1) + (wc & 1);
 8005758:	f003 0301 	and.w	r3, r3, #1
 800575c:	eb03 0141 	add.w	r1, r3, r1, lsl #1
				if (sr & 0x10000) sr ^= 0x11021;
 8005760:	03c8      	lsls	r0, r1, #15
				wc >>= 1;
 8005762:	ea4f 2392 	mov.w	r3, r2, lsr #10
				if (sr & 0x10000) sr ^= 0x11021;
 8005766:	bf48      	it	mi
 8005768:	4079      	eormi	r1, r7
				sr = (sr << 1) + (wc & 1);
 800576a:	f003 0301 	and.w	r3, r3, #1
 800576e:	eb03 0341 	add.w	r3, r3, r1, lsl #1
				if (sr & 0x10000) sr ^= 0x11021;
 8005772:	03d8      	lsls	r0, r3, #15
				wc >>= 1;
 8005774:	ea4f 21d2 	mov.w	r1, r2, lsr #11
				if (sr & 0x10000) sr ^= 0x11021;
 8005778:	bf48      	it	mi
 800577a:	407b      	eormi	r3, r7
				sr = (sr << 1) + (wc & 1);
 800577c:	f001 0101 	and.w	r1, r1, #1
 8005780:	eb01 0343 	add.w	r3, r1, r3, lsl #1
				if (sr & 0x10000) sr ^= 0x11021;
 8005784:	03d8      	lsls	r0, r3, #15
				wc >>= 1;
 8005786:	ea4f 3112 	mov.w	r1, r2, lsr #12
				if (sr & 0x10000) sr ^= 0x11021;
 800578a:	bf48      	it	mi
 800578c:	407b      	eormi	r3, r7
				sr = (sr << 1) + (wc & 1);
 800578e:	f001 0101 	and.w	r1, r1, #1
 8005792:	eb01 0143 	add.w	r1, r1, r3, lsl #1
				if (sr & 0x10000) sr ^= 0x11021;
 8005796:	03c8      	lsls	r0, r1, #15
				wc >>= 1;
 8005798:	ea4f 3352 	mov.w	r3, r2, lsr #13
				if (sr & 0x10000) sr ^= 0x11021;
 800579c:	bf48      	it	mi
 800579e:	4079      	eormi	r1, r7
				sr = (sr << 1) + (wc & 1);
 80057a0:	f003 0301 	and.w	r3, r3, #1
 80057a4:	eb03 0141 	add.w	r1, r3, r1, lsl #1
				if (sr & 0x10000) sr ^= 0x11021;
 80057a8:	03c8      	lsls	r0, r1, #15
				wc >>= 1;
 80057aa:	ea4f 3392 	mov.w	r3, r2, lsr #14
				if (sr & 0x10000) sr ^= 0x11021;
 80057ae:	bf48      	it	mi
 80057b0:	4079      	eormi	r1, r7
				sr = (sr << 1) + (wc & 1);
 80057b2:	f003 0301 	and.w	r3, r3, #1
 80057b6:	eb03 0341 	add.w	r3, r3, r1, lsl #1
				if (sr & 0x10000) sr ^= 0x11021;
 80057ba:	03d9      	lsls	r1, r3, #15
				wc >>= 1;
 80057bc:	ea4f 32d2 	mov.w	r2, r2, lsr #15
				if (sr & 0x10000) sr ^= 0x11021;
 80057c0:	bf48      	it	mi
 80057c2:	407b      	eormi	r3, r7
				sr = (sr << 1) + (wc & 1);
 80057c4:	eb02 0343 	add.w	r3, r2, r3, lsl #1
				if (sr & 0x10000) sr ^= 0x11021;
 80057c8:	03da      	lsls	r2, r3, #15
 80057ca:	bf48      	it	mi
 80057cc:	407b      	eormi	r3, r7
		while (*lfn) {	/* Create a CRC */
 80057ce:	f83c 2f02 	ldrh.w	r2, [ip, #2]!
 80057d2:	2a00      	cmp	r2, #0
 80057d4:	f47f af6f 	bne.w	80056b6 <dir_register+0x27e>
 80057d8:	e65a      	b.n	8005490 <dir_register+0x58>
 80057da:	bf00      	nop
 80057dc:	00011021 	.word	0x00011021
		dst[j++] = (i < 8) ? ns[i++] : ' ';
 80057e0:	227e      	movs	r2, #126	; 0x7e
	} while (j < 8);
 80057e2:	f1b9 0f07 	cmp.w	r9, #7
		dst[j++] = (i < 8) ? ns[i++] : ' ';
 80057e6:	f88a 2000 	strb.w	r2, [sl]
 80057ea:	f103 0201 	add.w	r2, r3, #1
	} while (j < 8);
 80057ee:	f63f af3e 	bhi.w	800566e <dir_register+0x236>
		dst[j++] = (i < 8) ? ns[i++] : ' ';
 80057f2:	2a07      	cmp	r2, #7
 80057f4:	d807      	bhi.n	8005806 <dir_register+0x3ce>
 80057f6:	a808      	add	r0, sp, #32
 80057f8:	4402      	add	r2, r0
 80057fa:	f812 2c08 	ldrb.w	r2, [r2, #-8]
 80057fe:	3302      	adds	r3, #2
 8005800:	e6d3      	b.n	80055aa <dir_register+0x172>
	if (seq > 5) {	/* On many collisions, generate a hash number instead of sequential number */
 8005802:	4643      	mov	r3, r8
 8005804:	e644      	b.n	8005490 <dir_register+0x58>
		dst[j++] = (i < 8) ? ns[i++] : ' ';
 8005806:	2320      	movs	r3, #32
 8005808:	f101 0e02 	add.w	lr, r1, #2
	} while (j < 8);
 800580c:	f1be 0f08 	cmp.w	lr, #8
		dst[j++] = (i < 8) ? ns[i++] : ' ';
 8005810:	f804 3009 	strb.w	r3, [r4, r9]
	} while (j < 8);
 8005814:	f43f af2b 	beq.w	800566e <dir_register+0x236>
 8005818:	44a6      	add	lr, r4
 800581a:	1cca      	adds	r2, r1, #3
		dst[j++] = (i < 8) ? ns[i++] : ' ';
 800581c:	2320      	movs	r3, #32
	} while (j < 8);
 800581e:	2a08      	cmp	r2, #8
		dst[j++] = (i < 8) ? ns[i++] : ' ';
 8005820:	f88e 3000 	strb.w	r3, [lr]
	} while (j < 8);
 8005824:	f43f af23 	beq.w	800566e <dir_register+0x236>
		dst[j++] = (i < 8) ? ns[i++] : ' ';
 8005828:	2020      	movs	r0, #32
 800582a:	1d0b      	adds	r3, r1, #4
	} while (j < 8);
 800582c:	2b08      	cmp	r3, #8
		dst[j++] = (i < 8) ? ns[i++] : ' ';
 800582e:	54a0      	strb	r0, [r4, r2]
	} while (j < 8);
 8005830:	f43f af1d 	beq.w	800566e <dir_register+0x236>
 8005834:	18e2      	adds	r2, r4, r3
 8005836:	1d48      	adds	r0, r1, #5
		dst[j++] = (i < 8) ? ns[i++] : ' ';
 8005838:	2320      	movs	r3, #32
	} while (j < 8);
 800583a:	2808      	cmp	r0, #8
		dst[j++] = (i < 8) ? ns[i++] : ' ';
 800583c:	7013      	strb	r3, [r2, #0]
	} while (j < 8);
 800583e:	f43f af16 	beq.w	800566e <dir_register+0x236>
		dst[j++] = (i < 8) ? ns[i++] : ' ';
 8005842:	2220      	movs	r2, #32
 8005844:	1d8b      	adds	r3, r1, #6
	} while (j < 8);
 8005846:	2b08      	cmp	r3, #8
		dst[j++] = (i < 8) ? ns[i++] : ' ';
 8005848:	5422      	strb	r2, [r4, r0]
	} while (j < 8);
 800584a:	f43f af10 	beq.w	800566e <dir_register+0x236>
 800584e:	18e2      	adds	r2, r4, r3
 8005850:	1dc8      	adds	r0, r1, #7
		dst[j++] = (i < 8) ? ns[i++] : ' ';
 8005852:	2320      	movs	r3, #32
	} while (j < 8);
 8005854:	2808      	cmp	r0, #8
		dst[j++] = (i < 8) ? ns[i++] : ' ';
 8005856:	7013      	strb	r3, [r2, #0]
	} while (j < 8);
 8005858:	f43f af09 	beq.w	800566e <dir_register+0x236>
		dst[j++] = (i < 8) ? ns[i++] : ' ';
 800585c:	f04f 0c20 	mov.w	ip, #32
 8005860:	e6fe      	b.n	8005660 <dir_register+0x228>
	if (res == FR_NO_FILE) res = FR_DENIED;	/* No directory entry to allocate */
 8005862:	2804      	cmp	r0, #4
 8005864:	d101      	bne.n	800586a <dir_register+0x432>
					if (clst == 0) return FR_DENIED;			/* No free cluster */
 8005866:	f04f 0a07 	mov.w	sl, #7
}
 800586a:	4650      	mov	r0, sl
 800586c:	b009      	add	sp, #36	; 0x24
 800586e:	e8bd 8ff0 	ldmia.w	sp!, {r4, r5, r6, r7, r8, r9, sl, fp, pc}
			if (j == i - 1) break;
 8005872:	4689      	mov	r9, r1
 8005874:	eb04 0a00 	add.w	sl, r4, r0
 8005878:	4601      	mov	r1, r0
 800587a:	e68d      	b.n	8005598 <dir_register+0x160>
	ns[i] = '~';
 800587c:	237e      	movs	r3, #126	; 0x7e
	for (j = 0; j < i && dst[j] != ' '; j++) {
 800587e:	7822      	ldrb	r2, [r4, #0]
	ns[i] = '~';
 8005880:	f88d 301e 	strb.w	r3, [sp, #30]
	for (j = 0; j < i && dst[j] != ' '; j++) {
 8005884:	2a20      	cmp	r2, #32
 8005886:	f000 831b 	beq.w	8005ec0 <dir_register+0xa88>
		ns[i--] = c;
 800588a:	2306      	movs	r3, #6
	for (j = 0; j < i && dst[j] != ' '; j++) {
 800588c:	f04f 0e05 	mov.w	lr, #5
 8005890:	e66c      	b.n	800556c <dir_register+0x134>
	ns[i] = '~';
 8005892:	237e      	movs	r3, #126	; 0x7e
 8005894:	f04f 0e04 	mov.w	lr, #4
 8005898:	f88d 301d 	strb.w	r3, [sp, #29]
		ns[i--] = c;
 800589c:	2305      	movs	r3, #5
	for (j = 0; j < i && dst[j] != ' '; j++) {
 800589e:	7822      	ldrb	r2, [r4, #0]
 80058a0:	2a20      	cmp	r2, #32
 80058a2:	f47f ae63 	bne.w	800556c <dir_register+0x134>
		dst[j++] = (i < 8) ? ns[i++] : ' ';
 80058a6:	227e      	movs	r2, #126	; 0x7e
 80058a8:	7022      	strb	r2, [r4, #0]
 80058aa:	1c5a      	adds	r2, r3, #1
			if (j == i - 1) break;
 80058ac:	2100      	movs	r1, #0
 80058ae:	f04f 0901 	mov.w	r9, #1
 80058b2:	e7a0      	b.n	80057f6 <dir_register+0x3be>
	ns[i] = '~';
 80058b4:	237e      	movs	r3, #126	; 0x7e
 80058b6:	f04f 0e03 	mov.w	lr, #3
 80058ba:	f88d 301c 	strb.w	r3, [sp, #28]
		ns[i--] = c;
 80058be:	2304      	movs	r3, #4
 80058c0:	e7ed      	b.n	800589e <dir_register+0x466>
		if (res != FR_NO_FILE) return res;	/* Abort if the result is other than 'not collided' */
 80058c2:	2804      	cmp	r0, #4
 80058c4:	4682      	mov	sl, r0
 80058c6:	d1d0      	bne.n	800586a <dir_register+0x432>
		fn[NSFLAG] = sn[NSFLAG]; dp->lfn = lfn;
 80058c8:	f89d 3017 	ldrb.w	r3, [sp, #23]
 80058cc:	72e3      	strb	r3, [r4, #11]
 80058ce:	9b03      	ldr	r3, [sp, #12]
 80058d0:	f8cb 3220 	str.w	r3, [fp, #544]	; 0x220
 80058d4:	9b04      	ldr	r3, [sp, #16]
	if (sn[NSFLAG] & NS_LFN) {			/* When LFN is to be created, allocate entries for an SFN + LFNs. */
 80058d6:	079b      	lsls	r3, r3, #30
 80058d8:	d455      	bmi.n	8005986 <dir_register+0x54e>
		nent = 1;
 80058da:	2301      	movs	r3, #1
 80058dc:	9300      	str	r3, [sp, #0]
	res = dir_sdi(dp, 0);
 80058de:	2100      	movs	r1, #0
 80058e0:	4658      	mov	r0, fp
 80058e2:	f7ff fc0d 	bl	8005100 <dir_sdi>
	if (res == FR_OK) {
 80058e6:	4682      	mov	sl, r0
 80058e8:	2800      	cmp	r0, #0
 80058ea:	d1ba      	bne.n	8005862 <dir_register+0x42a>
		n = 0;
 80058ec:	4604      	mov	r4, r0
 80058ee:	f8db 9200 	ldr.w	r9, [fp, #512]	; 0x200
 80058f2:	f8db 5210 	ldr.w	r5, [fp, #528]	; 0x210
 80058f6:	9003      	str	r0, [sp, #12]
	if (sector != fs->winsect) {	/* Window offset changed? */
 80058f8:	f8d9 6230 	ldr.w	r6, [r9, #560]	; 0x230
 80058fc:	42ae      	cmp	r6, r5
 80058fe:	d057      	beq.n	80059b0 <dir_register+0x578>
	if (fs->wflag) {	/* Write back the sector if it is dirty */
 8005900:	f899 3204 	ldrb.w	r3, [r9, #516]	; 0x204
 8005904:	f899 0201 	ldrb.w	r0, [r9, #513]	; 0x201
 8005908:	b333      	cbz	r3, 8005958 <dir_register+0x520>
		if (disk_write(fs->drv, fs->win.d8, wsect, 1) != RES_OK) {
 800590a:	2301      	movs	r3, #1
 800590c:	4632      	mov	r2, r6
 800590e:	4649      	mov	r1, r9
 8005910:	f7fd ffe0 	bl	80038d4 <disk_write>
 8005914:	2800      	cmp	r0, #0
 8005916:	f040 80b3 	bne.w	8005a80 <dir_register+0x648>
			if (wsect - fs->fatbase < fs->fsize) {		/* Is it in the FAT area? */
 800591a:	f8d9 2224 	ldr.w	r2, [r9, #548]	; 0x224
 800591e:	f8d9 321c 	ldr.w	r3, [r9, #540]	; 0x21c
 8005922:	1ab2      	subs	r2, r6, r2
 8005924:	429a      	cmp	r2, r3
			fs->wflag = 0;
 8005926:	f889 0204 	strb.w	r0, [r9, #516]	; 0x204
 800592a:	f899 0201 	ldrb.w	r0, [r9, #513]	; 0x201
			if (wsect - fs->fatbase < fs->fsize) {		/* Is it in the FAT area? */
 800592e:	d213      	bcs.n	8005958 <dir_register+0x520>
				for (nf = fs->n_fats; nf >= 2; nf--) {	/* Reflect the change to all FAT copies */
 8005930:	f899 7203 	ldrb.w	r7, [r9, #515]	; 0x203
 8005934:	2f01      	cmp	r7, #1
 8005936:	d804      	bhi.n	8005942 <dir_register+0x50a>
 8005938:	e00e      	b.n	8005958 <dir_register+0x520>
 800593a:	f8d9 321c 	ldr.w	r3, [r9, #540]	; 0x21c
 800593e:	f899 0201 	ldrb.w	r0, [r9, #513]	; 0x201
					wsect += fs->fsize;
 8005942:	441e      	add	r6, r3
				for (nf = fs->n_fats; nf >= 2; nf--) {	/* Reflect the change to all FAT copies */
 8005944:	3f01      	subs	r7, #1
					disk_write(fs->drv, fs->win.d8, wsect, 1);
 8005946:	4632      	mov	r2, r6
 8005948:	2301      	movs	r3, #1
 800594a:	4649      	mov	r1, r9
 800594c:	f7fd ffc2 	bl	80038d4 <disk_write>
				for (nf = fs->n_fats; nf >= 2; nf--) {	/* Reflect the change to all FAT copies */
 8005950:	2f01      	cmp	r7, #1
 8005952:	d1f2      	bne.n	800593a <dir_register+0x502>
 8005954:	f899 0201 	ldrb.w	r0, [r9, #513]	; 0x201
			if (disk_read(fs->drv, fs->win.d8, sector, 1) != RES_OK) {
 8005958:	2301      	movs	r3, #1
 800595a:	462a      	mov	r2, r5
 800595c:	4649      	mov	r1, r9
 800595e:	f7fd ffab 	bl	80038b8 <disk_read>
 8005962:	b318      	cbz	r0, 80059ac <dir_register+0x574>
				res = FR_DISK_ERR;
 8005964:	f04f 0a01 	mov.w	sl, #1
			fs->winsect = sector;
 8005968:	f04f 33ff 	mov.w	r3, #4294967295
}
 800596c:	4650      	mov	r0, sl
			fs->winsect = sector;
 800596e:	f8c9 3230 	str.w	r3, [r9, #560]	; 0x230
}
 8005972:	b009      	add	sp, #36	; 0x24
 8005974:	e8bd 8ff0 	ldmia.w	sp!, {r4, r5, r6, r7, r8, r9, sl, fp, pc}
	ns[i] = '~';
 8005978:	237e      	movs	r3, #126	; 0x7e
 800597a:	f04f 0e02 	mov.w	lr, #2
 800597e:	f88d 301b 	strb.w	r3, [sp, #27]
		ns[i--] = c;
 8005982:	2303      	movs	r3, #3
 8005984:	e78b      	b.n	800589e <dir_register+0x466>
		for (n = 0; lfn[n]; n++) ;
 8005986:	9a03      	ldr	r2, [sp, #12]
 8005988:	8813      	ldrh	r3, [r2, #0]
 800598a:	2b00      	cmp	r3, #0
 800598c:	d0a5      	beq.n	80058da <dir_register+0x4a2>
 800598e:	2300      	movs	r3, #0
 8005990:	e000      	b.n	8005994 <dir_register+0x55c>
 8005992:	4603      	mov	r3, r0
 8005994:	f832 1f02 	ldrh.w	r1, [r2, #2]!
 8005998:	1c58      	adds	r0, r3, #1
 800599a:	2900      	cmp	r1, #0
 800599c:	d1f9      	bne.n	8005992 <dir_register+0x55a>
 800599e:	4ac4      	ldr	r2, [pc, #784]	; (8005cb0 <dir_register+0x878>)
 80059a0:	331a      	adds	r3, #26
 80059a2:	fba2 2303 	umull	r2, r3, r2, r3
 80059a6:	089b      	lsrs	r3, r3, #2
 80059a8:	9300      	str	r3, [sp, #0]
 80059aa:	e798      	b.n	80058de <dir_register+0x4a6>
			fs->winsect = sector;
 80059ac:	f8c9 5230 	str.w	r5, [r9, #560]	; 0x230
			if (dp->dir[0] == DDEM || dp->dir[0] == 0) {	/* Is it a free entry? */
 80059b0:	f8db 3214 	ldr.w	r3, [fp, #532]	; 0x214
 80059b4:	781b      	ldrb	r3, [r3, #0]
 80059b6:	2be5      	cmp	r3, #229	; 0xe5
 80059b8:	d026      	beq.n	8005a08 <dir_register+0x5d0>
 80059ba:	b32b      	cbz	r3, 8005a08 <dir_register+0x5d0>
				n = 0;					/* Not a blank entry. Restart to search */
 80059bc:	2600      	movs	r6, #0
	i = dp->index + 1;
 80059be:	f8bb 4206 	ldrh.w	r4, [fp, #518]	; 0x206
 80059c2:	3401      	adds	r4, #1
	if (!(i & 0xFFFF) || !dp->sect)	/* Report EOT when index has reached 65535 */
 80059c4:	b2a3      	uxth	r3, r4
 80059c6:	2b00      	cmp	r3, #0
 80059c8:	f43f af4d 	beq.w	8005866 <dir_register+0x42e>
 80059cc:	f8db 5210 	ldr.w	r5, [fp, #528]	; 0x210
 80059d0:	2d00      	cmp	r5, #0
 80059d2:	f43f af48 	beq.w	8005866 <dir_register+0x42e>
	if (!(i % (SS(dp->fs) / SZ_DIRE))) {	/* Sector changed? */
 80059d6:	f014 070f 	ands.w	r7, r4, #15
 80059da:	f8db 9200 	ldr.w	r9, [fp, #512]	; 0x200
 80059de:	d10b      	bne.n	80059f8 <dir_register+0x5c0>
		if (!dp->clust) {		/* Static table */
 80059e0:	f8db 120c 	ldr.w	r1, [fp, #524]	; 0x20c
		dp->sect++;					/* Next sector */
 80059e4:	3501      	adds	r5, #1
 80059e6:	f8cb 5210 	str.w	r5, [fp, #528]	; 0x210
		if (!dp->clust) {		/* Static table */
 80059ea:	2900      	cmp	r1, #0
 80059ec:	d162      	bne.n	8005ab4 <dir_register+0x67c>
			if (i >= dp->fs->n_rootdir)	/* Report EOT if it reached end of static table */
 80059ee:	f8b9 3208 	ldrh.w	r3, [r9, #520]	; 0x208
 80059f2:	429c      	cmp	r4, r3
 80059f4:	f4bf af37 	bcs.w	8005866 <dir_register+0x42e>
	dp->dir = dp->fs->win.d8 + (i % (SS(dp->fs) / SZ_DIRE)) * SZ_DIRE;	/* Current entry in the window */
 80059f8:	eb09 1747 	add.w	r7, r9, r7, lsl #5
	dp->index = (WORD)i;	/* Current index */
 80059fc:	f8ab 4206 	strh.w	r4, [fp, #518]	; 0x206
	dp->dir = dp->fs->win.d8 + (i % (SS(dp->fs) / SZ_DIRE)) * SZ_DIRE;	/* Current entry in the window */
 8005a00:	f8cb 7214 	str.w	r7, [fp, #532]	; 0x214
 8005a04:	4634      	mov	r4, r6
 8005a06:	e777      	b.n	80058f8 <dir_register+0x4c0>
				if (++n == nent) break;	/* A block of contiguous free entries is found */
 8005a08:	9b00      	ldr	r3, [sp, #0]
 8005a0a:	1c66      	adds	r6, r4, #1
 8005a0c:	42b3      	cmp	r3, r6
 8005a0e:	d1d6      	bne.n	80059be <dir_register+0x586>
 8005a10:	f8dd a00c 	ldr.w	sl, [sp, #12]
	if (res == FR_OK && --nent) {	/* Set LFN entry if needed */
 8005a14:	2c00      	cmp	r4, #0
 8005a16:	f040 80b3 	bne.w	8005b80 <dir_register+0x748>
		res = move_window(dp->fs, dp->sect);
 8005a1a:	f8db 4200 	ldr.w	r4, [fp, #512]	; 0x200
 8005a1e:	f8db 7210 	ldr.w	r7, [fp, #528]	; 0x210
	if (sector != fs->winsect) {	/* Window offset changed? */
 8005a22:	f8d4 5230 	ldr.w	r5, [r4, #560]	; 0x230
 8005a26:	42af      	cmp	r7, r5
 8005a28:	d078      	beq.n	8005b1c <dir_register+0x6e4>
	if (fs->wflag) {	/* Write back the sector if it is dirty */
 8005a2a:	f894 3204 	ldrb.w	r3, [r4, #516]	; 0x204
 8005a2e:	f894 0201 	ldrb.w	r0, [r4, #513]	; 0x201
 8005a32:	2b00      	cmp	r3, #0
 8005a34:	f000 8096 	beq.w	8005b64 <dir_register+0x72c>
		if (disk_write(fs->drv, fs->win.d8, wsect, 1) != RES_OK) {
 8005a38:	2301      	movs	r3, #1
 8005a3a:	462a      	mov	r2, r5
 8005a3c:	4621      	mov	r1, r4
 8005a3e:	f7fd ff49 	bl	80038d4 <disk_write>
 8005a42:	b9e8      	cbnz	r0, 8005a80 <dir_register+0x648>
			if (wsect - fs->fatbase < fs->fsize) {		/* Is it in the FAT area? */
 8005a44:	f8d4 2224 	ldr.w	r2, [r4, #548]	; 0x224
 8005a48:	f8d4 321c 	ldr.w	r3, [r4, #540]	; 0x21c
 8005a4c:	1aaa      	subs	r2, r5, r2
 8005a4e:	429a      	cmp	r2, r3
			fs->wflag = 0;
 8005a50:	f884 0204 	strb.w	r0, [r4, #516]	; 0x204
 8005a54:	f894 0201 	ldrb.w	r0, [r4, #513]	; 0x201
			if (wsect - fs->fatbase < fs->fsize) {		/* Is it in the FAT area? */
 8005a58:	f080 8084 	bcs.w	8005b64 <dir_register+0x72c>
				for (nf = fs->n_fats; nf >= 2; nf--) {	/* Reflect the change to all FAT copies */
 8005a5c:	f894 6203 	ldrb.w	r6, [r4, #515]	; 0x203
 8005a60:	2e01      	cmp	r6, #1
 8005a62:	d97f      	bls.n	8005b64 <dir_register+0x72c>
					wsect += fs->fsize;
 8005a64:	441d      	add	r5, r3
				for (nf = fs->n_fats; nf >= 2; nf--) {	/* Reflect the change to all FAT copies */
 8005a66:	3e01      	subs	r6, #1
					disk_write(fs->drv, fs->win.d8, wsect, 1);
 8005a68:	462a      	mov	r2, r5
 8005a6a:	2301      	movs	r3, #1
 8005a6c:	4621      	mov	r1, r4
 8005a6e:	f7fd ff31 	bl	80038d4 <disk_write>
				for (nf = fs->n_fats; nf >= 2; nf--) {	/* Reflect the change to all FAT copies */
 8005a72:	2e01      	cmp	r6, #1
 8005a74:	d074      	beq.n	8005b60 <dir_register+0x728>
 8005a76:	f8d4 321c 	ldr.w	r3, [r4, #540]	; 0x21c
 8005a7a:	f894 0201 	ldrb.w	r0, [r4, #513]	; 0x201
 8005a7e:	e7f1      	b.n	8005a64 <dir_register+0x62c>
	for (j = 0; j < i && dst[j] != ' '; j++) {
 8005a80:	f04f 0a01 	mov.w	sl, #1
}
 8005a84:	4650      	mov	r0, sl
 8005a86:	b009      	add	sp, #36	; 0x24
 8005a88:	e8bd 8ff0 	ldmia.w	sp!, {r4, r5, r6, r7, r8, r9, sl, fp, pc}
	ns[i] = '~';
 8005a8c:	237e      	movs	r3, #126	; 0x7e
 8005a8e:	f04f 0e01 	mov.w	lr, #1
 8005a92:	f88d 301a 	strb.w	r3, [sp, #26]
		ns[i--] = c;
 8005a96:	2302      	movs	r3, #2
 8005a98:	e701      	b.n	800589e <dir_register+0x466>
	ns[i] = '~';
 8005a9a:	237e      	movs	r3, #126	; 0x7e
 8005a9c:	f88d 3019 	strb.w	r3, [sp, #25]
		ns[i--] = c;
 8005aa0:	2301      	movs	r3, #1
 8005aa2:	e6fc      	b.n	800589e <dir_register+0x466>
	ns[i] = '~';
 8005aa4:	217e      	movs	r1, #126	; 0x7e
		dst[j++] = (i < 8) ? ns[i++] : ' ';
 8005aa6:	2201      	movs	r2, #1
	ns[i] = '~';
 8005aa8:	f88d 1018 	strb.w	r1, [sp, #24]
		dst[j++] = (i < 8) ? ns[i++] : ' ';
 8005aac:	7021      	strb	r1, [r4, #0]
 8005aae:	4691      	mov	r9, r2
	for (j = 0; j < i && dst[j] != ' '; j++) {
 8005ab0:	4619      	mov	r1, r3
 8005ab2:	e6a0      	b.n	80057f6 <dir_register+0x3be>
			if (((i / (SS(dp->fs) / SZ_DIRE)) & (dp->fs->csize - 1)) == 0) {	/* Cluster changed? */
 8005ab4:	f899 3202 	ldrb.w	r3, [r9, #514]	; 0x202
 8005ab8:	3b01      	subs	r3, #1
 8005aba:	ea13 1314 	ands.w	r3, r3, r4, lsr #4
 8005abe:	9301      	str	r3, [sp, #4]
 8005ac0:	d19a      	bne.n	80059f8 <dir_register+0x5c0>
	if (clst < 2 || clst >= fs->n_fatent) {	/* Check range */
 8005ac2:	2901      	cmp	r1, #1
 8005ac4:	f240 8176 	bls.w	8005db4 <dir_register+0x97c>
 8005ac8:	f8d9 3218 	ldr.w	r3, [r9, #536]	; 0x218
 8005acc:	4299      	cmp	r1, r3
 8005ace:	f080 8171 	bcs.w	8005db4 <dir_register+0x97c>
 8005ad2:	4648      	mov	r0, r9
 8005ad4:	f7fe fa74 	bl	8003fc0 <get_fat.part.9>
				if (clst <= 1) return FR_INT_ERR;
 8005ad8:	2801      	cmp	r0, #1
 8005ada:	4682      	mov	sl, r0
 8005adc:	f240 816a 	bls.w	8005db4 <dir_register+0x97c>
				if (clst == 0xFFFFFFFF) return FR_DISK_ERR;
 8005ae0:	f1b0 3fff 	cmp.w	r0, #4294967295
 8005ae4:	d0cc      	beq.n	8005a80 <dir_register+0x648>
				if (clst >= dp->fs->n_fatent) {					/* If it reached end of dynamic table, */
 8005ae6:	f8db 9200 	ldr.w	r9, [fp, #512]	; 0x200
 8005aea:	f8d9 3218 	ldr.w	r3, [r9, #536]	; 0x218
 8005aee:	4298      	cmp	r0, r3
 8005af0:	f080 8154 	bcs.w	8005d9c <dir_register+0x964>
 8005af4:	1e82      	subs	r2, r0, #2
 8005af6:	9202      	str	r2, [sp, #8]
	if (clst >= fs->n_fatent - 2) return 0;		/* Invalid cluster# */
 8005af8:	3b02      	subs	r3, #2
 8005afa:	429a      	cmp	r2, r3
 8005afc:	bf28      	it	cs
 8005afe:	2500      	movcs	r5, #0
				dp->clust = clst;				/* Initialize data for new cluster */
 8005b00:	f8cb a20c 	str.w	sl, [fp, #524]	; 0x20c
	return clst * fs->csize + fs->database;
 8005b04:	bf3e      	ittt	cc
 8005b06:	f899 5202 	ldrbcc.w	r5, [r9, #514]	; 0x202
 8005b0a:	f8d9 322c 	ldrcc.w	r3, [r9, #556]	; 0x22c
 8005b0e:	fb02 3505 	mlacc	r5, r2, r5, r3
				dp->sect = clust2sect(dp->fs, clst);
 8005b12:	f8cb 5210 	str.w	r5, [fp, #528]	; 0x210
 8005b16:	e76f      	b.n	80059f8 <dir_register+0x5c0>
			fs->winsect = sector;
 8005b18:	f8c4 7230 	str.w	r7, [r4, #560]	; 0x230
 8005b1c:	2220      	movs	r2, #32
 8005b1e:	2100      	movs	r1, #0
 8005b20:	f8db 0214 	ldr.w	r0, [fp, #532]	; 0x214
 8005b24:	f003 fe89 	bl	800983a <memset>
			dp->fs->wflag = 1;
 8005b28:	2101      	movs	r1, #1
			mem_cpy(dp->dir, dp->fn, 11);	/* Put SFN */
 8005b2a:	f8db 2218 	ldr.w	r2, [fp, #536]	; 0x218
 8005b2e:	f8db 3214 	ldr.w	r3, [fp, #532]	; 0x214
		*(int*)d = *(int*)s;
 8005b32:	6810      	ldr	r0, [r2, #0]
 8005b34:	6018      	str	r0, [r3, #0]
 8005b36:	6850      	ldr	r0, [r2, #4]
 8005b38:	6058      	str	r0, [r3, #4]
		*d++ = *s++;
 8005b3a:	7a10      	ldrb	r0, [r2, #8]
 8005b3c:	7218      	strb	r0, [r3, #8]
 8005b3e:	7a50      	ldrb	r0, [r2, #9]
 8005b40:	7258      	strb	r0, [r3, #9]
 8005b42:	7a92      	ldrb	r2, [r2, #10]
 8005b44:	729a      	strb	r2, [r3, #10]
			dp->dir[DIR_NTres] = dp->fn[NSFLAG] & (NS_BODY | NS_EXT);	/* Put NT flag */
 8005b46:	f8db 3218 	ldr.w	r3, [fp, #536]	; 0x218
 8005b4a:	f8db 2214 	ldr.w	r2, [fp, #532]	; 0x214
 8005b4e:	7adb      	ldrb	r3, [r3, #11]
 8005b50:	f003 0318 	and.w	r3, r3, #24
 8005b54:	7313      	strb	r3, [r2, #12]
			dp->fs->wflag = 1;
 8005b56:	f8db 3200 	ldr.w	r3, [fp, #512]	; 0x200
 8005b5a:	f883 1204 	strb.w	r1, [r3, #516]	; 0x204
 8005b5e:	e684      	b.n	800586a <dir_register+0x432>
 8005b60:	f894 0201 	ldrb.w	r0, [r4, #513]	; 0x201
			if (disk_read(fs->drv, fs->win.d8, sector, 1) != RES_OK) {
 8005b64:	2301      	movs	r3, #1
 8005b66:	463a      	mov	r2, r7
 8005b68:	4621      	mov	r1, r4
 8005b6a:	f7fd fea5 	bl	80038b8 <disk_read>
 8005b6e:	2800      	cmp	r0, #0
 8005b70:	d0d2      	beq.n	8005b18 <dir_register+0x6e0>
			fs->winsect = sector;
 8005b72:	f04f 33ff 	mov.w	r3, #4294967295
				res = FR_DISK_ERR;
 8005b76:	f04f 0a01 	mov.w	sl, #1
			fs->winsect = sector;
 8005b7a:	f8c4 3230 	str.w	r3, [r4, #560]	; 0x230
 8005b7e:	e674      	b.n	800586a <dir_register+0x432>
		res = dir_sdi(dp, dp->index - nent);
 8005b80:	f8bb 1206 	ldrh.w	r1, [fp, #518]	; 0x206
 8005b84:	4658      	mov	r0, fp
 8005b86:	1b09      	subs	r1, r1, r4
 8005b88:	f7ff faba 	bl	8005100 <dir_sdi>
		if (res == FR_OK) {
 8005b8c:	2800      	cmp	r0, #0
 8005b8e:	f040 8192 	bne.w	8005eb6 <dir_register+0xa7e>
			sum = sum_sfn(dp->fn);	/* Sum value of the SFN tied to the LFN */
 8005b92:	f8db 3218 	ldr.w	r3, [fp, #536]	; 0x218
	dir[LDIR_Type] = 0;
 8005b96:	4606      	mov	r6, r0
	do sum = (sum >> 1) + (sum << 7) + *dir++; while (--n);
 8005b98:	7819      	ldrb	r1, [r3, #0]
 8005b9a:	7858      	ldrb	r0, [r3, #1]
 8005b9c:	01ca      	lsls	r2, r1, #7
 8005b9e:	ea42 0251 	orr.w	r2, r2, r1, lsr #1
 8005ba2:	1811      	adds	r1, r2, r0
 8005ba4:	f3c1 0246 	ubfx	r2, r1, #1, #7
 8005ba8:	ea42 12c1 	orr.w	r2, r2, r1, lsl #7
 8005bac:	7899      	ldrb	r1, [r3, #2]
 8005bae:	b2d2      	uxtb	r2, r2
 8005bb0:	4411      	add	r1, r2
 8005bb2:	f3c1 0246 	ubfx	r2, r1, #1, #7
 8005bb6:	ea42 12c1 	orr.w	r2, r2, r1, lsl #7
 8005bba:	78d9      	ldrb	r1, [r3, #3]
 8005bbc:	b2d2      	uxtb	r2, r2
 8005bbe:	4411      	add	r1, r2
 8005bc0:	f3c1 0246 	ubfx	r2, r1, #1, #7
 8005bc4:	ea42 12c1 	orr.w	r2, r2, r1, lsl #7
 8005bc8:	7919      	ldrb	r1, [r3, #4]
 8005bca:	b2d2      	uxtb	r2, r2
 8005bcc:	4411      	add	r1, r2
 8005bce:	f3c1 0246 	ubfx	r2, r1, #1, #7
 8005bd2:	ea42 12c1 	orr.w	r2, r2, r1, lsl #7
 8005bd6:	7959      	ldrb	r1, [r3, #5]
 8005bd8:	b2d2      	uxtb	r2, r2
 8005bda:	4411      	add	r1, r2
 8005bdc:	f3c1 0246 	ubfx	r2, r1, #1, #7
 8005be0:	ea42 12c1 	orr.w	r2, r2, r1, lsl #7
 8005be4:	7999      	ldrb	r1, [r3, #6]
 8005be6:	b2d2      	uxtb	r2, r2
 8005be8:	4411      	add	r1, r2
 8005bea:	f3c1 0246 	ubfx	r2, r1, #1, #7
 8005bee:	ea42 12c1 	orr.w	r2, r2, r1, lsl #7
 8005bf2:	79d9      	ldrb	r1, [r3, #7]
 8005bf4:	b2d2      	uxtb	r2, r2
 8005bf6:	4411      	add	r1, r2
 8005bf8:	f3c1 0246 	ubfx	r2, r1, #1, #7
 8005bfc:	ea42 12c1 	orr.w	r2, r2, r1, lsl #7
 8005c00:	7a19      	ldrb	r1, [r3, #8]
 8005c02:	b2d2      	uxtb	r2, r2
 8005c04:	4411      	add	r1, r2
 8005c06:	f3c1 0246 	ubfx	r2, r1, #1, #7
 8005c0a:	ea42 12c1 	orr.w	r2, r2, r1, lsl #7
 8005c0e:	7a59      	ldrb	r1, [r3, #9]
 8005c10:	b2d2      	uxtb	r2, r2
 8005c12:	440a      	add	r2, r1
 8005c14:	7a99      	ldrb	r1, [r3, #10]
 8005c16:	f3c2 0346 	ubfx	r3, r2, #1, #7
 8005c1a:	ea43 13c2 	orr.w	r3, r3, r2, lsl #7
 8005c1e:	440b      	add	r3, r1
 8005c20:	f003 03ff 	and.w	r3, r3, #255	; 0xff
 8005c24:	9300      	str	r3, [sp, #0]
				res = move_window(dp->fs, dp->sect);
 8005c26:	f8db 5200 	ldr.w	r5, [fp, #512]	; 0x200
 8005c2a:	f8db 9210 	ldr.w	r9, [fp, #528]	; 0x210
	if (sector != fs->winsect) {	/* Window offset changed? */
 8005c2e:	f8d5 7230 	ldr.w	r7, [r5, #560]	; 0x230
 8005c32:	45b9      	cmp	r9, r7
 8005c34:	d040      	beq.n	8005cb8 <dir_register+0x880>
	if (fs->wflag) {	/* Write back the sector if it is dirty */
 8005c36:	f895 3204 	ldrb.w	r3, [r5, #516]	; 0x204
 8005c3a:	f895 0201 	ldrb.w	r0, [r5, #513]	; 0x201
 8005c3e:	b34b      	cbz	r3, 8005c94 <dir_register+0x85c>
		if (disk_write(fs->drv, fs->win.d8, wsect, 1) != RES_OK) {
 8005c40:	2301      	movs	r3, #1
 8005c42:	463a      	mov	r2, r7
 8005c44:	4629      	mov	r1, r5
 8005c46:	f7fd fe45 	bl	80038d4 <disk_write>
 8005c4a:	2800      	cmp	r0, #0
 8005c4c:	f47f af18 	bne.w	8005a80 <dir_register+0x648>
			if (wsect - fs->fatbase < fs->fsize) {		/* Is it in the FAT area? */
 8005c50:	f8d5 2224 	ldr.w	r2, [r5, #548]	; 0x224
 8005c54:	f8d5 321c 	ldr.w	r3, [r5, #540]	; 0x21c
 8005c58:	1aba      	subs	r2, r7, r2
 8005c5a:	429a      	cmp	r2, r3
			fs->wflag = 0;
 8005c5c:	f885 0204 	strb.w	r0, [r5, #516]	; 0x204
 8005c60:	f895 0201 	ldrb.w	r0, [r5, #513]	; 0x201
			if (wsect - fs->fatbase < fs->fsize) {		/* Is it in the FAT area? */
 8005c64:	d216      	bcs.n	8005c94 <dir_register+0x85c>
				for (nf = fs->n_fats; nf >= 2; nf--) {	/* Reflect the change to all FAT copies */
 8005c66:	f895 8203 	ldrb.w	r8, [r5, #515]	; 0x203
 8005c6a:	f1b8 0f01 	cmp.w	r8, #1
 8005c6e:	d804      	bhi.n	8005c7a <dir_register+0x842>
 8005c70:	e010      	b.n	8005c94 <dir_register+0x85c>
 8005c72:	f8d5 321c 	ldr.w	r3, [r5, #540]	; 0x21c
 8005c76:	f895 0201 	ldrb.w	r0, [r5, #513]	; 0x201
					wsect += fs->fsize;
 8005c7a:	441f      	add	r7, r3
				for (nf = fs->n_fats; nf >= 2; nf--) {	/* Reflect the change to all FAT copies */
 8005c7c:	f108 38ff 	add.w	r8, r8, #4294967295
					disk_write(fs->drv, fs->win.d8, wsect, 1);
 8005c80:	463a      	mov	r2, r7
 8005c82:	2301      	movs	r3, #1
 8005c84:	4629      	mov	r1, r5
 8005c86:	f7fd fe25 	bl	80038d4 <disk_write>
				for (nf = fs->n_fats; nf >= 2; nf--) {	/* Reflect the change to all FAT copies */
 8005c8a:	f1b8 0f01 	cmp.w	r8, #1
 8005c8e:	d1f0      	bne.n	8005c72 <dir_register+0x83a>
 8005c90:	f895 0201 	ldrb.w	r0, [r5, #513]	; 0x201
			if (disk_read(fs->drv, fs->win.d8, sector, 1) != RES_OK) {
 8005c94:	2301      	movs	r3, #1
 8005c96:	464a      	mov	r2, r9
 8005c98:	4629      	mov	r1, r5
 8005c9a:	f7fd fe0d 	bl	80038b8 <disk_read>
 8005c9e:	b148      	cbz	r0, 8005cb4 <dir_register+0x87c>
			fs->winsect = sector;
 8005ca0:	f04f 33ff 	mov.w	r3, #4294967295
				res = FR_DISK_ERR;
 8005ca4:	f04f 0a01 	mov.w	sl, #1
			fs->winsect = sector;
 8005ca8:	f8c5 3230 	str.w	r3, [r5, #560]	; 0x230
 8005cac:	e5dd      	b.n	800586a <dir_register+0x432>
 8005cae:	bf00      	nop
 8005cb0:	4ec4ec4f 	.word	0x4ec4ec4f
 8005cb4:	f8c5 9230 	str.w	r9, [r5, #560]	; 0x230
				fit_lfn(dp->lfn, dp->dir, (BYTE)nent, sum);
 8005cb8:	b2e5      	uxtb	r5, r4
	i = (ord - 1) * 13;				/* Get offset in the LFN buffer */
 8005cba:	1e6a      	subs	r2, r5, #1
 8005cbc:	eb02 0142 	add.w	r1, r2, r2, lsl #1
				fit_lfn(dp->lfn, dp->dir, (BYTE)nent, sum);
 8005cc0:	f8db 3214 	ldr.w	r3, [fp, #532]	; 0x214
	i = (ord - 1) * 13;				/* Get offset in the LFN buffer */
 8005cc4:	eb02 0281 	add.w	r2, r2, r1, lsl #2
	dir[LDIR_Chksum] = sum;			/* Set check sum */
 8005cc8:	9900      	ldr	r1, [sp, #0]
				fit_lfn(dp->lfn, dp->dir, (BYTE)nent, sum);
 8005cca:	f8db 0220 	ldr.w	r0, [fp, #544]	; 0x220
	dir[LDIR_Chksum] = sum;			/* Set check sum */
 8005cce:	7359      	strb	r1, [r3, #13]
	dir[LDIR_Attr] = AM_LFN;		/* Set attribute. LFN entry */
 8005cd0:	f04f 010f 	mov.w	r1, #15
	dir[LDIR_Type] = 0;
 8005cd4:	731e      	strb	r6, [r3, #12]
	dir[LDIR_Attr] = AM_LFN;		/* Set attribute. LFN entry */
 8005cd6:	72d9      	strb	r1, [r3, #11]
	ST_WORD(dir + LDIR_FstClusLO, 0);
 8005cd8:	835e      	strh	r6, [r3, #26]
		if (wc != 0xFFFF) wc = lfnbuf[i++];	/* Get an effective character */
 8005cda:	f830 c012 	ldrh.w	ip, [r0, r2, lsl #1]
 8005cde:	0057      	lsls	r7, r2, #1
		ST_WORD(dir+LfnOfs[s], wc);	/* Put it */
 8005ce0:	f8a3 c001 	strh.w	ip, [r3, #1]
		if (!wc) wc = 0xFFFF;		/* Padding characters following last character */
 8005ce4:	f1bc 0f00 	cmp.w	ip, #0
 8005ce8:	d13a      	bne.n	8005d60 <dir_register+0x928>
		ST_WORD(dir+LfnOfs[s], wc);	/* Put it */
 8005cea:	f64f 72ff 	movw	r2, #65535	; 0xffff
 8005cee:	f8a3 2003 	strh.w	r2, [r3, #3]
 8005cf2:	f64f 72ff 	movw	r2, #65535	; 0xffff
 8005cf6:	f8a3 2005 	strh.w	r2, [r3, #5]
 8005cfa:	f64f 72ff 	movw	r2, #65535	; 0xffff
 8005cfe:	f8a3 2007 	strh.w	r2, [r3, #7]
 8005d02:	f64f 72ff 	movw	r2, #65535	; 0xffff
 8005d06:	f8a3 2009 	strh.w	r2, [r3, #9]
 8005d0a:	f64f 72ff 	movw	r2, #65535	; 0xffff
 8005d0e:	81da      	strh	r2, [r3, #14]
 8005d10:	f64f 72ff 	movw	r2, #65535	; 0xffff
 8005d14:	821a      	strh	r2, [r3, #16]
 8005d16:	f64f 72ff 	movw	r2, #65535	; 0xffff
 8005d1a:	825a      	strh	r2, [r3, #18]
 8005d1c:	f64f 72ff 	movw	r2, #65535	; 0xffff
 8005d20:	829a      	strh	r2, [r3, #20]
 8005d22:	f64f 72ff 	movw	r2, #65535	; 0xffff
 8005d26:	82da      	strh	r2, [r3, #22]
 8005d28:	f64f 72ff 	movw	r2, #65535	; 0xffff
 8005d2c:	831a      	strh	r2, [r3, #24]
 8005d2e:	f64f 72ff 	movw	r2, #65535	; 0xffff
 8005d32:	839a      	strh	r2, [r3, #28]
 8005d34:	f64f 72ff 	movw	r2, #65535	; 0xffff
 8005d38:	83da      	strh	r2, [r3, #30]
	if (wc == 0xFFFF || !lfnbuf[i]) ord |= LLEF;	/* Bottom LFN part is the start of LFN sequence */
 8005d3a:	f045 0540 	orr.w	r5, r5, #64	; 0x40
				dp->fs->wflag = 1;
 8005d3e:	f04f 0201 	mov.w	r2, #1
	dir[LDIR_Ord] = ord;			/* Set the LFN order */
 8005d42:	701d      	strb	r5, [r3, #0]
				dp->fs->wflag = 1;
 8005d44:	f8db 3200 	ldr.w	r3, [fp, #512]	; 0x200
				res = dir_next(dp, 0);	/* Next entry */
 8005d48:	4658      	mov	r0, fp
				dp->fs->wflag = 1;
 8005d4a:	f883 2204 	strb.w	r2, [r3, #516]	; 0x204
				res = dir_next(dp, 0);	/* Next entry */
 8005d4e:	f7fe fa6d 	bl	800422c <dir_next.constprop.16>
			} while (res == FR_OK && --nent);
 8005d52:	2800      	cmp	r0, #0
 8005d54:	f040 80af 	bne.w	8005eb6 <dir_register+0xa7e>
 8005d58:	3c01      	subs	r4, #1
 8005d5a:	f47f af64 	bne.w	8005c26 <dir_register+0x7ee>
 8005d5e:	e65c      	b.n	8005a1a <dir_register+0x5e2>
		if (wc != 0xFFFF) wc = lfnbuf[i++];	/* Get an effective character */
 8005d60:	f64f 71ff 	movw	r1, #65535	; 0xffff
 8005d64:	458c      	cmp	ip, r1
 8005d66:	f000 80a8 	beq.w	8005eba <dir_register+0xa82>
 8005d6a:	3201      	adds	r2, #1
 8005d6c:	f830 c012 	ldrh.w	ip, [r0, r2, lsl #1]
 8005d70:	0052      	lsls	r2, r2, #1
		ST_WORD(dir+LfnOfs[s], wc);	/* Put it */
 8005d72:	f8a3 c003 	strh.w	ip, [r3, #3]
		if (!wc) wc = 0xFFFF;		/* Padding characters following last character */
 8005d76:	f1bc 0f00 	cmp.w	ip, #0
 8005d7a:	d102      	bne.n	8005d82 <dir_register+0x94a>
		ST_WORD(dir+LfnOfs[s], wc);	/* Put it */
 8005d7c:	f8a3 1005 	strh.w	r1, [r3, #5]
 8005d80:	e7bb      	b.n	8005cfa <dir_register+0x8c2>
		if (wc != 0xFFFF) wc = lfnbuf[i++];	/* Get an effective character */
 8005d82:	458c      	cmp	ip, r1
 8005d84:	d0b5      	beq.n	8005cf2 <dir_register+0x8ba>
 8005d86:	4402      	add	r2, r0
 8005d88:	f8b2 c002 	ldrh.w	ip, [r2, #2]
		ST_WORD(dir+LfnOfs[s], wc);	/* Put it */
 8005d8c:	f8a3 c005 	strh.w	ip, [r3, #5]
		if (!wc) wc = 0xFFFF;		/* Padding characters following last character */
 8005d90:	f1bc 0f00 	cmp.w	ip, #0
 8005d94:	d117      	bne.n	8005dc6 <dir_register+0x98e>
		ST_WORD(dir+LfnOfs[s], wc);	/* Put it */
 8005d96:	f8a3 1007 	strh.w	r1, [r3, #7]
 8005d9a:	e7b2      	b.n	8005d02 <dir_register+0x8ca>
					clst = create_chain(dp->fs, dp->clust);		/* Stretch cluster chain */
 8005d9c:	4648      	mov	r0, r9
 8005d9e:	f8db 120c 	ldr.w	r1, [fp, #524]	; 0x20c
 8005da2:	f7fe fe89 	bl	8004ab8 <create_chain>
					if (clst == 0) return FR_DENIED;			/* No free cluster */
 8005da6:	4682      	mov	sl, r0
 8005da8:	2800      	cmp	r0, #0
 8005daa:	f43f ad5c 	beq.w	8005866 <dir_register+0x42e>
					if (clst == 1) return FR_INT_ERR;
 8005dae:	2801      	cmp	r0, #1
 8005db0:	f040 808a 	bne.w	8005ec8 <dir_register+0xa90>
				if (clst <= 1) return FR_INT_ERR;
 8005db4:	f04f 0a02 	mov.w	sl, #2
 8005db8:	e557      	b.n	800586a <dir_register+0x432>
		dst[j++] = (i < 8) ? ns[i++] : ' ';
 8005dba:	7062      	strb	r2, [r4, #1]
 8005dbc:	f104 0e02 	add.w	lr, r4, #2
 8005dc0:	2203      	movs	r2, #3
	for (j = 0; j < i && dst[j] != ' '; j++) {
 8005dc2:	2100      	movs	r1, #0
 8005dc4:	e52a      	b.n	800581c <dir_register+0x3e4>
		if (wc != 0xFFFF) wc = lfnbuf[i++];	/* Get an effective character */
 8005dc6:	458c      	cmp	ip, r1
 8005dc8:	d097      	beq.n	8005cfa <dir_register+0x8c2>
 8005dca:	f8b2 c004 	ldrh.w	ip, [r2, #4]
		ST_WORD(dir+LfnOfs[s], wc);	/* Put it */
 8005dce:	f8a3 c007 	strh.w	ip, [r3, #7]
		if (!wc) wc = 0xFFFF;		/* Padding characters following last character */
 8005dd2:	f1bc 0f00 	cmp.w	ip, #0
 8005dd6:	d102      	bne.n	8005dde <dir_register+0x9a6>
		ST_WORD(dir+LfnOfs[s], wc);	/* Put it */
 8005dd8:	f8a3 1009 	strh.w	r1, [r3, #9]
 8005ddc:	e795      	b.n	8005d0a <dir_register+0x8d2>
		if (wc != 0xFFFF) wc = lfnbuf[i++];	/* Get an effective character */
 8005dde:	458c      	cmp	ip, r1
 8005de0:	d08f      	beq.n	8005d02 <dir_register+0x8ca>
 8005de2:	f8b2 c006 	ldrh.w	ip, [r2, #6]
		ST_WORD(dir+LfnOfs[s], wc);	/* Put it */
 8005de6:	f8a3 c009 	strh.w	ip, [r3, #9]
		if (!wc) wc = 0xFFFF;		/* Padding characters following last character */
 8005dea:	f1bc 0f00 	cmp.w	ip, #0
 8005dee:	d101      	bne.n	8005df4 <dir_register+0x9bc>
		ST_WORD(dir+LfnOfs[s], wc);	/* Put it */
 8005df0:	81d9      	strh	r1, [r3, #14]
 8005df2:	e78d      	b.n	8005d10 <dir_register+0x8d8>
		if (wc != 0xFFFF) wc = lfnbuf[i++];	/* Get an effective character */
 8005df4:	458c      	cmp	ip, r1
 8005df6:	d088      	beq.n	8005d0a <dir_register+0x8d2>
 8005df8:	f8b2 c008 	ldrh.w	ip, [r2, #8]
		ST_WORD(dir+LfnOfs[s], wc);	/* Put it */
 8005dfc:	f8a3 c00e 	strh.w	ip, [r3, #14]
		if (!wc) wc = 0xFFFF;		/* Padding characters following last character */
 8005e00:	f1bc 0f00 	cmp.w	ip, #0
 8005e04:	d084      	beq.n	8005d10 <dir_register+0x8d8>
		if (wc != 0xFFFF) wc = lfnbuf[i++];	/* Get an effective character */
 8005e06:	458c      	cmp	ip, r1
 8005e08:	d082      	beq.n	8005d10 <dir_register+0x8d8>
 8005e0a:	f8b2 c00a 	ldrh.w	ip, [r2, #10]
		ST_WORD(dir+LfnOfs[s], wc);	/* Put it */
 8005e0e:	f8a3 c010 	strh.w	ip, [r3, #16]
		if (!wc) wc = 0xFFFF;		/* Padding characters following last character */
 8005e12:	f1bc 0f00 	cmp.w	ip, #0
 8005e16:	d101      	bne.n	8005e1c <dir_register+0x9e4>
		ST_WORD(dir+LfnOfs[s], wc);	/* Put it */
 8005e18:	8259      	strh	r1, [r3, #18]
 8005e1a:	e77f      	b.n	8005d1c <dir_register+0x8e4>
		if (wc != 0xFFFF) wc = lfnbuf[i++];	/* Get an effective character */
 8005e1c:	458c      	cmp	ip, r1
 8005e1e:	f43f af7a 	beq.w	8005d16 <dir_register+0x8de>
 8005e22:	f8b2 c00c 	ldrh.w	ip, [r2, #12]
		ST_WORD(dir+LfnOfs[s], wc);	/* Put it */
 8005e26:	f8a3 c012 	strh.w	ip, [r3, #18]
		if (!wc) wc = 0xFFFF;		/* Padding characters following last character */
 8005e2a:	f1bc 0f00 	cmp.w	ip, #0
 8005e2e:	d101      	bne.n	8005e34 <dir_register+0x9fc>
		ST_WORD(dir+LfnOfs[s], wc);	/* Put it */
 8005e30:	8299      	strh	r1, [r3, #20]
 8005e32:	e776      	b.n	8005d22 <dir_register+0x8ea>
		if (wc != 0xFFFF) wc = lfnbuf[i++];	/* Get an effective character */
 8005e34:	458c      	cmp	ip, r1
 8005e36:	f43f af71 	beq.w	8005d1c <dir_register+0x8e4>
 8005e3a:	f8b2 c00e 	ldrh.w	ip, [r2, #14]
		ST_WORD(dir+LfnOfs[s], wc);	/* Put it */
 8005e3e:	f8a3 c014 	strh.w	ip, [r3, #20]
		if (!wc) wc = 0xFFFF;		/* Padding characters following last character */
 8005e42:	f1bc 0f00 	cmp.w	ip, #0
 8005e46:	d101      	bne.n	8005e4c <dir_register+0xa14>
		ST_WORD(dir+LfnOfs[s], wc);	/* Put it */
 8005e48:	82d9      	strh	r1, [r3, #22]
 8005e4a:	e76d      	b.n	8005d28 <dir_register+0x8f0>
		if (wc != 0xFFFF) wc = lfnbuf[i++];	/* Get an effective character */
 8005e4c:	458c      	cmp	ip, r1
 8005e4e:	f43f af68 	beq.w	8005d22 <dir_register+0x8ea>
 8005e52:	f8b2 c010 	ldrh.w	ip, [r2, #16]
		ST_WORD(dir+LfnOfs[s], wc);	/* Put it */
 8005e56:	f8a3 c016 	strh.w	ip, [r3, #22]
		if (!wc) wc = 0xFFFF;		/* Padding characters following last character */
 8005e5a:	f1bc 0f00 	cmp.w	ip, #0
 8005e5e:	d101      	bne.n	8005e64 <dir_register+0xa2c>
		ST_WORD(dir+LfnOfs[s], wc);	/* Put it */
 8005e60:	8319      	strh	r1, [r3, #24]
 8005e62:	e764      	b.n	8005d2e <dir_register+0x8f6>
		if (wc != 0xFFFF) wc = lfnbuf[i++];	/* Get an effective character */
 8005e64:	458c      	cmp	ip, r1
 8005e66:	f43f af5f 	beq.w	8005d28 <dir_register+0x8f0>
 8005e6a:	f8b2 c012 	ldrh.w	ip, [r2, #18]
		ST_WORD(dir+LfnOfs[s], wc);	/* Put it */
 8005e6e:	f8a3 c018 	strh.w	ip, [r3, #24]
		if (!wc) wc = 0xFFFF;		/* Padding characters following last character */
 8005e72:	f1bc 0f00 	cmp.w	ip, #0
 8005e76:	f43f af5a 	beq.w	8005d2e <dir_register+0x8f6>
		if (wc != 0xFFFF) wc = lfnbuf[i++];	/* Get an effective character */
 8005e7a:	458c      	cmp	ip, r1
 8005e7c:	f43f af57 	beq.w	8005d2e <dir_register+0x8f6>
 8005e80:	f8b2 c014 	ldrh.w	ip, [r2, #20]
		ST_WORD(dir+LfnOfs[s], wc);	/* Put it */
 8005e84:	f8a3 c01c 	strh.w	ip, [r3, #28]
		if (!wc) wc = 0xFFFF;		/* Padding characters following last character */
 8005e88:	f1bc 0f00 	cmp.w	ip, #0
 8005e8c:	d101      	bne.n	8005e92 <dir_register+0xa5a>
		ST_WORD(dir+LfnOfs[s], wc);	/* Put it */
 8005e8e:	83d9      	strh	r1, [r3, #30]
 8005e90:	e753      	b.n	8005d3a <dir_register+0x902>
		if (wc != 0xFFFF) wc = lfnbuf[i++];	/* Get an effective character */
 8005e92:	458c      	cmp	ip, r1
 8005e94:	f43f af4e 	beq.w	8005d34 <dir_register+0x8fc>
		if (!wc) wc = 0xFFFF;		/* Padding characters following last character */
 8005e98:	f64f 7cfd 	movw	ip, #65533	; 0xfffd
		if (wc != 0xFFFF) wc = lfnbuf[i++];	/* Get an effective character */
 8005e9c:	8ad1      	ldrh	r1, [r2, #22]
		if (!wc) wc = 0xFFFF;		/* Padding characters following last character */
 8005e9e:	1e4a      	subs	r2, r1, #1
 8005ea0:	b292      	uxth	r2, r2
 8005ea2:	4562      	cmp	r2, ip
		ST_WORD(dir+LfnOfs[s], wc);	/* Put it */
 8005ea4:	83d9      	strh	r1, [r3, #30]
		if (!wc) wc = 0xFFFF;		/* Padding characters following last character */
 8005ea6:	f63f af48 	bhi.w	8005d3a <dir_register+0x902>
	if (wc == 0xFFFF || !lfnbuf[i]) ord |= LLEF;	/* Bottom LFN part is the start of LFN sequence */
 8005eaa:	4438      	add	r0, r7
 8005eac:	8b42      	ldrh	r2, [r0, #26]
 8005eae:	2a00      	cmp	r2, #0
 8005eb0:	f43f af43 	beq.w	8005d3a <dir_register+0x902>
 8005eb4:	e743      	b.n	8005d3e <dir_register+0x906>
 8005eb6:	4682      	mov	sl, r0
 8005eb8:	e4d7      	b.n	800586a <dir_register+0x432>
		ST_WORD(dir+LfnOfs[s], wc);	/* Put it */
 8005eba:	f8a3 c003 	strh.w	ip, [r3, #3]
 8005ebe:	e718      	b.n	8005cf2 <dir_register+0x8ba>
		dst[j++] = (i < 8) ? ns[i++] : ' ';
 8005ec0:	7023      	strb	r3, [r4, #0]
 8005ec2:	2207      	movs	r2, #7
		ns[i--] = c;
 8005ec4:	2306      	movs	r3, #6
 8005ec6:	e4f1      	b.n	80058ac <dir_register+0x474>
					if (clst == 0xFFFFFFFF) return FR_DISK_ERR;
 8005ec8:	f1b0 3fff 	cmp.w	r0, #4294967295
 8005ecc:	f43f add8 	beq.w	8005a80 <dir_register+0x648>
					if (sync_window(dp->fs)) return FR_DISK_ERR;/* Flush disk access window */
 8005ed0:	f8db 5200 	ldr.w	r5, [fp, #512]	; 0x200
	if (fs->wflag) {	/* Write back the sector if it is dirty */
 8005ed4:	f895 3204 	ldrb.w	r3, [r5, #516]	; 0x204
 8005ed8:	2b00      	cmp	r3, #0
 8005eda:	d163      	bne.n	8005fa4 <dir_register+0xb6c>
 8005edc:	4628      	mov	r0, r5
 8005ede:	f44f 7200 	mov.w	r2, #512	; 0x200
 8005ee2:	2100      	movs	r1, #0
 8005ee4:	f003 fca9 	bl	800983a <memset>
					dp->fs->winsect = clust2sect(dp->fs, clst);	/* Cluster start sector */
 8005ee8:	f8db 5200 	ldr.w	r5, [fp, #512]	; 0x200
	clst -= 2;
 8005eec:	f1aa 0102 	sub.w	r1, sl, #2
	if (clst >= fs->n_fatent - 2) return 0;		/* Invalid cluster# */
 8005ef0:	f8d5 3218 	ldr.w	r3, [r5, #536]	; 0x218
	clst -= 2;
 8005ef4:	9102      	str	r1, [sp, #8]
	if (clst >= fs->n_fatent - 2) return 0;		/* Invalid cluster# */
 8005ef6:	3b02      	subs	r3, #2
 8005ef8:	4299      	cmp	r1, r3
 8005efa:	f895 2202 	ldrb.w	r2, [r5, #514]	; 0x202
 8005efe:	d34b      	bcc.n	8005f98 <dir_register+0xb60>
 8005f00:	f04f 0800 	mov.w	r8, #0
					dp->fs->winsect = clust2sect(dp->fs, clst);	/* Cluster start sector */
 8005f04:	f8c5 8230 	str.w	r8, [r5, #560]	; 0x230
					for (c = 0; c < dp->fs->csize; c++) {		/* Fill the new cluster with 0 */
 8005f08:	b3da      	cbz	r2, 8005f82 <dir_register+0xb4a>
						dp->fs->wflag = 1;
 8005f0a:	f04f 0301 	mov.w	r3, #1
		if (disk_write(fs->drv, fs->win.d8, wsect, 1) != RES_OK) {
 8005f0e:	4642      	mov	r2, r8
						dp->fs->wflag = 1;
 8005f10:	f885 3204 	strb.w	r3, [r5, #516]	; 0x204
		if (disk_write(fs->drv, fs->win.d8, wsect, 1) != RES_OK) {
 8005f14:	4629      	mov	r1, r5
 8005f16:	2301      	movs	r3, #1
 8005f18:	f895 0201 	ldrb.w	r0, [r5, #513]	; 0x201
 8005f1c:	f7fd fcda 	bl	80038d4 <disk_write>
 8005f20:	2800      	cmp	r0, #0
 8005f22:	f47f adad 	bne.w	8005a80 <dir_register+0x648>
			if (wsect - fs->fatbase < fs->fsize) {		/* Is it in the FAT area? */
 8005f26:	f8d5 2224 	ldr.w	r2, [r5, #548]	; 0x224
 8005f2a:	f8d5 321c 	ldr.w	r3, [r5, #540]	; 0x21c
 8005f2e:	eba8 0202 	sub.w	r2, r8, r2
 8005f32:	429a      	cmp	r2, r3
			fs->wflag = 0;
 8005f34:	f885 0204 	strb.w	r0, [r5, #516]	; 0x204
			if (wsect - fs->fatbase < fs->fsize) {		/* Is it in the FAT area? */
 8005f38:	d214      	bcs.n	8005f64 <dir_register+0xb2c>
				for (nf = fs->n_fats; nf >= 2; nf--) {	/* Reflect the change to all FAT copies */
 8005f3a:	f895 9203 	ldrb.w	r9, [r5, #515]	; 0x203
 8005f3e:	f1b9 0f01 	cmp.w	r9, #1
 8005f42:	d802      	bhi.n	8005f4a <dir_register+0xb12>
 8005f44:	e00e      	b.n	8005f64 <dir_register+0xb2c>
 8005f46:	f8d5 321c 	ldr.w	r3, [r5, #540]	; 0x21c
					wsect += fs->fsize;
 8005f4a:	4498      	add	r8, r3
				for (nf = fs->n_fats; nf >= 2; nf--) {	/* Reflect the change to all FAT copies */
 8005f4c:	f109 39ff 	add.w	r9, r9, #4294967295
					disk_write(fs->drv, fs->win.d8, wsect, 1);
 8005f50:	4642      	mov	r2, r8
 8005f52:	2301      	movs	r3, #1
 8005f54:	4629      	mov	r1, r5
 8005f56:	f895 0201 	ldrb.w	r0, [r5, #513]	; 0x201
 8005f5a:	f7fd fcbb 	bl	80038d4 <disk_write>
				for (nf = fs->n_fats; nf >= 2; nf--) {	/* Reflect the change to all FAT copies */
 8005f5e:	f1b9 0f01 	cmp.w	r9, #1
 8005f62:	d1f0      	bne.n	8005f46 <dir_register+0xb0e>
						dp->fs->winsect++;
 8005f64:	f8db 5200 	ldr.w	r5, [fp, #512]	; 0x200
					for (c = 0; c < dp->fs->csize; c++) {		/* Fill the new cluster with 0 */
 8005f68:	9901      	ldr	r1, [sp, #4]
						dp->fs->winsect++;
 8005f6a:	f8d5 2230 	ldr.w	r2, [r5, #560]	; 0x230
					for (c = 0; c < dp->fs->csize; c++) {		/* Fill the new cluster with 0 */
 8005f6e:	f895 3202 	ldrb.w	r3, [r5, #514]	; 0x202
 8005f72:	3101      	adds	r1, #1
						dp->fs->winsect++;
 8005f74:	f102 0801 	add.w	r8, r2, #1
					for (c = 0; c < dp->fs->csize; c++) {		/* Fill the new cluster with 0 */
 8005f78:	4299      	cmp	r1, r3
 8005f7a:	9101      	str	r1, [sp, #4]
						dp->fs->winsect++;
 8005f7c:	f8c5 8230 	str.w	r8, [r5, #560]	; 0x230
					for (c = 0; c < dp->fs->csize; c++) {		/* Fill the new cluster with 0 */
 8005f80:	d3c3      	bcc.n	8005f0a <dir_register+0xad2>
					dp->fs->winsect -= c;						/* Rewind window offset */
 8005f82:	f8d5 3230 	ldr.w	r3, [r5, #560]	; 0x230
 8005f86:	9a01      	ldr	r2, [sp, #4]
 8005f88:	46a9      	mov	r9, r5
 8005f8a:	1a9a      	subs	r2, r3, r2
 8005f8c:	f8c5 2230 	str.w	r2, [r5, #560]	; 0x230
 8005f90:	f8d5 3218 	ldr.w	r3, [r5, #536]	; 0x218
 8005f94:	9a02      	ldr	r2, [sp, #8]
 8005f96:	e5af      	b.n	8005af8 <dir_register+0x6c0>
	return clst * fs->csize + fs->database;
 8005f98:	f8d5 322c 	ldr.w	r3, [r5, #556]	; 0x22c
 8005f9c:	9902      	ldr	r1, [sp, #8]
 8005f9e:	fb02 3801 	mla	r8, r2, r1, r3
 8005fa2:	e7af      	b.n	8005f04 <dir_register+0xacc>
		wsect = fs->winsect;	/* Current sector number */
 8005fa4:	f8d5 8230 	ldr.w	r8, [r5, #560]	; 0x230
		if (disk_write(fs->drv, fs->win.d8, wsect, 1) != RES_OK) {
 8005fa8:	2301      	movs	r3, #1
 8005faa:	4642      	mov	r2, r8
 8005fac:	4629      	mov	r1, r5
 8005fae:	f895 0201 	ldrb.w	r0, [r5, #513]	; 0x201
 8005fb2:	f7fd fc8f 	bl	80038d4 <disk_write>
 8005fb6:	2800      	cmp	r0, #0
 8005fb8:	f47f ad62 	bne.w	8005a80 <dir_register+0x648>
			if (wsect - fs->fatbase < fs->fsize) {		/* Is it in the FAT area? */
 8005fbc:	f8d5 3224 	ldr.w	r3, [r5, #548]	; 0x224
 8005fc0:	f8d5 221c 	ldr.w	r2, [r5, #540]	; 0x21c
 8005fc4:	eba8 0303 	sub.w	r3, r8, r3
 8005fc8:	4293      	cmp	r3, r2
			fs->wflag = 0;
 8005fca:	f885 0204 	strb.w	r0, [r5, #516]	; 0x204
			if (wsect - fs->fatbase < fs->fsize) {		/* Is it in the FAT area? */
 8005fce:	d211      	bcs.n	8005ff4 <dir_register+0xbbc>
				for (nf = fs->n_fats; nf >= 2; nf--) {	/* Reflect the change to all FAT copies */
 8005fd0:	f895 9203 	ldrb.w	r9, [r5, #515]	; 0x203
 8005fd4:	f1b9 0f01 	cmp.w	r9, #1
 8005fd8:	d90c      	bls.n	8005ff4 <dir_register+0xbbc>
					wsect += fs->fsize;
 8005fda:	f8d5 221c 	ldr.w	r2, [r5, #540]	; 0x21c
					disk_write(fs->drv, fs->win.d8, wsect, 1);
 8005fde:	2301      	movs	r3, #1
					wsect += fs->fsize;
 8005fe0:	4490      	add	r8, r2
					disk_write(fs->drv, fs->win.d8, wsect, 1);
 8005fe2:	4642      	mov	r2, r8
 8005fe4:	4629      	mov	r1, r5
 8005fe6:	f895 0201 	ldrb.w	r0, [r5, #513]	; 0x201
 8005fea:	f7fd fc73 	bl	80038d4 <disk_write>
				for (nf = fs->n_fats; nf >= 2; nf--) {	/* Reflect the change to all FAT copies */
 8005fee:	f109 39ff 	add.w	r9, r9, #4294967295
 8005ff2:	e7ef      	b.n	8005fd4 <dir_register+0xb9c>
 8005ff4:	f8db 5200 	ldr.w	r5, [fp, #512]	; 0x200
 8005ff8:	e770      	b.n	8005edc <dir_register+0xaa4>
 8005ffa:	bf00      	nop

08005ffc <follow_path>:
{
 8005ffc:	e92d 4ff0 	stmdb	sp!, {r4, r5, r6, r7, r8, r9, sl, fp, lr}
	if (*path == '/' || *path == '\\')		/* Strip heading separator if exist */
 8006000:	780b      	ldrb	r3, [r1, #0]
{
 8006002:	b083      	sub	sp, #12
	if (*path == '/' || *path == '\\')		/* Strip heading separator if exist */
 8006004:	2b2f      	cmp	r3, #47	; 0x2f
{
 8006006:	460d      	mov	r5, r1
 8006008:	4607      	mov	r7, r0
	if (*path == '/' || *path == '\\')		/* Strip heading separator if exist */
 800600a:	d05a      	beq.n	80060c2 <follow_path+0xc6>
 800600c:	2b5c      	cmp	r3, #92	; 0x5c
 800600e:	d058      	beq.n	80060c2 <follow_path+0xc6>
	dp->sclust = 0;							/* Always start from the root directory */
 8006010:	2400      	movs	r4, #0
 8006012:	f8c7 4208 	str.w	r4, [r7, #520]	; 0x208
	if ((UINT)*path < ' ') {				/* Null path name is the origin directory itself */
 8006016:	782b      	ldrb	r3, [r5, #0]
 8006018:	2b1f      	cmp	r3, #31
 800601a:	f240 8126 	bls.w	800626a <follow_path+0x26e>
 800601e:	4629      	mov	r1, r5
	for (p = *path; *p == '/' || *p == '\\'; p++) ;	/* Strip duplicated separator */
 8006020:	780b      	ldrb	r3, [r1, #0]
 8006022:	460d      	mov	r5, r1
 8006024:	2b2f      	cmp	r3, #47	; 0x2f
 8006026:	f101 0101 	add.w	r1, r1, #1
 800602a:	d0f9      	beq.n	8006020 <follow_path+0x24>
 800602c:	2b5c      	cmp	r3, #92	; 0x5c
 800602e:	d0f7      	beq.n	8006020 <follow_path+0x24>
		w = p[si++];					/* Get a character */
 8006030:	b298      	uxth	r0, r3
		if (w < ' ' || w == '/' || w == '\\') break;	/* Break on end of segment */
 8006032:	281f      	cmp	r0, #31
	lfn = dp->lfn;
 8006034:	f8d7 8220 	ldr.w	r8, [r7, #544]	; 0x220
		if (w < ' ' || w == '/' || w == '\\') break;	/* Break on end of segment */
 8006038:	d93f      	bls.n	80060ba <follow_path+0xbe>
 800603a:	282f      	cmp	r0, #47	; 0x2f
 800603c:	d03d      	beq.n	80060ba <follow_path+0xbe>
 800603e:	285c      	cmp	r0, #92	; 0x5c
 8006040:	d03b      	beq.n	80060ba <follow_path+0xbe>
	si = di = 0;
 8006042:	2400      	movs	r4, #0
 8006044:	f1a8 0602 	sub.w	r6, r8, #2
 8006048:	46a1      	mov	r9, r4
		if (w < ' ' || w == '/' || w == '\\') break;	/* Break on end of segment */
 800604a:	46b2      	mov	sl, r6
		w = p[si++];					/* Get a character */
 800604c:	2101      	movs	r1, #1
 800604e:	e010      	b.n	8006072 <follow_path+0x76>
		lfn[di++] = w;					/* Store the Unicode character */
 8006050:	f82a 0f02 	strh.w	r0, [sl, #2]!
		w = p[si++];					/* Get a character */
 8006054:	f815 3009 	ldrb.w	r3, [r5, r9]
		lfn[di++] = w;					/* Store the Unicode character */
 8006058:	3401      	adds	r4, #1
		w = p[si++];					/* Get a character */
 800605a:	b298      	uxth	r0, r3
		if (w < ' ' || w == '/' || w == '\\') break;	/* Break on end of segment */
 800605c:	281f      	cmp	r0, #31
		w = p[si++];					/* Get a character */
 800605e:	f109 0101 	add.w	r1, r9, #1
		if (w < ' ' || w == '/' || w == '\\') break;	/* Break on end of segment */
 8006062:	f240 80fe 	bls.w	8006262 <follow_path+0x266>
 8006066:	282f      	cmp	r0, #47	; 0x2f
 8006068:	d035      	beq.n	80060d6 <follow_path+0xda>
 800606a:	285c      	cmp	r0, #92	; 0x5c
 800606c:	d033      	beq.n	80060d6 <follow_path+0xda>
		if (di >= _MAX_LFN)				/* Reject too long name */
 800606e:	2cff      	cmp	r4, #255	; 0xff
 8006070:	d023      	beq.n	80060ba <follow_path+0xbe>
		if (IsDBCS1(w)) {				/* Check if it is a DBC 1st byte (always false on SBCS cfg) */
 8006072:	337f      	adds	r3, #127	; 0x7f
 8006074:	b2db      	uxtb	r3, r3
 8006076:	2b7d      	cmp	r3, #125	; 0x7d
 8006078:	d82b      	bhi.n	80060d2 <follow_path+0xd6>
			b = (BYTE)p[si++];			/* Get 2nd byte */
 800607a:	5c6b      	ldrb	r3, [r5, r1]
 800607c:	f109 0902 	add.w	r9, r9, #2
			if (!IsDBCS2(b))
 8006080:	f023 0220 	bic.w	r2, r3, #32
 8006084:	3a41      	subs	r2, #65	; 0x41
			w = (w << 8) + b;			/* Create a DBC */
 8006086:	eb03 2000 	add.w	r0, r3, r0, lsl #8
			if (!IsDBCS2(b))
 800608a:	2a19      	cmp	r2, #25
			w = (w << 8) + b;			/* Create a DBC */
 800608c:	b280      	uxth	r0, r0
			if (!IsDBCS2(b))
 800608e:	d903      	bls.n	8006098 <follow_path+0x9c>
 8006090:	337f      	adds	r3, #127	; 0x7f
 8006092:	b2db      	uxtb	r3, r3
 8006094:	2b7d      	cmp	r3, #125	; 0x7d
 8006096:	d810      	bhi.n	80060ba <follow_path+0xbe>
		w = ff_convert(w, 1);			/* Convert ANSI/OEM to Unicode */
 8006098:	2101      	movs	r1, #1
 800609a:	f001 fbed 	bl	8007878 <ff_convert>
		if (!w) return FR_INVALID_NAME;	/* Reject invalid code */
 800609e:	b160      	cbz	r0, 80060ba <follow_path+0xbe>
		if (w < 0x80 && chk_chr("\"*:<>\?|\x7F", w)) /* Reject illegal characters for LFN */
 80060a0:	287f      	cmp	r0, #127	; 0x7f
 80060a2:	d8d5      	bhi.n	8006050 <follow_path+0x54>
	while (*str && *str != chr) str++;
 80060a4:	2822      	cmp	r0, #34	; 0x22
 80060a6:	d008      	beq.n	80060ba <follow_path+0xbe>
 80060a8:	232a      	movs	r3, #42	; 0x2a
 80060aa:	4a9a      	ldr	r2, [pc, #616]	; (8006314 <follow_path+0x318>)
 80060ac:	e003      	b.n	80060b6 <follow_path+0xba>
 80060ae:	f812 3f01 	ldrb.w	r3, [r2, #1]!
 80060b2:	2b00      	cmp	r3, #0
 80060b4:	d0cc      	beq.n	8006050 <follow_path+0x54>
 80060b6:	4298      	cmp	r0, r3
 80060b8:	d1f9      	bne.n	80060ae <follow_path+0xb2>
	if (!di) return FR_INVALID_NAME;	/* Reject nul string */
 80060ba:	2006      	movs	r0, #6
}
 80060bc:	b003      	add	sp, #12
 80060be:	e8bd 8ff0 	ldmia.w	sp!, {r4, r5, r6, r7, r8, r9, sl, fp, pc}
	dp->sclust = 0;							/* Always start from the root directory */
 80060c2:	2400      	movs	r4, #0
		path++;
 80060c4:	3501      	adds	r5, #1
	dp->sclust = 0;							/* Always start from the root directory */
 80060c6:	f8c7 4208 	str.w	r4, [r7, #520]	; 0x208
	if ((UINT)*path < ' ') {				/* Null path name is the origin directory itself */
 80060ca:	782b      	ldrb	r3, [r5, #0]
 80060cc:	2b1f      	cmp	r3, #31
 80060ce:	d8a6      	bhi.n	800601e <follow_path+0x22>
 80060d0:	e0cb      	b.n	800626a <follow_path+0x26e>
		if (IsDBCS1(w)) {				/* Check if it is a DBC 1st byte (always false on SBCS cfg) */
 80060d2:	4689      	mov	r9, r1
 80060d4:	e7e0      	b.n	8006098 <follow_path+0x9c>
	cf = (w < ' ') ? NS_LAST : 0;		/* Set last segment flag if end of path */
 80060d6:	f04f 0a00 	mov.w	sl, #0
	*path = &p[si];						/* Return pointer to the next segment */
 80060da:	440d      	add	r5, r1
 80060dc:	eb08 0244 	add.w	r2, r8, r4, lsl #1
		w = lfn[di - 1];
 80060e0:	f832 3d02 	ldrh.w	r3, [r2, #-2]!
		if (w != ' ' && w != '.') break;
 80060e4:	2b20      	cmp	r3, #32
 80060e6:	d001      	beq.n	80060ec <follow_path+0xf0>
 80060e8:	2b2e      	cmp	r3, #46	; 0x2e
 80060ea:	d102      	bne.n	80060f2 <follow_path+0xf6>
	while (di) {						/* Strip trailing spaces and dots */
 80060ec:	3c01      	subs	r4, #1
 80060ee:	d1f7      	bne.n	80060e0 <follow_path+0xe4>
 80060f0:	e7e3      	b.n	80060ba <follow_path+0xbe>
		*d++ = (BYTE)val;
 80060f2:	2220      	movs	r2, #32
 80060f4:	f04f 3120 	mov.w	r1, #538976288	; 0x20202020
	lfn[di] = 0;						/* LFN is created */
 80060f8:	f04f 0900 	mov.w	r9, #0
	mem_set(dp->fn, ' ', 11);
 80060fc:	f8d7 3218 	ldr.w	r3, [r7, #536]	; 0x218
	lfn[di] = 0;						/* LFN is created */
 8006100:	f828 9014 	strh.w	r9, [r8, r4, lsl #1]
		*d++ = (BYTE)val;
 8006104:	6019      	str	r1, [r3, #0]
 8006106:	6059      	str	r1, [r3, #4]
 8006108:	721a      	strb	r2, [r3, #8]
 800610a:	725a      	strb	r2, [r3, #9]
 800610c:	729a      	strb	r2, [r3, #10]
	lfn[di] = 0;						/* LFN is created */
 800610e:	eb08 0344 	add.w	r3, r8, r4, lsl #1
 8006112:	e001      	b.n	8006118 <follow_path+0x11c>
	for (si = 0; lfn[si] == ' ' || lfn[si] == '.'; si++) ;	/* Strip leading spaces and dots */
 8006114:	f109 0901 	add.w	r9, r9, #1
 8006118:	f836 0f02 	ldrh.w	r0, [r6, #2]!
 800611c:	2820      	cmp	r0, #32
 800611e:	d0f9      	beq.n	8006114 <follow_path+0x118>
 8006120:	282e      	cmp	r0, #46	; 0x2e
 8006122:	d0f7      	beq.n	8006114 <follow_path+0x118>
	if (si) cf |= NS_LOSS | NS_LFN;
 8006124:	f1b9 0f00 	cmp.w	r9, #0
 8006128:	d001      	beq.n	800612e <follow_path+0x132>
 800612a:	f04a 0a03 	orr.w	sl, sl, #3
	while (di && lfn[di - 1] != '.') di--;	/* Find extension (di<=si: no extension) */
 800612e:	f833 2d02 	ldrh.w	r2, [r3, #-2]!
 8006132:	2a2e      	cmp	r2, #46	; 0x2e
 8006134:	d001      	beq.n	800613a <follow_path+0x13e>
 8006136:	3c01      	subs	r4, #1
 8006138:	d1f9      	bne.n	800612e <follow_path+0x132>
				cf |= NS_LOSS | NS_LFN; i = ni; continue;
 800613a:	f04f 0b00 	mov.w	fp, #0
 800613e:	2308      	movs	r3, #8
 8006140:	465e      	mov	r6, fp
		w = lfn[si++];					/* Get an LFN character */
 8006142:	f109 0901 	add.w	r9, r9, #1
		if (!w) break;					/* Break on end of the LFN */
 8006146:	b328      	cbz	r0, 8006194 <follow_path+0x198>
		if (w == ' ' || (w == '.' && si != di)) {	/* Remove spaces and dots */
 8006148:	2820      	cmp	r0, #32
 800614a:	d071      	beq.n	8006230 <follow_path+0x234>
 800614c:	282e      	cmp	r0, #46	; 0x2e
 800614e:	d072      	beq.n	8006236 <follow_path+0x23a>
		if (i >= ni || si == di) {		/* Extension or end of SFN */
 8006150:	459b      	cmp	fp, r3
 8006152:	d27b      	bcs.n	800624c <follow_path+0x250>
 8006154:	45a1      	cmp	r9, r4
 8006156:	d070      	beq.n	800623a <follow_path+0x23e>
		if (w >= 0x80) {				/* Non ASCII character */
 8006158:	287f      	cmp	r0, #127	; 0x7f
 800615a:	f200 808f 	bhi.w	800627c <follow_path+0x280>
	while (*str && *str != chr) str++;
 800615e:	282b      	cmp	r0, #43	; 0x2b
 8006160:	d009      	beq.n	8006176 <follow_path+0x17a>
 8006162:	222c      	movs	r2, #44	; 0x2c
 8006164:	496c      	ldr	r1, [pc, #432]	; (8006318 <follow_path+0x31c>)
 8006166:	e004      	b.n	8006172 <follow_path+0x176>
 8006168:	f811 2f01 	ldrb.w	r2, [r1, #1]!
 800616c:	2a00      	cmp	r2, #0
 800616e:	f000 80b3 	beq.w	80062d8 <follow_path+0x2dc>
 8006172:	4282      	cmp	r2, r0
 8006174:	d1f8      	bne.n	8006168 <follow_path+0x16c>
				w = '_'; cf |= NS_LOSS | NS_LFN;/* Lossy conversion */
 8006176:	465a      	mov	r2, fp
 8006178:	205f      	movs	r0, #95	; 0x5f
 800617a:	f04a 0a03 	orr.w	sl, sl, #3
		dp->fn[i++] = (BYTE)w;
 800617e:	f8d7 1218 	ldr.w	r1, [r7, #536]	; 0x218
 8006182:	f102 0b01 	add.w	fp, r2, #1
 8006186:	5488      	strb	r0, [r1, r2]
 8006188:	f838 0019 	ldrh.w	r0, [r8, r9, lsl #1]
		w = lfn[si++];					/* Get an LFN character */
 800618c:	f109 0901 	add.w	r9, r9, #1
		if (!w) break;					/* Break on end of the LFN */
 8006190:	2800      	cmp	r0, #0
 8006192:	d1d9      	bne.n	8006148 <follow_path+0x14c>
	if (dp->fn[0] == DDEM) dp->fn[0] = RDDEM;	/* If the first character collides with deleted mark, replace it with RDDEM */
 8006194:	f8d7 2218 	ldr.w	r2, [r7, #536]	; 0x218
 8006198:	7811      	ldrb	r1, [r2, #0]
 800619a:	29e5      	cmp	r1, #229	; 0xe5
 800619c:	d103      	bne.n	80061a6 <follow_path+0x1aa>
 800619e:	2105      	movs	r1, #5
 80061a0:	7011      	strb	r1, [r2, #0]
 80061a2:	f8d7 2218 	ldr.w	r2, [r7, #536]	; 0x218
	if (ni == 8) b <<= 2;
 80061a6:	2b08      	cmp	r3, #8
 80061a8:	bf04      	itt	eq
 80061aa:	00b6      	lsleq	r6, r6, #2
 80061ac:	b2f6      	uxtbeq	r6, r6
 80061ae:	f006 030c 	and.w	r3, r6, #12
	if ((b & 0x0C) == 0x0C || (b & 0x03) == 0x03)	/* Create LFN entry when there are composite capitals */
 80061b2:	2b0c      	cmp	r3, #12
 80061b4:	d052      	beq.n	800625c <follow_path+0x260>
 80061b6:	f006 0603 	and.w	r6, r6, #3
 80061ba:	2e03      	cmp	r6, #3
 80061bc:	d04e      	beq.n	800625c <follow_path+0x260>
	if (!(cf & NS_LFN)) {						/* When LFN is in 8.3 format without extended character, NT flags are created */
 80061be:	f01a 0f02 	tst.w	sl, #2
 80061c2:	d107      	bne.n	80061d4 <follow_path+0x1d8>
		if ((b & 0x03) == 0x01) cf |= NS_EXT;	/* NT flag (Extension has only small capital) */
 80061c4:	2e01      	cmp	r6, #1
 80061c6:	bf08      	it	eq
 80061c8:	f04a 0a10 	orreq.w	sl, sl, #16
		if ((b & 0x0C) == 0x04) cf |= NS_BODY;	/* NT flag (Filename has only small capital) */
 80061cc:	2b04      	cmp	r3, #4
 80061ce:	bf08      	it	eq
 80061d0:	f04a 0a08 	orreq.w	sl, sl, #8
	dp->fn[NSFLAG] = cf;	/* SFN is created */
 80061d4:	f882 a00b 	strb.w	sl, [r2, #11]
	res = dir_sdi(dp, 0);			/* Rewind directory object */
 80061d8:	2100      	movs	r1, #0
 80061da:	4638      	mov	r0, r7
 80061dc:	f7fe ff90 	bl	8005100 <dir_sdi>
	if (res != FR_OK) return res;
 80061e0:	b9d8      	cbnz	r0, 800621a <follow_path+0x21e>
 80061e2:	4638      	mov	r0, r7
 80061e4:	f7fe f874 	bl	80042d0 <dir_find.part.11>
			ns = dp->fn[NSFLAG];
 80061e8:	f8d7 3218 	ldr.w	r3, [r7, #536]	; 0x218
 80061ec:	7adb      	ldrb	r3, [r3, #11]
			if (res != FR_OK) {				/* Failed to find the object */
 80061ee:	b9b8      	cbnz	r0, 8006220 <follow_path+0x224>
			if (ns & NS_LAST) break;			/* Last segment matched. Function completed. */
 80061f0:	0759      	lsls	r1, r3, #29
 80061f2:	f53f af63 	bmi.w	80060bc <follow_path+0xc0>
			dir = dp->dir;						/* Follow the sub-directory */
 80061f6:	f8d7 3214 	ldr.w	r3, [r7, #532]	; 0x214
			if (!(dir[DIR_Attr] & AM_DIR)) {	/* It is not a sub-directory and cannot follow */
 80061fa:	7ada      	ldrb	r2, [r3, #11]
 80061fc:	06d2      	lsls	r2, r2, #27
 80061fe:	d55a      	bpl.n	80062b6 <follow_path+0x2ba>
			dp->sclust = ld_clust(dp->fs, dir);
 8006200:	f8d7 1200 	ldr.w	r1, [r7, #512]	; 0x200
	cl = LD_WORD(dir + DIR_FstClusLO);
 8006204:	8b5a      	ldrh	r2, [r3, #26]
	if (fs->fs_type == FS_FAT32)
 8006206:	f891 1200 	ldrb.w	r1, [r1, #512]	; 0x200
 800620a:	2903      	cmp	r1, #3
		cl |= (DWORD)LD_WORD(dir + DIR_FstClusHI) << 16;
 800620c:	bf04      	itt	eq
 800620e:	8a9b      	ldrheq	r3, [r3, #20]
 8006210:	ea42 4203 	orreq.w	r2, r2, r3, lsl #16
			dp->sclust = ld_clust(dp->fs, dir);
 8006214:	f8c7 2208 	str.w	r2, [r7, #520]	; 0x208
			res = create_name(dp, &path);	/* Get a segment name of the path */
 8006218:	e701      	b.n	800601e <follow_path+0x22>
			ns = dp->fn[NSFLAG];
 800621a:	f8d7 3218 	ldr.w	r3, [r7, #536]	; 0x218
 800621e:	7adb      	ldrb	r3, [r3, #11]
				if (res == FR_NO_FILE) {	/* Object is not found */
 8006220:	2804      	cmp	r0, #4
 8006222:	f47f af4b 	bne.w	80060bc <follow_path+0xc0>
						if (!(ns & NS_LAST)) res = FR_NO_PATH;	/* Adjust error code if not last segment */
 8006226:	f013 0f04 	tst.w	r3, #4
 800622a:	bf08      	it	eq
 800622c:	2005      	moveq	r0, #5
 800622e:	e745      	b.n	80060bc <follow_path+0xc0>
			cf |= NS_LOSS | NS_LFN; continue;
 8006230:	f04a 0a03 	orr.w	sl, sl, #3
 8006234:	e7a8      	b.n	8006188 <follow_path+0x18c>
		if (w == ' ' || (w == '.' && si != di)) {	/* Remove spaces and dots */
 8006236:	45a1      	cmp	r9, r4
 8006238:	d1fa      	bne.n	8006230 <follow_path+0x234>
			if (ni == 11) {				/* Long extension */
 800623a:	2b0b      	cmp	r3, #11
 800623c:	d03f      	beq.n	80062be <follow_path+0x2c2>
			b <<= 2; continue;
 800623e:	00b6      	lsls	r6, r6, #2
 8006240:	b2f6      	uxtb	r6, r6
 8006242:	46a1      	mov	r9, r4
			si = di; i = 8; ni = 11;	/* Enter extension section */
 8006244:	230b      	movs	r3, #11
 8006246:	f04f 0b08 	mov.w	fp, #8
 800624a:	e79d      	b.n	8006188 <follow_path+0x18c>
			if (ni == 11) {				/* Long extension */
 800624c:	2b0b      	cmp	r3, #11
 800624e:	d036      	beq.n	80062be <follow_path+0x2c2>
			if (si != di) cf |= NS_LOSS | NS_LFN;	/* Out of 8.3 format */
 8006250:	45a1      	cmp	r9, r4
 8006252:	d0f4      	beq.n	800623e <follow_path+0x242>
 8006254:	f04a 0a03 	orr.w	sl, sl, #3
			if (si > di) break;			/* No extension */
 8006258:	d89c      	bhi.n	8006194 <follow_path+0x198>
 800625a:	e7f0      	b.n	800623e <follow_path+0x242>
		cf |= NS_LFN;
 800625c:	f04a 0a02 	orr.w	sl, sl, #2
 8006260:	e7b8      	b.n	80061d4 <follow_path+0x1d8>
	*path = &p[si];						/* Return pointer to the next segment */
 8006262:	440d      	add	r5, r1
	cf = (w < ' ') ? NS_LAST : 0;		/* Set last segment flag if end of path */
 8006264:	f04f 0a04 	mov.w	sl, #4
 8006268:	e738      	b.n	80060dc <follow_path+0xe0>
		res = dir_sdi(dp, 0);
 800626a:	4621      	mov	r1, r4
 800626c:	4638      	mov	r0, r7
 800626e:	f7fe ff47 	bl	8005100 <dir_sdi>
		dp->dir = 0;
 8006272:	f8c7 4214 	str.w	r4, [r7, #532]	; 0x214
}
 8006276:	b003      	add	sp, #12
 8006278:	e8bd 8ff0 	ldmia.w	sp!, {r4, r5, r6, r7, r8, r9, sl, fp, pc}
 800627c:	9301      	str	r3, [sp, #4]
			w = ff_convert(ff_wtoupper(w), 0);	/* Upper converted Unicode -> OEM code */
 800627e:	f001 fbe3 	bl	8007a48 <ff_wtoupper>
 8006282:	2100      	movs	r1, #0
 8006284:	f001 faf8 	bl	8007878 <ff_convert>
		if (_DF1S && w >= 0x100) {		/* DBC (always false at SBCS cfg) */
 8006288:	28ff      	cmp	r0, #255	; 0xff
			cf |= NS_LFN;				/* Force create LFN entry */
 800628a:	f04a 0102 	orr.w	r1, sl, #2
		if (_DF1S && w >= 0x100) {		/* DBC (always false at SBCS cfg) */
 800628e:	9b01      	ldr	r3, [sp, #4]
 8006290:	d93a      	bls.n	8006308 <follow_path+0x30c>
			if (i >= ni - 1) {
 8006292:	1e5a      	subs	r2, r3, #1
 8006294:	4593      	cmp	fp, r2
 8006296:	d20a      	bcs.n	80062ae <follow_path+0x2b2>
			dp->fn[i++] = (BYTE)(w >> 8);
 8006298:	f8d7 2218 	ldr.w	r2, [r7, #536]	; 0x218
 800629c:	ea4f 2c10 	mov.w	ip, r0, lsr #8
 80062a0:	f802 c00b 	strb.w	ip, [r2, fp]
			cf |= NS_LFN;				/* Force create LFN entry */
 80062a4:	468a      	mov	sl, r1
			dp->fn[i++] = (BYTE)(w >> 8);
 80062a6:	f10b 0201 	add.w	r2, fp, #1
 80062aa:	b2c0      	uxtb	r0, r0
 80062ac:	e767      	b.n	800617e <follow_path+0x182>
				cf |= NS_LOSS | NS_LFN; i = ni; continue;
 80062ae:	f04a 0a03 	orr.w	sl, sl, #3
 80062b2:	469b      	mov	fp, r3
 80062b4:	e768      	b.n	8006188 <follow_path+0x18c>
				res = FR_NO_PATH; break;
 80062b6:	2005      	movs	r0, #5
}
 80062b8:	b003      	add	sp, #12
 80062ba:	e8bd 8ff0 	ldmia.w	sp!, {r4, r5, r6, r7, r8, r9, sl, fp, pc}
	if (dp->fn[0] == DDEM) dp->fn[0] = RDDEM;	/* If the first character collides with deleted mark, replace it with RDDEM */
 80062be:	f8d7 2218 	ldr.w	r2, [r7, #536]	; 0x218
				cf |= NS_LOSS | NS_LFN; break;
 80062c2:	f04a 0a03 	orr.w	sl, sl, #3
	if (dp->fn[0] == DDEM) dp->fn[0] = RDDEM;	/* If the first character collides with deleted mark, replace it with RDDEM */
 80062c6:	7813      	ldrb	r3, [r2, #0]
 80062c8:	2be5      	cmp	r3, #229	; 0xe5
 80062ca:	f47f af70 	bne.w	80061ae <follow_path+0x1b2>
 80062ce:	2305      	movs	r3, #5
 80062d0:	7013      	strb	r3, [r2, #0]
 80062d2:	f8d7 2218 	ldr.w	r2, [r7, #536]	; 0x218
 80062d6:	e76a      	b.n	80061ae <follow_path+0x1b2>
				if (IsUpper(w)) {		/* ASCII large capital */
 80062d8:	f1a0 0241 	sub.w	r2, r0, #65	; 0x41
 80062dc:	b292      	uxth	r2, r2
 80062de:	2a19      	cmp	r2, #25
 80062e0:	d804      	bhi.n	80062ec <follow_path+0x2f0>
					b |= 2;
 80062e2:	f046 0602 	orr.w	r6, r6, #2
 80062e6:	b2c0      	uxtb	r0, r0
 80062e8:	465a      	mov	r2, fp
 80062ea:	e748      	b.n	800617e <follow_path+0x182>
					if (IsLower(w)) {	/* ASCII small capital */
 80062ec:	f1a0 0261 	sub.w	r2, r0, #97	; 0x61
 80062f0:	b292      	uxth	r2, r2
 80062f2:	2a19      	cmp	r2, #25
 80062f4:	d805      	bhi.n	8006302 <follow_path+0x306>
						b |= 1; w -= 0x20;
 80062f6:	3820      	subs	r0, #32
 80062f8:	465a      	mov	r2, fp
 80062fa:	b2c0      	uxtb	r0, r0
 80062fc:	f046 0601 	orr.w	r6, r6, #1
 8006300:	e73d      	b.n	800617e <follow_path+0x182>
 8006302:	b2c0      	uxtb	r0, r0
					if (IsLower(w)) {	/* ASCII small capital */
 8006304:	465a      	mov	r2, fp
 8006306:	e73a      	b.n	800617e <follow_path+0x182>
			cf |= NS_LFN;				/* Force create LFN entry */
 8006308:	468a      	mov	sl, r1
			if (!w || chk_chr("+,;=[]", w)) {	/* Replace illegal characters for SFN */
 800630a:	2800      	cmp	r0, #0
 800630c:	f43f af33 	beq.w	8006176 <follow_path+0x17a>
 8006310:	e725      	b.n	800615e <follow_path+0x162>
 8006312:	bf00      	nop
 8006314:	08009ae5 	.word	0x08009ae5
 8006318:	08009af1 	.word	0x08009af1

0800631c <f_mount>:
{
 800631c:	e92d 47f0 	stmdb	sp!, {r4, r5, r6, r7, r8, r9, sl, lr}
 8006320:	b084      	sub	sp, #16
	if (*path) {	/* If the pointer is not a null */
 8006322:	2900      	cmp	r1, #0
 8006324:	d04f      	beq.n	80063c6 <f_mount+0xaa>
 8006326:	460c      	mov	r4, r1
		for (tt = *path; (UINT)*tt >= (_USE_LFN ? ' ' : '!') && *tt != ':'; tt++) ;	/* Find ':' in the path */
 8006328:	7809      	ldrb	r1, [r1, #0]
 800632a:	4605      	mov	r5, r0
 800632c:	291f      	cmp	r1, #31
 800632e:	4617      	mov	r7, r2
 8006330:	d909      	bls.n	8006346 <f_mount+0x2a>
 8006332:	293a      	cmp	r1, #58	; 0x3a
 8006334:	d047      	beq.n	80063c6 <f_mount+0xaa>
 8006336:	4622      	mov	r2, r4
 8006338:	e001      	b.n	800633e <f_mount+0x22>
 800633a:	2b3a      	cmp	r3, #58	; 0x3a
 800633c:	d03c      	beq.n	80063b8 <f_mount+0x9c>
 800633e:	f812 3f01 	ldrb.w	r3, [r2, #1]!
 8006342:	2b1f      	cmp	r3, #31
 8006344:	d8f9      	bhi.n	800633a <f_mount+0x1e>
		vol = 0;		/* Drive 0 */
 8006346:	f04f 0800 	mov.w	r8, #0
	cfs = FatFs[vol];					/* Pointer to fs object */
 800634a:	f8df 92e0 	ldr.w	r9, [pc, #736]	; 800662c <f_mount+0x310>
 800634e:	f859 6028 	ldr.w	r6, [r9, r8, lsl #2]
	if (cfs) {
 8006352:	b196      	cbz	r6, 800637a <f_mount+0x5e>
		if (Files[i].fs == fs) Files[i].fs = 0;
 8006354:	4bb2      	ldr	r3, [pc, #712]	; (8006620 <f_mount+0x304>)
		if (!ff_del_syncobj(cfs->sobj)) return FR_INT_ERR;
 8006356:	f8d6 020c 	ldr.w	r0, [r6, #524]	; 0x20c
		if (Files[i].fs == fs) Files[i].fs = 0;
 800635a:	681a      	ldr	r2, [r3, #0]
 800635c:	4296      	cmp	r6, r2
 800635e:	bf04      	itt	eq
 8006360:	2200      	moveq	r2, #0
 8006362:	601a      	streq	r2, [r3, #0]
 8006364:	68da      	ldr	r2, [r3, #12]
 8006366:	4296      	cmp	r6, r2
 8006368:	bf04      	itt	eq
 800636a:	2200      	moveq	r2, #0
 800636c:	60da      	streq	r2, [r3, #12]
		if (!ff_del_syncobj(cfs->sobj)) return FR_INT_ERR;
 800636e:	f001 fb93 	bl	8007a98 <ff_del_syncobj>
 8006372:	b1e0      	cbz	r0, 80063ae <f_mount+0x92>
		cfs->fs_type = 0;				/* Clear old fs object */
 8006374:	2300      	movs	r3, #0
 8006376:	f886 3200 	strb.w	r3, [r6, #512]	; 0x200
	if (fs) {
 800637a:	b18d      	cbz	r5, 80063a0 <f_mount+0x84>
		fs->fs_type = 0;				/* Clear new fs object */
 800637c:	2600      	movs	r6, #0
		if (!ff_cre_syncobj((BYTE)vol, &fs->sobj)) return FR_INT_ERR;
 800637e:	f505 7103 	add.w	r1, r5, #524	; 0x20c
		fs->fs_type = 0;				/* Clear new fs object */
 8006382:	f885 6200 	strb.w	r6, [r5, #512]	; 0x200
		if (!ff_cre_syncobj((BYTE)vol, &fs->sobj)) return FR_INT_ERR;
 8006386:	fa5f f088 	uxtb.w	r0, r8
 800638a:	f001 fb75 	bl	8007a78 <ff_cre_syncobj>
 800638e:	b170      	cbz	r0, 80063ae <f_mount+0x92>
	if (!fs || opt != 1) return FR_OK;	/* Do not mount now, it will be mounted later */
 8006390:	2f01      	cmp	r7, #1
	FatFs[vol] = fs;					/* Register new fs object */
 8006392:	f849 5028 	str.w	r5, [r9, r8, lsl #2]
	if (!fs || opt != 1) return FR_OK;	/* Do not mount now, it will be mounted later */
 8006396:	d01b      	beq.n	80063d0 <f_mount+0xb4>
}
 8006398:	4630      	mov	r0, r6
 800639a:	b004      	add	sp, #16
 800639c:	e8bd 87f0 	ldmia.w	sp!, {r4, r5, r6, r7, r8, r9, sl, pc}
	if (!fs || opt != 1) return FR_OK;	/* Do not mount now, it will be mounted later */
 80063a0:	462e      	mov	r6, r5
}
 80063a2:	4630      	mov	r0, r6
	FatFs[vol] = fs;					/* Register new fs object */
 80063a4:	f849 5028 	str.w	r5, [r9, r8, lsl #2]
}
 80063a8:	b004      	add	sp, #16
 80063aa:	e8bd 87f0 	ldmia.w	sp!, {r4, r5, r6, r7, r8, r9, sl, pc}
		if (!ff_del_syncobj(cfs->sobj)) return FR_INT_ERR;
 80063ae:	2602      	movs	r6, #2
}
 80063b0:	4630      	mov	r0, r6
 80063b2:	b004      	add	sp, #16
 80063b4:	e8bd 87f0 	ldmia.w	sp!, {r4, r5, r6, r7, r8, r9, sl, pc}
			i = *tp++ - '0'; 
 80063b8:	1c63      	adds	r3, r4, #1
			if (i < 10 && tp == tt) {	/* Is there a numeric drive id? */
 80063ba:	429a      	cmp	r2, r3
			i = *tp++ - '0'; 
 80063bc:	f1a1 0830 	sub.w	r8, r1, #48	; 0x30
			if (i < 10 && tp == tt) {	/* Is there a numeric drive id? */
 80063c0:	d101      	bne.n	80063c6 <f_mount+0xaa>
				if (i < _VOLUMES) {	/* If a drive id is found, get the value and strip it */
 80063c2:	2930      	cmp	r1, #48	; 0x30
 80063c4:	d0c1      	beq.n	800634a <f_mount+0x2e>
 80063c6:	260b      	movs	r6, #11
}
 80063c8:	4630      	mov	r0, r6
 80063ca:	b004      	add	sp, #16
 80063cc:	e8bd 87f0 	ldmia.w	sp!, {r4, r5, r6, r7, r8, r9, sl, pc}
		for (tt = *path; (UINT)*tt >= (_USE_LFN ? ' ' : '!') && *tt != ':'; tt++) ;	/* Find ':' in the path */
 80063d0:	7821      	ldrb	r1, [r4, #0]
 80063d2:	291f      	cmp	r1, #31
 80063d4:	d90b      	bls.n	80063ee <f_mount+0xd2>
 80063d6:	293a      	cmp	r1, #58	; 0x3a
 80063d8:	bf18      	it	ne
 80063da:	4622      	movne	r2, r4
 80063dc:	d102      	bne.n	80063e4 <f_mount+0xc8>
 80063de:	e7f2      	b.n	80063c6 <f_mount+0xaa>
 80063e0:	2b3a      	cmp	r3, #58	; 0x3a
 80063e2:	d01c      	beq.n	800641e <f_mount+0x102>
 80063e4:	f812 3f01 	ldrb.w	r3, [r2, #1]!
 80063e8:	2b1f      	cmp	r3, #31
 80063ea:	d8f9      	bhi.n	80063e0 <f_mount+0xc4>
		vol = 0;		/* Drive 0 */
 80063ec:	2600      	movs	r6, #0
	if (!fs) return FR_NOT_ENABLED;		/* Is the file system object available? */
 80063ee:	2d00      	cmp	r5, #0
 80063f0:	d07b      	beq.n	80064ea <f_mount+0x1ce>
	return ff_req_grant(fs->sobj);
 80063f2:	f8d5 020c 	ldr.w	r0, [r5, #524]	; 0x20c
 80063f6:	f001 fb55 	bl	8007aa4 <ff_req_grant>
	ENTER_FF(fs);						/* Lock the volume */
 80063fa:	b170      	cbz	r0, 800641a <f_mount+0xfe>
	if (fs->fs_type) {					/* If the volume has been mounted */
 80063fc:	f895 3200 	ldrb.w	r3, [r5, #512]	; 0x200
 8006400:	b1ab      	cbz	r3, 800642e <f_mount+0x112>
		stat = disk_status(fs->drv);
 8006402:	f895 0201 	ldrb.w	r0, [r5, #513]	; 0x201
 8006406:	f7fd fa3d 	bl	8003884 <disk_status>
		if (!(stat & STA_NOINIT)) {		/* and the physical drive is kept initialized */
 800640a:	07c3      	lsls	r3, r0, #31
 800640c:	d40f      	bmi.n	800642e <f_mount+0x112>
 800640e:	2600      	movs	r6, #0
		ff_rel_grant(fs->sobj);
 8006410:	f8d5 020c 	ldr.w	r0, [r5, #524]	; 0x20c
 8006414:	f001 fb50 	bl	8007ab8 <ff_rel_grant>
 8006418:	e7be      	b.n	8006398 <f_mount+0x7c>
	ENTER_FF(fs);						/* Lock the volume */
 800641a:	260f      	movs	r6, #15
 800641c:	e7bc      	b.n	8006398 <f_mount+0x7c>
			i = *tp++ - '0'; 
 800641e:	3401      	adds	r4, #1
			if (i < 10 && tp == tt) {	/* Is there a numeric drive id? */
 8006420:	42a2      	cmp	r2, r4
			i = *tp++ - '0'; 
 8006422:	f1a1 0630 	sub.w	r6, r1, #48	; 0x30
			if (i < 10 && tp == tt) {	/* Is there a numeric drive id? */
 8006426:	d1ce      	bne.n	80063c6 <f_mount+0xaa>
				if (i < _VOLUMES) {	/* If a drive id is found, get the value and strip it */
 8006428:	2930      	cmp	r1, #48	; 0x30
 800642a:	d0e0      	beq.n	80063ee <f_mount+0xd2>
 800642c:	e7cb      	b.n	80063c6 <f_mount+0xaa>
	fs->fs_type = 0;					/* Clear the file system object */
 800642e:	2300      	movs	r3, #0
	fs->drv = LD2PD(vol);				/* Bind the logical drive and a physical drive */
 8006430:	b2f0      	uxtb	r0, r6
 8006432:	f885 0201 	strb.w	r0, [r5, #513]	; 0x201
	fs->fs_type = 0;					/* Clear the file system object */
 8006436:	f885 3200 	strb.w	r3, [r5, #512]	; 0x200
	stat = disk_initialize(fs->drv);	/* Initialize the physical drive */
 800643a:	f7fd fa2d 	bl	8003898 <disk_initialize>
	if (stat & STA_NOINIT)				/* Check if the initialization succeeded */
 800643e:	f000 0001 	and.w	r0, r0, #1
 8006442:	f000 02ff 	and.w	r2, r0, #255	; 0xff
 8006446:	2800      	cmp	r0, #0
 8006448:	d14d      	bne.n	80064e6 <f_mount+0x1ca>
	fs->wflag = 0; fs->winsect = 0xFFFFFFFF;	/* Invaidate window */
 800644a:	f04f 34ff 	mov.w	r4, #4294967295
 800644e:	f885 0204 	strb.w	r0, [r5, #516]	; 0x204
 8006452:	f8c5 4230 	str.w	r4, [r5, #560]	; 0x230
			if (disk_read(fs->drv, fs->win.d8, sector, 1) != RES_OK) {
 8006456:	2301      	movs	r3, #1
 8006458:	4629      	mov	r1, r5
 800645a:	f895 0201 	ldrb.w	r0, [r5, #513]	; 0x201
 800645e:	f7fd fa2b 	bl	80038b8 <disk_read>
 8006462:	b118      	cbz	r0, 800646c <f_mount+0x150>
			fs->winsect = sector;
 8006464:	f8c5 4230 	str.w	r4, [r5, #560]	; 0x230
 8006468:	2601      	movs	r6, #1
 800646a:	e7d1      	b.n	8006410 <f_mount+0xf4>
	if (LD_WORD(&fs->win.d8[BS_55AA]) != 0xAA55)	/* Check boot record signature (always placed at offset 510 even if the sector size is >512) */
 800646c:	f64a 2355 	movw	r3, #43605	; 0xaa55
 8006470:	f8b5 21fe 	ldrh.w	r2, [r5, #510]	; 0x1fe
			fs->winsect = sector;
 8006474:	f8c5 0230 	str.w	r0, [r5, #560]	; 0x230
	if (LD_WORD(&fs->win.d8[BS_55AA]) != 0xAA55)	/* Check boot record signature (always placed at offset 510 even if the sector size is >512) */
 8006478:	429a      	cmp	r2, r3
 800647a:	d132      	bne.n	80064e2 <f_mount+0x1c6>
	if ((LD_DWORD(&fs->win.d8[BS_FilSysType]) & 0xFFFFFF) == 0x544146)		/* Check "FAT" string */
 800647c:	f8d5 3036 	ldr.w	r3, [r5, #54]	; 0x36
 8006480:	4c68      	ldr	r4, [pc, #416]	; (8006624 <f_mount+0x308>)
 8006482:	f023 417f 	bic.w	r1, r3, #4278190080	; 0xff000000
 8006486:	42a1      	cmp	r1, r4
 8006488:	d031      	beq.n	80064ee <f_mount+0x1d2>
	if ((LD_DWORD(&fs->win.d8[BS_FilSysType32]) & 0xFFFFFF) == 0x544146)	/* Check "FAT" string */
 800648a:	f8d5 1052 	ldr.w	r1, [r5, #82]	; 0x52
 800648e:	f021 417f 	bic.w	r1, r1, #4278190080	; 0xff000000
 8006492:	42a1      	cmp	r1, r4
 8006494:	d02b      	beq.n	80064ee <f_mount+0x1d2>
			br[i] = pt[4] ? LD_DWORD(&pt[8]) : 0;
 8006496:	f895 41c2 	ldrb.w	r4, [r5, #450]	; 0x1c2
 800649a:	b10c      	cbz	r4, 80064a0 <f_mount+0x184>
 800649c:	f8d5 41c6 	ldr.w	r4, [r5, #454]	; 0x1c6
 80064a0:	f895 11d2 	ldrb.w	r1, [r5, #466]	; 0x1d2
 80064a4:	b109      	cbz	r1, 80064aa <f_mount+0x18e>
 80064a6:	f8d5 11d6 	ldr.w	r1, [r5, #470]	; 0x1d6
 80064aa:	f895 01e2 	ldrb.w	r0, [r5, #482]	; 0x1e2
 80064ae:	9101      	str	r1, [sp, #4]
 80064b0:	b108      	cbz	r0, 80064b6 <f_mount+0x19a>
 80064b2:	f8d5 01e6 	ldr.w	r0, [r5, #486]	; 0x1e6
 80064b6:	f895 11f2 	ldrb.w	r1, [r5, #498]	; 0x1f2
 80064ba:	9002      	str	r0, [sp, #8]
 80064bc:	b109      	cbz	r1, 80064c2 <f_mount+0x1a6>
 80064be:	f8d5 11f6 	ldr.w	r1, [r5, #502]	; 0x1f6
 80064c2:	9103      	str	r1, [sp, #12]
			fmt = bsect ? check_fs(fs, bsect) : 2;	/* Check the partition */
 80064c4:	2c00      	cmp	r4, #0
 80064c6:	f040 810a 	bne.w	80066de <f_mount+0x3c2>
			bsect = br[i];
 80064ca:	9c01      	ldr	r4, [sp, #4]
			fmt = bsect ? check_fs(fs, bsect) : 2;	/* Check the partition */
 80064cc:	2c00      	cmp	r4, #0
 80064ce:	f040 80db 	bne.w	8006688 <f_mount+0x36c>
			bsect = br[i];
 80064d2:	9c02      	ldr	r4, [sp, #8]
			fmt = bsect ? check_fs(fs, bsect) : 2;	/* Check the partition */
 80064d4:	2c00      	cmp	r4, #0
 80064d6:	f040 80ab 	bne.w	8006630 <f_mount+0x314>
			bsect = br[i];
 80064da:	9c03      	ldr	r4, [sp, #12]
			fmt = bsect ? check_fs(fs, bsect) : 2;	/* Check the partition */
 80064dc:	2c00      	cmp	r4, #0
 80064de:	f040 8088 	bne.w	80065f2 <f_mount+0x2d6>
 80064e2:	260d      	movs	r6, #13
 80064e4:	e794      	b.n	8006410 <f_mount+0xf4>
 80064e6:	2603      	movs	r6, #3
 80064e8:	e792      	b.n	8006410 <f_mount+0xf4>
	if (!fs) return FR_NOT_ENABLED;		/* Is the file system object available? */
 80064ea:	260c      	movs	r6, #12
 80064ec:	e754      	b.n	8006398 <f_mount+0x7c>
	bsect = 0;
 80064ee:	4604      	mov	r4, r0
	if (LD_WORD(fs->win.d8 + BPB_BytsPerSec) != SS(fs))	/* (BPB_BytsPerSec must be equal to the physical sector size) */
 80064f0:	f8b5 300b 	ldrh.w	r3, [r5, #11]
 80064f4:	f5b3 7f00 	cmp.w	r3, #512	; 0x200
 80064f8:	d1f3      	bne.n	80064e2 <f_mount+0x1c6>
	fasize = LD_WORD(fs->win.d8 + BPB_FATSz16);			/* Number of sectors per FAT */
 80064fa:	f8b5 c016 	ldrh.w	ip, [r5, #22]
	if (!fasize) fasize = LD_DWORD(fs->win.d8 + BPB_FATSz32);
 80064fe:	f1bc 0f00 	cmp.w	ip, #0
 8006502:	d101      	bne.n	8006508 <f_mount+0x1ec>
 8006504:	f8d5 c024 	ldr.w	ip, [r5, #36]	; 0x24
	fs->n_fats = fs->win.d8[BPB_NumFATs];					/* Number of FAT copies */
 8006508:	f895 e010 	ldrb.w	lr, [r5, #16]
	fs->fsize = fasize;
 800650c:	f8c5 c21c 	str.w	ip, [r5, #540]	; 0x21c
	if (fs->n_fats != 1 && fs->n_fats != 2)				/* (Must be 1 or 2) */
 8006510:	f10e 33ff 	add.w	r3, lr, #4294967295
 8006514:	2b01      	cmp	r3, #1
	fs->n_fats = fs->win.d8[BPB_NumFATs];					/* Number of FAT copies */
 8006516:	f885 e203 	strb.w	lr, [r5, #515]	; 0x203
	if (fs->n_fats != 1 && fs->n_fats != 2)				/* (Must be 1 or 2) */
 800651a:	d8e2      	bhi.n	80064e2 <f_mount+0x1c6>
	fs->csize = fs->win.d8[BPB_SecPerClus];				/* Number of sectors per cluster */
 800651c:	7b68      	ldrb	r0, [r5, #13]
 800651e:	f885 0202 	strb.w	r0, [r5, #514]	; 0x202
	if (!fs->csize || (fs->csize & (fs->csize - 1)))	/* (Must be power of 2) */
 8006522:	2800      	cmp	r0, #0
 8006524:	d0dd      	beq.n	80064e2 <f_mount+0x1c6>
 8006526:	1e43      	subs	r3, r0, #1
 8006528:	4203      	tst	r3, r0
 800652a:	d1da      	bne.n	80064e2 <f_mount+0x1c6>
	fs->n_rootdir = LD_WORD(fs->win.d8 + BPB_RootEntCnt);	/* Number of root directory entries */
 800652c:	f8b5 8011 	ldrh.w	r8, [r5, #17]
	if (fs->n_rootdir % (SS(fs) / SZ_DIRE))				/* (Must be sector aligned) */
 8006530:	f018 0f0f 	tst.w	r8, #15
	fs->n_rootdir = LD_WORD(fs->win.d8 + BPB_RootEntCnt);	/* Number of root directory entries */
 8006534:	f8a5 8208 	strh.w	r8, [r5, #520]	; 0x208
	if (fs->n_rootdir % (SS(fs) / SZ_DIRE))				/* (Must be sector aligned) */
 8006538:	d1d3      	bne.n	80064e2 <f_mount+0x1c6>
	tsect = LD_WORD(fs->win.d8 + BPB_TotSec16);			/* Number of sectors on the volume */
 800653a:	f8b5 3013 	ldrh.w	r3, [r5, #19]
	if (!tsect) tsect = LD_DWORD(fs->win.d8 + BPB_TotSec32);
 800653e:	b903      	cbnz	r3, 8006542 <f_mount+0x226>
 8006540:	6a2b      	ldr	r3, [r5, #32]
	nrsv = LD_WORD(fs->win.d8 + BPB_RsvdSecCnt);			/* Number of reserved sectors */
 8006542:	89ee      	ldrh	r6, [r5, #14]
	if (!nrsv) return FR_NO_FILESYSTEM;					/* (Must not be 0) */
 8006544:	2e00      	cmp	r6, #0
 8006546:	d0cc      	beq.n	80064e2 <f_mount+0x1c6>
	fasize *= fs->n_fats;								/* Number of sectors for FAT area */
 8006548:	fb0c fe0e 	mul.w	lr, ip, lr
	sysect = nrsv + fasize + fs->n_rootdir / (SS(fs) / SZ_DIRE);	/* RSV + FAT + DIR */
 800654c:	eb06 1118 	add.w	r1, r6, r8, lsr #4
 8006550:	4471      	add	r1, lr
	if (tsect < sysect) return FR_NO_FILESYSTEM;		/* (Invalid volume size) */
 8006552:	4299      	cmp	r1, r3
 8006554:	d8c5      	bhi.n	80064e2 <f_mount+0x1c6>
	nclst = (tsect - sysect) / fs->csize;				/* Number of clusters */
 8006556:	1a5b      	subs	r3, r3, r1
 8006558:	fbb3 f0f0 	udiv	r0, r3, r0
	if (!nclst) return FR_NO_FILESYSTEM;				/* (Invalid volume size) */
 800655c:	2800      	cmp	r0, #0
 800655e:	d0c0      	beq.n	80064e2 <f_mount+0x1c6>
	if (nclst >= MIN_FAT16) fmt = FS_FAT16;
 8006560:	f640 7af5 	movw	sl, #4085	; 0xff5
	if (nclst >= MIN_FAT32) fmt = FS_FAT32;
 8006564:	f64f 79f5 	movw	r9, #65525	; 0xfff5
	fmt = FS_FAT12;
 8006568:	4550      	cmp	r0, sl
 800656a:	bf8c      	ite	hi
 800656c:	f04f 0a02 	movhi.w	sl, #2
 8006570:	f04f 0a01 	movls.w	sl, #1
	if (nclst >= MIN_FAT32) fmt = FS_FAT32;
 8006574:	4548      	cmp	r0, r9
 8006576:	4426      	add	r6, r4
 8006578:	4421      	add	r1, r4
 800657a:	f100 0302 	add.w	r3, r0, #2
 800657e:	f240 8121 	bls.w	80067c4 <f_mount+0x4a8>
	fs->n_fatent = nclst + 2;							/* Number of FAT entries */
 8006582:	f8c5 3218 	str.w	r3, [r5, #536]	; 0x218
	fs->volbase = bsect;								/* Volume start sector */
 8006586:	f8c5 4220 	str.w	r4, [r5, #544]	; 0x220
	fs->fatbase = bsect + nrsv; 						/* FAT start sector */
 800658a:	f8c5 6224 	str.w	r6, [r5, #548]	; 0x224
	fs->database = bsect + sysect;						/* Data start sector */
 800658e:	f8c5 122c 	str.w	r1, [r5, #556]	; 0x22c
		if (fs->n_rootdir) return FR_NO_FILESYSTEM;		/* (BPB_RootEntCnt must be 0) */
 8006592:	f1b8 0f00 	cmp.w	r8, #0
 8006596:	d1a4      	bne.n	80064e2 <f_mount+0x1c6>
		szbfat = fs->n_fatent * 4;						/* (Needed FAT size) */
 8006598:	009b      	lsls	r3, r3, #2
		fs->dirbase = LD_DWORD(fs->win.d8 + BPB_RootClus);	/* Root directory start cluster */
 800659a:	6ae9      	ldr	r1, [r5, #44]	; 0x2c
	if (fs->fsize < (szbfat + (SS(fs) - 1)) / SS(fs))	/* (BPB_FATSz must not be less than the size needed) */
 800659c:	f203 13ff 	addw	r3, r3, #511	; 0x1ff
 80065a0:	ebbc 2f53 	cmp.w	ip, r3, lsr #9
		fs->dirbase = LD_DWORD(fs->win.d8 + BPB_RootClus);	/* Root directory start cluster */
 80065a4:	f8c5 1228 	str.w	r1, [r5, #552]	; 0x228
	if (fs->fsize < (szbfat + (SS(fs) - 1)) / SS(fs))	/* (BPB_FATSz must not be less than the size needed) */
 80065a8:	d39b      	bcc.n	80064e2 <f_mount+0x1c6>
	fs->last_clust = fs->free_clust = 0xFFFFFFFF;
 80065aa:	f04f 33ff 	mov.w	r3, #4294967295
	fs->fsi_flag = 0x80;
 80065ae:	2080      	movs	r0, #128	; 0x80
		&& LD_WORD(fs->win.d8 + BPB_FSInfo) == 1
 80065b0:	8e29      	ldrh	r1, [r5, #48]	; 0x30
	fs->last_clust = fs->free_clust = 0xFFFFFFFF;
 80065b2:	f8c5 3214 	str.w	r3, [r5, #532]	; 0x214
		&& LD_WORD(fs->win.d8 + BPB_FSInfo) == 1
 80065b6:	2901      	cmp	r1, #1
	fs->last_clust = fs->free_clust = 0xFFFFFFFF;
 80065b8:	f8c5 3210 	str.w	r3, [r5, #528]	; 0x210
	fs->fsi_flag = 0x80;
 80065bc:	f885 0205 	strb.w	r0, [r5, #517]	; 0x205
		&& LD_WORD(fs->win.d8 + BPB_FSInfo) == 1
 80065c0:	f000 80da 	beq.w	8006778 <f_mount+0x45c>
			&& LD_DWORD(fs->win.d8 + FSI_StrucSig) == 0x61417272)
 80065c4:	2703      	movs	r7, #3
	fs->id = ++Fsid;	/* File system mount ID */
 80065c6:	4918      	ldr	r1, [pc, #96]	; (8006628 <f_mount+0x30c>)
		if (Files[i].fs == fs) Files[i].fs = 0;
 80065c8:	4b15      	ldr	r3, [pc, #84]	; (8006620 <f_mount+0x304>)
	fs->id = ++Fsid;	/* File system mount ID */
 80065ca:	880a      	ldrh	r2, [r1, #0]
		if (Files[i].fs == fs) Files[i].fs = 0;
 80065cc:	6818      	ldr	r0, [r3, #0]
	fs->id = ++Fsid;	/* File system mount ID */
 80065ce:	3201      	adds	r2, #1
 80065d0:	b292      	uxth	r2, r2
		if (Files[i].fs == fs) Files[i].fs = 0;
 80065d2:	42a8      	cmp	r0, r5
	fs->id = ++Fsid;	/* File system mount ID */
 80065d4:	800a      	strh	r2, [r1, #0]
 80065d6:	f8a5 2206 	strh.w	r2, [r5, #518]	; 0x206
		if (Files[i].fs == fs) Files[i].fs = 0;
 80065da:	bf04      	itt	eq
 80065dc:	2200      	moveq	r2, #0
 80065de:	601a      	streq	r2, [r3, #0]
 80065e0:	68da      	ldr	r2, [r3, #12]
	fs->fs_type = fmt;	/* FAT sub-type */
 80065e2:	f885 7200 	strb.w	r7, [r5, #512]	; 0x200
		if (Files[i].fs == fs) Files[i].fs = 0;
 80065e6:	42aa      	cmp	r2, r5
 80065e8:	f47f af11 	bne.w	800640e <f_mount+0xf2>
 80065ec:	2600      	movs	r6, #0
 80065ee:	60de      	str	r6, [r3, #12]
 80065f0:	e70e      	b.n	8006410 <f_mount+0xf4>
	fs->wflag = 0; fs->winsect = 0xFFFFFFFF;	/* Invaidate window */
 80065f2:	f04f 36ff 	mov.w	r6, #4294967295
 80065f6:	2300      	movs	r3, #0
	if (sector != fs->winsect) {	/* Window offset changed? */
 80065f8:	42b4      	cmp	r4, r6
	fs->wflag = 0; fs->winsect = 0xFFFFFFFF;	/* Invaidate window */
 80065fa:	f885 3204 	strb.w	r3, [r5, #516]	; 0x204
 80065fe:	f8c5 6230 	str.w	r6, [r5, #560]	; 0x230
	if (sector != fs->winsect) {	/* Window offset changed? */
 8006602:	f000 8085 	beq.w	8006710 <f_mount+0x3f4>
			if (disk_read(fs->drv, fs->win.d8, sector, 1) != RES_OK) {
 8006606:	2301      	movs	r3, #1
 8006608:	4622      	mov	r2, r4
 800660a:	4629      	mov	r1, r5
 800660c:	f895 0201 	ldrb.w	r0, [r5, #513]	; 0x201
 8006610:	f7fd f952 	bl	80038b8 <disk_read>
 8006614:	2800      	cmp	r0, #0
 8006616:	d079      	beq.n	800670c <f_mount+0x3f0>
			fs->winsect = sector;
 8006618:	f8c5 6230 	str.w	r6, [r5, #560]	; 0x230
 800661c:	e724      	b.n	8006468 <f_mount+0x14c>
 800661e:	bf00      	nop
 8006620:	2000009c 	.word	0x2000009c
 8006624:	00544146 	.word	0x00544146
 8006628:	200000b4 	.word	0x200000b4
 800662c:	20000098 	.word	0x20000098
	fs->wflag = 0; fs->winsect = 0xFFFFFFFF;	/* Invaidate window */
 8006630:	f04f 36ff 	mov.w	r6, #4294967295
 8006634:	2300      	movs	r3, #0
	if (sector != fs->winsect) {	/* Window offset changed? */
 8006636:	42b4      	cmp	r4, r6
	fs->wflag = 0; fs->winsect = 0xFFFFFFFF;	/* Invaidate window */
 8006638:	f885 3204 	strb.w	r3, [r5, #516]	; 0x204
 800663c:	f8c5 6230 	str.w	r6, [r5, #560]	; 0x230
	if (sector != fs->winsect) {	/* Window offset changed? */
 8006640:	d00b      	beq.n	800665a <f_mount+0x33e>
			if (disk_read(fs->drv, fs->win.d8, sector, 1) != RES_OK) {
 8006642:	2301      	movs	r3, #1
 8006644:	4622      	mov	r2, r4
 8006646:	4629      	mov	r1, r5
 8006648:	f895 0201 	ldrb.w	r0, [r5, #513]	; 0x201
 800664c:	f7fd f934 	bl	80038b8 <disk_read>
 8006650:	2800      	cmp	r0, #0
 8006652:	f040 808b 	bne.w	800676c <f_mount+0x450>
			fs->winsect = sector;
 8006656:	f8c5 4230 	str.w	r4, [r5, #560]	; 0x230
	if (LD_WORD(&fs->win.d8[BS_55AA]) != 0xAA55)	/* Check boot record signature (always placed at offset 510 even if the sector size is >512) */
 800665a:	f64a 2355 	movw	r3, #43605	; 0xaa55
 800665e:	f8b5 21fe 	ldrh.w	r2, [r5, #510]	; 0x1fe
 8006662:	429a      	cmp	r2, r3
 8006664:	f47f af39 	bne.w	80064da <f_mount+0x1be>
	if ((LD_DWORD(&fs->win.d8[BS_FilSysType]) & 0xFFFFFF) == 0x544146)		/* Check "FAT" string */
 8006668:	f8d5 3036 	ldr.w	r3, [r5, #54]	; 0x36
 800666c:	4977      	ldr	r1, [pc, #476]	; (800684c <f_mount+0x530>)
 800666e:	f023 437f 	bic.w	r3, r3, #4278190080	; 0xff000000
 8006672:	428b      	cmp	r3, r1
 8006674:	f43f af3c 	beq.w	80064f0 <f_mount+0x1d4>
	if ((LD_DWORD(&fs->win.d8[BS_FilSysType32]) & 0xFFFFFF) == 0x544146)	/* Check "FAT" string */
 8006678:	f8d5 3052 	ldr.w	r3, [r5, #82]	; 0x52
 800667c:	f023 437f 	bic.w	r3, r3, #4278190080	; 0xff000000
 8006680:	428b      	cmp	r3, r1
 8006682:	f47f af2a 	bne.w	80064da <f_mount+0x1be>
 8006686:	e733      	b.n	80064f0 <f_mount+0x1d4>
	fs->wflag = 0; fs->winsect = 0xFFFFFFFF;	/* Invaidate window */
 8006688:	f04f 36ff 	mov.w	r6, #4294967295
 800668c:	2300      	movs	r3, #0
	if (sector != fs->winsect) {	/* Window offset changed? */
 800668e:	42b4      	cmp	r4, r6
	fs->wflag = 0; fs->winsect = 0xFFFFFFFF;	/* Invaidate window */
 8006690:	f885 3204 	strb.w	r3, [r5, #516]	; 0x204
 8006694:	f8c5 6230 	str.w	r6, [r5, #560]	; 0x230
	if (sector != fs->winsect) {	/* Window offset changed? */
 8006698:	d00a      	beq.n	80066b0 <f_mount+0x394>
			if (disk_read(fs->drv, fs->win.d8, sector, 1) != RES_OK) {
 800669a:	2301      	movs	r3, #1
 800669c:	4622      	mov	r2, r4
 800669e:	4629      	mov	r1, r5
 80066a0:	f895 0201 	ldrb.w	r0, [r5, #513]	; 0x201
 80066a4:	f7fd f908 	bl	80038b8 <disk_read>
 80066a8:	2800      	cmp	r0, #0
 80066aa:	d15c      	bne.n	8006766 <f_mount+0x44a>
			fs->winsect = sector;
 80066ac:	f8c5 4230 	str.w	r4, [r5, #560]	; 0x230
	if (LD_WORD(&fs->win.d8[BS_55AA]) != 0xAA55)	/* Check boot record signature (always placed at offset 510 even if the sector size is >512) */
 80066b0:	f64a 2355 	movw	r3, #43605	; 0xaa55
 80066b4:	f8b5 21fe 	ldrh.w	r2, [r5, #510]	; 0x1fe
 80066b8:	429a      	cmp	r2, r3
 80066ba:	f47f af0a 	bne.w	80064d2 <f_mount+0x1b6>
	if ((LD_DWORD(&fs->win.d8[BS_FilSysType]) & 0xFFFFFF) == 0x544146)		/* Check "FAT" string */
 80066be:	f8d5 3036 	ldr.w	r3, [r5, #54]	; 0x36
 80066c2:	4962      	ldr	r1, [pc, #392]	; (800684c <f_mount+0x530>)
 80066c4:	f023 437f 	bic.w	r3, r3, #4278190080	; 0xff000000
 80066c8:	428b      	cmp	r3, r1
 80066ca:	f43f af11 	beq.w	80064f0 <f_mount+0x1d4>
	if ((LD_DWORD(&fs->win.d8[BS_FilSysType32]) & 0xFFFFFF) == 0x544146)	/* Check "FAT" string */
 80066ce:	f8d5 3052 	ldr.w	r3, [r5, #82]	; 0x52
 80066d2:	f023 437f 	bic.w	r3, r3, #4278190080	; 0xff000000
 80066d6:	428b      	cmp	r3, r1
 80066d8:	f47f aefb 	bne.w	80064d2 <f_mount+0x1b6>
 80066dc:	e708      	b.n	80064f0 <f_mount+0x1d4>
	fs->wflag = 0; fs->winsect = 0xFFFFFFFF;	/* Invaidate window */
 80066de:	f04f 36ff 	mov.w	r6, #4294967295
 80066e2:	2100      	movs	r1, #0
	if (sector != fs->winsect) {	/* Window offset changed? */
 80066e4:	42b4      	cmp	r4, r6
	fs->wflag = 0; fs->winsect = 0xFFFFFFFF;	/* Invaidate window */
 80066e6:	f885 1204 	strb.w	r1, [r5, #516]	; 0x204
 80066ea:	f8c5 6230 	str.w	r6, [r5, #560]	; 0x230
	if (sector != fs->winsect) {	/* Window offset changed? */
 80066ee:	d126      	bne.n	800673e <f_mount+0x422>
	if ((LD_DWORD(&fs->win.d8[BS_FilSysType]) & 0xFFFFFF) == 0x544146)		/* Check "FAT" string */
 80066f0:	4956      	ldr	r1, [pc, #344]	; (800684c <f_mount+0x530>)
 80066f2:	f023 437f 	bic.w	r3, r3, #4278190080	; 0xff000000
 80066f6:	428b      	cmp	r3, r1
 80066f8:	f43f aefa 	beq.w	80064f0 <f_mount+0x1d4>
	if ((LD_DWORD(&fs->win.d8[BS_FilSysType32]) & 0xFFFFFF) == 0x544146)	/* Check "FAT" string */
 80066fc:	f8d5 3052 	ldr.w	r3, [r5, #82]	; 0x52
 8006700:	f023 437f 	bic.w	r3, r3, #4278190080	; 0xff000000
 8006704:	428b      	cmp	r3, r1
 8006706:	f47f aee0 	bne.w	80064ca <f_mount+0x1ae>
 800670a:	e6f1      	b.n	80064f0 <f_mount+0x1d4>
			fs->winsect = sector;
 800670c:	f8c5 4230 	str.w	r4, [r5, #560]	; 0x230
	if (LD_WORD(&fs->win.d8[BS_55AA]) != 0xAA55)	/* Check boot record signature (always placed at offset 510 even if the sector size is >512) */
 8006710:	f64a 2355 	movw	r3, #43605	; 0xaa55
 8006714:	f8b5 21fe 	ldrh.w	r2, [r5, #510]	; 0x1fe
 8006718:	429a      	cmp	r2, r3
 800671a:	f47f aee2 	bne.w	80064e2 <f_mount+0x1c6>
	if ((LD_DWORD(&fs->win.d8[BS_FilSysType]) & 0xFFFFFF) == 0x544146)		/* Check "FAT" string */
 800671e:	f8d5 3036 	ldr.w	r3, [r5, #54]	; 0x36
 8006722:	494a      	ldr	r1, [pc, #296]	; (800684c <f_mount+0x530>)
 8006724:	f023 437f 	bic.w	r3, r3, #4278190080	; 0xff000000
 8006728:	428b      	cmp	r3, r1
 800672a:	f43f aee1 	beq.w	80064f0 <f_mount+0x1d4>
	if ((LD_DWORD(&fs->win.d8[BS_FilSysType32]) & 0xFFFFFF) == 0x544146)	/* Check "FAT" string */
 800672e:	f8d5 3052 	ldr.w	r3, [r5, #82]	; 0x52
 8006732:	f023 437f 	bic.w	r3, r3, #4278190080	; 0xff000000
 8006736:	428b      	cmp	r3, r1
 8006738:	f47f aed3 	bne.w	80064e2 <f_mount+0x1c6>
 800673c:	e6d8      	b.n	80064f0 <f_mount+0x1d4>
			if (disk_read(fs->drv, fs->win.d8, sector, 1) != RES_OK) {
 800673e:	2301      	movs	r3, #1
 8006740:	4622      	mov	r2, r4
 8006742:	4629      	mov	r1, r5
 8006744:	f895 0201 	ldrb.w	r0, [r5, #513]	; 0x201
 8006748:	f7fd f8b6 	bl	80038b8 <disk_read>
 800674c:	b988      	cbnz	r0, 8006772 <f_mount+0x456>
	if (LD_WORD(&fs->win.d8[BS_55AA]) != 0xAA55)	/* Check boot record signature (always placed at offset 510 even if the sector size is >512) */
 800674e:	f64a 2355 	movw	r3, #43605	; 0xaa55
 8006752:	f8b5 21fe 	ldrh.w	r2, [r5, #510]	; 0x1fe
			fs->winsect = sector;
 8006756:	f8c5 4230 	str.w	r4, [r5, #560]	; 0x230
	if (LD_WORD(&fs->win.d8[BS_55AA]) != 0xAA55)	/* Check boot record signature (always placed at offset 510 even if the sector size is >512) */
 800675a:	429a      	cmp	r2, r3
 800675c:	f47f aeb5 	bne.w	80064ca <f_mount+0x1ae>
 8006760:	f8d5 3036 	ldr.w	r3, [r5, #54]	; 0x36
 8006764:	e7c4      	b.n	80066f0 <f_mount+0x3d4>
			fs->winsect = sector;
 8006766:	f8c5 6230 	str.w	r6, [r5, #560]	; 0x230
 800676a:	e6b2      	b.n	80064d2 <f_mount+0x1b6>
 800676c:	f8c5 6230 	str.w	r6, [r5, #560]	; 0x230
 8006770:	e6b3      	b.n	80064da <f_mount+0x1be>
 8006772:	f8c5 6230 	str.w	r6, [r5, #560]	; 0x230
 8006776:	e6a8      	b.n	80064ca <f_mount+0x1ae>
	if (sector != fs->winsect) {	/* Window offset changed? */
 8006778:	f8d5 3230 	ldr.w	r3, [r5, #560]	; 0x230
		&& move_window(fs, bsect + 1) == FR_OK)
 800677c:	1c61      	adds	r1, r4, #1
	if (sector != fs->winsect) {	/* Window offset changed? */
 800677e:	4299      	cmp	r1, r3
 8006780:	d148      	bne.n	8006814 <f_mount+0x4f8>
		if (LD_WORD(fs->win.d8 + BS_55AA) == 0xAA55	/* Load FSINFO data if available */
 8006782:	f64a 2355 	movw	r3, #43605	; 0xaa55
		fs->fsi_flag = 0;
 8006786:	2100      	movs	r1, #0
		if (LD_WORD(fs->win.d8 + BS_55AA) == 0xAA55	/* Load FSINFO data if available */
 8006788:	429a      	cmp	r2, r3
		fs->fsi_flag = 0;
 800678a:	f885 1205 	strb.w	r1, [r5, #517]	; 0x205
		if (LD_WORD(fs->win.d8 + BS_55AA) == 0xAA55	/* Load FSINFO data if available */
 800678e:	f47f af19 	bne.w	80065c4 <f_mount+0x2a8>
			&& LD_DWORD(fs->win.d8 + FSI_LeadSig) == 0x41615252
 8006792:	4b2f      	ldr	r3, [pc, #188]	; (8006850 <f_mount+0x534>)
 8006794:	682a      	ldr	r2, [r5, #0]
 8006796:	429a      	cmp	r2, r3
 8006798:	f47f af14 	bne.w	80065c4 <f_mount+0x2a8>
			&& LD_DWORD(fs->win.d8 + FSI_StrucSig) == 0x61417272)
 800679c:	f103 53ff 	add.w	r3, r3, #534773760	; 0x1fe00000
 80067a0:	f503 5300 	add.w	r3, r3, #8192	; 0x2000
 80067a4:	f8d5 21e4 	ldr.w	r2, [r5, #484]	; 0x1e4
 80067a8:	3320      	adds	r3, #32
 80067aa:	429a      	cmp	r2, r3
 80067ac:	f47f af0a 	bne.w	80065c4 <f_mount+0x2a8>
			fs->free_clust = LD_DWORD(fs->win.d8 + FSI_Free_Count);
 80067b0:	f8d5 21e8 	ldr.w	r2, [r5, #488]	; 0x1e8
			fs->last_clust = LD_DWORD(fs->win.d8 + FSI_Nxt_Free);
 80067b4:	f8d5 31ec 	ldr.w	r3, [r5, #492]	; 0x1ec
			fs->free_clust = LD_DWORD(fs->win.d8 + FSI_Free_Count);
 80067b8:	f8c5 2214 	str.w	r2, [r5, #532]	; 0x214
			fs->last_clust = LD_DWORD(fs->win.d8 + FSI_Nxt_Free);
 80067bc:	f8c5 3210 	str.w	r3, [r5, #528]	; 0x210
 80067c0:	2703      	movs	r7, #3
 80067c2:	e700      	b.n	80065c6 <f_mount+0x2aa>
	fs->n_fatent = nclst + 2;							/* Number of FAT entries */
 80067c4:	f8c5 3218 	str.w	r3, [r5, #536]	; 0x218
	fs->volbase = bsect;								/* Volume start sector */
 80067c8:	f8c5 4220 	str.w	r4, [r5, #544]	; 0x220
	fs->fatbase = bsect + nrsv; 						/* FAT start sector */
 80067cc:	f8c5 6224 	str.w	r6, [r5, #548]	; 0x224
	fs->database = bsect + sysect;						/* Data start sector */
 80067d0:	f8c5 122c 	str.w	r1, [r5, #556]	; 0x22c
		if (!fs->n_rootdir)	return FR_NO_FILESYSTEM;	/* (BPB_RootEntCnt must not be 0) */
 80067d4:	f1b8 0f00 	cmp.w	r8, #0
 80067d8:	f43f ae83 	beq.w	80064e2 <f_mount+0x1c6>
		fs->dirbase = fs->fatbase + fasize;				/* Root directory start sector */
 80067dc:	4476      	add	r6, lr
			fs->n_fatent * 2 : fs->n_fatent * 3 / 2 + (fs->n_fatent & 1);
 80067de:	f1ba 0f02 	cmp.w	sl, #2
		fs->dirbase = fs->fatbase + fasize;				/* Root directory start sector */
 80067e2:	f8c5 6228 	str.w	r6, [r5, #552]	; 0x228
			fs->n_fatent * 2 : fs->n_fatent * 3 / 2 + (fs->n_fatent & 1);
 80067e6:	d01e      	beq.n	8006826 <f_mount+0x50a>
 80067e8:	f003 0201 	and.w	r2, r3, #1
	if (fs->fsize < (szbfat + (SS(fs) - 1)) / SS(fs))	/* (BPB_FATSz must not be less than the size needed) */
 80067ec:	f202 12ff 	addw	r2, r2, #511	; 0x1ff
			fs->n_fatent * 2 : fs->n_fatent * 3 / 2 + (fs->n_fatent & 1);
 80067f0:	eb03 0343 	add.w	r3, r3, r3, lsl #1
	if (fs->fsize < (szbfat + (SS(fs) - 1)) / SS(fs))	/* (BPB_FATSz must not be less than the size needed) */
 80067f4:	eb02 0353 	add.w	r3, r2, r3, lsr #1
 80067f8:	ebbc 2f53 	cmp.w	ip, r3, lsr #9
 80067fc:	f4ff ae71 	bcc.w	80064e2 <f_mount+0x1c6>
	fs->last_clust = fs->free_clust = 0xFFFFFFFF;
 8006800:	f04f 33ff 	mov.w	r3, #4294967295
	fs->fsi_flag = 0x80;
 8006804:	2280      	movs	r2, #128	; 0x80
	fs->last_clust = fs->free_clust = 0xFFFFFFFF;
 8006806:	f8c5 3214 	str.w	r3, [r5, #532]	; 0x214
 800680a:	f8c5 3210 	str.w	r3, [r5, #528]	; 0x210
	fs->fsi_flag = 0x80;
 800680e:	f885 2205 	strb.w	r2, [r5, #517]	; 0x205
 8006812:	e6d8      	b.n	80065c6 <f_mount+0x2aa>
 8006814:	4628      	mov	r0, r5
 8006816:	f7fd f879 	bl	800390c <move_window.part.3>
		&& move_window(fs, bsect + 1) == FR_OK)
 800681a:	2800      	cmp	r0, #0
 800681c:	f47f aed2 	bne.w	80065c4 <f_mount+0x2a8>
 8006820:	f8b5 21fe 	ldrh.w	r2, [r5, #510]	; 0x1fe
 8006824:	e7ad      	b.n	8006782 <f_mount+0x466>
			fs->n_fatent * 2 : fs->n_fatent * 3 / 2 + (fs->n_fatent & 1);
 8006826:	005b      	lsls	r3, r3, #1
	if (fs->fsize < (szbfat + (SS(fs) - 1)) / SS(fs))	/* (BPB_FATSz must not be less than the size needed) */
 8006828:	f203 13ff 	addw	r3, r3, #511	; 0x1ff
 800682c:	ebbc 2f53 	cmp.w	ip, r3, lsr #9
 8006830:	f4ff ae57 	bcc.w	80064e2 <f_mount+0x1c6>
	fs->last_clust = fs->free_clust = 0xFFFFFFFF;
 8006834:	f04f 33ff 	mov.w	r3, #4294967295
	fs->fsi_flag = 0x80;
 8006838:	2280      	movs	r2, #128	; 0x80
 800683a:	4657      	mov	r7, sl
	fs->last_clust = fs->free_clust = 0xFFFFFFFF;
 800683c:	f8c5 3214 	str.w	r3, [r5, #532]	; 0x214
 8006840:	f8c5 3210 	str.w	r3, [r5, #528]	; 0x210
	fs->fsi_flag = 0x80;
 8006844:	f885 2205 	strb.w	r2, [r5, #517]	; 0x205
 8006848:	e6bd      	b.n	80065c6 <f_mount+0x2aa>
 800684a:	bf00      	nop
 800684c:	00544146 	.word	0x00544146
 8006850:	41615252 	.word	0x41615252

08006854 <f_open>:
{
 8006854:	e92d 4ff0 	stmdb	sp!, {r4, r5, r6, r7, r8, r9, sl, fp, lr}
 8006858:	f5ad 7d11 	sub.w	sp, sp, #580	; 0x244
	if (!fp) return FR_INVALID_OBJECT;
 800685c:	2800      	cmp	r0, #0
 800685e:	d074      	beq.n	800694a <f_open+0xf6>
 8006860:	4604      	mov	r4, r0
	fp->fs = 0;			/* Clear file object */
 8006862:	2000      	movs	r0, #0
 8006864:	460d      	mov	r5, r1
 8006866:	f8c4 0200 	str.w	r0, [r4, #512]	; 0x200
	*rfs = 0;
 800686a:	9086      	str	r0, [sp, #536]	; 0x218
	if (*path) {	/* If the pointer is not a null */
 800686c:	2900      	cmp	r1, #0
 800686e:	f000 814d 	beq.w	8006b0c <f_open+0x2b8>
		for (tt = *path; (UINT)*tt >= (_USE_LFN ? ' ' : '!') && *tt != ':'; tt++) ;	/* Find ':' in the path */
 8006872:	780f      	ldrb	r7, [r1, #0]
 8006874:	4616      	mov	r6, r2
 8006876:	2f1f      	cmp	r7, #31
 8006878:	d90b      	bls.n	8006892 <f_open+0x3e>
 800687a:	2f3a      	cmp	r7, #58	; 0x3a
 800687c:	f000 8146 	beq.w	8006b0c <f_open+0x2b8>
 8006880:	460b      	mov	r3, r1
 8006882:	e002      	b.n	800688a <f_open+0x36>
 8006884:	2a3a      	cmp	r2, #58	; 0x3a
 8006886:	d055      	beq.n	8006934 <f_open+0xe0>
 8006888:	460b      	mov	r3, r1
 800688a:	785a      	ldrb	r2, [r3, #1]
 800688c:	1c59      	adds	r1, r3, #1
 800688e:	2a1f      	cmp	r2, #31
 8006890:	d8f8      	bhi.n	8006884 <f_open+0x30>
		vol = 0;		/* Drive 0 */
 8006892:	f04f 0800 	mov.w	r8, #0
	fs = FatFs[vol];					/* Get pointer to the file system object */
 8006896:	4bb0      	ldr	r3, [pc, #704]	; (8006b58 <f_open+0x304>)
 8006898:	f853 7028 	ldr.w	r7, [r3, r8, lsl #2]
	if (!fs) return FR_NOT_ENABLED;		/* Is the file system object available? */
 800689c:	2f00      	cmp	r7, #0
 800689e:	f000 8159 	beq.w	8006b54 <f_open+0x300>
	return ff_req_grant(fs->sobj);
 80068a2:	f8d7 020c 	ldr.w	r0, [r7, #524]	; 0x20c
 80068a6:	f001 f8fd 	bl	8007aa4 <ff_req_grant>
	ENTER_FF(fs);						/* Lock the volume */
 80068aa:	2800      	cmp	r0, #0
 80068ac:	f000 8134 	beq.w	8006b18 <f_open+0x2c4>
	*rfs = fs;							/* Return pointer to the file system object */
 80068b0:	9786      	str	r7, [sp, #536]	; 0x218
	if (fs->fs_type) {					/* If the volume has been mounted */
 80068b2:	f897 3200 	ldrb.w	r3, [r7, #512]	; 0x200
	res = find_volume(&dj.fs, &path, (BYTE)(mode & ~FA_READ));
 80068b6:	f006 091e 	and.w	r9, r6, #30
	if (fs->fs_type) {					/* If the volume has been mounted */
 80068ba:	b193      	cbz	r3, 80068e2 <f_open+0x8e>
		stat = disk_status(fs->drv);
 80068bc:	f897 0201 	ldrb.w	r0, [r7, #513]	; 0x201
 80068c0:	f7fc ffe0 	bl	8003884 <disk_status>
		if (!(stat & STA_NOINIT)) {		/* and the physical drive is kept initialized */
 80068c4:	07c3      	lsls	r3, r0, #31
 80068c6:	d40c      	bmi.n	80068e2 <f_open+0x8e>
			if (!_FS_READONLY && wmode && (stat & STA_PROTECT))	/* Check write protection if needed */
 80068c8:	f1b9 0f00 	cmp.w	r9, #0
 80068cc:	f000 80d8 	beq.w	8006a80 <f_open+0x22c>
 80068d0:	0740      	lsls	r0, r0, #29
 80068d2:	f140 80d5 	bpl.w	8006a80 <f_open+0x22c>
	LEAVE_FF(dj.fs, res);
 80068d6:	9b86      	ldr	r3, [sp, #536]	; 0x218
				return FR_WRITE_PROTECTED;
 80068d8:	250a      	movs	r5, #10
	if (fs &&
 80068da:	2b00      	cmp	r3, #0
 80068dc:	f040 81b7 	bne.w	8006c4e <f_open+0x3fa>
 80068e0:	e034      	b.n	800694c <f_open+0xf8>
	fs->fs_type = 0;					/* Clear the file system object */
 80068e2:	2300      	movs	r3, #0
	fs->drv = LD2PD(vol);				/* Bind the logical drive and a physical drive */
 80068e4:	fa5f f088 	uxtb.w	r0, r8
	fs->fs_type = 0;					/* Clear the file system object */
 80068e8:	f887 3200 	strb.w	r3, [r7, #512]	; 0x200
	fs->drv = LD2PD(vol);				/* Bind the logical drive and a physical drive */
 80068ec:	f887 0201 	strb.w	r0, [r7, #513]	; 0x201
	stat = disk_initialize(fs->drv);	/* Initialize the physical drive */
 80068f0:	f7fc ffd2 	bl	8003898 <disk_initialize>
	if (stat & STA_NOINIT)				/* Check if the initialization succeeded */
 80068f4:	07c3      	lsls	r3, r0, #31
 80068f6:	f100 81f9 	bmi.w	8006cec <f_open+0x498>
	if (!_FS_READONLY && wmode && (stat & STA_PROTECT))	/* Check disk write protection if needed */
 80068fa:	f1b9 0f00 	cmp.w	r9, #0
 80068fe:	d001      	beq.n	8006904 <f_open+0xb0>
 8006900:	0741      	lsls	r1, r0, #29
 8006902:	d4e8      	bmi.n	80068d6 <f_open+0x82>
	fs->wflag = 0; fs->winsect = 0xFFFFFFFF;	/* Invaidate window */
 8006904:	2200      	movs	r2, #0
 8006906:	f04f 38ff 	mov.w	r8, #4294967295
 800690a:	f887 2204 	strb.w	r2, [r7, #516]	; 0x204
 800690e:	f8c7 8230 	str.w	r8, [r7, #560]	; 0x230
			if (disk_read(fs->drv, fs->win.d8, sector, 1) != RES_OK) {
 8006912:	2301      	movs	r3, #1
 8006914:	4639      	mov	r1, r7
 8006916:	f897 0201 	ldrb.w	r0, [r7, #513]	; 0x201
 800691a:	f7fc ffcd 	bl	80038b8 <disk_read>
 800691e:	2800      	cmp	r0, #0
 8006920:	f000 8120 	beq.w	8006b64 <f_open+0x310>
			fs->winsect = sector;
 8006924:	f8c7 8230 	str.w	r8, [r7, #560]	; 0x230
	LEAVE_FF(dj.fs, res);
 8006928:	9b86      	ldr	r3, [sp, #536]	; 0x218
	if (fs &&
 800692a:	2501      	movs	r5, #1
 800692c:	2b00      	cmp	r3, #0
 800692e:	f040 818e 	bne.w	8006c4e <f_open+0x3fa>
 8006932:	e00b      	b.n	800694c <f_open+0xf8>
			i = *tp++ - '0'; 
 8006934:	3501      	adds	r5, #1
			if (i < 10 && tp == tt) {	/* Is there a numeric drive id? */
 8006936:	42a9      	cmp	r1, r5
			i = *tp++ - '0'; 
 8006938:	f1a7 0830 	sub.w	r8, r7, #48	; 0x30
			if (i < 10 && tp == tt) {	/* Is there a numeric drive id? */
 800693c:	f040 80e6 	bne.w	8006b0c <f_open+0x2b8>
				if (i < _VOLUMES) {	/* If a drive id is found, get the value and strip it */
 8006940:	2f30      	cmp	r7, #48	; 0x30
 8006942:	f040 80e3 	bne.w	8006b0c <f_open+0x2b8>
					*path = ++tt;
 8006946:	1c9d      	adds	r5, r3, #2
 8006948:	e7a5      	b.n	8006896 <f_open+0x42>
	if (!fp) return FR_INVALID_OBJECT;
 800694a:	2509      	movs	r5, #9
}
 800694c:	4628      	mov	r0, r5
 800694e:	f50d 7d11 	add.w	sp, sp, #580	; 0x244
 8006952:	e8bd 8ff0 	ldmia.w	sp!, {r4, r5, r6, r7, r8, r9, sl, fp, pc}
	bsect = 0;
 8006956:	4680      	mov	r8, r0
	if (LD_WORD(fs->win.d8 + BPB_BytsPerSec) != SS(fs))	/* (BPB_BytsPerSec must be equal to the physical sector size) */
 8006958:	f8b7 200b 	ldrh.w	r2, [r7, #11]
 800695c:	f5b2 7f00 	cmp.w	r2, #512	; 0x200
 8006960:	f040 8170 	bne.w	8006c44 <f_open+0x3f0>
	fasize = LD_WORD(fs->win.d8 + BPB_FATSz16);			/* Number of sectors per FAT */
 8006964:	8afa      	ldrh	r2, [r7, #22]
	if (!fasize) fasize = LD_DWORD(fs->win.d8 + BPB_FATSz32);
 8006966:	b902      	cbnz	r2, 800696a <f_open+0x116>
 8006968:	6a7a      	ldr	r2, [r7, #36]	; 0x24
	fs->n_fats = fs->win.d8[BPB_NumFATs];					/* Number of FAT copies */
 800696a:	7c39      	ldrb	r1, [r7, #16]
	fs->fsize = fasize;
 800696c:	f8c7 221c 	str.w	r2, [r7, #540]	; 0x21c
	if (fs->n_fats != 1 && fs->n_fats != 2)				/* (Must be 1 or 2) */
 8006970:	1e48      	subs	r0, r1, #1
 8006972:	2801      	cmp	r0, #1
	fs->n_fats = fs->win.d8[BPB_NumFATs];					/* Number of FAT copies */
 8006974:	f887 1203 	strb.w	r1, [r7, #515]	; 0x203
	if (fs->n_fats != 1 && fs->n_fats != 2)				/* (Must be 1 or 2) */
 8006978:	f200 8164 	bhi.w	8006c44 <f_open+0x3f0>
	fs->csize = fs->win.d8[BPB_SecPerClus];				/* Number of sectors per cluster */
 800697c:	f897 c00d 	ldrb.w	ip, [r7, #13]
 8006980:	f887 c202 	strb.w	ip, [r7, #514]	; 0x202
	if (!fs->csize || (fs->csize & (fs->csize - 1)))	/* (Must be power of 2) */
 8006984:	f1bc 0f00 	cmp.w	ip, #0
 8006988:	f000 815c 	beq.w	8006c44 <f_open+0x3f0>
 800698c:	f10c 30ff 	add.w	r0, ip, #4294967295
 8006990:	ea10 0f0c 	tst.w	r0, ip
 8006994:	f040 8156 	bne.w	8006c44 <f_open+0x3f0>
	fs->n_rootdir = LD_WORD(fs->win.d8 + BPB_RootEntCnt);	/* Number of root directory entries */
 8006998:	f8b7 b011 	ldrh.w	fp, [r7, #17]
	if (fs->n_rootdir % (SS(fs) / SZ_DIRE))				/* (Must be sector aligned) */
 800699c:	f01b 0f0f 	tst.w	fp, #15
	fs->n_rootdir = LD_WORD(fs->win.d8 + BPB_RootEntCnt);	/* Number of root directory entries */
 80069a0:	f8a7 b208 	strh.w	fp, [r7, #520]	; 0x208
	if (fs->n_rootdir % (SS(fs) / SZ_DIRE))				/* (Must be sector aligned) */
 80069a4:	f040 814e 	bne.w	8006c44 <f_open+0x3f0>
	tsect = LD_WORD(fs->win.d8 + BPB_TotSec16);			/* Number of sectors on the volume */
 80069a8:	f8b7 9013 	ldrh.w	r9, [r7, #19]
	if (!tsect) tsect = LD_DWORD(fs->win.d8 + BPB_TotSec32);
 80069ac:	f1b9 0f00 	cmp.w	r9, #0
 80069b0:	d101      	bne.n	80069b6 <f_open+0x162>
 80069b2:	f8d7 9020 	ldr.w	r9, [r7, #32]
	nrsv = LD_WORD(fs->win.d8 + BPB_RsvdSecCnt);			/* Number of reserved sectors */
 80069b6:	89f8      	ldrh	r0, [r7, #14]
	if (!nrsv) return FR_NO_FILESYSTEM;					/* (Must not be 0) */
 80069b8:	2800      	cmp	r0, #0
 80069ba:	f000 8143 	beq.w	8006c44 <f_open+0x3f0>
	fasize *= fs->n_fats;								/* Number of sectors for FAT area */
 80069be:	fb02 f101 	mul.w	r1, r2, r1
	sysect = nrsv + fasize + fs->n_rootdir / (SS(fs) / SZ_DIRE);	/* RSV + FAT + DIR */
 80069c2:	eb00 1e1b 	add.w	lr, r0, fp, lsr #4
 80069c6:	448e      	add	lr, r1
	if (tsect < sysect) return FR_NO_FILESYSTEM;		/* (Invalid volume size) */
 80069c8:	45ce      	cmp	lr, r9
	fasize *= fs->n_fats;								/* Number of sectors for FAT area */
 80069ca:	9101      	str	r1, [sp, #4]
	if (tsect < sysect) return FR_NO_FILESYSTEM;		/* (Invalid volume size) */
 80069cc:	f200 813a 	bhi.w	8006c44 <f_open+0x3f0>
	nclst = (tsect - sysect) / fs->csize;				/* Number of clusters */
 80069d0:	eba9 090e 	sub.w	r9, r9, lr
 80069d4:	fbb9 fcfc 	udiv	ip, r9, ip
	if (!nclst) return FR_NO_FILESYSTEM;				/* (Invalid volume size) */
 80069d8:	f1bc 0f00 	cmp.w	ip, #0
 80069dc:	f000 8132 	beq.w	8006c44 <f_open+0x3f0>
	if (nclst >= MIN_FAT16) fmt = FS_FAT16;
 80069e0:	f640 79f5 	movw	r9, #4085	; 0xff5
	if (nclst >= MIN_FAT32) fmt = FS_FAT32;
 80069e4:	f64f 71f5 	movw	r1, #65525	; 0xfff5
 80069e8:	eb00 0a08 	add.w	sl, r0, r8
 80069ec:	44c6      	add	lr, r8
	fmt = FS_FAT12;
 80069ee:	45cc      	cmp	ip, r9
 80069f0:	bf8c      	ite	hi
 80069f2:	f04f 0902 	movhi.w	r9, #2
 80069f6:	f04f 0901 	movls.w	r9, #1
 80069fa:	f10c 0002 	add.w	r0, ip, #2
	if (nclst >= MIN_FAT32) fmt = FS_FAT32;
 80069fe:	458c      	cmp	ip, r1
	fs->n_fatent = nclst + 2;							/* Number of FAT entries */
 8006a00:	f8c7 0218 	str.w	r0, [r7, #536]	; 0x218
	fs->volbase = bsect;								/* Volume start sector */
 8006a04:	f8c7 8220 	str.w	r8, [r7, #544]	; 0x220
	fs->fatbase = bsect + nrsv; 						/* FAT start sector */
 8006a08:	f8c7 a224 	str.w	sl, [r7, #548]	; 0x224
	fs->database = bsect + sysect;						/* Data start sector */
 8006a0c:	f8c7 e22c 	str.w	lr, [r7, #556]	; 0x22c
	if (nclst >= MIN_FAT32) fmt = FS_FAT32;
 8006a10:	f240 8339 	bls.w	8007086 <f_open+0x832>
		if (fs->n_rootdir) return FR_NO_FILESYSTEM;		/* (BPB_RootEntCnt must be 0) */
 8006a14:	f1bb 0f00 	cmp.w	fp, #0
 8006a18:	f040 8114 	bne.w	8006c44 <f_open+0x3f0>
		szbfat = fs->n_fatent * 4;						/* (Needed FAT size) */
 8006a1c:	0081      	lsls	r1, r0, #2
	if (fs->fsize < (szbfat + (SS(fs) - 1)) / SS(fs))	/* (BPB_FATSz must not be less than the size needed) */
 8006a1e:	f201 11ff 	addw	r1, r1, #511	; 0x1ff
		fs->dirbase = LD_DWORD(fs->win.d8 + BPB_RootClus);	/* Root directory start cluster */
 8006a22:	6af8      	ldr	r0, [r7, #44]	; 0x2c
	if (fs->fsize < (szbfat + (SS(fs) - 1)) / SS(fs))	/* (BPB_FATSz must not be less than the size needed) */
 8006a24:	ebb2 2f51 	cmp.w	r2, r1, lsr #9
		fs->dirbase = LD_DWORD(fs->win.d8 + BPB_RootClus);	/* Root directory start cluster */
 8006a28:	f8c7 0228 	str.w	r0, [r7, #552]	; 0x228
	if (fs->fsize < (szbfat + (SS(fs) - 1)) / SS(fs))	/* (BPB_FATSz must not be less than the size needed) */
 8006a2c:	f0c0 810a 	bcc.w	8006c44 <f_open+0x3f0>
	fs->last_clust = fs->free_clust = 0xFFFFFFFF;
 8006a30:	f04f 32ff 	mov.w	r2, #4294967295
	fs->fsi_flag = 0x80;
 8006a34:	2180      	movs	r1, #128	; 0x80
	fs->last_clust = fs->free_clust = 0xFFFFFFFF;
 8006a36:	f8c7 2214 	str.w	r2, [r7, #532]	; 0x214
 8006a3a:	f8c7 2210 	str.w	r2, [r7, #528]	; 0x210
		&& LD_WORD(fs->win.d8 + BPB_FSInfo) == 1
 8006a3e:	8e3a      	ldrh	r2, [r7, #48]	; 0x30
	fs->fsi_flag = 0x80;
 8006a40:	f887 1205 	strb.w	r1, [r7, #517]	; 0x205
		&& LD_WORD(fs->win.d8 + BPB_FSInfo) == 1
 8006a44:	2a01      	cmp	r2, #1
 8006a46:	f000 8343 	beq.w	80070d0 <f_open+0x87c>
			fs->last_clust = LD_DWORD(fs->win.d8 + FSI_Nxt_Free);
 8006a4a:	f04f 0903 	mov.w	r9, #3
	fs->id = ++Fsid;	/* File system mount ID */
 8006a4e:	4a43      	ldr	r2, [pc, #268]	; (8006b5c <f_open+0x308>)
		if (Files[i].fs == fs) Files[i].fs = 0;
 8006a50:	f8df 810c 	ldr.w	r8, [pc, #268]	; 8006b60 <f_open+0x30c>
	fs->id = ++Fsid;	/* File system mount ID */
 8006a54:	8813      	ldrh	r3, [r2, #0]
	fs->fs_type = fmt;	/* FAT sub-type */
 8006a56:	f887 9200 	strb.w	r9, [r7, #512]	; 0x200
	fs->id = ++Fsid;	/* File system mount ID */
 8006a5a:	3301      	adds	r3, #1
 8006a5c:	b29b      	uxth	r3, r3
 8006a5e:	8013      	strh	r3, [r2, #0]
		if (Files[i].fs == fs) Files[i].fs = 0;
 8006a60:	f8d8 2000 	ldr.w	r2, [r8]
	fs->id = ++Fsid;	/* File system mount ID */
 8006a64:	f8a7 3206 	strh.w	r3, [r7, #518]	; 0x206
		if (Files[i].fs == fs) Files[i].fs = 0;
 8006a68:	42ba      	cmp	r2, r7
 8006a6a:	d102      	bne.n	8006a72 <f_open+0x21e>
 8006a6c:	2300      	movs	r3, #0
 8006a6e:	f8c8 3000 	str.w	r3, [r8]
 8006a72:	f8d8 300c 	ldr.w	r3, [r8, #12]
 8006a76:	429f      	cmp	r7, r3
 8006a78:	d102      	bne.n	8006a80 <f_open+0x22c>
 8006a7a:	2300      	movs	r3, #0
 8006a7c:	f8c8 300c 	str.w	r3, [r8, #12]
		INIT_BUF(dj);
 8006a80:	f44f 7000 	mov.w	r0, #512	; 0x200
 8006a84:	f001 f81a 	bl	8007abc <ff_memalloc>
 8006a88:	4607      	mov	r7, r0
 8006a8a:	2800      	cmp	r0, #0
 8006a8c:	d034      	beq.n	8006af8 <f_open+0x2a4>
		res = follow_path(&dj, path);	/* Follow the file path */
 8006a8e:	4629      	mov	r1, r5
		INIT_BUF(dj);
 8006a90:	ab02      	add	r3, sp, #8
		res = follow_path(&dj, path);	/* Follow the file path */
 8006a92:	a806      	add	r0, sp, #24
		INIT_BUF(dj);
 8006a94:	978e      	str	r7, [sp, #568]	; 0x238
 8006a96:	938c      	str	r3, [sp, #560]	; 0x230
		res = follow_path(&dj, path);	/* Follow the file path */
 8006a98:	f7ff fab0 	bl	8005ffc <follow_path>
	mode &= FA_READ | FA_WRITE | FA_CREATE_ALWAYS | FA_OPEN_ALWAYS | FA_CREATE_NEW;
 8006a9c:	f006 0a1f 	and.w	sl, r6, #31
		if (res == FR_OK) {
 8006aa0:	4605      	mov	r5, r0
 8006aa2:	f006 0c1c 	and.w	ip, r6, #28
 8006aa6:	2800      	cmp	r0, #0
 8006aa8:	d13c      	bne.n	8006b24 <f_open+0x2d0>
		dir = dj.dir;
 8006aaa:	f8dd 922c 	ldr.w	r9, [sp, #556]	; 0x22c
			if (!dir)	/* Default directory itself */
 8006aae:	f1b9 0f00 	cmp.w	r9, #0
 8006ab2:	f000 81d8 	beq.w	8006e66 <f_open+0x612>
		if (Files[i].fs) {	/* Existing entry */
 8006ab6:	f8df 80a8 	ldr.w	r8, [pc, #168]	; 8006b60 <f_open+0x30c>
				res = chk_lock(&dj, (mode & ~FA_READ) ? 1 : 0);
 8006aba:	f02a 0101 	bic.w	r1, sl, #1
		if (Files[i].fs) {	/* Existing entry */
 8006abe:	f8d8 2000 	ldr.w	r2, [r8]
			if (Files[i].fs == dp->fs &&	 	/* Check if the object matched with an open object */
 8006ac2:	9b86      	ldr	r3, [sp, #536]	; 0x218
				Files[i].clu == dp->sclust &&
 8006ac4:	9888      	ldr	r0, [sp, #544]	; 0x220
				Files[i].idx == dp->index) break;
 8006ac6:	f8bd e21e 	ldrh.w	lr, [sp, #542]	; 0x21e
		if (Files[i].fs) {	/* Existing entry */
 8006aca:	2a00      	cmp	r2, #0
 8006acc:	f000 8113 	beq.w	8006cf6 <f_open+0x4a2>
			if (Files[i].fs == dp->fs &&	 	/* Check if the object matched with an open object */
 8006ad0:	4293      	cmp	r3, r2
 8006ad2:	f000 81e9 	beq.w	8006ea8 <f_open+0x654>
		if (Files[i].fs) {	/* Existing entry */
 8006ad6:	f8d8 200c 	ldr.w	r2, [r8, #12]
 8006ada:	2a00      	cmp	r2, #0
 8006adc:	f000 8110 	beq.w	8006d00 <f_open+0x4ac>
			if (Files[i].fs == dp->fs &&	 	/* Check if the object matched with an open object */
 8006ae0:	429a      	cmp	r2, r3
 8006ae2:	f000 81f3 	beq.w	8006ecc <f_open+0x678>
		FREE_BUF();
 8006ae6:	4638      	mov	r0, r7
 8006ae8:	f000 ffea 	bl	8007ac0 <ff_memfree>
	LEAVE_FF(dj.fs, res);
 8006aec:	9b86      	ldr	r3, [sp, #536]	; 0x218
	if (fs &&
 8006aee:	2512      	movs	r5, #18
 8006af0:	2b00      	cmp	r3, #0
 8006af2:	f040 80ac 	bne.w	8006c4e <f_open+0x3fa>
 8006af6:	e729      	b.n	800694c <f_open+0xf8>
		INIT_BUF(dj);
 8006af8:	9b86      	ldr	r3, [sp, #536]	; 0x218
	if (fs &&
 8006afa:	2b00      	cmp	r3, #0
 8006afc:	f000 80ac 	beq.w	8006c58 <f_open+0x404>
		ff_rel_grant(fs->sobj);
 8006b00:	f8d3 020c 	ldr.w	r0, [r3, #524]	; 0x20c
 8006b04:	f000 ffd8 	bl	8007ab8 <ff_rel_grant>
		INIT_BUF(dj);
 8006b08:	2511      	movs	r5, #17
 8006b0a:	e71f      	b.n	800694c <f_open+0xf8>
 8006b0c:	250b      	movs	r5, #11
}
 8006b0e:	4628      	mov	r0, r5
 8006b10:	f50d 7d11 	add.w	sp, sp, #580	; 0x244
 8006b14:	e8bd 8ff0 	ldmia.w	sp!, {r4, r5, r6, r7, r8, r9, sl, fp, pc}
	ENTER_FF(fs);						/* Lock the volume */
 8006b18:	250f      	movs	r5, #15
}
 8006b1a:	4628      	mov	r0, r5
 8006b1c:	f50d 7d11 	add.w	sp, sp, #580	; 0x244
 8006b20:	e8bd 8ff0 	ldmia.w	sp!, {r4, r5, r6, r7, r8, r9, sl, fp, pc}
		if (mode & (FA_CREATE_ALWAYS | FA_OPEN_ALWAYS | FA_CREATE_NEW)) {
 8006b24:	f1bc 0f00 	cmp.w	ip, #0
 8006b28:	f040 8098 	bne.w	8006c5c <f_open+0x408>
		FREE_BUF();
 8006b2c:	4638      	mov	r0, r7
 8006b2e:	f000 ffc7 	bl	8007ac0 <ff_memfree>
	LEAVE_FF(dj.fs, res);
 8006b32:	9b86      	ldr	r3, [sp, #536]	; 0x218
	if (fs &&
 8006b34:	2b00      	cmp	r3, #0
 8006b36:	f43f af09 	beq.w	800694c <f_open+0xf8>
 8006b3a:	2d0c      	cmp	r5, #12
 8006b3c:	f43f af06 	beq.w	800694c <f_open+0xf8>
		res != FR_NOT_ENABLED &&
 8006b40:	2d0b      	cmp	r5, #11
 8006b42:	f43f af03 	beq.w	800694c <f_open+0xf8>
		res != FR_INVALID_DRIVE &&
 8006b46:	2d09      	cmp	r5, #9
 8006b48:	f43f af00 	beq.w	800694c <f_open+0xf8>
		res != FR_INVALID_OBJECT &&
 8006b4c:	2d0f      	cmp	r5, #15
 8006b4e:	f43f aefd 	beq.w	800694c <f_open+0xf8>
 8006b52:	e07c      	b.n	8006c4e <f_open+0x3fa>
	if (!fs) return FR_NOT_ENABLED;		/* Is the file system object available? */
 8006b54:	250c      	movs	r5, #12
 8006b56:	e6f9      	b.n	800694c <f_open+0xf8>
 8006b58:	20000098 	.word	0x20000098
 8006b5c:	200000b4 	.word	0x200000b4
 8006b60:	2000009c 	.word	0x2000009c
	if (LD_WORD(&fs->win.d8[BS_55AA]) != 0xAA55)	/* Check boot record signature (always placed at offset 510 even if the sector size is >512) */
 8006b64:	f64a 2255 	movw	r2, #43605	; 0xaa55
 8006b68:	f8b7 31fe 	ldrh.w	r3, [r7, #510]	; 0x1fe
			fs->winsect = sector;
 8006b6c:	f8c7 0230 	str.w	r0, [r7, #560]	; 0x230
	if (LD_WORD(&fs->win.d8[BS_55AA]) != 0xAA55)	/* Check boot record signature (always placed at offset 510 even if the sector size is >512) */
 8006b70:	4293      	cmp	r3, r2
 8006b72:	d167      	bne.n	8006c44 <f_open+0x3f0>
	if ((LD_DWORD(&fs->win.d8[BS_FilSysType]) & 0xFFFFFF) == 0x544146)		/* Check "FAT" string */
 8006b74:	f8d7 2036 	ldr.w	r2, [r7, #54]	; 0x36
 8006b78:	49c8      	ldr	r1, [pc, #800]	; (8006e9c <f_open+0x648>)
 8006b7a:	f022 427f 	bic.w	r2, r2, #4278190080	; 0xff000000
 8006b7e:	428a      	cmp	r2, r1
 8006b80:	f43f aee9 	beq.w	8006956 <f_open+0x102>
	if ((LD_DWORD(&fs->win.d8[BS_FilSysType32]) & 0xFFFFFF) == 0x544146)	/* Check "FAT" string */
 8006b84:	f8d7 2052 	ldr.w	r2, [r7, #82]	; 0x52
 8006b88:	f022 427f 	bic.w	r2, r2, #4278190080	; 0xff000000
 8006b8c:	428a      	cmp	r2, r1
 8006b8e:	f43f aee2 	beq.w	8006956 <f_open+0x102>
			br[i] = pt[4] ? LD_DWORD(&pt[8]) : 0;
 8006b92:	f897 01c2 	ldrb.w	r0, [r7, #450]	; 0x1c2
 8006b96:	2800      	cmp	r0, #0
 8006b98:	f000 8219 	beq.w	8006fce <f_open+0x77a>
 8006b9c:	f8d7 81c6 	ldr.w	r8, [r7, #454]	; 0x1c6
 8006ba0:	f897 21d2 	ldrb.w	r2, [r7, #466]	; 0x1d2
 8006ba4:	b10a      	cbz	r2, 8006baa <f_open+0x356>
 8006ba6:	f8d7 21d6 	ldr.w	r2, [r7, #470]	; 0x1d6
 8006baa:	9203      	str	r2, [sp, #12]
 8006bac:	f897 21e2 	ldrb.w	r2, [r7, #482]	; 0x1e2
 8006bb0:	b10a      	cbz	r2, 8006bb6 <f_open+0x362>
 8006bb2:	f8d7 21e6 	ldr.w	r2, [r7, #486]	; 0x1e6
 8006bb6:	9204      	str	r2, [sp, #16]
 8006bb8:	f897 21f2 	ldrb.w	r2, [r7, #498]	; 0x1f2
 8006bbc:	b10a      	cbz	r2, 8006bc2 <f_open+0x36e>
 8006bbe:	f8d7 21f6 	ldr.w	r2, [r7, #502]	; 0x1f6
 8006bc2:	9205      	str	r2, [sp, #20]
			fmt = bsect ? check_fs(fs, bsect) : 2;	/* Check the partition */
 8006bc4:	f1b8 0f00 	cmp.w	r8, #0
 8006bc8:	f040 818b 	bne.w	8006ee2 <f_open+0x68e>
			bsect = br[i];
 8006bcc:	f8dd 800c 	ldr.w	r8, [sp, #12]
			fmt = bsect ? check_fs(fs, bsect) : 2;	/* Check the partition */
 8006bd0:	f1b8 0f00 	cmp.w	r8, #0
 8006bd4:	f040 819b 	bne.w	8006f0e <f_open+0x6ba>
			bsect = br[i];
 8006bd8:	f8dd 8010 	ldr.w	r8, [sp, #16]
			fmt = bsect ? check_fs(fs, bsect) : 2;	/* Check the partition */
 8006bdc:	f1b8 0f00 	cmp.w	r8, #0
 8006be0:	f040 81ca 	bne.w	8006f78 <f_open+0x724>
			bsect = br[i];
 8006be4:	f8dd 8014 	ldr.w	r8, [sp, #20]
			fmt = bsect ? check_fs(fs, bsect) : 2;	/* Check the partition */
 8006be8:	f1b8 0f00 	cmp.w	r8, #0
 8006bec:	d02a      	beq.n	8006c44 <f_open+0x3f0>
	fs->wflag = 0; fs->winsect = 0xFFFFFFFF;	/* Invaidate window */
 8006bee:	f04f 39ff 	mov.w	r9, #4294967295
 8006bf2:	2300      	movs	r3, #0
	if (sector != fs->winsect) {	/* Window offset changed? */
 8006bf4:	45c8      	cmp	r8, r9
	fs->wflag = 0; fs->winsect = 0xFFFFFFFF;	/* Invaidate window */
 8006bf6:	f887 3204 	strb.w	r3, [r7, #516]	; 0x204
 8006bfa:	f8c7 9230 	str.w	r9, [r7, #560]	; 0x230
	if (sector != fs->winsect) {	/* Window offset changed? */
 8006bfe:	d00c      	beq.n	8006c1a <f_open+0x3c6>
			if (disk_read(fs->drv, fs->win.d8, sector, 1) != RES_OK) {
 8006c00:	2301      	movs	r3, #1
 8006c02:	4642      	mov	r2, r8
 8006c04:	4639      	mov	r1, r7
 8006c06:	f897 0201 	ldrb.w	r0, [r7, #513]	; 0x201
 8006c0a:	f7fc fe55 	bl	80038b8 <disk_read>
 8006c0e:	b110      	cbz	r0, 8006c16 <f_open+0x3c2>
			fs->winsect = sector;
 8006c10:	f8c7 9230 	str.w	r9, [r7, #560]	; 0x230
 8006c14:	e688      	b.n	8006928 <f_open+0xd4>
 8006c16:	f8c7 8230 	str.w	r8, [r7, #560]	; 0x230
	if (LD_WORD(&fs->win.d8[BS_55AA]) != 0xAA55)	/* Check boot record signature (always placed at offset 510 even if the sector size is >512) */
 8006c1a:	f64a 2255 	movw	r2, #43605	; 0xaa55
 8006c1e:	f8b7 31fe 	ldrh.w	r3, [r7, #510]	; 0x1fe
 8006c22:	4293      	cmp	r3, r2
 8006c24:	d10e      	bne.n	8006c44 <f_open+0x3f0>
	if ((LD_DWORD(&fs->win.d8[BS_FilSysType]) & 0xFFFFFF) == 0x544146)		/* Check "FAT" string */
 8006c26:	f8d7 2036 	ldr.w	r2, [r7, #54]	; 0x36
 8006c2a:	499c      	ldr	r1, [pc, #624]	; (8006e9c <f_open+0x648>)
 8006c2c:	f022 427f 	bic.w	r2, r2, #4278190080	; 0xff000000
 8006c30:	428a      	cmp	r2, r1
 8006c32:	f43f ae91 	beq.w	8006958 <f_open+0x104>
	if ((LD_DWORD(&fs->win.d8[BS_FilSysType32]) & 0xFFFFFF) == 0x544146)	/* Check "FAT" string */
 8006c36:	f8d7 2052 	ldr.w	r2, [r7, #82]	; 0x52
 8006c3a:	f022 427f 	bic.w	r2, r2, #4278190080	; 0xff000000
 8006c3e:	428a      	cmp	r2, r1
 8006c40:	f43f ae8a 	beq.w	8006958 <f_open+0x104>
	LEAVE_FF(dj.fs, res);
 8006c44:	9b86      	ldr	r3, [sp, #536]	; 0x218
	if (fs &&
 8006c46:	2b00      	cmp	r3, #0
 8006c48:	f000 812c 	beq.w	8006ea4 <f_open+0x650>
 8006c4c:	250d      	movs	r5, #13
		ff_rel_grant(fs->sobj);
 8006c4e:	f8d3 020c 	ldr.w	r0, [r3, #524]	; 0x20c
 8006c52:	f000 ff31 	bl	8007ab8 <ff_rel_grant>
 8006c56:	e679      	b.n	800694c <f_open+0xf8>
		INIT_BUF(dj);
 8006c58:	2511      	movs	r5, #17
 8006c5a:	e677      	b.n	800694c <f_open+0xf8>
				if (res == FR_NO_FILE)			/* There is no file to open, create a new entry */
 8006c5c:	2804      	cmp	r0, #4
 8006c5e:	f47f af65 	bne.w	8006b2c <f_open+0x2d8>
	for (i = 0; i < _FS_LOCK && Files[i].fs; i++) ;
 8006c62:	f8df 823c 	ldr.w	r8, [pc, #572]	; 8006ea0 <f_open+0x64c>
 8006c66:	f8d8 3000 	ldr.w	r3, [r8]
 8006c6a:	b123      	cbz	r3, 8006c76 <f_open+0x422>
 8006c6c:	f8d8 300c 	ldr.w	r3, [r8, #12]
 8006c70:	2b00      	cmp	r3, #0
 8006c72:	f47f af38 	bne.w	8006ae6 <f_open+0x292>
					res = enq_lock() ? dir_register(&dj) : FR_TOO_MANY_OPEN_FILES;
 8006c76:	a806      	add	r0, sp, #24
 8006c78:	f7fe fbde 	bl	8005438 <dir_register>
				mode |= FA_CREATE_ALWAYS;		/* File is created */
 8006c7c:	f04a 0a08 	orr.w	sl, sl, #8
			if (res == FR_OK && (mode & FA_CREATE_ALWAYS)) {	/* Truncate it if overwrite mode */
 8006c80:	4605      	mov	r5, r0
				dir = dj.dir;					/* New entry */
 8006c82:	f8dd 922c 	ldr.w	r9, [sp, #556]	; 0x22c
			if (res == FR_OK && (mode & FA_CREATE_ALWAYS)) {	/* Truncate it if overwrite mode */
 8006c86:	2800      	cmp	r0, #0
 8006c88:	f47f af50 	bne.w	8006b2c <f_open+0x2d8>
				dw = GET_FATTIME();				/* Created time */
 8006c8c:	f7fc fd7e 	bl	800378c <get_fattime>
				dir[DIR_Attr] = 0;				/* Reset attribute */
 8006c90:	2200      	movs	r2, #0
 8006c92:	f889 200b 	strb.w	r2, [r9, #11]
				cl = ld_clust(dj.fs, dir);		/* Get start cluster */
 8006c96:	9b86      	ldr	r3, [sp, #536]	; 0x218
				ST_DWORD(dir + DIR_CrtTime, dw);
 8006c98:	f8c9 000e 	str.w	r0, [r9, #14]
				ST_DWORD(dir + DIR_FileSize, 0);/* size = 0 */
 8006c9c:	f8c9 201c 	str.w	r2, [r9, #28]
	if (fs->fs_type == FS_FAT32)
 8006ca0:	f893 2200 	ldrb.w	r2, [r3, #512]	; 0x200
	cl = LD_WORD(dir + DIR_FstClusLO);
 8006ca4:	f8b9 601a 	ldrh.w	r6, [r9, #26]
	if (fs->fs_type == FS_FAT32)
 8006ca8:	2a03      	cmp	r2, #3
 8006caa:	d103      	bne.n	8006cb4 <f_open+0x460>
		cl |= (DWORD)LD_WORD(dir + DIR_FstClusHI) << 16;
 8006cac:	f8b9 2014 	ldrh.w	r2, [r9, #20]
 8006cb0:	ea46 4602 	orr.w	r6, r6, r2, lsl #16
	ST_WORD(dir + DIR_FstClusLO, cl);
 8006cb4:	2200      	movs	r2, #0
				dj.fs->wflag = 1;
 8006cb6:	2101      	movs	r1, #1
	ST_WORD(dir + DIR_FstClusLO, cl);
 8006cb8:	f8a9 201a 	strh.w	r2, [r9, #26]
	ST_WORD(dir + DIR_FstClusHI, cl >> 16);
 8006cbc:	f8a9 2014 	strh.w	r2, [r9, #20]
				dj.fs->wflag = 1;
 8006cc0:	f883 1204 	strb.w	r1, [r3, #516]	; 0x204
 8006cc4:	f8d3 2230 	ldr.w	r2, [r3, #560]	; 0x230
				if (cl) {						/* Remove the cluster chain if exist */
 8006cc8:	2e00      	cmp	r6, #0
 8006cca:	f000 81cf 	beq.w	800706c <f_open+0x818>
	if (clst < 2 || clst >= fs->n_fatent) {	/* Check range */
 8006cce:	2e01      	cmp	r6, #1
 8006cd0:	d004      	beq.n	8006cdc <f_open+0x488>
 8006cd2:	f8d3 1218 	ldr.w	r1, [r3, #536]	; 0x218
 8006cd6:	42b1      	cmp	r1, r6
 8006cd8:	f200 81ab 	bhi.w	8007032 <f_open+0x7de>
		FREE_BUF();
 8006cdc:	4638      	mov	r0, r7
 8006cde:	f000 feef 	bl	8007ac0 <ff_memfree>
	LEAVE_FF(dj.fs, res);
 8006ce2:	9b86      	ldr	r3, [sp, #536]	; 0x218
	if (fs &&
 8006ce4:	2b00      	cmp	r3, #0
 8006ce6:	d16c      	bne.n	8006dc2 <f_open+0x56e>
		res = FR_INT_ERR;
 8006ce8:	2502      	movs	r5, #2
 8006cea:	e62f      	b.n	800694c <f_open+0xf8>
	LEAVE_FF(dj.fs, res);
 8006cec:	9b86      	ldr	r3, [sp, #536]	; 0x218
		return FR_NOT_READY;			/* Failed to initialize due to no medium or hard error */
 8006cee:	2503      	movs	r5, #3
	if (fs &&
 8006cf0:	2b00      	cmp	r3, #0
 8006cf2:	d1ac      	bne.n	8006c4e <f_open+0x3fa>
 8006cf4:	e62a      	b.n	800694c <f_open+0xf8>
		if (Files[i].fs) {	/* Existing entry */
 8006cf6:	f8d8 200c 	ldr.w	r2, [r8, #12]
 8006cfa:	b10a      	cbz	r2, 8006d00 <f_open+0x4ac>
			if (Files[i].fs == dp->fs &&	 	/* Check if the object matched with an open object */
 8006cfc:	429a      	cmp	r2, r3
 8006cfe:	d010      	beq.n	8006d22 <f_open+0x4ce>
		if (mode & (FA_CREATE_ALWAYS | FA_OPEN_ALWAYS | FA_CREATE_NEW)) {
 8006d00:	f1bc 0f00 	cmp.w	ip, #0
 8006d04:	d028      	beq.n	8006d58 <f_open+0x504>
				if (dir[DIR_Attr] & (AM_RDO | AM_DIR)) {	/* Cannot overwrite it (R/O or DIR) */
 8006d06:	f899 200b 	ldrb.w	r2, [r9, #11]
 8006d0a:	f012 0f11 	tst.w	r2, #17
 8006d0e:	f000 80b3 	beq.w	8006e78 <f_open+0x624>
		FREE_BUF();
 8006d12:	4638      	mov	r0, r7
 8006d14:	f000 fed4 	bl	8007ac0 <ff_memfree>
	LEAVE_FF(dj.fs, res);
 8006d18:	9b86      	ldr	r3, [sp, #536]	; 0x218
					res = FR_DENIED;
 8006d1a:	2507      	movs	r5, #7
	if (fs &&
 8006d1c:	2b00      	cmp	r3, #0
 8006d1e:	d196      	bne.n	8006c4e <f_open+0x3fa>
 8006d20:	e614      	b.n	800694c <f_open+0xf8>
			if (Files[i].fs == dp->fs &&	 	/* Check if the object matched with an open object */
 8006d22:	f8d8 2010 	ldr.w	r2, [r8, #16]
 8006d26:	4282      	cmp	r2, r0
 8006d28:	d1ea      	bne.n	8006d00 <f_open+0x4ac>
				Files[i].clu == dp->sclust &&
 8006d2a:	f8b8 2014 	ldrh.w	r2, [r8, #20]
 8006d2e:	4572      	cmp	r2, lr
 8006d30:	d1e6      	bne.n	8006d00 <f_open+0x4ac>
 8006d32:	2501      	movs	r5, #1
	return (acc || Files[i].ctr == 0x100) ? FR_LOCKED : FR_OK;
 8006d34:	b939      	cbnz	r1, 8006d46 <f_open+0x4f2>
 8006d36:	006a      	lsls	r2, r5, #1
 8006d38:	442a      	add	r2, r5
 8006d3a:	eb08 0282 	add.w	r2, r8, r2, lsl #2
 8006d3e:	8952      	ldrh	r2, [r2, #10]
 8006d40:	f5b2 7f80 	cmp.w	r2, #256	; 0x100
 8006d44:	d1dc      	bne.n	8006d00 <f_open+0x4ac>
		FREE_BUF();
 8006d46:	4638      	mov	r0, r7
 8006d48:	f000 feba 	bl	8007ac0 <ff_memfree>
	LEAVE_FF(dj.fs, res);
 8006d4c:	9b86      	ldr	r3, [sp, #536]	; 0x218
	if (fs &&
 8006d4e:	2510      	movs	r5, #16
 8006d50:	2b00      	cmp	r3, #0
 8006d52:	f47f af7c 	bne.w	8006c4e <f_open+0x3fa>
 8006d56:	e5f9      	b.n	800694c <f_open+0xf8>
				if (dir[DIR_Attr] & AM_DIR) {	/* It is a directory */
 8006d58:	f899 200b 	ldrb.w	r2, [r9, #11]
 8006d5c:	06d5      	lsls	r5, r2, #27
 8006d5e:	f100 8102 	bmi.w	8006f66 <f_open+0x712>
					if ((mode & FA_WRITE) && (dir[DIR_Attr] & AM_RDO)) /* R/O violation */
 8006d62:	07b5      	lsls	r5, r6, #30
 8006d64:	d50a      	bpl.n	8006d7c <f_open+0x528>
 8006d66:	07d2      	lsls	r2, r2, #31
 8006d68:	d508      	bpl.n	8006d7c <f_open+0x528>
		FREE_BUF();
 8006d6a:	4638      	mov	r0, r7
 8006d6c:	f000 fea8 	bl	8007ac0 <ff_memfree>
	LEAVE_FF(dj.fs, res);
 8006d70:	9b86      	ldr	r3, [sp, #536]	; 0x218
						res = FR_DENIED;
 8006d72:	2507      	movs	r5, #7
	if (fs &&
 8006d74:	2b00      	cmp	r3, #0
 8006d76:	f43f ade9 	beq.w	800694c <f_open+0xf8>
 8006d7a:	e768      	b.n	8006c4e <f_open+0x3fa>
			if (mode & FA_CREATE_ALWAYS)		/* Set file change flag if created or overwritten */
 8006d7c:	0735      	lsls	r5, r6, #28
 8006d7e:	f8d3 2230 	ldr.w	r2, [r3, #560]	; 0x230
 8006d82:	d503      	bpl.n	8006d8c <f_open+0x538>
				mode |= FA__WRITTEN;
 8006d84:	f04a 0a20 	orr.w	sl, sl, #32
 8006d88:	f02a 0101 	bic.w	r1, sl, #1
		if (Files[i].fs == dp->fs &&
 8006d8c:	f8d8 5000 	ldr.w	r5, [r8]
			fp->dir_sect = dj.fs->winsect;		/* Pointer to the directory entry */
 8006d90:	f8c4 221c 	str.w	r2, [r4, #540]	; 0x21c
		if (Files[i].fs == dp->fs &&
 8006d94:	42ab      	cmp	r3, r5
			fp->dir_ptr = dir;
 8006d96:	f8c4 9220 	str.w	r9, [r4, #544]	; 0x220
		if (Files[i].fs == dp->fs &&
 8006d9a:	d05a      	beq.n	8006e52 <f_open+0x5fe>
 8006d9c:	f8d8 600c 	ldr.w	r6, [r8, #12]
 8006da0:	429e      	cmp	r6, r3
 8006da2:	d010      	beq.n	8006dc6 <f_open+0x572>
		for (i = 0; i < _FS_LOCK && Files[i].fs; i++) ;
 8006da4:	2d00      	cmp	r5, #0
 8006da6:	f000 8114 	beq.w	8006fd2 <f_open+0x77e>
 8006daa:	2e00      	cmp	r6, #0
 8006dac:	f000 8162 	beq.w	8007074 <f_open+0x820>
			fp->lockid = inc_lock(&dj, (mode & ~FA_READ) ? 1 : 0);
 8006db0:	2300      	movs	r3, #0
		FREE_BUF();
 8006db2:	4638      	mov	r0, r7
			fp->lockid = inc_lock(&dj, (mode & ~FA_READ) ? 1 : 0);
 8006db4:	f8c4 3228 	str.w	r3, [r4, #552]	; 0x228
		FREE_BUF();
 8006db8:	f000 fe82 	bl	8007ac0 <ff_memfree>
	LEAVE_FF(dj.fs, res);
 8006dbc:	9b86      	ldr	r3, [sp, #536]	; 0x218
	if (fs &&
 8006dbe:	2b00      	cmp	r3, #0
 8006dc0:	d092      	beq.n	8006ce8 <f_open+0x494>
 8006dc2:	2502      	movs	r5, #2
 8006dc4:	e743      	b.n	8006c4e <f_open+0x3fa>
		if (Files[i].fs == dp->fs &&
 8006dc6:	f8d8 2010 	ldr.w	r2, [r8, #16]
 8006dca:	4282      	cmp	r2, r0
 8006dcc:	d1ea      	bne.n	8006da4 <f_open+0x550>
			Files[i].clu == dp->sclust &&
 8006dce:	f8b8 2014 	ldrh.w	r2, [r8, #20]
 8006dd2:	4572      	cmp	r2, lr
 8006dd4:	d1e6      	bne.n	8006da4 <f_open+0x550>
	for (i = 0; i < _FS_LOCK; i++) {	/* Find the object */
 8006dd6:	2501      	movs	r5, #1
 8006dd8:	006a      	lsls	r2, r5, #1
 8006dda:	1953      	adds	r3, r2, r5
 8006ddc:	eb08 0383 	add.w	r3, r8, r3, lsl #2
 8006de0:	895b      	ldrh	r3, [r3, #10]
	if (acc && Files[i].ctr) return 0;	/* Access violation (int err) */
 8006de2:	bb81      	cbnz	r1, 8006e46 <f_open+0x5f2>
 8006de4:	3301      	adds	r3, #1
 8006de6:	b29b      	uxth	r3, r3
 8006de8:	1c6e      	adds	r6, r5, #1
	Files[i].ctr = acc ? 0x100 : Files[i].ctr + 1;	/* Set semaphore value */
 8006dea:	442a      	add	r2, r5
 8006dec:	eb08 0882 	add.w	r8, r8, r2, lsl #2
 8006df0:	f8a8 300a 	strh.w	r3, [r8, #10]
			fp->lockid = inc_lock(&dj, (mode & ~FA_READ) ? 1 : 0);
 8006df4:	f8c4 6228 	str.w	r6, [r4, #552]	; 0x228
		FREE_BUF();
 8006df8:	4638      	mov	r0, r7
 8006dfa:	f000 fe61 	bl	8007ac0 <ff_memfree>
			fp->err = 0;						/* Clear error flag */
 8006dfe:	2200      	movs	r2, #0
			fp->sclust = ld_clust(dj.fs, dir);	/* File start cluster */
 8006e00:	9b86      	ldr	r3, [sp, #536]	; 0x218
			fp->flag = mode;					/* File access mode */
 8006e02:	f884 a206 	strb.w	sl, [r4, #518]	; 0x206
			fp->err = 0;						/* Clear error flag */
 8006e06:	f884 2207 	strb.w	r2, [r4, #519]	; 0x207
	if (fs->fs_type == FS_FAT32)
 8006e0a:	f893 1200 	ldrb.w	r1, [r3, #512]	; 0x200
	cl = LD_WORD(dir + DIR_FstClusLO);
 8006e0e:	f8b9 201a 	ldrh.w	r2, [r9, #26]
	if (fs->fs_type == FS_FAT32)
 8006e12:	2903      	cmp	r1, #3
 8006e14:	d103      	bne.n	8006e1e <f_open+0x5ca>
		cl |= (DWORD)LD_WORD(dir + DIR_FstClusHI) << 16;
 8006e16:	f8b9 1014 	ldrh.w	r1, [r9, #20]
 8006e1a:	ea42 4201 	orr.w	r2, r2, r1, lsl #16
			fp->fptr = 0;						/* File pointer */
 8006e1e:	2500      	movs	r5, #0
			fp->sclust = ld_clust(dj.fs, dir);	/* File start cluster */
 8006e20:	f8c4 2210 	str.w	r2, [r4, #528]	; 0x210
			fp->fsize = LD_DWORD(dir + DIR_FileSize);	/* File size */
 8006e24:	f8d9 101c 	ldr.w	r1, [r9, #28]
			fp->id = fp->fs->id;
 8006e28:	f8b3 2206 	ldrh.w	r2, [r3, #518]	; 0x206
			fp->fsize = LD_DWORD(dir + DIR_FileSize);	/* File size */
 8006e2c:	f8c4 120c 	str.w	r1, [r4, #524]	; 0x20c
			fp->fs = dj.fs;	 					/* Validate file object */
 8006e30:	f8c4 3200 	str.w	r3, [r4, #512]	; 0x200
			fp->fptr = 0;						/* File pointer */
 8006e34:	f8c4 5208 	str.w	r5, [r4, #520]	; 0x208
			fp->dsect = 0;
 8006e38:	f8c4 5218 	str.w	r5, [r4, #536]	; 0x218
			fp->cltbl = 0;						/* Normal seek mode */
 8006e3c:	f8c4 5224 	str.w	r5, [r4, #548]	; 0x224
			fp->id = fp->fs->id;
 8006e40:	f8a4 2204 	strh.w	r2, [r4, #516]	; 0x204
 8006e44:	e703      	b.n	8006c4e <f_open+0x3fa>
	if (acc && Files[i].ctr) return 0;	/* Access violation (int err) */
 8006e46:	2b00      	cmp	r3, #0
 8006e48:	d1b2      	bne.n	8006db0 <f_open+0x55c>
	Files[i].ctr = acc ? 0x100 : Files[i].ctr + 1;	/* Set semaphore value */
 8006e4a:	f44f 7380 	mov.w	r3, #256	; 0x100
 8006e4e:	1c6e      	adds	r6, r5, #1
 8006e50:	e7cb      	b.n	8006dea <f_open+0x596>
		if (Files[i].fs == dp->fs &&
 8006e52:	f8d8 2004 	ldr.w	r2, [r8, #4]
 8006e56:	4290      	cmp	r0, r2
 8006e58:	d1a0      	bne.n	8006d9c <f_open+0x548>
			Files[i].clu == dp->sclust &&
 8006e5a:	f8b8 2008 	ldrh.w	r2, [r8, #8]
 8006e5e:	4572      	cmp	r2, lr
 8006e60:	d19c      	bne.n	8006d9c <f_open+0x548>
	for (i = 0; i < _FS_LOCK; i++) {	/* Find the object */
 8006e62:	2500      	movs	r5, #0
 8006e64:	e7b8      	b.n	8006dd8 <f_open+0x584>
		FREE_BUF();
 8006e66:	4638      	mov	r0, r7
 8006e68:	f000 fe2a 	bl	8007ac0 <ff_memfree>
	LEAVE_FF(dj.fs, res);
 8006e6c:	9b86      	ldr	r3, [sp, #536]	; 0x218
				res = FR_INVALID_NAME;
 8006e6e:	2506      	movs	r5, #6
	if (fs &&
 8006e70:	2b00      	cmp	r3, #0
 8006e72:	f47f aeec 	bne.w	8006c4e <f_open+0x3fa>
 8006e76:	e569      	b.n	800694c <f_open+0xf8>
					if (mode & FA_CREATE_NEW)	/* Cannot create as new file */
 8006e78:	0772      	lsls	r2, r6, #29
 8006e7a:	d508      	bpl.n	8006e8e <f_open+0x63a>
		FREE_BUF();
 8006e7c:	4638      	mov	r0, r7
 8006e7e:	f000 fe1f 	bl	8007ac0 <ff_memfree>
	LEAVE_FF(dj.fs, res);
 8006e82:	9b86      	ldr	r3, [sp, #536]	; 0x218
						res = FR_EXIST;
 8006e84:	2508      	movs	r5, #8
	if (fs &&
 8006e86:	2b00      	cmp	r3, #0
 8006e88:	f47f aee1 	bne.w	8006c4e <f_open+0x3fa>
 8006e8c:	e55e      	b.n	800694c <f_open+0xf8>
			if (res == FR_OK && (mode & FA_CREATE_ALWAYS)) {	/* Truncate it if overwrite mode */
 8006e8e:	0736      	lsls	r6, r6, #28
 8006e90:	f53f aefc 	bmi.w	8006c8c <f_open+0x438>
 8006e94:	f8d3 2230 	ldr.w	r2, [r3, #560]	; 0x230
 8006e98:	e778      	b.n	8006d8c <f_open+0x538>
 8006e9a:	bf00      	nop
 8006e9c:	00544146 	.word	0x00544146
 8006ea0:	2000009c 	.word	0x2000009c
		return FR_NO_FILESYSTEM;
 8006ea4:	250d      	movs	r5, #13
 8006ea6:	e551      	b.n	800694c <f_open+0xf8>
			if (Files[i].fs == dp->fs &&	 	/* Check if the object matched with an open object */
 8006ea8:	f8d8 2004 	ldr.w	r2, [r8, #4]
 8006eac:	4290      	cmp	r0, r2
 8006eae:	f47f ae12 	bne.w	8006ad6 <f_open+0x282>
				Files[i].clu == dp->sclust &&
 8006eb2:	f8b8 2008 	ldrh.w	r2, [r8, #8]
 8006eb6:	4572      	cmp	r2, lr
 8006eb8:	f43f af3c 	beq.w	8006d34 <f_open+0x4e0>
		if (Files[i].fs) {	/* Existing entry */
 8006ebc:	f8d8 200c 	ldr.w	r2, [r8, #12]
 8006ec0:	2a00      	cmp	r2, #0
 8006ec2:	f43f af1d 	beq.w	8006d00 <f_open+0x4ac>
			if (Files[i].fs == dp->fs &&	 	/* Check if the object matched with an open object */
 8006ec6:	4293      	cmp	r3, r2
 8006ec8:	f47f ae0d 	bne.w	8006ae6 <f_open+0x292>
 8006ecc:	f8d8 2010 	ldr.w	r2, [r8, #16]
 8006ed0:	4282      	cmp	r2, r0
 8006ed2:	f47f ae08 	bne.w	8006ae6 <f_open+0x292>
				Files[i].clu == dp->sclust &&
 8006ed6:	f8b8 2014 	ldrh.w	r2, [r8, #20]
 8006eda:	4572      	cmp	r2, lr
 8006edc:	f47f ae03 	bne.w	8006ae6 <f_open+0x292>
 8006ee0:	e727      	b.n	8006d32 <f_open+0x4de>
	fs->wflag = 0; fs->winsect = 0xFFFFFFFF;	/* Invaidate window */
 8006ee2:	f04f 39ff 	mov.w	r9, #4294967295
 8006ee6:	2200      	movs	r2, #0
	if (sector != fs->winsect) {	/* Window offset changed? */
 8006ee8:	45c8      	cmp	r8, r9
	fs->wflag = 0; fs->winsect = 0xFFFFFFFF;	/* Invaidate window */
 8006eea:	f887 2204 	strb.w	r2, [r7, #516]	; 0x204
 8006eee:	f8c7 9230 	str.w	r9, [r7, #560]	; 0x230
	if (sector != fs->winsect) {	/* Window offset changed? */
 8006ef2:	f000 808e 	beq.w	8007012 <f_open+0x7be>
			if (disk_read(fs->drv, fs->win.d8, sector, 1) != RES_OK) {
 8006ef6:	2301      	movs	r3, #1
 8006ef8:	4642      	mov	r2, r8
 8006efa:	4639      	mov	r1, r7
 8006efc:	f897 0201 	ldrb.w	r0, [r7, #513]	; 0x201
 8006f00:	f7fc fcda 	bl	80038b8 <disk_read>
 8006f04:	2800      	cmp	r0, #0
 8006f06:	d07b      	beq.n	8007000 <f_open+0x7ac>
			fs->winsect = sector;
 8006f08:	f8c7 9230 	str.w	r9, [r7, #560]	; 0x230
 8006f0c:	e65e      	b.n	8006bcc <f_open+0x378>
	fs->wflag = 0; fs->winsect = 0xFFFFFFFF;	/* Invaidate window */
 8006f0e:	f04f 39ff 	mov.w	r9, #4294967295
 8006f12:	2300      	movs	r3, #0
	if (sector != fs->winsect) {	/* Window offset changed? */
 8006f14:	45c8      	cmp	r8, r9
	fs->wflag = 0; fs->winsect = 0xFFFFFFFF;	/* Invaidate window */
 8006f16:	f887 3204 	strb.w	r3, [r7, #516]	; 0x204
 8006f1a:	f8c7 9230 	str.w	r9, [r7, #560]	; 0x230
	if (sector != fs->winsect) {	/* Window offset changed? */
 8006f1e:	d00b      	beq.n	8006f38 <f_open+0x6e4>
			if (disk_read(fs->drv, fs->win.d8, sector, 1) != RES_OK) {
 8006f20:	2301      	movs	r3, #1
 8006f22:	4642      	mov	r2, r8
 8006f24:	4639      	mov	r1, r7
 8006f26:	f897 0201 	ldrb.w	r0, [r7, #513]	; 0x201
 8006f2a:	f7fc fcc5 	bl	80038b8 <disk_read>
 8006f2e:	2800      	cmp	r0, #0
 8006f30:	f040 80a6 	bne.w	8007080 <f_open+0x82c>
			fs->winsect = sector;
 8006f34:	f8c7 8230 	str.w	r8, [r7, #560]	; 0x230
	if (LD_WORD(&fs->win.d8[BS_55AA]) != 0xAA55)	/* Check boot record signature (always placed at offset 510 even if the sector size is >512) */
 8006f38:	f64a 2255 	movw	r2, #43605	; 0xaa55
 8006f3c:	f8b7 31fe 	ldrh.w	r3, [r7, #510]	; 0x1fe
 8006f40:	4293      	cmp	r3, r2
 8006f42:	f47f ae49 	bne.w	8006bd8 <f_open+0x384>
	if ((LD_DWORD(&fs->win.d8[BS_FilSysType]) & 0xFFFFFF) == 0x544146)		/* Check "FAT" string */
 8006f46:	f8d7 2036 	ldr.w	r2, [r7, #54]	; 0x36
 8006f4a:	497a      	ldr	r1, [pc, #488]	; (8007134 <f_open+0x8e0>)
 8006f4c:	f022 427f 	bic.w	r2, r2, #4278190080	; 0xff000000
 8006f50:	428a      	cmp	r2, r1
 8006f52:	f43f ad01 	beq.w	8006958 <f_open+0x104>
	if ((LD_DWORD(&fs->win.d8[BS_FilSysType32]) & 0xFFFFFF) == 0x544146)	/* Check "FAT" string */
 8006f56:	f8d7 2052 	ldr.w	r2, [r7, #82]	; 0x52
 8006f5a:	f022 427f 	bic.w	r2, r2, #4278190080	; 0xff000000
 8006f5e:	428a      	cmp	r2, r1
 8006f60:	f47f ae3a 	bne.w	8006bd8 <f_open+0x384>
 8006f64:	e4f8      	b.n	8006958 <f_open+0x104>
		FREE_BUF();
 8006f66:	4638      	mov	r0, r7
 8006f68:	f000 fdaa 	bl	8007ac0 <ff_memfree>
	LEAVE_FF(dj.fs, res);
 8006f6c:	9b86      	ldr	r3, [sp, #536]	; 0x218
					res = FR_NO_FILE;
 8006f6e:	2504      	movs	r5, #4
	if (fs &&
 8006f70:	2b00      	cmp	r3, #0
 8006f72:	f43f aceb 	beq.w	800694c <f_open+0xf8>
 8006f76:	e66a      	b.n	8006c4e <f_open+0x3fa>
	fs->wflag = 0; fs->winsect = 0xFFFFFFFF;	/* Invaidate window */
 8006f78:	f04f 39ff 	mov.w	r9, #4294967295
 8006f7c:	2300      	movs	r3, #0
	if (sector != fs->winsect) {	/* Window offset changed? */
 8006f7e:	45c8      	cmp	r8, r9
	fs->wflag = 0; fs->winsect = 0xFFFFFFFF;	/* Invaidate window */
 8006f80:	f887 3204 	strb.w	r3, [r7, #516]	; 0x204
 8006f84:	f8c7 9230 	str.w	r9, [r7, #560]	; 0x230
	if (sector != fs->winsect) {	/* Window offset changed? */
 8006f88:	d00a      	beq.n	8006fa0 <f_open+0x74c>
			if (disk_read(fs->drv, fs->win.d8, sector, 1) != RES_OK) {
 8006f8a:	2301      	movs	r3, #1
 8006f8c:	4642      	mov	r2, r8
 8006f8e:	4639      	mov	r1, r7
 8006f90:	f897 0201 	ldrb.w	r0, [r7, #513]	; 0x201
 8006f94:	f7fc fc90 	bl	80038b8 <disk_read>
 8006f98:	2800      	cmp	r0, #0
 8006f9a:	d16e      	bne.n	800707a <f_open+0x826>
			fs->winsect = sector;
 8006f9c:	f8c7 8230 	str.w	r8, [r7, #560]	; 0x230
	if (LD_WORD(&fs->win.d8[BS_55AA]) != 0xAA55)	/* Check boot record signature (always placed at offset 510 even if the sector size is >512) */
 8006fa0:	f64a 2255 	movw	r2, #43605	; 0xaa55
 8006fa4:	f8b7 31fe 	ldrh.w	r3, [r7, #510]	; 0x1fe
 8006fa8:	4293      	cmp	r3, r2
 8006faa:	f47f ae1b 	bne.w	8006be4 <f_open+0x390>
	if ((LD_DWORD(&fs->win.d8[BS_FilSysType]) & 0xFFFFFF) == 0x544146)		/* Check "FAT" string */
 8006fae:	f8d7 2036 	ldr.w	r2, [r7, #54]	; 0x36
 8006fb2:	4960      	ldr	r1, [pc, #384]	; (8007134 <f_open+0x8e0>)
 8006fb4:	f022 427f 	bic.w	r2, r2, #4278190080	; 0xff000000
 8006fb8:	428a      	cmp	r2, r1
 8006fba:	f43f accd 	beq.w	8006958 <f_open+0x104>
	if ((LD_DWORD(&fs->win.d8[BS_FilSysType32]) & 0xFFFFFF) == 0x544146)	/* Check "FAT" string */
 8006fbe:	f8d7 2052 	ldr.w	r2, [r7, #82]	; 0x52
 8006fc2:	f022 427f 	bic.w	r2, r2, #4278190080	; 0xff000000
 8006fc6:	428a      	cmp	r2, r1
 8006fc8:	f47f ae0c 	bne.w	8006be4 <f_open+0x390>
 8006fcc:	e4c4      	b.n	8006958 <f_open+0x104>
			br[i] = pt[4] ? LD_DWORD(&pt[8]) : 0;
 8006fce:	4680      	mov	r8, r0
 8006fd0:	e5e6      	b.n	8006ba0 <f_open+0x34c>
		for (i = 0; i < _FS_LOCK && Files[i].fs; i++) ;
 8006fd2:	2601      	movs	r6, #1
		Files[i].ctr = 0;
 8006fd4:	f04f 0c00 	mov.w	ip, #0
		Files[i].fs = dp->fs;
 8006fd8:	006a      	lsls	r2, r5, #1
	if (acc && Files[i].ctr) return 0;	/* Access violation (int err) */
 8006fda:	4561      	cmp	r1, ip
		Files[i].fs = dp->fs;
 8006fdc:	eb02 0105 	add.w	r1, r2, r5
 8006fe0:	ea4f 0181 	mov.w	r1, r1, lsl #2
 8006fe4:	f848 3001 	str.w	r3, [r8, r1]
 8006fe8:	eb08 0301 	add.w	r3, r8, r1
		Files[i].clu = dp->sclust;
 8006fec:	6058      	str	r0, [r3, #4]
		Files[i].idx = dp->index;
 8006fee:	f8a3 e008 	strh.w	lr, [r3, #8]
		Files[i].ctr = 0;
 8006ff2:	f8a3 c00a 	strh.w	ip, [r3, #10]
	if (acc && Files[i].ctr) return 0;	/* Access violation (int err) */
 8006ff6:	bf14      	ite	ne
 8006ff8:	f44f 7380 	movne.w	r3, #256	; 0x100
 8006ffc:	2301      	moveq	r3, #1
 8006ffe:	e6f4      	b.n	8006dea <f_open+0x596>
	if (LD_WORD(&fs->win.d8[BS_55AA]) != 0xAA55)	/* Check boot record signature (always placed at offset 510 even if the sector size is >512) */
 8007000:	f64a 2255 	movw	r2, #43605	; 0xaa55
 8007004:	f8b7 31fe 	ldrh.w	r3, [r7, #510]	; 0x1fe
			fs->winsect = sector;
 8007008:	f8c7 8230 	str.w	r8, [r7, #560]	; 0x230
	if (LD_WORD(&fs->win.d8[BS_55AA]) != 0xAA55)	/* Check boot record signature (always placed at offset 510 even if the sector size is >512) */
 800700c:	4293      	cmp	r3, r2
 800700e:	f47f addd 	bne.w	8006bcc <f_open+0x378>
	if ((LD_DWORD(&fs->win.d8[BS_FilSysType]) & 0xFFFFFF) == 0x544146)		/* Check "FAT" string */
 8007012:	f8d7 2036 	ldr.w	r2, [r7, #54]	; 0x36
 8007016:	4947      	ldr	r1, [pc, #284]	; (8007134 <f_open+0x8e0>)
 8007018:	f022 427f 	bic.w	r2, r2, #4278190080	; 0xff000000
 800701c:	428a      	cmp	r2, r1
 800701e:	f43f ac9b 	beq.w	8006958 <f_open+0x104>
	if ((LD_DWORD(&fs->win.d8[BS_FilSysType32]) & 0xFFFFFF) == 0x544146)	/* Check "FAT" string */
 8007022:	f8d7 2052 	ldr.w	r2, [r7, #82]	; 0x52
 8007026:	f022 427f 	bic.w	r2, r2, #4278190080	; 0xff000000
 800702a:	428a      	cmp	r2, r1
 800702c:	f47f adce 	bne.w	8006bcc <f_open+0x378>
 8007030:	e492      	b.n	8006958 <f_open+0x104>
 8007032:	4618      	mov	r0, r3
 8007034:	4631      	mov	r1, r6
 8007036:	9201      	str	r2, [sp, #4]
 8007038:	f7fc fd0e 	bl	8003a58 <remove_chain.part.12>
					if (res == FR_OK) {
 800703c:	4605      	mov	r5, r0
 800703e:	2800      	cmp	r0, #0
 8007040:	f47f ad74 	bne.w	8006b2c <f_open+0x2d8>
						dj.fs->last_clust = cl - 1;	/* Reuse the cluster hole */
 8007044:	9b86      	ldr	r3, [sp, #536]	; 0x218
	if (sector != fs->winsect) {	/* Window offset changed? */
 8007046:	9a01      	ldr	r2, [sp, #4]
 8007048:	f8d3 1230 	ldr.w	r1, [r3, #560]	; 0x230
						dj.fs->last_clust = cl - 1;	/* Reuse the cluster hole */
 800704c:	3e01      	subs	r6, #1
	if (sector != fs->winsect) {	/* Window offset changed? */
 800704e:	4291      	cmp	r1, r2
						dj.fs->last_clust = cl - 1;	/* Reuse the cluster hole */
 8007050:	f8c3 6210 	str.w	r6, [r3, #528]	; 0x210
	if (sector != fs->winsect) {	/* Window offset changed? */
 8007054:	d00a      	beq.n	800706c <f_open+0x818>
 8007056:	4611      	mov	r1, r2
 8007058:	4618      	mov	r0, r3
 800705a:	f7fc fc57 	bl	800390c <move_window.part.3>
		if (res == FR_OK) {
 800705e:	4605      	mov	r5, r0
 8007060:	2800      	cmp	r0, #0
 8007062:	f47f ad63 	bne.w	8006b2c <f_open+0x2d8>
 8007066:	9b86      	ldr	r3, [sp, #536]	; 0x218
 8007068:	f8d3 2230 	ldr.w	r2, [r3, #560]	; 0x230
 800706c:	9888      	ldr	r0, [sp, #544]	; 0x220
 800706e:	f8bd e21e 	ldrh.w	lr, [sp, #542]	; 0x21e
 8007072:	e687      	b.n	8006d84 <f_open+0x530>
		for (i = 0; i < _FS_LOCK && Files[i].fs; i++) ;
 8007074:	2602      	movs	r6, #2
 8007076:	2501      	movs	r5, #1
 8007078:	e7ac      	b.n	8006fd4 <f_open+0x780>
			fs->winsect = sector;
 800707a:	f8c7 9230 	str.w	r9, [r7, #560]	; 0x230
 800707e:	e5b1      	b.n	8006be4 <f_open+0x390>
 8007080:	f8c7 9230 	str.w	r9, [r7, #560]	; 0x230
 8007084:	e5a8      	b.n	8006bd8 <f_open+0x384>
		if (!fs->n_rootdir)	return FR_NO_FILESYSTEM;	/* (BPB_RootEntCnt must not be 0) */
 8007086:	f1bb 0f00 	cmp.w	fp, #0
 800708a:	f43f addb 	beq.w	8006c44 <f_open+0x3f0>
		fs->dirbase = fs->fatbase + fasize;				/* Root directory start sector */
 800708e:	9b01      	ldr	r3, [sp, #4]
			fs->n_fatent * 2 : fs->n_fatent * 3 / 2 + (fs->n_fatent & 1);
 8007090:	f1b9 0f02 	cmp.w	r9, #2
		fs->dirbase = fs->fatbase + fasize;				/* Root directory start sector */
 8007094:	4453      	add	r3, sl
 8007096:	f8c7 3228 	str.w	r3, [r7, #552]	; 0x228
			fs->n_fatent * 2 : fs->n_fatent * 3 / 2 + (fs->n_fatent & 1);
 800709a:	d017      	beq.n	80070cc <f_open+0x878>
 800709c:	f04f 0901 	mov.w	r9, #1
 80070a0:	eb00 0340 	add.w	r3, r0, r0, lsl #1
 80070a4:	f000 0001 	and.w	r0, r0, #1
 80070a8:	eb00 0053 	add.w	r0, r0, r3, lsr #1
	if (fs->fsize < (szbfat + (SS(fs) - 1)) / SS(fs))	/* (BPB_FATSz must not be less than the size needed) */
 80070ac:	f200 10ff 	addw	r0, r0, #511	; 0x1ff
 80070b0:	ebb2 2f50 	cmp.w	r2, r0, lsr #9
 80070b4:	f4ff adc6 	bcc.w	8006c44 <f_open+0x3f0>
	fs->last_clust = fs->free_clust = 0xFFFFFFFF;
 80070b8:	f04f 33ff 	mov.w	r3, #4294967295
	fs->fsi_flag = 0x80;
 80070bc:	2280      	movs	r2, #128	; 0x80
	fs->last_clust = fs->free_clust = 0xFFFFFFFF;
 80070be:	f8c7 3214 	str.w	r3, [r7, #532]	; 0x214
 80070c2:	f8c7 3210 	str.w	r3, [r7, #528]	; 0x210
	fs->fsi_flag = 0x80;
 80070c6:	f887 2205 	strb.w	r2, [r7, #517]	; 0x205
 80070ca:	e4c0      	b.n	8006a4e <f_open+0x1fa>
			fs->n_fatent * 2 : fs->n_fatent * 3 / 2 + (fs->n_fatent & 1);
 80070cc:	0040      	lsls	r0, r0, #1
 80070ce:	e7ed      	b.n	80070ac <f_open+0x858>
	if (sector != fs->winsect) {	/* Window offset changed? */
 80070d0:	f8d7 2230 	ldr.w	r2, [r7, #560]	; 0x230
		&& move_window(fs, bsect + 1) == FR_OK)
 80070d4:	f108 0101 	add.w	r1, r8, #1
	if (sector != fs->winsect) {	/* Window offset changed? */
 80070d8:	4291      	cmp	r1, r2
 80070da:	d121      	bne.n	8007120 <f_open+0x8cc>
		if (LD_WORD(fs->win.d8 + BS_55AA) == 0xAA55	/* Load FSINFO data if available */
 80070dc:	f64a 2255 	movw	r2, #43605	; 0xaa55
		fs->fsi_flag = 0;
 80070e0:	2100      	movs	r1, #0
		if (LD_WORD(fs->win.d8 + BS_55AA) == 0xAA55	/* Load FSINFO data if available */
 80070e2:	4293      	cmp	r3, r2
		fs->fsi_flag = 0;
 80070e4:	f887 1205 	strb.w	r1, [r7, #517]	; 0x205
		if (LD_WORD(fs->win.d8 + BS_55AA) == 0xAA55	/* Load FSINFO data if available */
 80070e8:	f47f acaf 	bne.w	8006a4a <f_open+0x1f6>
			&& LD_DWORD(fs->win.d8 + FSI_LeadSig) == 0x41615252
 80070ec:	4b12      	ldr	r3, [pc, #72]	; (8007138 <f_open+0x8e4>)
 80070ee:	683a      	ldr	r2, [r7, #0]
 80070f0:	429a      	cmp	r2, r3
 80070f2:	f47f acaa 	bne.w	8006a4a <f_open+0x1f6>
			&& LD_DWORD(fs->win.d8 + FSI_StrucSig) == 0x61417272)
 80070f6:	f103 53ff 	add.w	r3, r3, #534773760	; 0x1fe00000
 80070fa:	f503 5300 	add.w	r3, r3, #8192	; 0x2000
 80070fe:	f8d7 21e4 	ldr.w	r2, [r7, #484]	; 0x1e4
 8007102:	3320      	adds	r3, #32
 8007104:	429a      	cmp	r2, r3
 8007106:	f47f aca0 	bne.w	8006a4a <f_open+0x1f6>
			fs->free_clust = LD_DWORD(fs->win.d8 + FSI_Free_Count);
 800710a:	f8d7 21e8 	ldr.w	r2, [r7, #488]	; 0x1e8
			fs->last_clust = LD_DWORD(fs->win.d8 + FSI_Nxt_Free);
 800710e:	f8d7 31ec 	ldr.w	r3, [r7, #492]	; 0x1ec
 8007112:	f04f 0903 	mov.w	r9, #3
			fs->free_clust = LD_DWORD(fs->win.d8 + FSI_Free_Count);
 8007116:	f8c7 2214 	str.w	r2, [r7, #532]	; 0x214
			fs->last_clust = LD_DWORD(fs->win.d8 + FSI_Nxt_Free);
 800711a:	f8c7 3210 	str.w	r3, [r7, #528]	; 0x210
 800711e:	e496      	b.n	8006a4e <f_open+0x1fa>
 8007120:	4638      	mov	r0, r7
 8007122:	f7fc fbf3 	bl	800390c <move_window.part.3>
		&& move_window(fs, bsect + 1) == FR_OK)
 8007126:	2800      	cmp	r0, #0
 8007128:	f47f ac8f 	bne.w	8006a4a <f_open+0x1f6>
 800712c:	f8b7 31fe 	ldrh.w	r3, [r7, #510]	; 0x1fe
 8007130:	e7d4      	b.n	80070dc <f_open+0x888>
 8007132:	bf00      	nop
 8007134:	00544146 	.word	0x00544146
 8007138:	41615252 	.word	0x41615252

0800713c <f_read>:
{
 800713c:	e92d 47f0 	stmdb	sp!, {r4, r5, r6, r7, r8, r9, sl, lr}
 8007140:	461f      	mov	r7, r3
	*br = 0;	/* Clear read byte counter */
 8007142:	2300      	movs	r3, #0
	if (!fil || !fil->fs || !fil->fs->fs_type || fil->fs->id != fil->id || (disk_status(fil->fs->drv) & STA_NOINIT))
 8007144:	4604      	mov	r4, r0
	*br = 0;	/* Clear read byte counter */
 8007146:	603b      	str	r3, [r7, #0]
	if (res != FR_OK) LEAVE_FF(fp->fs, res);
 8007148:	f8d0 3200 	ldr.w	r3, [r0, #512]	; 0x200
	if (!fil || !fil->fs || !fil->fs->fs_type || fil->fs->id != fil->id || (disk_status(fil->fs->drv) & STA_NOINIT))
 800714c:	2800      	cmp	r0, #0
 800714e:	f000 810b 	beq.w	8007368 <f_read+0x22c>
 8007152:	b153      	cbz	r3, 800716a <f_read+0x2e>
 8007154:	460e      	mov	r6, r1
 8007156:	f893 1200 	ldrb.w	r1, [r3, #512]	; 0x200
 800715a:	b131      	cbz	r1, 800716a <f_read+0x2e>
 800715c:	4690      	mov	r8, r2
 800715e:	f8b3 1206 	ldrh.w	r1, [r3, #518]	; 0x206
 8007162:	f8b0 2204 	ldrh.w	r2, [r0, #516]	; 0x204
 8007166:	4291      	cmp	r1, r2
 8007168:	d002      	beq.n	8007170 <f_read+0x34>
	ENTER_FF(fil->fs);		/* Lock file system */
 800716a:	2009      	movs	r0, #9
}
 800716c:	e8bd 87f0 	ldmia.w	sp!, {r4, r5, r6, r7, r8, r9, sl, pc}
	if (!fil || !fil->fs || !fil->fs->fs_type || fil->fs->id != fil->id || (disk_status(fil->fs->drv) & STA_NOINIT))
 8007170:	f893 0201 	ldrb.w	r0, [r3, #513]	; 0x201
 8007174:	f7fc fb86 	bl	8003884 <disk_status>
 8007178:	07c3      	lsls	r3, r0, #31
 800717a:	d4f6      	bmi.n	800716a <f_read+0x2e>
	ENTER_FF(fil->fs);		/* Lock file system */
 800717c:	f8d4 3200 	ldr.w	r3, [r4, #512]	; 0x200
	return ff_req_grant(fs->sobj);
 8007180:	f8d3 020c 	ldr.w	r0, [r3, #524]	; 0x20c
 8007184:	f000 fc8e 	bl	8007aa4 <ff_req_grant>
	ENTER_FF(fil->fs);		/* Lock file system */
 8007188:	2800      	cmp	r0, #0
 800718a:	f000 8147 	beq.w	800741c <f_read+0x2e0>
	if (fp->err)								/* Check error */
 800718e:	f894 0207 	ldrb.w	r0, [r4, #519]	; 0x207
 8007192:	2800      	cmp	r0, #0
 8007194:	f040 80da 	bne.w	800734c <f_read+0x210>
	if (!(fp->flag & FA_READ)) 					/* Check access mode */
 8007198:	f894 3206 	ldrb.w	r3, [r4, #518]	; 0x206
 800719c:	07d8      	lsls	r0, r3, #31
 800719e:	d40b      	bmi.n	80071b8 <f_read+0x7c>
		LEAVE_FF(fp->fs, FR_DENIED);
 80071a0:	f8d4 3200 	ldr.w	r3, [r4, #512]	; 0x200
	if (fs &&
 80071a4:	2b00      	cmp	r3, #0
 80071a6:	f000 80fc 	beq.w	80073a2 <f_read+0x266>
		ff_rel_grant(fs->sobj);
 80071aa:	f8d3 020c 	ldr.w	r0, [r3, #524]	; 0x20c
 80071ae:	f000 fc83 	bl	8007ab8 <ff_rel_grant>
		LEAVE_FF(fp->fs, FR_DENIED);
 80071b2:	2007      	movs	r0, #7
}
 80071b4:	e8bd 87f0 	ldmia.w	sp!, {r4, r5, r6, r7, r8, r9, sl, pc}
	remain = fp->fsize - fp->fptr;
 80071b8:	f8d4 c208 	ldr.w	ip, [r4, #520]	; 0x208
 80071bc:	f8d4 520c 	ldr.w	r5, [r4, #524]	; 0x20c
 80071c0:	eba5 050c 	sub.w	r5, r5, ip
 80071c4:	4545      	cmp	r5, r8
 80071c6:	bf28      	it	cs
 80071c8:	4645      	movcs	r5, r8
	for ( ;  btr;								/* Repeat until all data read */
 80071ca:	2d00      	cmp	r5, #0
 80071cc:	f000 80a7 	beq.w	800731e <f_read+0x1e2>
		if ((fp->fptr % SS(fp->fs)) == 0) {		/* On the sector boundary? */
 80071d0:	f3cc 0308 	ubfx	r3, ip, #0, #9
 80071d4:	2b00      	cmp	r3, #0
 80071d6:	d16a      	bne.n	80072ae <f_read+0x172>
			csect = (BYTE)(fp->fptr / SS(fp->fs) & (fp->fs->csize - 1));	/* Sector offset in the cluster */
 80071d8:	f8d4 0200 	ldr.w	r0, [r4, #512]	; 0x200
 80071dc:	ea4f 235c 	mov.w	r3, ip, lsr #9
 80071e0:	f890 e202 	ldrb.w	lr, [r0, #514]	; 0x202
 80071e4:	f10e 39ff 	add.w	r9, lr, #4294967295
 80071e8:	ea09 0903 	and.w	r9, r9, r3
			if (!csect) {						/* On the cluster boundary? */
 80071ec:	f019 09ff 	ands.w	r9, r9, #255	; 0xff
 80071f0:	f000 80a0 	beq.w	8007334 <f_read+0x1f8>
 80071f4:	f8d4 3214 	ldr.w	r3, [r4, #532]	; 0x214
	if (clst >= fs->n_fatent - 2) return 0;		/* Invalid cluster# */
 80071f8:	f8d0 2218 	ldr.w	r2, [r0, #536]	; 0x218
	clst -= 2;
 80071fc:	3b02      	subs	r3, #2
	if (clst >= fs->n_fatent - 2) return 0;		/* Invalid cluster# */
 80071fe:	3a02      	subs	r2, #2
 8007200:	4293      	cmp	r3, r2
 8007202:	f080 810d 	bcs.w	8007420 <f_read+0x2e4>
	return clst * fs->csize + fs->database;
 8007206:	f890 1202 	ldrb.w	r1, [r0, #514]	; 0x202
 800720a:	f8d0 222c 	ldr.w	r2, [r0, #556]	; 0x22c
 800720e:	fb01 2303 	mla	r3, r1, r3, r2
			if (!sect) ABORT(fp->fs, FR_INT_ERR);
 8007212:	2b00      	cmp	r3, #0
 8007214:	f000 8104 	beq.w	8007420 <f_read+0x2e4>
			if (cc) {							/* Read maximum contiguous sectors directly */
 8007218:	ea5f 2a55 	movs.w	sl, r5, lsr #9
			sect += csect;
 800721c:	eb03 0809 	add.w	r8, r3, r9
			if (cc) {							/* Read maximum contiguous sectors directly */
 8007220:	d01e      	beq.n	8007260 <f_read+0x124>
				if (csect + cc > fp->fs->csize)	/* Clip at cluster boundary */
 8007222:	eb09 030a 	add.w	r3, r9, sl
 8007226:	4299      	cmp	r1, r3
					cc = fp->fs->csize - csect;
 8007228:	bf38      	it	cc
 800722a:	eba1 0a09 	subcc.w	sl, r1, r9
				if (disk_read(fp->fs->drv, rbuff, sect, cc) != RES_OK)
 800722e:	f890 0201 	ldrb.w	r0, [r0, #513]	; 0x201
 8007232:	4653      	mov	r3, sl
 8007234:	4642      	mov	r2, r8
 8007236:	4631      	mov	r1, r6
 8007238:	f7fc fb3e 	bl	80038b8 <disk_read>
 800723c:	2800      	cmp	r0, #0
 800723e:	f000 80b9 	beq.w	80073b4 <f_read+0x278>
					ABORT(fp->fs, FR_DISK_ERR);
 8007242:	2501      	movs	r5, #1
 8007244:	f8d4 3200 	ldr.w	r3, [r4, #512]	; 0x200
 8007248:	f884 5207 	strb.w	r5, [r4, #519]	; 0x207
	if (fs &&
 800724c:	2b00      	cmp	r3, #0
 800724e:	f000 80af 	beq.w	80073b0 <f_read+0x274>
		ff_rel_grant(fs->sobj);
 8007252:	f8d3 020c 	ldr.w	r0, [r3, #524]	; 0x20c
 8007256:	f000 fc2f 	bl	8007ab8 <ff_rel_grant>
					ABORT(fp->fs, FR_DISK_ERR);
 800725a:	4628      	mov	r0, r5
}
 800725c:	e8bd 87f0 	ldmia.w	sp!, {r4, r5, r6, r7, r8, r9, sl, pc}
			if (fp->dsect != sect) {			/* Load data sector if not in cache */
 8007260:	f8d4 2218 	ldr.w	r2, [r4, #536]	; 0x218
 8007264:	4590      	cmp	r8, r2
 8007266:	d01c      	beq.n	80072a2 <f_read+0x166>
				if (fp->flag & FA__DIRTY) {		/* Write-back dirty sector cache */
 8007268:	f894 3206 	ldrb.w	r3, [r4, #518]	; 0x206
 800726c:	f890 0201 	ldrb.w	r0, [r0, #513]	; 0x201
 8007270:	065b      	lsls	r3, r3, #25
 8007272:	d50f      	bpl.n	8007294 <f_read+0x158>
					if (disk_write(fp->fs->drv, fp->buf.d8, fp->dsect, 1) != RES_OK)
 8007274:	2301      	movs	r3, #1
 8007276:	4621      	mov	r1, r4
 8007278:	f7fc fb2c 	bl	80038d4 <disk_write>
 800727c:	2800      	cmp	r0, #0
 800727e:	d1e0      	bne.n	8007242 <f_read+0x106>
					fp->flag &= ~FA__DIRTY;
 8007280:	f894 3206 	ldrb.w	r3, [r4, #518]	; 0x206
 8007284:	f8d4 2200 	ldr.w	r2, [r4, #512]	; 0x200
 8007288:	f023 0340 	bic.w	r3, r3, #64	; 0x40
 800728c:	f884 3206 	strb.w	r3, [r4, #518]	; 0x206
 8007290:	f892 0201 	ldrb.w	r0, [r2, #513]	; 0x201
				if (disk_read(fp->fs->drv, fp->buf.d8, sect, 1) != RES_OK)	/* Fill sector cache */
 8007294:	2301      	movs	r3, #1
 8007296:	4642      	mov	r2, r8
 8007298:	4621      	mov	r1, r4
 800729a:	f7fc fb0d 	bl	80038b8 <disk_read>
 800729e:	2800      	cmp	r0, #0
 80072a0:	d1cf      	bne.n	8007242 <f_read+0x106>
 80072a2:	f8d4 c208 	ldr.w	ip, [r4, #520]	; 0x208
			fp->dsect = sect;
 80072a6:	f8c4 8218 	str.w	r8, [r4, #536]	; 0x218
 80072aa:	f3cc 0308 	ubfx	r3, ip, #0, #9
		rcnt = SS(fp->fs) - ((UINT)fp->fptr % SS(fp->fs));	/* Get partial sector data from sector buffer */
 80072ae:	f5c3 7200 	rsb	r2, r3, #512	; 0x200
 80072b2:	42aa      	cmp	r2, r5
 80072b4:	bf28      	it	cs
 80072b6:	462a      	movcs	r2, r5
	while (cnt >= sizeof (int)) {
 80072b8:	2a03      	cmp	r2, #3
		mem_cpy(rbuff, &fp->buf.d8[fp->fptr % SS(fp->fs)], rcnt);	/* Pick partial sector */
 80072ba:	eb04 0903 	add.w	r9, r4, r3
	while (cnt >= sizeof (int)) {
 80072be:	4633      	mov	r3, r6
 80072c0:	f240 8092 	bls.w	80073e8 <f_read+0x2ac>
 80072c4:	f1a2 0804 	sub.w	r8, r2, #4
 80072c8:	f028 0803 	bic.w	r8, r8, #3
 80072cc:	f108 0804 	add.w	r8, r8, #4
 80072d0:	eb06 0e08 	add.w	lr, r6, r8
 80072d4:	f1a9 0104 	sub.w	r1, r9, #4
		*(int*)d = *(int*)s;
 80072d8:	f851 0f04 	ldr.w	r0, [r1, #4]!
 80072dc:	f843 0b04 	str.w	r0, [r3], #4
	while (cnt >= sizeof (int)) {
 80072e0:	4573      	cmp	r3, lr
 80072e2:	d1f9      	bne.n	80072d8 <f_read+0x19c>
	while (cnt--)
 80072e4:	f012 0103 	ands.w	r1, r2, #3
 80072e8:	44c1      	add	r9, r8
 80072ea:	d00e      	beq.n	800730a <f_read+0x1ce>
		*d++ = *s++;
 80072ec:	f899 0000 	ldrb.w	r0, [r9]
	while (cnt--)
 80072f0:	2901      	cmp	r1, #1
		*d++ = *s++;
 80072f2:	7018      	strb	r0, [r3, #0]
	while (cnt--)
 80072f4:	d007      	beq.n	8007306 <f_read+0x1ca>
		*d++ = *s++;
 80072f6:	f899 0001 	ldrb.w	r0, [r9, #1]
	while (cnt--)
 80072fa:	2902      	cmp	r1, #2
		*d++ = *s++;
 80072fc:	7058      	strb	r0, [r3, #1]
 80072fe:	bf1c      	itt	ne
 8007300:	f899 1002 	ldrbne.w	r1, [r9, #2]
 8007304:	7099      	strbne	r1, [r3, #2]
 8007306:	f8d4 c208 	ldr.w	ip, [r4, #520]	; 0x208
		rbuff += rcnt, fp->fptr += rcnt, *br += rcnt, btr -= rcnt) {
 800730a:	683b      	ldr	r3, [r7, #0]
 800730c:	4494      	add	ip, r2
 800730e:	4413      	add	r3, r2
	for ( ;  btr;								/* Repeat until all data read */
 8007310:	1aad      	subs	r5, r5, r2
		rbuff += rcnt, fp->fptr += rcnt, *br += rcnt, btr -= rcnt) {
 8007312:	f8c4 c208 	str.w	ip, [r4, #520]	; 0x208
 8007316:	4416      	add	r6, r2
 8007318:	603b      	str	r3, [r7, #0]
	for ( ;  btr;								/* Repeat until all data read */
 800731a:	f47f af59 	bne.w	80071d0 <f_read+0x94>
	LEAVE_FF(fp->fs, FR_OK);
 800731e:	f8d4 0200 	ldr.w	r0, [r4, #512]	; 0x200
	if (fs &&
 8007322:	2800      	cmp	r0, #0
 8007324:	f43f af22 	beq.w	800716c <f_read+0x30>
		ff_rel_grant(fs->sobj);
 8007328:	f8d0 020c 	ldr.w	r0, [r0, #524]	; 0x20c
 800732c:	f000 fbc4 	bl	8007ab8 <ff_rel_grant>
	LEAVE_FF(fp->fs, FR_OK);
 8007330:	2000      	movs	r0, #0
 8007332:	e71b      	b.n	800716c <f_read+0x30>
				if (fp->fptr == 0) {			/* On the top of the file? */
 8007334:	f1bc 0f00 	cmp.w	ip, #0
 8007338:	d117      	bne.n	800736a <f_read+0x22e>
					clst = fp->sclust;			/* Follow from the origin */
 800733a:	f8d4 3210 	ldr.w	r3, [r4, #528]	; 0x210
				if (clst < 2) ABORT(fp->fs, FR_INT_ERR);
 800733e:	2b01      	cmp	r3, #1
 8007340:	d977      	bls.n	8007432 <f_read+0x2f6>
				if (clst == 0xFFFFFFFF) ABORT(fp->fs, FR_DISK_ERR);
 8007342:	1c59      	adds	r1, r3, #1
 8007344:	d030      	beq.n	80073a8 <f_read+0x26c>
				fp->clust = clst;				/* Update current cluster */
 8007346:	f8c4 3214 	str.w	r3, [r4, #532]	; 0x214
 800734a:	e755      	b.n	80071f8 <f_read+0xbc>
		LEAVE_FF(fp->fs, (FRESULT)fp->err);
 800734c:	f8d4 3200 	ldr.w	r3, [r4, #512]	; 0x200
	if (fs &&
 8007350:	2b00      	cmp	r3, #0
 8007352:	f43f af0b 	beq.w	800716c <f_read+0x30>
		res != FR_INVALID_DRIVE &&
 8007356:	280f      	cmp	r0, #15
 8007358:	d948      	bls.n	80073ec <f_read+0x2b0>
		ff_rel_grant(fs->sobj);
 800735a:	f8d3 020c 	ldr.w	r0, [r3, #524]	; 0x20c
 800735e:	f000 fbab 	bl	8007ab8 <ff_rel_grant>
 8007362:	f894 0207 	ldrb.w	r0, [r4, #519]	; 0x207
		LEAVE_FF(fp->fs, (FRESULT)fp->err);
 8007366:	e701      	b.n	800716c <f_read+0x30>
 8007368:	deff      	udf	#255	; 0xff
					if (fp->cltbl)
 800736a:	f8d4 1224 	ldr.w	r1, [r4, #548]	; 0x224
 800736e:	2900      	cmp	r1, #0
 8007370:	d043      	beq.n	80073fa <f_read+0x2be>
		ncl = *tbl++;			/* Number of cluters in the fragment */
 8007372:	684a      	ldr	r2, [r1, #4]
	cl = ofs / SS(fp->fs) / fp->fs->csize;	/* Cluster order from top of the file */
 8007374:	fbb3 f3fe 	udiv	r3, r3, lr
	tbl = fp->cltbl + 1;	/* Top of CLMT */
 8007378:	3104      	adds	r1, #4
		if (!ncl) return 0;		/* End of table? (error) */
 800737a:	b14a      	cbz	r2, 8007390 <f_read+0x254>
		if (cl < ncl) break;	/* In this fragment? */
 800737c:	4293      	cmp	r3, r2
 800737e:	d202      	bcs.n	8007386 <f_read+0x24a>
 8007380:	e049      	b.n	8007416 <f_read+0x2da>
 8007382:	429a      	cmp	r2, r3
 8007384:	d847      	bhi.n	8007416 <f_read+0x2da>
		cl -= ncl; tbl++;		/* Next fragment */
 8007386:	1a9b      	subs	r3, r3, r2
		ncl = *tbl++;			/* Number of cluters in the fragment */
 8007388:	f851 2f08 	ldr.w	r2, [r1, #8]!
		if (!ncl) return 0;		/* End of table? (error) */
 800738c:	2a00      	cmp	r2, #0
 800738e:	d1f8      	bne.n	8007382 <f_read+0x246>
				if (clst < 2) ABORT(fp->fs, FR_INT_ERR);
 8007390:	2302      	movs	r3, #2
 8007392:	f884 3207 	strb.w	r3, [r4, #519]	; 0x207
		ff_rel_grant(fs->sobj);
 8007396:	f8d0 020c 	ldr.w	r0, [r0, #524]	; 0x20c
 800739a:	f000 fb8d 	bl	8007ab8 <ff_rel_grant>
				if (clst < 2) ABORT(fp->fs, FR_INT_ERR);
 800739e:	2002      	movs	r0, #2
 80073a0:	e6e4      	b.n	800716c <f_read+0x30>
		LEAVE_FF(fp->fs, FR_DENIED);
 80073a2:	2007      	movs	r0, #7
}
 80073a4:	e8bd 87f0 	ldmia.w	sp!, {r4, r5, r6, r7, r8, r9, sl, pc}
				if (clst == 0xFFFFFFFF) ABORT(fp->fs, FR_DISK_ERR);
 80073a8:	2501      	movs	r5, #1
 80073aa:	f884 5207 	strb.w	r5, [r4, #519]	; 0x207
	if (fs &&
 80073ae:	bbd0      	cbnz	r0, 8007426 <f_read+0x2ea>
				if (clst == 0xFFFFFFFF) ABORT(fp->fs, FR_DISK_ERR);
 80073b0:	2001      	movs	r0, #1
 80073b2:	e6db      	b.n	800716c <f_read+0x30>
				if ((fp->flag & FA__DIRTY) && fp->dsect - sect < cc)
 80073b4:	f894 3206 	ldrb.w	r3, [r4, #518]	; 0x206
 80073b8:	065a      	lsls	r2, r3, #25
 80073ba:	d510      	bpl.n	80073de <f_read+0x2a2>
 80073bc:	f8d4 3218 	ldr.w	r3, [r4, #536]	; 0x218
 80073c0:	eba3 0308 	sub.w	r3, r3, r8
 80073c4:	459a      	cmp	sl, r3
 80073c6:	d90a      	bls.n	80073de <f_read+0x2a2>
					mem_cpy(rbuff + ((fp->dsect - sect) * SS(fp->fs)), fp->buf.d8, SS(fp->fs));
 80073c8:	eb06 2343 	add.w	r3, r6, r3, lsl #9
 80073cc:	f503 7000 	add.w	r0, r3, #512	; 0x200
 80073d0:	1f22      	subs	r2, r4, #4
		*(int*)d = *(int*)s;
 80073d2:	f852 1f04 	ldr.w	r1, [r2, #4]!
 80073d6:	f843 1b04 	str.w	r1, [r3], #4
	while (cnt >= sizeof (int)) {
 80073da:	4283      	cmp	r3, r0
 80073dc:	d1f9      	bne.n	80073d2 <f_read+0x296>
				rcnt = SS(fp->fs) * cc;			/* Number of bytes transferred */
 80073de:	ea4f 224a 	mov.w	r2, sl, lsl #9
 80073e2:	f8d4 c208 	ldr.w	ip, [r4, #520]	; 0x208
 80073e6:	e790      	b.n	800730a <f_read+0x1ce>
	while (cnt >= sizeof (int)) {
 80073e8:	4611      	mov	r1, r2
 80073ea:	e77f      	b.n	80072ec <f_read+0x1b0>
		res != FR_INVALID_DRIVE &&
 80073ec:	f44f 421a 	mov.w	r2, #39424	; 0x9a00
 80073f0:	40c2      	lsrs	r2, r0
 80073f2:	07d5      	lsls	r5, r2, #31
 80073f4:	f53f aeba 	bmi.w	800716c <f_read+0x30>
 80073f8:	e7af      	b.n	800735a <f_read+0x21e>
						clst = get_fat(fp->fs, fp->clust);	/* Follow cluster chain on the FAT */
 80073fa:	f8d4 1214 	ldr.w	r1, [r4, #532]	; 0x214
	if (clst < 2 || clst >= fs->n_fatent) {	/* Check range */
 80073fe:	2901      	cmp	r1, #1
 8007400:	d9c6      	bls.n	8007390 <f_read+0x254>
 8007402:	f8d0 3218 	ldr.w	r3, [r0, #536]	; 0x218
 8007406:	4299      	cmp	r1, r3
 8007408:	d2c2      	bcs.n	8007390 <f_read+0x254>
 800740a:	f7fc fdd9 	bl	8003fc0 <get_fat.part.9>
 800740e:	4603      	mov	r3, r0
 8007410:	f8d4 0200 	ldr.w	r0, [r4, #512]	; 0x200
 8007414:	e793      	b.n	800733e <f_read+0x202>
	return cl + *tbl;	/* Return the cluster number */
 8007416:	684a      	ldr	r2, [r1, #4]
 8007418:	4413      	add	r3, r2
 800741a:	e790      	b.n	800733e <f_read+0x202>
	ENTER_FF(fil->fs);		/* Lock file system */
 800741c:	200f      	movs	r0, #15
 800741e:	e6a5      	b.n	800716c <f_read+0x30>
			if (!sect) ABORT(fp->fs, FR_INT_ERR);
 8007420:	2502      	movs	r5, #2
 8007422:	f884 5207 	strb.w	r5, [r4, #519]	; 0x207
		ff_rel_grant(fs->sobj);
 8007426:	f8d0 020c 	ldr.w	r0, [r0, #524]	; 0x20c
 800742a:	f000 fb45 	bl	8007ab8 <ff_rel_grant>
			if (!sect) ABORT(fp->fs, FR_INT_ERR);
 800742e:	4628      	mov	r0, r5
 8007430:	e69c      	b.n	800716c <f_read+0x30>
				if (clst < 2) ABORT(fp->fs, FR_INT_ERR);
 8007432:	2302      	movs	r3, #2
 8007434:	f884 3207 	strb.w	r3, [r4, #519]	; 0x207
	if (fs &&
 8007438:	2800      	cmp	r0, #0
 800743a:	d0b0      	beq.n	800739e <f_read+0x262>
 800743c:	e7ab      	b.n	8007396 <f_read+0x25a>
 800743e:	bf00      	nop

08007440 <f_write>:
{
 8007440:	e92d 41f0 	stmdb	sp!, {r4, r5, r6, r7, r8, lr}
	*bw = 0;	/* Clear write byte counter */
 8007444:	2400      	movs	r4, #0
 8007446:	601c      	str	r4, [r3, #0]
	if (!fil || !fil->fs || !fil->fs->fs_type || fil->fs->id != fil->id || (disk_status(fil->fs->drv) & STA_NOINIT))
 8007448:	2800      	cmp	r0, #0
 800744a:	d045      	beq.n	80074d8 <f_write+0x98>
 800744c:	f8d0 5200 	ldr.w	r5, [r0, #512]	; 0x200
 8007450:	b145      	cbz	r5, 8007464 <f_write+0x24>
 8007452:	f895 4200 	ldrb.w	r4, [r5, #512]	; 0x200
 8007456:	b12c      	cbz	r4, 8007464 <f_write+0x24>
 8007458:	f8b5 6206 	ldrh.w	r6, [r5, #518]	; 0x206
 800745c:	f8b0 4204 	ldrh.w	r4, [r0, #516]	; 0x204
 8007460:	42a6      	cmp	r6, r4
 8007462:	d002      	beq.n	800746a <f_write+0x2a>
{
 8007464:	2009      	movs	r0, #9
}
 8007466:	e8bd 81f0 	ldmia.w	sp!, {r4, r5, r6, r7, r8, pc}
 800746a:	4604      	mov	r4, r0
	if (!fil || !fil->fs || !fil->fs->fs_type || fil->fs->id != fil->id || (disk_status(fil->fs->drv) & STA_NOINIT))
 800746c:	f895 0201 	ldrb.w	r0, [r5, #513]	; 0x201
 8007470:	460f      	mov	r7, r1
 8007472:	4690      	mov	r8, r2
 8007474:	461e      	mov	r6, r3
 8007476:	f7fc fa05 	bl	8003884 <disk_status>
 800747a:	07c1      	lsls	r1, r0, #31
 800747c:	d4f2      	bmi.n	8007464 <f_write+0x24>
	ENTER_FF(fil->fs);		/* Lock file system */
 800747e:	f8d4 3200 	ldr.w	r3, [r4, #512]	; 0x200
	return ff_req_grant(fs->sobj);
 8007482:	f8d3 020c 	ldr.w	r0, [r3, #524]	; 0x20c
 8007486:	f000 fb0d 	bl	8007aa4 <ff_req_grant>
	ENTER_FF(fil->fs);		/* Lock file system */
 800748a:	b388      	cbz	r0, 80074f0 <f_write+0xb0>
	if (fp->err)							/* Check error */
 800748c:	f894 0207 	ldrb.w	r0, [r4, #519]	; 0x207
 8007490:	b9a8      	cbnz	r0, 80074be <f_write+0x7e>
	if (!(fp->flag & FA_WRITE))				/* Check access mode */
 8007492:	f894 3206 	ldrb.w	r3, [r4, #518]	; 0x206
 8007496:	079b      	lsls	r3, r3, #30
 8007498:	d409      	bmi.n	80074ae <f_write+0x6e>
		LEAVE_FF(fp->fs, FR_DENIED);
 800749a:	f8d4 3200 	ldr.w	r3, [r4, #512]	; 0x200
	if (fs &&
 800749e:	b1f3      	cbz	r3, 80074de <f_write+0x9e>
		ff_rel_grant(fs->sobj);
 80074a0:	f8d3 020c 	ldr.w	r0, [r3, #524]	; 0x20c
 80074a4:	f000 fb08 	bl	8007ab8 <ff_rel_grant>
		LEAVE_FF(fp->fs, FR_DENIED);
 80074a8:	2007      	movs	r0, #7
}
 80074aa:	e8bd 81f0 	ldmia.w	sp!, {r4, r5, r6, r7, r8, pc}
 80074ae:	4633      	mov	r3, r6
 80074b0:	4642      	mov	r2, r8
 80074b2:	4639      	mov	r1, r7
 80074b4:	4620      	mov	r0, r4
 80074b6:	e8bd 41f0 	ldmia.w	sp!, {r4, r5, r6, r7, r8, lr}
 80074ba:	f7fd bcb7 	b.w	8004e2c <f_write.part.14>
		LEAVE_FF(fp->fs, (FRESULT)fp->err);
 80074be:	f8d4 3200 	ldr.w	r3, [r4, #512]	; 0x200
	if (fs &&
 80074c2:	2b00      	cmp	r3, #0
 80074c4:	d0cf      	beq.n	8007466 <f_write+0x26>
		res != FR_INVALID_DRIVE &&
 80074c6:	280f      	cmp	r0, #15
 80074c8:	d90c      	bls.n	80074e4 <f_write+0xa4>
		ff_rel_grant(fs->sobj);
 80074ca:	f8d3 020c 	ldr.w	r0, [r3, #524]	; 0x20c
 80074ce:	f000 faf3 	bl	8007ab8 <ff_rel_grant>
 80074d2:	f894 0207 	ldrb.w	r0, [r4, #519]	; 0x207
		LEAVE_FF(fp->fs, (FRESULT)fp->err);
 80074d6:	e7c6      	b.n	8007466 <f_write+0x26>
	if (res != FR_OK) LEAVE_FF(fp->fs, res);
 80074d8:	f8d0 3200 	ldr.w	r3, [r0, #512]	; 0x200
 80074dc:	deff      	udf	#255	; 0xff
		LEAVE_FF(fp->fs, FR_DENIED);
 80074de:	2007      	movs	r0, #7
}
 80074e0:	e8bd 81f0 	ldmia.w	sp!, {r4, r5, r6, r7, r8, pc}
		res != FR_INVALID_DRIVE &&
 80074e4:	f44f 421a 	mov.w	r2, #39424	; 0x9a00
 80074e8:	40c2      	lsrs	r2, r0
 80074ea:	07d2      	lsls	r2, r2, #31
 80074ec:	d4bb      	bmi.n	8007466 <f_write+0x26>
 80074ee:	e7ec      	b.n	80074ca <f_write+0x8a>
	ENTER_FF(fil->fs);		/* Lock file system */
 80074f0:	200f      	movs	r0, #15
 80074f2:	e7b8      	b.n	8007466 <f_write+0x26>

080074f4 <f_close>:
	if (!fil || !fil->fs || !fil->fs->fs_type || fil->fs->id != fil->id || (disk_status(fil->fs->drv) & STA_NOINIT))
 80074f4:	2800      	cmp	r0, #0
 80074f6:	f000 80e0 	beq.w	80076ba <f_close+0x1c6>
 80074fa:	f8d0 3200 	ldr.w	r3, [r0, #512]	; 0x200
/*-----------------------------------------------------------------------*/

FRESULT f_close (
	FIL *fp		/* Pointer to the file object to be closed */
)
{
 80074fe:	e92d 41f0 	stmdb	sp!, {r4, r5, r6, r7, r8, lr}
	if (!fil || !fil->fs || !fil->fs->fs_type || fil->fs->id != fil->id || (disk_status(fil->fs->drv) & STA_NOINIT))
 8007502:	b143      	cbz	r3, 8007516 <f_close+0x22>
 8007504:	f893 2200 	ldrb.w	r2, [r3, #512]	; 0x200
 8007508:	b12a      	cbz	r2, 8007516 <f_close+0x22>
 800750a:	f8b3 1206 	ldrh.w	r1, [r3, #518]	; 0x206
 800750e:	f8b0 2204 	ldrh.w	r2, [r0, #516]	; 0x204
 8007512:	4291      	cmp	r1, r2
 8007514:	d003      	beq.n	800751e <f_close+0x2a>
		return FR_INVALID_OBJECT;
 8007516:	2509      	movs	r5, #9
			unlock_fs(fs, FR_OK);		/* Unlock volume */
#endif
		}
	}
	return res;
}
 8007518:	4628      	mov	r0, r5
 800751a:	e8bd 81f0 	ldmia.w	sp!, {r4, r5, r6, r7, r8, pc}
 800751e:	4604      	mov	r4, r0
	if (!fil || !fil->fs || !fil->fs->fs_type || fil->fs->id != fil->id || (disk_status(fil->fs->drv) & STA_NOINIT))
 8007520:	f893 0201 	ldrb.w	r0, [r3, #513]	; 0x201
 8007524:	f7fc f9ae 	bl	8003884 <disk_status>
 8007528:	07c1      	lsls	r1, r0, #31
 800752a:	d4f4      	bmi.n	8007516 <f_close+0x22>
	ENTER_FF(fil->fs);		/* Lock file system */
 800752c:	f8d4 3200 	ldr.w	r3, [r4, #512]	; 0x200
	return ff_req_grant(fs->sobj);
 8007530:	f8d3 020c 	ldr.w	r0, [r3, #524]	; 0x20c
 8007534:	f000 fab6 	bl	8007aa4 <ff_req_grant>
	ENTER_FF(fil->fs);		/* Lock file system */
 8007538:	2800      	cmp	r0, #0
 800753a:	f000 80bc 	beq.w	80076b6 <f_close+0x1c2>
		if (fp->flag & FA__WRITTEN) {	/* Has the file been written? */
 800753e:	f894 3206 	ldrb.w	r3, [r4, #518]	; 0x206
 8007542:	f8d4 5200 	ldr.w	r5, [r4, #512]	; 0x200
 8007546:	069a      	lsls	r2, r3, #26
 8007548:	d435      	bmi.n	80075b6 <f_close+0xc2>
	if (fs &&
 800754a:	2d00      	cmp	r5, #0
 800754c:	d0e3      	beq.n	8007516 <f_close+0x22>
		ff_rel_grant(fs->sobj);
 800754e:	f8d5 020c 	ldr.w	r0, [r5, #524]	; 0x20c
 8007552:	f000 fab1 	bl	8007ab8 <ff_rel_grant>
 8007556:	f8d4 3200 	ldr.w	r3, [r4, #512]	; 0x200
	if (!fil || !fil->fs || !fil->fs->fs_type || fil->fs->id != fil->id || (disk_status(fil->fs->drv) & STA_NOINIT))
 800755a:	2b00      	cmp	r3, #0
 800755c:	d0db      	beq.n	8007516 <f_close+0x22>
 800755e:	f893 2200 	ldrb.w	r2, [r3, #512]	; 0x200
 8007562:	2a00      	cmp	r2, #0
 8007564:	d0d7      	beq.n	8007516 <f_close+0x22>
 8007566:	f8b3 1206 	ldrh.w	r1, [r3, #518]	; 0x206
 800756a:	f8b4 2204 	ldrh.w	r2, [r4, #516]	; 0x204
 800756e:	4291      	cmp	r1, r2
 8007570:	d1d1      	bne.n	8007516 <f_close+0x22>
 8007572:	f893 0201 	ldrb.w	r0, [r3, #513]	; 0x201
 8007576:	f7fc f985 	bl	8003884 <disk_status>
 800757a:	f010 0701 	ands.w	r7, r0, #1
 800757e:	d1ca      	bne.n	8007516 <f_close+0x22>
	ENTER_FF(fil->fs);		/* Lock file system */
 8007580:	f8d4 3200 	ldr.w	r3, [r4, #512]	; 0x200
	return ff_req_grant(fs->sobj);
 8007584:	f8d3 020c 	ldr.w	r0, [r3, #524]	; 0x20c
 8007588:	f000 fa8c 	bl	8007aa4 <ff_req_grant>
	ENTER_FF(fil->fs);		/* Lock file system */
 800758c:	2800      	cmp	r0, #0
 800758e:	f000 8092 	beq.w	80076b6 <f_close+0x1c2>
	if (--i < _FS_LOCK) {	/* Shift index number origin from 0 */
 8007592:	f8d4 3228 	ldr.w	r3, [r4, #552]	; 0x228
			FATFS *fs = fp->fs;
 8007596:	f8d4 2200 	ldr.w	r2, [r4, #512]	; 0x200
	if (--i < _FS_LOCK) {	/* Shift index number origin from 0 */
 800759a:	3b01      	subs	r3, #1
 800759c:	2b01      	cmp	r3, #1
 800759e:	f240 80aa 	bls.w	80076f6 <f_close+0x202>
		res = FR_INT_ERR;			/* Invalid index nunber */
 80075a2:	2502      	movs	r5, #2
	if (fs &&
 80075a4:	2a00      	cmp	r2, #0
 80075a6:	d0b7      	beq.n	8007518 <f_close+0x24>
		ff_rel_grant(fs->sobj);
 80075a8:	f8d2 020c 	ldr.w	r0, [r2, #524]	; 0x20c
 80075ac:	f000 fa84 	bl	8007ab8 <ff_rel_grant>
}
 80075b0:	4628      	mov	r0, r5
 80075b2:	e8bd 81f0 	ldmia.w	sp!, {r4, r5, r6, r7, r8, pc}
			if (fp->flag & FA__DIRTY) {
 80075b6:	065b      	lsls	r3, r3, #25
 80075b8:	f100 8082 	bmi.w	80076c0 <f_close+0x1cc>
			res = move_window(fp->fs, fp->dir_sect);
 80075bc:	f8d4 721c 	ldr.w	r7, [r4, #540]	; 0x21c
	if (sector != fs->winsect) {	/* Window offset changed? */
 80075c0:	f8d5 6230 	ldr.w	r6, [r5, #560]	; 0x230
 80075c4:	42b7      	cmp	r7, r6
 80075c6:	d045      	beq.n	8007654 <f_close+0x160>
	if (fs->wflag) {	/* Write back the sector if it is dirty */
 80075c8:	f895 3204 	ldrb.w	r3, [r5, #516]	; 0x204
 80075cc:	f895 0201 	ldrb.w	r0, [r5, #513]	; 0x201
 80075d0:	b33b      	cbz	r3, 8007622 <f_close+0x12e>
		if (disk_write(fs->drv, fs->win.d8, wsect, 1) != RES_OK) {
 80075d2:	2301      	movs	r3, #1
 80075d4:	4632      	mov	r2, r6
 80075d6:	4629      	mov	r1, r5
 80075d8:	f7fc f97c 	bl	80038d4 <disk_write>
 80075dc:	bb78      	cbnz	r0, 800763e <f_close+0x14a>
			if (wsect - fs->fatbase < fs->fsize) {		/* Is it in the FAT area? */
 80075de:	f8d5 2224 	ldr.w	r2, [r5, #548]	; 0x224
 80075e2:	f8d5 321c 	ldr.w	r3, [r5, #540]	; 0x21c
 80075e6:	1ab2      	subs	r2, r6, r2
 80075e8:	429a      	cmp	r2, r3
			fs->wflag = 0;
 80075ea:	f885 0204 	strb.w	r0, [r5, #516]	; 0x204
 80075ee:	f895 0201 	ldrb.w	r0, [r5, #513]	; 0x201
			if (wsect - fs->fatbase < fs->fsize) {		/* Is it in the FAT area? */
 80075f2:	d216      	bcs.n	8007622 <f_close+0x12e>
				for (nf = fs->n_fats; nf >= 2; nf--) {	/* Reflect the change to all FAT copies */
 80075f4:	f895 8203 	ldrb.w	r8, [r5, #515]	; 0x203
 80075f8:	f1b8 0f01 	cmp.w	r8, #1
 80075fc:	d804      	bhi.n	8007608 <f_close+0x114>
 80075fe:	e010      	b.n	8007622 <f_close+0x12e>
 8007600:	f8d5 321c 	ldr.w	r3, [r5, #540]	; 0x21c
 8007604:	f895 0201 	ldrb.w	r0, [r5, #513]	; 0x201
					wsect += fs->fsize;
 8007608:	441e      	add	r6, r3
				for (nf = fs->n_fats; nf >= 2; nf--) {	/* Reflect the change to all FAT copies */
 800760a:	f108 38ff 	add.w	r8, r8, #4294967295
					disk_write(fs->drv, fs->win.d8, wsect, 1);
 800760e:	4632      	mov	r2, r6
 8007610:	2301      	movs	r3, #1
 8007612:	4629      	mov	r1, r5
 8007614:	f7fc f95e 	bl	80038d4 <disk_write>
				for (nf = fs->n_fats; nf >= 2; nf--) {	/* Reflect the change to all FAT copies */
 8007618:	f1b8 0f01 	cmp.w	r8, #1
 800761c:	d1f0      	bne.n	8007600 <f_close+0x10c>
 800761e:	f895 0201 	ldrb.w	r0, [r5, #513]	; 0x201
			if (disk_read(fs->drv, fs->win.d8, sector, 1) != RES_OK) {
 8007622:	2301      	movs	r3, #1
 8007624:	463a      	mov	r2, r7
 8007626:	4629      	mov	r1, r5
 8007628:	f7fc f946 	bl	80038b8 <disk_read>
 800762c:	b180      	cbz	r0, 8007650 <f_close+0x15c>
			fs->winsect = sector;
 800762e:	f04f 32ff 	mov.w	r2, #4294967295
	LEAVE_FF(fp->fs, res);
 8007632:	f8d4 3200 	ldr.w	r3, [r4, #512]	; 0x200
			fs->winsect = sector;
 8007636:	f8c5 2230 	str.w	r2, [r5, #560]	; 0x230
	if (fs &&
 800763a:	b91b      	cbnz	r3, 8007644 <f_close+0x150>
 800763c:	e006      	b.n	800764c <f_close+0x158>
	LEAVE_FF(fp->fs, res);
 800763e:	f8d4 3200 	ldr.w	r3, [r4, #512]	; 0x200
	if (fs &&
 8007642:	b11b      	cbz	r3, 800764c <f_close+0x158>
		ff_rel_grant(fs->sobj);
 8007644:	f8d3 020c 	ldr.w	r0, [r3, #524]	; 0x20c
 8007648:	f000 fa36 	bl	8007ab8 <ff_rel_grant>
			res = FR_DISK_ERR;
 800764c:	2501      	movs	r5, #1
 800764e:	e763      	b.n	8007518 <f_close+0x24>
			fs->winsect = sector;
 8007650:	f8c5 7230 	str.w	r7, [r5, #560]	; 0x230
				dir = fp->dir_ptr;
 8007654:	f8d4 5220 	ldr.w	r5, [r4, #544]	; 0x220
				dir[DIR_Attr] |= AM_ARC;					/* Set archive bit */
 8007658:	7aeb      	ldrb	r3, [r5, #11]
 800765a:	f043 0320 	orr.w	r3, r3, #32
 800765e:	72eb      	strb	r3, [r5, #11]
				ST_DWORD(dir + DIR_FileSize, fp->fsize);	/* Update file size */
 8007660:	f8d4 320c 	ldr.w	r3, [r4, #524]	; 0x20c
 8007664:	61eb      	str	r3, [r5, #28]
				st_clust(dir, fp->sclust);					/* Update start cluster */
 8007666:	f8d4 3210 	ldr.w	r3, [r4, #528]	; 0x210
	ST_WORD(dir + DIR_FstClusHI, cl >> 16);
 800766a:	0c1a      	lsrs	r2, r3, #16
	ST_WORD(dir + DIR_FstClusLO, cl);
 800766c:	836b      	strh	r3, [r5, #26]
	ST_WORD(dir + DIR_FstClusHI, cl >> 16);
 800766e:	82aa      	strh	r2, [r5, #20]
				tm = GET_FATTIME();							/* Update updated time */
 8007670:	f7fc f88c 	bl	800378c <get_fattime>
				ST_WORD(dir + DIR_LstAccDate, 0);
 8007674:	2300      	movs	r3, #0
				fp->fs->wflag = 1;
 8007676:	2101      	movs	r1, #1
				ST_DWORD(dir + DIR_WrtTime, tm);
 8007678:	f8c5 0016 	str.w	r0, [r5, #22]
				ST_WORD(dir + DIR_LstAccDate, 0);
 800767c:	826b      	strh	r3, [r5, #18]
				fp->flag &= ~FA__WRITTEN;
 800767e:	f894 3206 	ldrb.w	r3, [r4, #518]	; 0x206
				fp->fs->wflag = 1;
 8007682:	f8d4 2200 	ldr.w	r2, [r4, #512]	; 0x200
				fp->flag &= ~FA__WRITTEN;
 8007686:	f023 0320 	bic.w	r3, r3, #32
 800768a:	f884 3206 	strb.w	r3, [r4, #518]	; 0x206
				res = sync_fs(fp->fs);
 800768e:	4610      	mov	r0, r2
				fp->fs->wflag = 1;
 8007690:	f882 1204 	strb.w	r1, [r2, #516]	; 0x204
				res = sync_fs(fp->fs);
 8007694:	f7fc f976 	bl	8003984 <sync_fs>
	LEAVE_FF(fp->fs, res);
 8007698:	f8d4 3200 	ldr.w	r3, [r4, #512]	; 0x200
				res = sync_fs(fp->fs);
 800769c:	4605      	mov	r5, r0
	if (fs &&
 800769e:	b333      	cbz	r3, 80076ee <f_close+0x1fa>
 80076a0:	280c      	cmp	r0, #12
 80076a2:	f43f af39 	beq.w	8007518 <f_close+0x24>
		res != FR_NOT_ENABLED &&
 80076a6:	280b      	cmp	r0, #11
 80076a8:	f43f af36 	beq.w	8007518 <f_close+0x24>
		res != FR_INVALID_DRIVE &&
 80076ac:	2809      	cmp	r0, #9
 80076ae:	f43f af32 	beq.w	8007516 <f_close+0x22>
		res != FR_INVALID_OBJECT &&
 80076b2:	280f      	cmp	r0, #15
 80076b4:	d117      	bne.n	80076e6 <f_close+0x1f2>
	ENTER_FF(fil->fs);		/* Lock file system */
 80076b6:	250f      	movs	r5, #15
 80076b8:	e72e      	b.n	8007518 <f_close+0x24>
	LEAVE_FF(fp->fs, res);
 80076ba:	f8d0 3200 	ldr.w	r3, [r0, #512]	; 0x200
 80076be:	deff      	udf	#255	; 0xff
				if (disk_write(fp->fs->drv, fp->buf.d8, fp->dsect, 1) != RES_OK)
 80076c0:	f895 0201 	ldrb.w	r0, [r5, #513]	; 0x201
 80076c4:	2301      	movs	r3, #1
 80076c6:	f8d4 2218 	ldr.w	r2, [r4, #536]	; 0x218
 80076ca:	4621      	mov	r1, r4
 80076cc:	f7fc f902 	bl	80038d4 <disk_write>
 80076d0:	2800      	cmp	r0, #0
 80076d2:	d1b4      	bne.n	800763e <f_close+0x14a>
				fp->flag &= ~FA__DIRTY;
 80076d4:	f894 3206 	ldrb.w	r3, [r4, #518]	; 0x206
 80076d8:	f8d4 5200 	ldr.w	r5, [r4, #512]	; 0x200
 80076dc:	f023 0340 	bic.w	r3, r3, #64	; 0x40
 80076e0:	f884 3206 	strb.w	r3, [r4, #518]	; 0x206
 80076e4:	e76a      	b.n	80075bc <f_close+0xc8>
		ff_rel_grant(fs->sobj);
 80076e6:	f8d3 020c 	ldr.w	r0, [r3, #524]	; 0x20c
 80076ea:	f000 f9e5 	bl	8007ab8 <ff_rel_grant>
	if (res == FR_OK)
 80076ee:	2d00      	cmp	r5, #0
 80076f0:	f43f af31 	beq.w	8007556 <f_close+0x62>
 80076f4:	e710      	b.n	8007518 <f_close+0x24>
		n = Files[i].ctr;
 80076f6:	0059      	lsls	r1, r3, #1
 80076f8:	4e0b      	ldr	r6, [pc, #44]	; (8007728 <f_close+0x234>)
 80076fa:	18c8      	adds	r0, r1, r3
 80076fc:	eb06 0080 	add.w	r0, r6, r0, lsl #2
 8007700:	8945      	ldrh	r5, [r0, #10]
		if (n == 0x100) n = 0;		/* If write mode open, delete the entry */
 8007702:	f5b5 7f80 	cmp.w	r5, #256	; 0x100
 8007706:	d008      	beq.n	800771a <f_close+0x226>
		if (n) n--;					/* Decrement read mode open count */
 8007708:	b145      	cbz	r5, 800771c <f_close+0x228>
 800770a:	3d01      	subs	r5, #1
 800770c:	b2ad      	uxth	r5, r5
		Files[i].ctr = n;
 800770e:	8145      	strh	r5, [r0, #10]
		if (!n) Files[i].fs = 0;	/* Delete the entry if open count gets zero */
 8007710:	b125      	cbz	r5, 800771c <f_close+0x228>
				fp->fs = 0;				/* Invalidate file object */
 8007712:	2500      	movs	r5, #0
 8007714:	f8c4 5200 	str.w	r5, [r4, #512]	; 0x200
 8007718:	e744      	b.n	80075a4 <f_close+0xb0>
		Files[i].ctr = n;
 800771a:	8147      	strh	r7, [r0, #10]
		if (!n) Files[i].fs = 0;	/* Delete the entry if open count gets zero */
 800771c:	2000      	movs	r0, #0
 800771e:	440b      	add	r3, r1
 8007720:	009b      	lsls	r3, r3, #2
 8007722:	50f0      	str	r0, [r6, r3]
 8007724:	e7f5      	b.n	8007712 <f_close+0x21e>
 8007726:	bf00      	nop
 8007728:	2000009c 	.word	0x2000009c

0800772c <FATFS_LinkDriver>:
uint8_t FATFS_LinkDriverEx(Diskio_drvTypeDef *drv, char *path, uint8_t lun)
{
  uint8_t ret = 1;
  uint8_t DiskNum = 0;
  
  if(disk.nbr <= _VOLUMES)
 800772c:	4b11      	ldr	r3, [pc, #68]	; (8007774 <FATFS_LinkDriver+0x48>)
 800772e:	7a5a      	ldrb	r2, [r3, #9]
 8007730:	2a01      	cmp	r2, #1
 8007732:	d901      	bls.n	8007738 <FATFS_LinkDriver+0xc>
  uint8_t ret = 1;
 8007734:	2001      	movs	r0, #1
  * @retval Returns 0 in case of success, otherwise 1.
  */
uint8_t FATFS_LinkDriver(Diskio_drvTypeDef *drv, char *path)
{
  return FATFS_LinkDriverEx(drv, path, 0);
}
 8007736:	4770      	bx	lr
    disk.is_initialized[disk.nbr] = 0;
 8007738:	2200      	movs	r2, #0
{
 800773a:	b4f0      	push	{r4, r5, r6, r7}
    path[1] = ':';
 800773c:	263a      	movs	r6, #58	; 0x3a
    path[2] = '/';
 800773e:	252f      	movs	r5, #47	; 0x2f
    disk.is_initialized[disk.nbr] = 0;
 8007740:	f893 c009 	ldrb.w	ip, [r3, #9]
    disk.drv[disk.nbr] = drv;  
 8007744:	7a5f      	ldrb	r7, [r3, #9]
    disk.lun[disk.nbr] = lun;  
 8007746:	7a5c      	ldrb	r4, [r3, #9]
    disk.drv[disk.nbr] = drv;  
 8007748:	eb03 0787 	add.w	r7, r3, r7, lsl #2
 800774c:	6078      	str	r0, [r7, #4]
    DiskNum = disk.nbr++;
 800774e:	7a58      	ldrb	r0, [r3, #9]
    disk.lun[disk.nbr] = lun;  
 8007750:	441c      	add	r4, r3
    DiskNum = disk.nbr++;
 8007752:	b2c0      	uxtb	r0, r0
    disk.lun[disk.nbr] = lun;  
 8007754:	7222      	strb	r2, [r4, #8]
    DiskNum = disk.nbr++;
 8007756:	1c44      	adds	r4, r0, #1
 8007758:	b2e4      	uxtb	r4, r4
    disk.is_initialized[disk.nbr] = 0;
 800775a:	fa5f fc8c 	uxtb.w	ip, ip
    DiskNum = disk.nbr++;
 800775e:	725c      	strb	r4, [r3, #9]
    disk.is_initialized[disk.nbr] = 0;
 8007760:	f803 200c 	strb.w	r2, [r3, ip]
    path[0] = DiskNum + '0';
 8007764:	3030      	adds	r0, #48	; 0x30
 8007766:	7008      	strb	r0, [r1, #0]
    path[1] = ':';
 8007768:	704e      	strb	r6, [r1, #1]
    path[3] = 0;
 800776a:	4610      	mov	r0, r2
    path[2] = '/';
 800776c:	708d      	strb	r5, [r1, #2]
    path[3] = 0;
 800776e:	70ca      	strb	r2, [r1, #3]
}
 8007770:	bcf0      	pop	{r4, r5, r6, r7}
 8007772:	4770      	bx	lr
 8007774:	200000b8 	.word	0x200000b8

08007778 <SD_initialize>:
  * @param  lun : not used 
  * @retval DSTATUS: Operation status
  */
DSTATUS SD_initialize(BYTE lun)
{
  Stat = STA_NOINIT;
 8007778:	2301      	movs	r3, #1
{
 800777a:	b510      	push	{r4, lr}
  Stat = STA_NOINIT;
 800777c:	4c05      	ldr	r4, [pc, #20]	; (8007794 <SD_initialize+0x1c>)
 800777e:	7023      	strb	r3, [r4, #0]
  
  /* Configure the uSD device */
  if(BSP_SD_Init() == MSD_OK)
 8007780:	f7fc f85c 	bl	800383c <BSP_SD_Init>
 8007784:	b918      	cbnz	r0, 800778e <SD_initialize+0x16>
  {
    Stat &= ~STA_NOINIT;
 8007786:	7823      	ldrb	r3, [r4, #0]
 8007788:	f003 03fe 	and.w	r3, r3, #254	; 0xfe
 800778c:	7023      	strb	r3, [r4, #0]
  }

  return Stat;
 800778e:	7820      	ldrb	r0, [r4, #0]
}
 8007790:	bd10      	pop	{r4, pc}
 8007792:	bf00      	nop
 8007794:	2000000c 	.word	0x2000000c

08007798 <SD_status>:
  * @param  lun : not used
  * @retval DSTATUS: Operation status
  */
DSTATUS SD_status(BYTE lun)
{
  Stat = STA_NOINIT;
 8007798:	2301      	movs	r3, #1
{
 800779a:	b510      	push	{r4, lr}
  Stat = STA_NOINIT;
 800779c:	4c05      	ldr	r4, [pc, #20]	; (80077b4 <SD_status+0x1c>)
 800779e:	7023      	strb	r3, [r4, #0]

  if(BSP_SD_GetCardState() == MSD_OK)
 80077a0:	f7fc f81a 	bl	80037d8 <BSP_SD_GetCardState>
 80077a4:	b918      	cbnz	r0, 80077ae <SD_status+0x16>
  {
    Stat &= ~STA_NOINIT;
 80077a6:	7823      	ldrb	r3, [r4, #0]
 80077a8:	f003 03fe 	and.w	r3, r3, #254	; 0xfe
 80077ac:	7023      	strb	r3, [r4, #0]
  }
  
  return Stat;
 80077ae:	7820      	ldrb	r0, [r4, #0]
}
 80077b0:	bd10      	pop	{r4, pc}
 80077b2:	bf00      	nop
 80077b4:	2000000c 	.word	0x2000000c

080077b8 <SD_read>:
  * @param  sector: Sector address (LBA)
  * @param  count: Number of sectors to read (1..128)
  * @retval DRESULT: Operation result
  */
DRESULT SD_read(BYTE lun, BYTE *buff, DWORD sector, UINT count)
{
 80077b8:	b510      	push	{r4, lr}
  DRESULT res = RES_ERROR;
  uint32_t timeout = 100000;

  if(BSP_SD_ReadBlocks((uint32_t*)buff, 
 80077ba:	4608      	mov	r0, r1
 80077bc:	4611      	mov	r1, r2
 80077be:	461a      	mov	r2, r3
 80077c0:	4b07      	ldr	r3, [pc, #28]	; (80077e0 <SD_read+0x28>)
 80077c2:	f7fb ffe5 	bl	8003790 <BSP_SD_ReadBlocks>
 80077c6:	b940      	cbnz	r0, 80077da <SD_read+0x22>
 80077c8:	4c06      	ldr	r4, [pc, #24]	; (80077e4 <SD_read+0x2c>)
 80077ca:	e001      	b.n	80077d0 <SD_read+0x18>
                       (uint32_t) (sector), 
                       count, SD_DATATIMEOUT) == MSD_OK)
  {
    while(BSP_SD_GetCardState()!= MSD_OK)
    {
      if (timeout-- == 0)
 80077cc:	3c01      	subs	r4, #1
 80077ce:	d004      	beq.n	80077da <SD_read+0x22>
    while(BSP_SD_GetCardState()!= MSD_OK)
 80077d0:	f7fc f802 	bl	80037d8 <BSP_SD_GetCardState>
 80077d4:	2800      	cmp	r0, #0
 80077d6:	d1f9      	bne.n	80077cc <SD_read+0x14>
    }
    res = RES_OK;
  }
  
  return res;
}
 80077d8:	bd10      	pop	{r4, pc}
  DRESULT res = RES_ERROR;
 80077da:	2001      	movs	r0, #1
}
 80077dc:	bd10      	pop	{r4, pc}
 80077de:	bf00      	nop
 80077e0:	05f5e100 	.word	0x05f5e100
 80077e4:	000186a1 	.word	0x000186a1

080077e8 <SD_ioctl>:
DRESULT SD_ioctl(BYTE lun, BYTE cmd, void *buff)
{
  DRESULT res = RES_ERROR;
  BSP_SD_CardInfo CardInfo;
  
  if (Stat & STA_NOINIT) return RES_NOTRDY;
 80077e8:	4b16      	ldr	r3, [pc, #88]	; (8007844 <SD_ioctl+0x5c>)
 80077ea:	781b      	ldrb	r3, [r3, #0]
 80077ec:	07db      	lsls	r3, r3, #31
 80077ee:	d408      	bmi.n	8007802 <SD_ioctl+0x1a>
{
 80077f0:	b510      	push	{r4, lr}
 80077f2:	4614      	mov	r4, r2
 80077f4:	b088      	sub	sp, #32
  
  switch (cmd)
 80077f6:	2903      	cmp	r1, #3
 80077f8:	d820      	bhi.n	800783c <SD_ioctl+0x54>
 80077fa:	e8df f001 	tbb	[pc, r1]
 80077fe:	0704      	.short	0x0704
 8007800:	170f      	.short	0x170f
  if (Stat & STA_NOINIT) return RES_NOTRDY;
 8007802:	2003      	movs	r0, #3
  default:
    res = RES_PARERR;
  }
  
  return res;
}
 8007804:	4770      	bx	lr
    res = RES_OK;
 8007806:	2000      	movs	r0, #0
}
 8007808:	b008      	add	sp, #32
 800780a:	bd10      	pop	{r4, pc}
    BSP_SD_GetCardInfo(&CardInfo);
 800780c:	4668      	mov	r0, sp
 800780e:	f7fb ffed 	bl	80037ec <BSP_SD_GetCardInfo>
 8007812:	2000      	movs	r0, #0
    *(DWORD*)buff = CardInfo.LogBlockNbr;
 8007814:	9b06      	ldr	r3, [sp, #24]
 8007816:	6023      	str	r3, [r4, #0]
}
 8007818:	b008      	add	sp, #32
 800781a:	bd10      	pop	{r4, pc}
    BSP_SD_GetCardInfo(&CardInfo);
 800781c:	4668      	mov	r0, sp
 800781e:	f7fb ffe5 	bl	80037ec <BSP_SD_GetCardInfo>
    res = RES_OK;
 8007822:	2000      	movs	r0, #0
    *(WORD*)buff = CardInfo.LogBlockSize;
 8007824:	9b07      	ldr	r3, [sp, #28]
 8007826:	8023      	strh	r3, [r4, #0]
}
 8007828:	b008      	add	sp, #32
 800782a:	bd10      	pop	{r4, pc}
    BSP_SD_GetCardInfo(&CardInfo);
 800782c:	4668      	mov	r0, sp
 800782e:	f7fb ffdd 	bl	80037ec <BSP_SD_GetCardInfo>
    res = RES_OK;
 8007832:	2000      	movs	r0, #0
    *(DWORD*)buff = CardInfo.LogBlockSize;
 8007834:	9b07      	ldr	r3, [sp, #28]
 8007836:	6023      	str	r3, [r4, #0]
}
 8007838:	b008      	add	sp, #32
 800783a:	bd10      	pop	{r4, pc}
    res = RES_PARERR;
 800783c:	2004      	movs	r0, #4
}
 800783e:	b008      	add	sp, #32
 8007840:	bd10      	pop	{r4, pc}
 8007842:	bf00      	nop
 8007844:	2000000c 	.word	0x2000000c

08007848 <SD_write>:
{
 8007848:	b510      	push	{r4, lr}
  if(BSP_SD_WriteBlocks((uint32_t*)buff, 
 800784a:	4608      	mov	r0, r1
 800784c:	4611      	mov	r1, r2
 800784e:	461a      	mov	r2, r3
 8007850:	4b07      	ldr	r3, [pc, #28]	; (8007870 <SD_write+0x28>)
 8007852:	f7fb ffaf 	bl	80037b4 <BSP_SD_WriteBlocks>
 8007856:	b940      	cbnz	r0, 800786a <SD_write+0x22>
 8007858:	4c06      	ldr	r4, [pc, #24]	; (8007874 <SD_write+0x2c>)
 800785a:	e001      	b.n	8007860 <SD_write+0x18>
      if (timeout-- == 0)
 800785c:	3c01      	subs	r4, #1
 800785e:	d004      	beq.n	800786a <SD_write+0x22>
    while(BSP_SD_GetCardState()!= MSD_OK)
 8007860:	f7fb ffba 	bl	80037d8 <BSP_SD_GetCardState>
 8007864:	2800      	cmp	r0, #0
 8007866:	d1f9      	bne.n	800785c <SD_write+0x14>
}
 8007868:	bd10      	pop	{r4, pc}
  DRESULT res = RES_ERROR;
 800786a:	2001      	movs	r0, #1
}
 800786c:	bd10      	pop	{r4, pc}
 800786e:	bf00      	nop
 8007870:	05f5e100 	.word	0x05f5e100
 8007874:	000186a1 	.word	0x000186a1

08007878 <ff_convert>:
	const WCHAR *p;
	WCHAR c;
	int i, n, li, hi;


	if (chr < 0x80) {	/* ASCII */
 8007878:	287f      	cmp	r0, #127	; 0x7f
 800787a:	f240 80e0 	bls.w	8007a3e <ff_convert+0x1c6>
	} else {
		if (dir) {		/* OEMCP to unicode */
			p = oem2uni;
			hi = sizeof oem2uni / 4 - 1;
		} else {		/* Unicode to OEMCP */
			p = uni2oem;
 800787e:	4a70      	ldr	r2, [pc, #448]	; (8007a40 <ff_convert+0x1c8>)
{
 8007880:	b470      	push	{r4, r5, r6}
			p = uni2oem;
 8007882:	4c70      	ldr	r4, [pc, #448]	; (8007a44 <ff_convert+0x1cc>)
			hi = sizeof uni2oem / 4 - 1;
		}
		li = 0;
		for (n = 16; n; n--) {
			i = li + (hi - li) / 2;
			if (chr == p[i * 2]) break;
 8007884:	f248 5330 	movw	r3, #34096	; 0x8530
			p = uni2oem;
 8007888:	2900      	cmp	r1, #0
 800788a:	bf14      	ite	ne
 800788c:	4621      	movne	r1, r4
 800788e:	4611      	moveq	r1, r2
			if (chr == p[i * 2]) break;
 8007890:	5aca      	ldrh	r2, [r1, r3]
 8007892:	4290      	cmp	r0, r2
 8007894:	f000 80ce 	beq.w	8007a34 <ff_convert+0x1bc>
			i = li + (hi - li) / 2;
 8007898:	bf8b      	itete	hi
 800789a:	f242 134c 	movwhi	r3, #8524	; 0x214c
		li = 0;
 800789e:	2300      	movls	r3, #0
			if (chr > p[i * 2])
 80078a0:	f244 2498 	movwhi	r4, #17048	; 0x4298
			i = li + (hi - li) / 2;
 80078a4:	f242 144c 	movwls	r4, #8524	; 0x214c
 80078a8:	1ae5      	subs	r5, r4, r3
 80078aa:	eb03 0565 	add.w	r5, r3, r5, asr #1
			if (chr == p[i * 2]) break;
 80078ae:	f831 6025 	ldrh.w	r6, [r1, r5, lsl #2]
 80078b2:	00aa      	lsls	r2, r5, #2
 80078b4:	42b0      	cmp	r0, r6
 80078b6:	f000 80be 	beq.w	8007a36 <ff_convert+0x1be>
			i = li + (hi - li) / 2;
 80078ba:	bf84      	itt	hi
 80078bc:	462b      	movhi	r3, r5
			if (chr > p[i * 2])
 80078be:	4625      	movhi	r5, r4
			i = li + (hi - li) / 2;
 80078c0:	1aec      	subs	r4, r5, r3
 80078c2:	eb04 74d4 	add.w	r4, r4, r4, lsr #31
 80078c6:	eb03 0464 	add.w	r4, r3, r4, asr #1
			if (chr == p[i * 2]) break;
 80078ca:	f831 6024 	ldrh.w	r6, [r1, r4, lsl #2]
 80078ce:	00a2      	lsls	r2, r4, #2
 80078d0:	42b0      	cmp	r0, r6
 80078d2:	f000 80b0 	beq.w	8007a36 <ff_convert+0x1be>
			i = li + (hi - li) / 2;
 80078d6:	bf84      	itt	hi
 80078d8:	4623      	movhi	r3, r4
			if (chr > p[i * 2])
 80078da:	462c      	movhi	r4, r5
			i = li + (hi - li) / 2;
 80078dc:	1ae5      	subs	r5, r4, r3
 80078de:	eb05 75d5 	add.w	r5, r5, r5, lsr #31
 80078e2:	eb03 0565 	add.w	r5, r3, r5, asr #1
			if (chr == p[i * 2]) break;
 80078e6:	f831 6025 	ldrh.w	r6, [r1, r5, lsl #2]
 80078ea:	00aa      	lsls	r2, r5, #2
 80078ec:	42b0      	cmp	r0, r6
 80078ee:	f000 80a2 	beq.w	8007a36 <ff_convert+0x1be>
			i = li + (hi - li) / 2;
 80078f2:	bf84      	itt	hi
 80078f4:	462b      	movhi	r3, r5
			if (chr > p[i * 2])
 80078f6:	4625      	movhi	r5, r4
			i = li + (hi - li) / 2;
 80078f8:	1aec      	subs	r4, r5, r3
 80078fa:	eb04 74d4 	add.w	r4, r4, r4, lsr #31
 80078fe:	eb03 0464 	add.w	r4, r3, r4, asr #1
			if (chr == p[i * 2]) break;
 8007902:	f831 6024 	ldrh.w	r6, [r1, r4, lsl #2]
 8007906:	00a2      	lsls	r2, r4, #2
 8007908:	42b0      	cmp	r0, r6
 800790a:	f000 8094 	beq.w	8007a36 <ff_convert+0x1be>
			i = li + (hi - li) / 2;
 800790e:	bf84      	itt	hi
 8007910:	4623      	movhi	r3, r4
			if (chr > p[i * 2])
 8007912:	462c      	movhi	r4, r5
			i = li + (hi - li) / 2;
 8007914:	1ae5      	subs	r5, r4, r3
 8007916:	eb05 75d5 	add.w	r5, r5, r5, lsr #31
 800791a:	eb03 0565 	add.w	r5, r3, r5, asr #1
			if (chr == p[i * 2]) break;
 800791e:	f831 6025 	ldrh.w	r6, [r1, r5, lsl #2]
 8007922:	00aa      	lsls	r2, r5, #2
 8007924:	42b0      	cmp	r0, r6
 8007926:	f000 8086 	beq.w	8007a36 <ff_convert+0x1be>
			i = li + (hi - li) / 2;
 800792a:	bf84      	itt	hi
 800792c:	462b      	movhi	r3, r5
			if (chr > p[i * 2])
 800792e:	4625      	movhi	r5, r4
			i = li + (hi - li) / 2;
 8007930:	1aec      	subs	r4, r5, r3
 8007932:	eb04 74d4 	add.w	r4, r4, r4, lsr #31
 8007936:	eb03 0464 	add.w	r4, r3, r4, asr #1
			if (chr == p[i * 2]) break;
 800793a:	f831 6024 	ldrh.w	r6, [r1, r4, lsl #2]
 800793e:	00a2      	lsls	r2, r4, #2
 8007940:	42b0      	cmp	r0, r6
 8007942:	d078      	beq.n	8007a36 <ff_convert+0x1be>
			i = li + (hi - li) / 2;
 8007944:	bf84      	itt	hi
 8007946:	4623      	movhi	r3, r4
			if (chr > p[i * 2])
 8007948:	462c      	movhi	r4, r5
			i = li + (hi - li) / 2;
 800794a:	1ae5      	subs	r5, r4, r3
 800794c:	eb05 75d5 	add.w	r5, r5, r5, lsr #31
 8007950:	eb03 0565 	add.w	r5, r3, r5, asr #1
			if (chr == p[i * 2]) break;
 8007954:	f831 6025 	ldrh.w	r6, [r1, r5, lsl #2]
 8007958:	00aa      	lsls	r2, r5, #2
 800795a:	42b0      	cmp	r0, r6
 800795c:	d06b      	beq.n	8007a36 <ff_convert+0x1be>
			i = li + (hi - li) / 2;
 800795e:	bf84      	itt	hi
 8007960:	462b      	movhi	r3, r5
			if (chr > p[i * 2])
 8007962:	4625      	movhi	r5, r4
			i = li + (hi - li) / 2;
 8007964:	1aec      	subs	r4, r5, r3
 8007966:	eb04 74d4 	add.w	r4, r4, r4, lsr #31
 800796a:	eb03 0464 	add.w	r4, r3, r4, asr #1
			if (chr == p[i * 2]) break;
 800796e:	f831 6024 	ldrh.w	r6, [r1, r4, lsl #2]
 8007972:	00a2      	lsls	r2, r4, #2
 8007974:	42b0      	cmp	r0, r6
 8007976:	d05e      	beq.n	8007a36 <ff_convert+0x1be>
			i = li + (hi - li) / 2;
 8007978:	bf84      	itt	hi
 800797a:	4623      	movhi	r3, r4
			if (chr > p[i * 2])
 800797c:	462c      	movhi	r4, r5
			i = li + (hi - li) / 2;
 800797e:	1ae5      	subs	r5, r4, r3
 8007980:	eb05 75d5 	add.w	r5, r5, r5, lsr #31
 8007984:	eb03 0565 	add.w	r5, r3, r5, asr #1
			if (chr == p[i * 2]) break;
 8007988:	f831 6025 	ldrh.w	r6, [r1, r5, lsl #2]
 800798c:	00aa      	lsls	r2, r5, #2
 800798e:	42b0      	cmp	r0, r6
 8007990:	d051      	beq.n	8007a36 <ff_convert+0x1be>
			i = li + (hi - li) / 2;
 8007992:	bf84      	itt	hi
 8007994:	462b      	movhi	r3, r5
			if (chr > p[i * 2])
 8007996:	4625      	movhi	r5, r4
			i = li + (hi - li) / 2;
 8007998:	1aec      	subs	r4, r5, r3
 800799a:	eb04 74d4 	add.w	r4, r4, r4, lsr #31
 800799e:	eb03 0464 	add.w	r4, r3, r4, asr #1
			if (chr == p[i * 2]) break;
 80079a2:	f831 6024 	ldrh.w	r6, [r1, r4, lsl #2]
 80079a6:	00a2      	lsls	r2, r4, #2
 80079a8:	42b0      	cmp	r0, r6
 80079aa:	d044      	beq.n	8007a36 <ff_convert+0x1be>
			i = li + (hi - li) / 2;
 80079ac:	bf84      	itt	hi
 80079ae:	4623      	movhi	r3, r4
			if (chr > p[i * 2])
 80079b0:	462c      	movhi	r4, r5
			i = li + (hi - li) / 2;
 80079b2:	1ae5      	subs	r5, r4, r3
 80079b4:	eb05 75d5 	add.w	r5, r5, r5, lsr #31
 80079b8:	eb03 0565 	add.w	r5, r3, r5, asr #1
			if (chr == p[i * 2]) break;
 80079bc:	f831 6025 	ldrh.w	r6, [r1, r5, lsl #2]
 80079c0:	00aa      	lsls	r2, r5, #2
 80079c2:	42b0      	cmp	r0, r6
 80079c4:	d037      	beq.n	8007a36 <ff_convert+0x1be>
			i = li + (hi - li) / 2;
 80079c6:	bf84      	itt	hi
 80079c8:	462b      	movhi	r3, r5
			if (chr > p[i * 2])
 80079ca:	4625      	movhi	r5, r4
			i = li + (hi - li) / 2;
 80079cc:	1aec      	subs	r4, r5, r3
 80079ce:	eb04 74d4 	add.w	r4, r4, r4, lsr #31
 80079d2:	eb03 0464 	add.w	r4, r3, r4, asr #1
			if (chr == p[i * 2]) break;
 80079d6:	f831 6024 	ldrh.w	r6, [r1, r4, lsl #2]
 80079da:	00a2      	lsls	r2, r4, #2
 80079dc:	42b0      	cmp	r0, r6
 80079de:	d02a      	beq.n	8007a36 <ff_convert+0x1be>
			i = li + (hi - li) / 2;
 80079e0:	bf84      	itt	hi
 80079e2:	4623      	movhi	r3, r4
			if (chr > p[i * 2])
 80079e4:	462c      	movhi	r4, r5
			i = li + (hi - li) / 2;
 80079e6:	1ae5      	subs	r5, r4, r3
 80079e8:	eb05 75d5 	add.w	r5, r5, r5, lsr #31
 80079ec:	eb03 0565 	add.w	r5, r3, r5, asr #1
			if (chr == p[i * 2]) break;
 80079f0:	f831 6025 	ldrh.w	r6, [r1, r5, lsl #2]
 80079f4:	00aa      	lsls	r2, r5, #2
 80079f6:	42b0      	cmp	r0, r6
 80079f8:	d01d      	beq.n	8007a36 <ff_convert+0x1be>
			i = li + (hi - li) / 2;
 80079fa:	bf84      	itt	hi
 80079fc:	462b      	movhi	r3, r5
			if (chr > p[i * 2])
 80079fe:	4625      	movhi	r5, r4
			i = li + (hi - li) / 2;
 8007a00:	1aec      	subs	r4, r5, r3
 8007a02:	eb04 74d4 	add.w	r4, r4, r4, lsr #31
 8007a06:	eb03 0464 	add.w	r4, r3, r4, asr #1
			if (chr == p[i * 2]) break;
 8007a0a:	f831 6024 	ldrh.w	r6, [r1, r4, lsl #2]
 8007a0e:	00a2      	lsls	r2, r4, #2
 8007a10:	42b0      	cmp	r0, r6
 8007a12:	d010      	beq.n	8007a36 <ff_convert+0x1be>
			i = li + (hi - li) / 2;
 8007a14:	bf84      	itt	hi
 8007a16:	4623      	movhi	r3, r4
			if (chr > p[i * 2])
 8007a18:	462c      	movhi	r4, r5
			i = li + (hi - li) / 2;
 8007a1a:	1ae4      	subs	r4, r4, r3
 8007a1c:	eb04 74d4 	add.w	r4, r4, r4, lsr #31
 8007a20:	eb03 0364 	add.w	r3, r3, r4, asr #1
			if (chr == p[i * 2]) break;
 8007a24:	f831 4023 	ldrh.w	r4, [r1, r3, lsl #2]
 8007a28:	009a      	lsls	r2, r3, #2
 8007a2a:	4284      	cmp	r4, r0
 8007a2c:	d003      	beq.n	8007a36 <ff_convert+0x1be>
		}
		c = n ? p[i * 2 + 1] : 0;
	}

	return c;
}
 8007a2e:	bc70      	pop	{r4, r5, r6}
		c = n ? p[i * 2 + 1] : 0;
 8007a30:	2000      	movs	r0, #0
}
 8007a32:	4770      	bx	lr
			if (chr == p[i * 2]) break;
 8007a34:	461a      	mov	r2, r3
}
 8007a36:	bc70      	pop	{r4, r5, r6}
		c = n ? p[i * 2 + 1] : 0;
 8007a38:	4411      	add	r1, r2
 8007a3a:	8848      	ldrh	r0, [r1, #2]
}
 8007a3c:	4770      	bx	lr
 8007a3e:	4770      	bx	lr
 8007a40:	0801a930 	.word	0x0801a930
 8007a44:	08009b0c 	.word	0x08009b0c

08007a48 <ff_wtoupper>:
	static const WCHAR tbl_lower[] = { 0x61, 0x62, 0x63, 0x64, 0x65, 0x66, 0x67, 0x68, 0x69, 0x6A, 0x6B, 0x6C, 0x6D, 0x6E, 0x6F, 0x70, 0x71, 0x72, 0x73, 0x74, 0x75, 0x76, 0x77, 0x78, 0x79, 0x7A, 0xA1, 0x00A2, 0x00A3, 0x00A5, 0x00AC, 0x00AF, 0xE0, 0xE1, 0xE2, 0xE3, 0xE4, 0xE5, 0xE6, 0xE7, 0xE8, 0xE9, 0xEA, 0xEB, 0xEC, 0xED, 0xEE, 0xEF, 0xF0, 0xF1, 0xF2, 0xF3, 0xF4, 0xF5, 0xF6, 0xF8, 0xF9, 0xFA, 0xFB, 0xFC, 0xFD, 0xFE, 0x0FF, 0x101, 0x103, 0x105, 0x107, 0x109, 0x10B, 0x10D, 0x10F, 0x111, 0x113, 0x115, 0x117, 0x119, 0x11B, 0x11D, 0x11F, 0x121, 0x123, 0x125, 0x127, 0x129, 0x12B, 0x12D, 0x12F, 0x131, 0x133, 0x135, 0x137, 0x13A, 0x13C, 0x13E, 0x140, 0x142, 0x144, 0x146, 0x148, 0x14B, 0x14D, 0x14F, 0x151, 0x153, 0x155, 0x157, 0x159, 0x15B, 0x15D, 0x15F, 0x161, 0x163, 0x165, 0x167, 0x169, 0x16B, 0x16D, 0x16F, 0x171, 0x173, 0x175, 0x177, 0x17A, 0x17C, 0x17E, 0x192, 0x3B1, 0x3B2, 0x3B3, 0x3B4, 0x3B5, 0x3B6, 0x3B7, 0x3B8, 0x3B9, 0x3BA, 0x3BB, 0x3BC, 0x3BD, 0x3BE, 0x3BF, 0x3C0, 0x3C1, 0x3C3, 0x3C4, 0x3C5, 0x3C6, 0x3C7, 0x3C8, 0x3C9, 0x3CA, 0x430, 0x431, 0x432, 0x433, 0x434, 0x435, 0x436, 0x437, 0x438, 0x439, 0x43A, 0x43B, 0x43C, 0x43D, 0x43E, 0x43F, 0x440, 0x441, 0x442, 0x443, 0x444, 0x445, 0x446, 0x447, 0x448, 0x449, 0x44A, 0x44B, 0x44C, 0x44D, 0x44E, 0x44F, 0x451, 0x452, 0x453, 0x454, 0x455, 0x456, 0x457, 0x458, 0x459, 0x45A, 0x45B, 0x45C, 0x45E, 0x45F, 0x2170, 0x2171, 0x2172, 0x2173, 0x2174, 0x2175, 0x2176, 0x2177, 0x2178, 0x2179, 0x217A, 0x217B, 0x217C, 0x217D, 0x217E, 0x217F, 0xFF41, 0xFF42, 0xFF43, 0xFF44, 0xFF45, 0xFF46, 0xFF47, 0xFF48, 0xFF49, 0xFF4A, 0xFF4B, 0xFF4C, 0xFF4D, 0xFF4E, 0xFF4F, 0xFF50, 0xFF51, 0xFF52, 0xFF53, 0xFF54, 0xFF55, 0xFF56, 0xFF57, 0xFF58, 0xFF59, 0xFF5A, 0 };
	static const WCHAR tbl_upper[] = { 0x41, 0x42, 0x43, 0x44, 0x45, 0x46, 0x47, 0x48, 0x49, 0x4A, 0x4B, 0x4C, 0x4D, 0x4E, 0x4F, 0x50, 0x51, 0x52, 0x53, 0x54, 0x55, 0x56, 0x57, 0x58, 0x59, 0x5A, 0x21, 0xFFE0, 0xFFE1, 0xFFE5, 0xFFE2, 0xFFE3, 0xC0, 0xC1, 0xC2, 0xC3, 0xC4, 0xC5, 0xC6, 0xC7, 0xC8, 0xC9, 0xCA, 0xCB, 0xCC, 0xCD, 0xCE, 0xCF, 0xD0, 0xD1, 0xD2, 0xD3, 0xD4, 0xD5, 0xD6, 0xD8, 0xD9, 0xDA, 0xDB, 0xDC, 0xDD, 0xDE, 0x178, 0x100, 0x102, 0x104, 0x106, 0x108, 0x10A, 0x10C, 0x10E, 0x110, 0x112, 0x114, 0x116, 0x118, 0x11A, 0x11C, 0x11E, 0x120, 0x122, 0x124, 0x126, 0x128, 0x12A, 0x12C, 0x12E, 0x130, 0x132, 0x134, 0x136, 0x139, 0x13B, 0x13D, 0x13F, 0x141, 0x143, 0x145, 0x147, 0x14A, 0x14C, 0x14E, 0x150, 0x152, 0x154, 0x156, 0x158, 0x15A, 0x15C, 0x15E, 0x160, 0x162, 0x164, 0x166, 0x168, 0x16A, 0x16C, 0x16E, 0x170, 0x172, 0x174, 0x176, 0x179, 0x17B, 0x17D, 0x191, 0x391, 0x392, 0x393, 0x394, 0x395, 0x396, 0x397, 0x398, 0x399, 0x39A, 0x39B, 0x39C, 0x39D, 0x39E, 0x39F, 0x3A0, 0x3A1, 0x3A3, 0x3A4, 0x3A5, 0x3A6, 0x3A7, 0x3A8, 0x3A9, 0x3AA, 0x410, 0x411, 0x412, 0x413, 0x414, 0x415, 0x416, 0x417, 0x418, 0x419, 0x41A, 0x41B, 0x41C, 0x41D, 0x41E, 0x41F, 0x420, 0x421, 0x422, 0x423, 0x424, 0x425, 0x426, 0x427, 0x428, 0x429, 0x42A, 0x42B, 0x42C, 0x42D, 0x42E, 0x42F, 0x401, 0x402, 0x403, 0x404, 0x405, 0x406, 0x407, 0x408, 0x409, 0x40A, 0x40B, 0x40C, 0x40E, 0x40F, 0x2160, 0x2161, 0x2162, 0x2163, 0x2164, 0x2165, 0x2166, 0x2167, 0x2168, 0x2169, 0x216A, 0x216B, 0x216C, 0x216D, 0x216E, 0x216F, 0xFF21, 0xFF22, 0xFF23, 0xFF24, 0xFF25, 0xFF26, 0xFF27, 0xFF28, 0xFF29, 0xFF2A, 0xFF2B, 0xFF2C, 0xFF2D, 0xFF2E, 0xFF2F, 0xFF30, 0xFF31, 0xFF32, 0xFF33, 0xFF34, 0xFF35, 0xFF36, 0xFF37, 0xFF38, 0xFF39, 0xFF3A, 0 };
	int i;


	for (i = 0; tbl_lower[i] && chr != tbl_lower[i]; i++) ;
 8007a48:	2861      	cmp	r0, #97	; 0x61
 8007a4a:	d00e      	beq.n	8007a6a <ff_wtoupper+0x22>
 8007a4c:	2201      	movs	r2, #1
 8007a4e:	2362      	movs	r3, #98	; 0x62
 8007a50:	4907      	ldr	r1, [pc, #28]	; (8007a70 <ff_wtoupper+0x28>)
 8007a52:	4283      	cmp	r3, r0
 8007a54:	d005      	beq.n	8007a62 <ff_wtoupper+0x1a>
 8007a56:	f831 3f02 	ldrh.w	r3, [r1, #2]!
 8007a5a:	3201      	adds	r2, #1
 8007a5c:	2b00      	cmp	r3, #0
 8007a5e:	d1f8      	bne.n	8007a52 <ff_wtoupper+0xa>

	return tbl_lower[i] ? tbl_upper[i] : chr;
}
 8007a60:	4770      	bx	lr
 8007a62:	4b04      	ldr	r3, [pc, #16]	; (8007a74 <ff_wtoupper+0x2c>)
 8007a64:	f833 0012 	ldrh.w	r0, [r3, r2, lsl #1]
 8007a68:	4770      	bx	lr
	for (i = 0; tbl_lower[i] && chr != tbl_lower[i]; i++) ;
 8007a6a:	2041      	movs	r0, #65	; 0x41
	return tbl_lower[i] ? tbl_upper[i] : chr;
 8007a6c:	e7f8      	b.n	8007a60 <ff_wtoupper+0x18>
 8007a6e:	bf00      	nop
 8007a70:	0801a572 	.word	0x0801a572
 8007a74:	0801a750 	.word	0x0801a750

08007a78 <ff_cre_syncobj>:
	_SYNC_t *sobj		/* Pointer to return the created sync object */
)
{
  int ret;
  
  osSemaphoreDef(SEM);
 8007a78:	2300      	movs	r3, #0
{
 8007a7a:	b510      	push	{r4, lr}
 8007a7c:	b082      	sub	sp, #8
  osSemaphoreDef(SEM);
 8007a7e:	a802      	add	r0, sp, #8
{
 8007a80:	460c      	mov	r4, r1
  osSemaphoreDef(SEM);
 8007a82:	f840 3d04 	str.w	r3, [r0, #-4]!
  *sobj = osSemaphoreCreate(osSemaphore(SEM), 1);		
 8007a86:	2101      	movs	r1, #1
 8007a88:	f000 f844 	bl	8007b14 <osSemaphoreCreate>
 8007a8c:	6020      	str	r0, [r4, #0]
  ret = (*sobj != NULL);
  
  return ret;
}
 8007a8e:	3000      	adds	r0, #0
 8007a90:	bf18      	it	ne
 8007a92:	2001      	movne	r0, #1
 8007a94:	b002      	add	sp, #8
 8007a96:	bd10      	pop	{r4, pc}

08007a98 <ff_del_syncobj>:
*/

int ff_del_syncobj (	/* TRUE:Function succeeded, FALSE:Could not delete due to any error */
	_SYNC_t sobj		/* Sync object tied to the logical drive to be deleted */
)
{
 8007a98:	b508      	push	{r3, lr}
  osSemaphoreDelete (sobj);
 8007a9a:	f000 f8a3 	bl	8007be4 <osSemaphoreDelete>
  return 1;
}
 8007a9e:	2001      	movs	r0, #1
 8007aa0:	bd08      	pop	{r3, pc}
 8007aa2:	bf00      	nop

08007aa4 <ff_req_grant>:
*/

int ff_req_grant (	/* TRUE:Got a grant to access the volume, FALSE:Could not get a grant */
	_SYNC_t sobj	/* Sync object to wait */
)
{
 8007aa4:	b508      	push	{r3, lr}
  int ret = 0;
  
  if(osSemaphoreWait(sobj, _FS_TIMEOUT) == osOK)
 8007aa6:	f44f 717a 	mov.w	r1, #1000	; 0x3e8
 8007aaa:	f000 f847 	bl	8007b3c <osSemaphoreWait>
  {
    ret = 1;
  }
  
  return ret;
}
 8007aae:	fab0 f080 	clz	r0, r0
 8007ab2:	0940      	lsrs	r0, r0, #5
 8007ab4:	bd08      	pop	{r3, pc}
 8007ab6:	bf00      	nop

08007ab8 <ff_rel_grant>:

void ff_rel_grant (
	_SYNC_t sobj	/* Sync object to be signaled */
)
{
  osSemaphoreRelease(sobj);
 8007ab8:	f000 b86c 	b.w	8007b94 <osSemaphoreRelease>

08007abc <ff_memalloc>:

void* ff_memalloc (	/* Returns pointer to the allocated memory block */
	UINT msize		/* Number of bytes to allocate */
)
{
	return malloc(msize);	/* Allocate a new memory block with POSIX API */
 8007abc:	f001 bea2 	b.w	8009804 <malloc>

08007ac0 <ff_memfree>:

void ff_memfree (
	void* mblock	/* Pointer to the memory block to free */
)
{
	free(mblock);	/* Discard the memory block with POSIX API */
 8007ac0:	f001 bea8 	b.w	8009814 <free>

08007ac4 <osKernelStart>:
* @param  argument      pointer that is passed to the thread function as start argument.
* @retval status code that indicates the execution status of the function
* @note   MUST REMAIN UNCHANGED: \b osKernelStart shall be consistent in every CMSIS-RTOS.
*/
osStatus osKernelStart (void)
{
 8007ac4:	b508      	push	{r3, lr}
  vTaskStartScheduler();
 8007ac6:	f000 ff49 	bl	800895c <vTaskStartScheduler>
  
  return osOK;
}
 8007aca:	2000      	movs	r0, #0
 8007acc:	bd08      	pop	{r3, pc}
 8007ace:	bf00      	nop

08007ad0 <osThreadCreate>:
* @param  argument      pointer that is passed to the thread function as start argument.
* @retval thread ID for reference by other functions or NULL in case of error.
* @note   MUST REMAIN UNCHANGED: \b osThreadCreate shall be consistent in every CMSIS-RTOS.
*/
osThreadId osThreadCreate (const osThreadDef_t *thread_def, void *argument)
{
 8007ad0:	b530      	push	{r4, r5, lr}

    handle = xTaskCreateStatic((TaskFunction_t)thread_def->pthread,(const portCHAR *)thread_def->name,
              thread_def->stacksize, argument, makeFreeRtosPriority(thread_def->tpriority),
              thread_def->buffer, thread_def->controlblock);
#else
  if (xTaskCreate((TaskFunction_t)thread_def->pthread,(const portCHAR *)thread_def->name,
 8007ad2:	f9b0 4008 	ldrsh.w	r4, [r0, #8]
{
 8007ad6:	4602      	mov	r2, r0
  if (priority != osPriorityError) {
 8007ad8:	2c84      	cmp	r4, #132	; 0x84
  unsigned portBASE_TYPE fpriority = tskIDLE_PRIORITY;
 8007ada:	bf08      	it	eq
 8007adc:	2400      	moveq	r4, #0
{
 8007ade:	b085      	sub	sp, #20
    fpriority += (priority - osPriorityIdle);
 8007ae0:	bf18      	it	ne
 8007ae2:	3403      	addne	r4, #3
  if (xTaskCreate((TaskFunction_t)thread_def->pthread,(const portCHAR *)thread_def->name,
 8007ae4:	ad03      	add	r5, sp, #12
{
 8007ae6:	460b      	mov	r3, r1
  if (xTaskCreate((TaskFunction_t)thread_def->pthread,(const portCHAR *)thread_def->name,
 8007ae8:	6840      	ldr	r0, [r0, #4]
 8007aea:	6811      	ldr	r1, [r2, #0]
 8007aec:	8a12      	ldrh	r2, [r2, #16]
 8007aee:	e9cd 4500 	strd	r4, r5, [sp]
 8007af2:	f000 fdf7 	bl	80086e4 <xTaskCreate>
 8007af6:	2801      	cmp	r0, #1
                   thread_def->stacksize, argument, makeFreeRtosPriority(thread_def->tpriority),
                   &handle) != pdPASS)  {
    return NULL;
 8007af8:	bf14      	ite	ne
 8007afa:	2000      	movne	r0, #0
  }     
#endif
  
  return handle;
 8007afc:	9803      	ldreq	r0, [sp, #12]
}
 8007afe:	b005      	add	sp, #20
 8007b00:	bd30      	pop	{r4, r5, pc}
 8007b02:	bf00      	nop

08007b04 <osDelay>:
* @brief   Wait for Timeout (Time Delay)
* @param   millisec      time delay value
* @retval  status code that indicates the execution status of the function.
*/
osStatus osDelay (uint32_t millisec)
{
 8007b04:	b508      	push	{r3, lr}
#if INCLUDE_vTaskDelay
  TickType_t ticks = millisec / portTICK_PERIOD_MS;
  
  vTaskDelay(ticks ? ticks : 1);          /* Minimum delay = 1 tick */
 8007b06:	2800      	cmp	r0, #0
 8007b08:	bf08      	it	eq
 8007b0a:	2001      	moveq	r0, #1
 8007b0c:	f001 f956 	bl	8008dbc <vTaskDelay>
#else
  (void) millisec;
  
  return osErrorResource;
#endif
}
 8007b10:	2000      	movs	r0, #0
 8007b12:	bd08      	pop	{r3, pc}

08007b14 <osSemaphoreCreate>:
#endif    
  }
#else  // configSUPPORT_STATIC_ALLOCATION == 0  && configSUPPORT_DYNAMIC_ALLOCATION == 1
  osSemaphoreId sema;
 
  if (count == 1) {
 8007b14:	2901      	cmp	r1, #1
{ 
 8007b16:	4608      	mov	r0, r1
  if (count == 1) {
 8007b18:	d001      	beq.n	8007b1e <osSemaphoreCreate+0xa>
    vSemaphoreCreateBinary(sema);
    return sema;
  }
  else {
#if (configUSE_COUNTING_SEMAPHORES == 1 )	
    return xSemaphoreCreateCounting(count, count);
 8007b1a:	f000 b8fd 	b.w	8007d18 <xQueueCreateCountingSemaphore>
{ 
 8007b1e:	b510      	push	{r4, lr}
    vSemaphoreCreateBinary(sema);
 8007b20:	2203      	movs	r2, #3
 8007b22:	2100      	movs	r1, #0
 8007b24:	f000 f8b4 	bl	8007c90 <xQueueGenericCreate>
 8007b28:	4604      	mov	r4, r0
 8007b2a:	b120      	cbz	r0, 8007b36 <osSemaphoreCreate+0x22>
 8007b2c:	2300      	movs	r3, #0
 8007b2e:	461a      	mov	r2, r3
 8007b30:	4619      	mov	r1, r3
 8007b32:	f000 f90f 	bl	8007d54 <xQueueGenericSend>
#else
    return NULL;
#endif
  }
#endif
}
 8007b36:	4620      	mov	r0, r4
 8007b38:	bd10      	pop	{r4, pc}
 8007b3a:	bf00      	nop

08007b3c <osSemaphoreWait>:
* @param  millisec      timeout value or 0 in case of no time-out.
* @retval  number of available tokens, or -1 in case of incorrect parameters.
* @note   MUST REMAIN UNCHANGED: \b osSemaphoreWait shall be consistent in every CMSIS-RTOS.
*/
int32_t osSemaphoreWait (osSemaphoreId semaphore_id, uint32_t millisec)
{
 8007b3c:	b510      	push	{r4, lr}
  TickType_t ticks;
  portBASE_TYPE taskWoken = pdFALSE;  
 8007b3e:	2400      	movs	r4, #0
{
 8007b40:	b082      	sub	sp, #8
  portBASE_TYPE taskWoken = pdFALSE;  
 8007b42:	9401      	str	r4, [sp, #4]
  
  
  if (semaphore_id == NULL) {
 8007b44:	b300      	cbz	r0, 8007b88 <osSemaphoreWait+0x4c>
  __ASM volatile ("MRS %0, ipsr" : "=r" (result) );
 8007b46:	f3ef 8305 	mrs	r3, IPSR
    if (ticks == 0) {
      ticks = 1;
    }
  }
  
  if (inHandlerMode()) {
 8007b4a:	b933      	cbnz	r3, 8007b5a <osSemaphoreWait+0x1e>
    if (xSemaphoreTakeFromISR(semaphore_id, &taskWoken) != pdTRUE) {
      return osErrorOS;
    }
	portEND_SWITCHING_ISR(taskWoken);
  }  
  else if (xSemaphoreTake(semaphore_id, ticks) != pdTRUE) {
 8007b4c:	f000 fb24 	bl	8008198 <xQueueSemaphoreTake>
 8007b50:	2801      	cmp	r0, #1
 8007b52:	d116      	bne.n	8007b82 <osSemaphoreWait+0x46>
    return osErrorOS;
  }
  
  return osOK;
 8007b54:	2000      	movs	r0, #0
}
 8007b56:	b002      	add	sp, #8
 8007b58:	bd10      	pop	{r4, pc}
    if (xSemaphoreTakeFromISR(semaphore_id, &taskWoken) != pdTRUE) {
 8007b5a:	aa01      	add	r2, sp, #4
 8007b5c:	4621      	mov	r1, r4
 8007b5e:	f000 fca5 	bl	80084ac <xQueueReceiveFromISR>
 8007b62:	2801      	cmp	r0, #1
 8007b64:	d10d      	bne.n	8007b82 <osSemaphoreWait+0x46>
	portEND_SWITCHING_ISR(taskWoken);
 8007b66:	9b01      	ldr	r3, [sp, #4]
 8007b68:	2b00      	cmp	r3, #0
 8007b6a:	d0f3      	beq.n	8007b54 <osSemaphoreWait+0x18>
 8007b6c:	f04f 5280 	mov.w	r2, #268435456	; 0x10000000
 8007b70:	4b07      	ldr	r3, [pc, #28]	; (8007b90 <osSemaphoreWait+0x54>)
 8007b72:	601a      	str	r2, [r3, #0]
 8007b74:	f3bf 8f4f 	dsb	sy
 8007b78:	f3bf 8f6f 	isb	sy
  return osOK;
 8007b7c:	4620      	mov	r0, r4
}
 8007b7e:	b002      	add	sp, #8
 8007b80:	bd10      	pop	{r4, pc}
      return osErrorOS;
 8007b82:	20ff      	movs	r0, #255	; 0xff
}
 8007b84:	b002      	add	sp, #8
 8007b86:	bd10      	pop	{r4, pc}
    return osErrorParameter;
 8007b88:	2080      	movs	r0, #128	; 0x80
}
 8007b8a:	b002      	add	sp, #8
 8007b8c:	bd10      	pop	{r4, pc}
 8007b8e:	bf00      	nop
 8007b90:	e000ed04 	.word	0xe000ed04

08007b94 <osSemaphoreRelease>:
 8007b94:	b510      	push	{r4, lr}
 8007b96:	2400      	movs	r4, #0
 8007b98:	b082      	sub	sp, #8
 8007b9a:	9401      	str	r4, [sp, #4]
 8007b9c:	f3ef 8305 	mrs	r3, IPSR
 8007ba0:	b14b      	cbz	r3, 8007bb6 <osSemaphoreRelease+0x22>
 8007ba2:	a901      	add	r1, sp, #4
 8007ba4:	f000 faa2 	bl	80080ec <xQueueGiveFromISR>
 8007ba8:	2801      	cmp	r0, #1
 8007baa:	d10a      	bne.n	8007bc2 <osSemaphoreRelease+0x2e>
 8007bac:	9b01      	ldr	r3, [sp, #4]
 8007bae:	b95b      	cbnz	r3, 8007bc8 <osSemaphoreRelease+0x34>
 8007bb0:	2000      	movs	r0, #0
 8007bb2:	b002      	add	sp, #8
 8007bb4:	bd10      	pop	{r4, pc}
 8007bb6:	461a      	mov	r2, r3
 8007bb8:	4619      	mov	r1, r3
 8007bba:	f000 f8cb 	bl	8007d54 <xQueueGenericSend>
 8007bbe:	2801      	cmp	r0, #1
 8007bc0:	d0f6      	beq.n	8007bb0 <osSemaphoreRelease+0x1c>
 8007bc2:	20ff      	movs	r0, #255	; 0xff
 8007bc4:	b002      	add	sp, #8
 8007bc6:	bd10      	pop	{r4, pc}
 8007bc8:	f04f 5280 	mov.w	r2, #268435456	; 0x10000000
 8007bcc:	4b04      	ldr	r3, [pc, #16]	; (8007be0 <osSemaphoreRelease+0x4c>)
 8007bce:	601a      	str	r2, [r3, #0]
 8007bd0:	f3bf 8f4f 	dsb	sy
 8007bd4:	f3bf 8f6f 	isb	sy
 8007bd8:	4620      	mov	r0, r4
 8007bda:	b002      	add	sp, #8
 8007bdc:	bd10      	pop	{r4, pc}
 8007bde:	bf00      	nop
 8007be0:	e000ed04 	.word	0xe000ed04

08007be4 <osSemaphoreDelete>:
 8007be4:	b510      	push	{r4, lr}
 8007be6:	f3ef 8405 	mrs	r4, IPSR
 8007bea:	b91c      	cbnz	r4, 8007bf4 <osSemaphoreDelete+0x10>
 8007bec:	f000 fcba 	bl	8008564 <vQueueDelete>
 8007bf0:	4620      	mov	r0, r4
 8007bf2:	bd10      	pop	{r4, pc}
 8007bf4:	2082      	movs	r0, #130	; 0x82
 8007bf6:	bd10      	pop	{r4, pc}

08007bf8 <vListInitialise>:
	as the only list entry. */
	pxList->pxIndex = ( ListItem_t * ) &( pxList->xListEnd );			/*lint !e826 !e740 The mini list structure is used as the list end to save RAM.  This is checked and valid. */

	/* The list end value is the highest possible value in the list to
	ensure it remains at the end of the list. */
	pxList->xListEnd.xItemValue = portMAX_DELAY;
 8007bf8:	f04f 31ff 	mov.w	r1, #4294967295
	/* The list end next and previous pointers point to itself so we know
	when the list is empty. */
	pxList->xListEnd.pxNext = ( ListItem_t * ) &( pxList->xListEnd );	/*lint !e826 !e740 The mini list structure is used as the list end to save RAM.  This is checked and valid. */
	pxList->xListEnd.pxPrevious = ( ListItem_t * ) &( pxList->xListEnd );/*lint !e826 !e740 The mini list structure is used as the list end to save RAM.  This is checked and valid. */

	pxList->uxNumberOfItems = ( UBaseType_t ) 0U;
 8007bfc:	2200      	movs	r2, #0
	pxList->pxIndex = ( ListItem_t * ) &( pxList->xListEnd );			/*lint !e826 !e740 The mini list structure is used as the list end to save RAM.  This is checked and valid. */
 8007bfe:	f100 0308 	add.w	r3, r0, #8
	pxList->xListEnd.xItemValue = portMAX_DELAY;
 8007c02:	6081      	str	r1, [r0, #8]
	pxList->uxNumberOfItems = ( UBaseType_t ) 0U;
 8007c04:	6002      	str	r2, [r0, #0]
	pxList->pxIndex = ( ListItem_t * ) &( pxList->xListEnd );			/*lint !e826 !e740 The mini list structure is used as the list end to save RAM.  This is checked and valid. */
 8007c06:	6043      	str	r3, [r0, #4]
	pxList->xListEnd.pxPrevious = ( ListItem_t * ) &( pxList->xListEnd );/*lint !e826 !e740 The mini list structure is used as the list end to save RAM.  This is checked and valid. */
 8007c08:	e9c0 3303 	strd	r3, r3, [r0, #12]

	/* Write known values into the list if
	configUSE_LIST_DATA_INTEGRITY_CHECK_BYTES is set to 1. */
	listSET_LIST_INTEGRITY_CHECK_1_VALUE( pxList );
	listSET_LIST_INTEGRITY_CHECK_2_VALUE( pxList );
}
 8007c0c:	4770      	bx	lr
 8007c0e:	bf00      	nop

08007c10 <vListInitialiseItem>:
/*-----------------------------------------------------------*/

void vListInitialiseItem( ListItem_t * const pxItem )
{
	/* Make sure the list item is not recorded as being on a list. */
	pxItem->pvContainer = NULL;
 8007c10:	2300      	movs	r3, #0
 8007c12:	6103      	str	r3, [r0, #16]

	/* Write known values into the list item if
	configUSE_LIST_DATA_INTEGRITY_CHECK_BYTES is set to 1. */
	listSET_FIRST_LIST_ITEM_INTEGRITY_CHECK_VALUE( pxItem );
	listSET_SECOND_LIST_ITEM_INTEGRITY_CHECK_VALUE( pxItem );
}
 8007c14:	4770      	bx	lr
 8007c16:	bf00      	nop

08007c18 <vListInsertEnd>:
/*-----------------------------------------------------------*/

void vListInsertEnd( List_t * const pxList, ListItem_t * const pxNewListItem )
{
ListItem_t * const pxIndex = pxList->pxIndex;
 8007c18:	6843      	ldr	r3, [r0, #4]
{
 8007c1a:	b410      	push	{r4}

	/* Insert a new list item into pxList, but rather than sort the list,
	makes the new list item the last item to be removed by a call to
	listGET_OWNER_OF_NEXT_ENTRY(). */
	pxNewListItem->pxNext = pxIndex;
	pxNewListItem->pxPrevious = pxIndex->pxPrevious;
 8007c1c:	689c      	ldr	r4, [r3, #8]
	pxIndex->pxPrevious = pxNewListItem;

	/* Remember which list the item is in. */
	pxNewListItem->pvContainer = ( void * ) pxList;

	( pxList->uxNumberOfItems )++;
 8007c1e:	6802      	ldr	r2, [r0, #0]
	pxNewListItem->pxPrevious = pxIndex->pxPrevious;
 8007c20:	608c      	str	r4, [r1, #8]
	pxIndex->pxPrevious->pxNext = pxNewListItem;
 8007c22:	689c      	ldr	r4, [r3, #8]
	( pxList->uxNumberOfItems )++;
 8007c24:	3201      	adds	r2, #1
	pxNewListItem->pxNext = pxIndex;
 8007c26:	604b      	str	r3, [r1, #4]
	pxIndex->pxPrevious->pxNext = pxNewListItem;
 8007c28:	6061      	str	r1, [r4, #4]
	pxIndex->pxPrevious = pxNewListItem;
 8007c2a:	6099      	str	r1, [r3, #8]
}
 8007c2c:	bc10      	pop	{r4}
	pxNewListItem->pvContainer = ( void * ) pxList;
 8007c2e:	6108      	str	r0, [r1, #16]
	( pxList->uxNumberOfItems )++;
 8007c30:	6002      	str	r2, [r0, #0]
}
 8007c32:	4770      	bx	lr

08007c34 <vListInsert>:
/*-----------------------------------------------------------*/

void vListInsert( List_t * const pxList, ListItem_t * const pxNewListItem )
{
 8007c34:	b430      	push	{r4, r5}
ListItem_t *pxIterator;
const TickType_t xValueOfInsertion = pxNewListItem->xItemValue;
 8007c36:	680d      	ldr	r5, [r1, #0]
	new list item should be placed after it.  This ensures that TCB's which are
	stored in ready lists (all of which have the same xItemValue value) get a
	share of the CPU.  However, if the xItemValue is the same as the back marker
	the iteration loop below will not end.  Therefore the value is checked
	first, and the algorithm slightly modified if necessary. */
	if( xValueOfInsertion == portMAX_DELAY )
 8007c38:	1c6b      	adds	r3, r5, #1
 8007c3a:	d011      	beq.n	8007c60 <vListInsert+0x2c>
			4) Using a queue or semaphore before it has been initialised or
			   before the scheduler has been started (are interrupts firing
			   before vTaskStartScheduler() has been called?).
		**********************************************************************/

		for( pxIterator = ( ListItem_t * ) &( pxList->xListEnd ); pxIterator->pxNext->xItemValue <= xValueOfInsertion; pxIterator = pxIterator->pxNext ) /*lint !e826 !e740 The mini list structure is used as the list end to save RAM.  This is checked and valid. */
 8007c3c:	f100 0208 	add.w	r2, r0, #8
 8007c40:	e000      	b.n	8007c44 <vListInsert+0x10>
 8007c42:	461a      	mov	r2, r3
 8007c44:	6853      	ldr	r3, [r2, #4]
 8007c46:	681c      	ldr	r4, [r3, #0]
 8007c48:	42ac      	cmp	r4, r5
 8007c4a:	d9fa      	bls.n	8007c42 <vListInsert+0xe>

	/* Remember which list the item is in.  This allows fast removal of the
	item later. */
	pxNewListItem->pvContainer = ( void * ) pxList;

	( pxList->uxNumberOfItems )++;
 8007c4c:	6804      	ldr	r4, [r0, #0]
	pxNewListItem->pxNext = pxIterator->pxNext;
 8007c4e:	604b      	str	r3, [r1, #4]
	( pxList->uxNumberOfItems )++;
 8007c50:	3401      	adds	r4, #1
	pxNewListItem->pxNext->pxPrevious = pxNewListItem;
 8007c52:	6099      	str	r1, [r3, #8]
	pxNewListItem->pxPrevious = pxIterator;
 8007c54:	608a      	str	r2, [r1, #8]
	pxIterator->pxNext = pxNewListItem;
 8007c56:	6051      	str	r1, [r2, #4]
	pxNewListItem->pvContainer = ( void * ) pxList;
 8007c58:	6108      	str	r0, [r1, #16]
	( pxList->uxNumberOfItems )++;
 8007c5a:	6004      	str	r4, [r0, #0]
}
 8007c5c:	bc30      	pop	{r4, r5}
 8007c5e:	4770      	bx	lr
		pxIterator = pxList->xListEnd.pxPrevious;
 8007c60:	6902      	ldr	r2, [r0, #16]
 8007c62:	6853      	ldr	r3, [r2, #4]
 8007c64:	e7f2      	b.n	8007c4c <vListInsert+0x18>
 8007c66:	bf00      	nop

08007c68 <uxListRemove>:

UBaseType_t uxListRemove( ListItem_t * const pxItemToRemove )
{
/* The list item knows which list it is in.  Obtain the list from the list
item. */
List_t * const pxList = ( List_t * ) pxItemToRemove->pvContainer;
 8007c68:	6903      	ldr	r3, [r0, #16]
{
 8007c6a:	b410      	push	{r4}

	pxItemToRemove->pxNext->pxPrevious = pxItemToRemove->pxPrevious;
 8007c6c:	e9d0 2101 	ldrd	r2, r1, [r0, #4]

	/* Only used during decision coverage testing. */
	mtCOVERAGE_TEST_DELAY();

	/* Make sure the index is left pointing to a valid item. */
	if( pxList->pxIndex == pxItemToRemove )
 8007c70:	685c      	ldr	r4, [r3, #4]
	pxItemToRemove->pxNext->pxPrevious = pxItemToRemove->pxPrevious;
 8007c72:	6091      	str	r1, [r2, #8]
	pxItemToRemove->pxPrevious->pxNext = pxItemToRemove->pxNext;
 8007c74:	6881      	ldr	r1, [r0, #8]
	if( pxList->pxIndex == pxItemToRemove )
 8007c76:	4284      	cmp	r4, r0
	pxItemToRemove->pxPrevious->pxNext = pxItemToRemove->pxNext;
 8007c78:	604a      	str	r2, [r1, #4]
	{
		pxList->pxIndex = pxItemToRemove->pxPrevious;
 8007c7a:	bf08      	it	eq
 8007c7c:	6059      	streq	r1, [r3, #4]
	else
	{
		mtCOVERAGE_TEST_MARKER();
	}

	pxItemToRemove->pvContainer = NULL;
 8007c7e:	2100      	movs	r1, #0
	( pxList->uxNumberOfItems )--;
 8007c80:	681a      	ldr	r2, [r3, #0]
	pxItemToRemove->pvContainer = NULL;
 8007c82:	6101      	str	r1, [r0, #16]
	( pxList->uxNumberOfItems )--;
 8007c84:	3a01      	subs	r2, #1
 8007c86:	601a      	str	r2, [r3, #0]

	return pxList->uxNumberOfItems;
 8007c88:	6818      	ldr	r0, [r3, #0]
}
 8007c8a:	bc10      	pop	{r4}
 8007c8c:	4770      	bx	lr
 8007c8e:	bf00      	nop

08007c90 <xQueueGenericCreate>:
	{
	Queue_t *pxNewQueue;
	size_t xQueueSizeInBytes;
	uint8_t *pucQueueStorage;

		configASSERT( uxQueueLength > ( UBaseType_t ) 0 );
 8007c90:	b940      	cbnz	r0, 8007ca4 <xQueueGenericCreate+0x14>

portFORCE_INLINE static void vPortRaiseBASEPRI( void )
{
uint32_t ulNewBASEPRI;

	__asm volatile
 8007c92:	f04f 0350 	mov.w	r3, #80	; 0x50
 8007c96:	f383 8811 	msr	BASEPRI, r3
 8007c9a:	f3bf 8f6f 	isb	sy
 8007c9e:	f3bf 8f4f 	dsb	sy
 8007ca2:	e7fe      	b.n	8007ca2 <xQueueGenericCreate+0x12>
	{
 8007ca4:	b570      	push	{r4, r5, r6, lr}
 8007ca6:	4606      	mov	r6, r0
 8007ca8:	460d      	mov	r5, r1

		if( uxItemSize == ( UBaseType_t ) 0 )
 8007caa:	b151      	cbz	r1, 8007cc2 <xQueueGenericCreate+0x32>
		}
		else
		{
			/* Allocate enough space to hold the maximum number of items that
			can be in the queue at any time. */
			xQueueSizeInBytes = ( size_t ) ( uxQueueLength * uxItemSize ); /*lint !e961 MISRA exception as the casts are only redundant for some ports. */
 8007cac:	fb01 f000 	mul.w	r0, r1, r0
		}

		pxNewQueue = ( Queue_t * ) pvPortMalloc( sizeof( Queue_t ) + xQueueSizeInBytes );
 8007cb0:	3048      	adds	r0, #72	; 0x48
 8007cb2:	f001 fcad 	bl	8009610 <pvPortMalloc>

		if( pxNewQueue != NULL )
 8007cb6:	4604      	mov	r4, r0
 8007cb8:	b358      	cbz	r0, 8007d12 <xQueueGenericCreate+0x82>
		{
			/* Jump past the queue structure to find the location of the queue
			storage area. */
			pucQueueStorage = ( ( uint8_t * ) pxNewQueue ) + sizeof( Queue_t );
 8007cba:	f100 0348 	add.w	r3, r0, #72	; 0x48
		pxNewQueue->pcHead = ( int8_t * ) pxNewQueue;
	}
	else
	{
		/* Set the head to the start of the queue storage area. */
		pxNewQueue->pcHead = ( int8_t * ) pucQueueStorage;
 8007cbe:	6003      	str	r3, [r0, #0]
 8007cc0:	e005      	b.n	8007cce <xQueueGenericCreate+0x3e>
		pxNewQueue = ( Queue_t * ) pvPortMalloc( sizeof( Queue_t ) + xQueueSizeInBytes );
 8007cc2:	2048      	movs	r0, #72	; 0x48
 8007cc4:	f001 fca4 	bl	8009610 <pvPortMalloc>
		if( pxNewQueue != NULL )
 8007cc8:	4604      	mov	r4, r0
 8007cca:	b310      	cbz	r0, 8007d12 <xQueueGenericCreate+0x82>
		pxNewQueue->pcHead = ( int8_t * ) pxNewQueue;
 8007ccc:	6024      	str	r4, [r4, #0]
	}

	/* Initialise the queue members as described where the queue type is
	defined. */
	pxNewQueue->uxLength = uxQueueLength;
	pxNewQueue->uxItemSize = uxItemSize;
 8007cce:	e9c4 650f 	strd	r6, r5, [r4, #60]	; 0x3c
	taskENTER_CRITICAL();
 8007cd2:	f001 fb5f 	bl	8009394 <vPortEnterCritical>
		pxQueue->pcTail = pxQueue->pcHead + ( pxQueue->uxLength * pxQueue->uxItemSize );
 8007cd6:	e9d4 320f 	ldrd	r3, r2, [r4, #60]	; 0x3c
		pxQueue->cRxLock = queueUNLOCKED;
 8007cda:	25ff      	movs	r5, #255	; 0xff
		pxQueue->uxMessagesWaiting = ( UBaseType_t ) 0U;
 8007cdc:	2000      	movs	r0, #0
		pxQueue->pcTail = pxQueue->pcHead + ( pxQueue->uxLength * pxQueue->uxItemSize );
 8007cde:	fb03 f302 	mul.w	r3, r3, r2
 8007ce2:	6821      	ldr	r1, [r4, #0]
		pxQueue->u.pcReadFrom = pxQueue->pcHead + ( ( pxQueue->uxLength - ( UBaseType_t ) 1U ) * pxQueue->uxItemSize );
 8007ce4:	1a9a      	subs	r2, r3, r2
 8007ce6:	440a      	add	r2, r1
		pxQueue->pcTail = pxQueue->pcHead + ( pxQueue->uxLength * pxQueue->uxItemSize );
 8007ce8:	440b      	add	r3, r1
		pxQueue->uxMessagesWaiting = ( UBaseType_t ) 0U;
 8007cea:	63a0      	str	r0, [r4, #56]	; 0x38
		pxQueue->u.pcReadFrom = pxQueue->pcHead + ( ( pxQueue->uxLength - ( UBaseType_t ) 1U ) * pxQueue->uxItemSize );
 8007cec:	60e2      	str	r2, [r4, #12]
		pxQueue->pcWriteTo = pxQueue->pcHead;
 8007cee:	e9c4 3101 	strd	r3, r1, [r4, #4]
			vListInitialise( &( pxQueue->xTasksWaitingToSend ) );
 8007cf2:	f104 0010 	add.w	r0, r4, #16
		pxQueue->cRxLock = queueUNLOCKED;
 8007cf6:	f884 5044 	strb.w	r5, [r4, #68]	; 0x44
		pxQueue->cTxLock = queueUNLOCKED;
 8007cfa:	f884 5045 	strb.w	r5, [r4, #69]	; 0x45
			vListInitialise( &( pxQueue->xTasksWaitingToSend ) );
 8007cfe:	f7ff ff7b 	bl	8007bf8 <vListInitialise>
			vListInitialise( &( pxQueue->xTasksWaitingToReceive ) );
 8007d02:	f104 0024 	add.w	r0, r4, #36	; 0x24
 8007d06:	f7ff ff77 	bl	8007bf8 <vListInitialise>
	taskEXIT_CRITICAL();
 8007d0a:	f001 fb65 	bl	80093d8 <vPortExitCritical>
	}
 8007d0e:	4620      	mov	r0, r4
 8007d10:	bd70      	pop	{r4, r5, r6, pc}
		pxNewQueue = ( Queue_t * ) pvPortMalloc( sizeof( Queue_t ) + xQueueSizeInBytes );
 8007d12:	2400      	movs	r4, #0
	}
 8007d14:	4620      	mov	r0, r4
 8007d16:	bd70      	pop	{r4, r5, r6, pc}

08007d18 <xQueueCreateCountingSemaphore>:

	QueueHandle_t xQueueCreateCountingSemaphore( const UBaseType_t uxMaxCount, const UBaseType_t uxInitialCount )
	{
	QueueHandle_t xHandle;

		configASSERT( uxMaxCount != 0 );
 8007d18:	b940      	cbnz	r0, 8007d2c <xQueueCreateCountingSemaphore+0x14>
 8007d1a:	f04f 0350 	mov.w	r3, #80	; 0x50
 8007d1e:	f383 8811 	msr	BASEPRI, r3
 8007d22:	f3bf 8f6f 	isb	sy
 8007d26:	f3bf 8f4f 	dsb	sy
 8007d2a:	e7fe      	b.n	8007d2a <xQueueCreateCountingSemaphore+0x12>
		configASSERT( uxInitialCount <= uxMaxCount );
 8007d2c:	4288      	cmp	r0, r1
 8007d2e:	d208      	bcs.n	8007d42 <xQueueCreateCountingSemaphore+0x2a>
 8007d30:	f04f 0350 	mov.w	r3, #80	; 0x50
 8007d34:	f383 8811 	msr	BASEPRI, r3
 8007d38:	f3bf 8f6f 	isb	sy
 8007d3c:	f3bf 8f4f 	dsb	sy
 8007d40:	e7fe      	b.n	8007d40 <xQueueCreateCountingSemaphore+0x28>
	{
 8007d42:	b510      	push	{r4, lr}

		xHandle = xQueueGenericCreate( uxMaxCount, queueSEMAPHORE_QUEUE_ITEM_LENGTH, queueQUEUE_TYPE_COUNTING_SEMAPHORE );
 8007d44:	2202      	movs	r2, #2
 8007d46:	460c      	mov	r4, r1
 8007d48:	2100      	movs	r1, #0
 8007d4a:	f7ff ffa1 	bl	8007c90 <xQueueGenericCreate>

		if( xHandle != NULL )
 8007d4e:	b100      	cbz	r0, 8007d52 <xQueueCreateCountingSemaphore+0x3a>
		{
			( ( Queue_t * ) xHandle )->uxMessagesWaiting = uxInitialCount;
 8007d50:	6384      	str	r4, [r0, #56]	; 0x38
		{
			traceCREATE_COUNTING_SEMAPHORE_FAILED();
		}

		return xHandle;
	}
 8007d52:	bd10      	pop	{r4, pc}

08007d54 <xQueueGenericSend>:

#endif /* ( ( configUSE_COUNTING_SEMAPHORES == 1 ) && ( configSUPPORT_DYNAMIC_ALLOCATION == 1 ) ) */
/*-----------------------------------------------------------*/

BaseType_t xQueueGenericSend( QueueHandle_t xQueue, const void * const pvItemToQueue, TickType_t xTicksToWait, const BaseType_t xCopyPosition )
{
 8007d54:	e92d 4ff0 	stmdb	sp!, {r4, r5, r6, r7, r8, r9, sl, fp, lr}
 8007d58:	b085      	sub	sp, #20
 8007d5a:	9201      	str	r2, [sp, #4]
BaseType_t xEntryTimeSet = pdFALSE, xYieldRequired;
TimeOut_t xTimeOut;
Queue_t * const pxQueue = ( Queue_t * ) xQueue;

	configASSERT( pxQueue );
 8007d5c:	2800      	cmp	r0, #0
 8007d5e:	f000 8125 	beq.w	8007fac <xQueueGenericSend+0x258>
	configASSERT( !( ( pvItemToQueue == NULL ) && ( pxQueue->uxItemSize != ( UBaseType_t ) 0U ) ) );
 8007d62:	2900      	cmp	r1, #0
 8007d64:	f000 8115 	beq.w	8007f92 <xQueueGenericSend+0x23e>
	configASSERT( !( ( xCopyPosition == queueOVERWRITE ) && ( pxQueue->uxLength != 1 ) ) );
 8007d68:	2b02      	cmp	r3, #2
 8007d6a:	d10b      	bne.n	8007d84 <xQueueGenericSend+0x30>
 8007d6c:	6bc2      	ldr	r2, [r0, #60]	; 0x3c
 8007d6e:	2a01      	cmp	r2, #1
 8007d70:	d008      	beq.n	8007d84 <xQueueGenericSend+0x30>
 8007d72:	f04f 0350 	mov.w	r3, #80	; 0x50
 8007d76:	f383 8811 	msr	BASEPRI, r3
 8007d7a:	f3bf 8f6f 	isb	sy
 8007d7e:	f3bf 8f4f 	dsb	sy
 8007d82:	e7fe      	b.n	8007d82 <xQueueGenericSend+0x2e>
 8007d84:	4604      	mov	r4, r0
 8007d86:	461f      	mov	r7, r3
 8007d88:	460e      	mov	r6, r1
	#if ( ( INCLUDE_xTaskGetSchedulerState == 1 ) || ( configUSE_TIMERS == 1 ) )
	{
		configASSERT( !( ( xTaskGetSchedulerState() == taskSCHEDULER_SUSPENDED ) && ( xTicksToWait != 0 ) ) );
 8007d8a:	f001 f97d 	bl	8009088 <xTaskGetSchedulerState>
 8007d8e:	2800      	cmp	r0, #0
 8007d90:	f040 80fc 	bne.w	8007f8c <xQueueGenericSend+0x238>
 8007d94:	9b01      	ldr	r3, [sp, #4]
 8007d96:	b143      	cbz	r3, 8007daa <xQueueGenericSend+0x56>
 8007d98:	f04f 0350 	mov.w	r3, #80	; 0x50
 8007d9c:	f383 8811 	msr	BASEPRI, r3
 8007da0:	f3bf 8f6f 	isb	sy
 8007da4:	f3bf 8f4f 	dsb	sy
 8007da8:	e7fe      	b.n	8007da8 <xQueueGenericSend+0x54>
 8007daa:	469a      	mov	sl, r3
	/* This function relaxes the coding standard somewhat to allow return
	statements within the function itself.  This is done in the interest
	of execution time efficiency. */
	for( ;; )
	{
		taskENTER_CRITICAL();
 8007dac:	f001 faf2 	bl	8009394 <vPortEnterCritical>
		{
			/* Is there room on the queue now?  The running task must be the
			highest priority task wanting to access the queue.  If the head item
			in the queue is to be overwritten then it does not matter if the
			queue is full. */
			if( ( pxQueue->uxMessagesWaiting < pxQueue->uxLength ) || ( xCopyPosition == queueOVERWRITE ) )
 8007db0:	6ba2      	ldr	r2, [r4, #56]	; 0x38
 8007db2:	6be3      	ldr	r3, [r4, #60]	; 0x3c

		/* Interrupts and other tasks can send to and receive from the queue
		now the critical section has been exited. */

		vTaskSuspendAll();
		prvLockQueue( pxQueue );
 8007db4:	f04f 0800 	mov.w	r8, #0
			if( ( pxQueue->uxMessagesWaiting < pxQueue->uxLength ) || ( xCopyPosition == queueOVERWRITE ) )
 8007db8:	429a      	cmp	r2, r3
				task is already in a ready list before it yields - in which
				case the yield will not cause a context switch unless there
				is also a higher priority task in the pending ready list. */
				if( xTaskResumeAll() == pdFALSE )
				{
					portYIELD_WITHIN_API();
 8007dba:	f8df 932c 	ldr.w	r9, [pc, #812]	; 80080e8 <xQueueGenericSend+0x394>
			if( ( pxQueue->uxMessagesWaiting < pxQueue->uxLength ) || ( xCopyPosition == queueOVERWRITE ) )
 8007dbe:	d375      	bcc.n	8007eac <xQueueGenericSend+0x158>
 8007dc0:	2f02      	cmp	r7, #2
 8007dc2:	f000 80fc 	beq.w	8007fbe <xQueueGenericSend+0x26a>
				if( xTicksToWait == ( TickType_t ) 0 )
 8007dc6:	9d01      	ldr	r5, [sp, #4]
 8007dc8:	2d00      	cmp	r5, #0
 8007dca:	f000 8161 	beq.w	8008090 <xQueueGenericSend+0x33c>
				else if( xEntryTimeSet == pdFALSE )
 8007dce:	f1ba 0f00 	cmp.w	sl, #0
 8007dd2:	d102      	bne.n	8007dda <xQueueGenericSend+0x86>
					vTaskInternalSetTimeOutState( &xTimeOut );
 8007dd4:	a802      	add	r0, sp, #8
 8007dd6:	f001 f8ff 	bl	8008fd8 <vTaskInternalSetTimeOutState>
		taskEXIT_CRITICAL();
 8007dda:	f001 fafd 	bl	80093d8 <vPortExitCritical>
		vTaskSuspendAll();
 8007dde:	f000 feaf 	bl	8008b40 <vTaskSuspendAll>
		prvLockQueue( pxQueue );
 8007de2:	f001 fad7 	bl	8009394 <vPortEnterCritical>
 8007de6:	f894 3044 	ldrb.w	r3, [r4, #68]	; 0x44
 8007dea:	2bff      	cmp	r3, #255	; 0xff
 8007dec:	bf08      	it	eq
 8007dee:	f884 8044 	strbeq.w	r8, [r4, #68]	; 0x44
 8007df2:	f894 3045 	ldrb.w	r3, [r4, #69]	; 0x45
 8007df6:	2bff      	cmp	r3, #255	; 0xff
 8007df8:	bf08      	it	eq
 8007dfa:	f884 8045 	strbeq.w	r8, [r4, #69]	; 0x45
 8007dfe:	f001 faeb 	bl	80093d8 <vPortExitCritical>
		if( xTaskCheckForTimeOut( &xTimeOut, &xTicksToWait ) == pdFALSE )
 8007e02:	a901      	add	r1, sp, #4
 8007e04:	a802      	add	r0, sp, #8
 8007e06:	f001 f8f3 	bl	8008ff0 <xTaskCheckForTimeOut>
 8007e0a:	2800      	cmp	r0, #0
 8007e0c:	f040 8126 	bne.w	800805c <xQueueGenericSend+0x308>

static BaseType_t prvIsQueueFull( const Queue_t *pxQueue )
{
BaseType_t xReturn;

	taskENTER_CRITICAL();
 8007e10:	f001 fac0 	bl	8009394 <vPortEnterCritical>
	{
		if( pxQueue->uxMessagesWaiting == pxQueue->uxLength )
 8007e14:	6ba2      	ldr	r2, [r4, #56]	; 0x38
 8007e16:	6be3      	ldr	r3, [r4, #60]	; 0x3c
 8007e18:	429a      	cmp	r2, r3
 8007e1a:	d06a      	beq.n	8007ef2 <xQueueGenericSend+0x19e>
		else
		{
			xReturn = pdFALSE;
		}
	}
	taskEXIT_CRITICAL();
 8007e1c:	f001 fadc 	bl	80093d8 <vPortExitCritical>
	taskENTER_CRITICAL();
 8007e20:	f001 fab8 	bl	8009394 <vPortEnterCritical>
		int8_t cTxLock = pxQueue->cTxLock;
 8007e24:	f894 5045 	ldrb.w	r5, [r4, #69]	; 0x45
 8007e28:	b26d      	sxtb	r5, r5
		while( cTxLock > queueLOCKED_UNMODIFIED )
 8007e2a:	2d00      	cmp	r5, #0
 8007e2c:	dd11      	ble.n	8007e52 <xQueueGenericSend+0xfe>
				if( listLIST_IS_EMPTY( &( pxQueue->xTasksWaitingToReceive ) ) == pdFALSE )
 8007e2e:	6a63      	ldr	r3, [r4, #36]	; 0x24
 8007e30:	b17b      	cbz	r3, 8007e52 <xQueueGenericSend+0xfe>
 8007e32:	f104 0a24 	add.w	sl, r4, #36	; 0x24
 8007e36:	e001      	b.n	8007e3c <xQueueGenericSend+0xe8>
 8007e38:	6a63      	ldr	r3, [r4, #36]	; 0x24
 8007e3a:	b153      	cbz	r3, 8007e52 <xQueueGenericSend+0xfe>
					if( xTaskRemoveFromEventList( &( pxQueue->xTasksWaitingToReceive ) ) != pdFALSE )
 8007e3c:	4650      	mov	r0, sl
 8007e3e:	f001 f885 	bl	8008f4c <xTaskRemoveFromEventList>
 8007e42:	b108      	cbz	r0, 8007e48 <xQueueGenericSend+0xf4>
						vTaskMissedYield();
 8007e44:	f001 f91a 	bl	800907c <vTaskMissedYield>
 8007e48:	3d01      	subs	r5, #1
 8007e4a:	b2eb      	uxtb	r3, r5
 8007e4c:	b25d      	sxtb	r5, r3
		while( cTxLock > queueLOCKED_UNMODIFIED )
 8007e4e:	2b00      	cmp	r3, #0
 8007e50:	d1f2      	bne.n	8007e38 <xQueueGenericSend+0xe4>
		pxQueue->cTxLock = queueUNLOCKED;
 8007e52:	23ff      	movs	r3, #255	; 0xff
 8007e54:	f884 3045 	strb.w	r3, [r4, #69]	; 0x45
	taskEXIT_CRITICAL();
 8007e58:	f001 fabe 	bl	80093d8 <vPortExitCritical>
	taskENTER_CRITICAL();
 8007e5c:	f001 fa9a 	bl	8009394 <vPortEnterCritical>
		int8_t cRxLock = pxQueue->cRxLock;
 8007e60:	f894 5044 	ldrb.w	r5, [r4, #68]	; 0x44
 8007e64:	b26d      	sxtb	r5, r5
		while( cRxLock > queueLOCKED_UNMODIFIED )
 8007e66:	2d00      	cmp	r5, #0
 8007e68:	dd11      	ble.n	8007e8e <xQueueGenericSend+0x13a>
			if( listLIST_IS_EMPTY( &( pxQueue->xTasksWaitingToSend ) ) == pdFALSE )
 8007e6a:	6923      	ldr	r3, [r4, #16]
 8007e6c:	b17b      	cbz	r3, 8007e8e <xQueueGenericSend+0x13a>
 8007e6e:	f104 0a10 	add.w	sl, r4, #16
 8007e72:	e001      	b.n	8007e78 <xQueueGenericSend+0x124>
 8007e74:	6923      	ldr	r3, [r4, #16]
 8007e76:	b153      	cbz	r3, 8007e8e <xQueueGenericSend+0x13a>
				if( xTaskRemoveFromEventList( &( pxQueue->xTasksWaitingToSend ) ) != pdFALSE )
 8007e78:	4650      	mov	r0, sl
 8007e7a:	f001 f867 	bl	8008f4c <xTaskRemoveFromEventList>
 8007e7e:	b108      	cbz	r0, 8007e84 <xQueueGenericSend+0x130>
					vTaskMissedYield();
 8007e80:	f001 f8fc 	bl	800907c <vTaskMissedYield>
 8007e84:	3d01      	subs	r5, #1
 8007e86:	b2eb      	uxtb	r3, r5
 8007e88:	b25d      	sxtb	r5, r3
		while( cRxLock > queueLOCKED_UNMODIFIED )
 8007e8a:	2b00      	cmp	r3, #0
 8007e8c:	d1f2      	bne.n	8007e74 <xQueueGenericSend+0x120>
		pxQueue->cRxLock = queueUNLOCKED;
 8007e8e:	23ff      	movs	r3, #255	; 0xff
 8007e90:	f884 3044 	strb.w	r3, [r4, #68]	; 0x44
	taskEXIT_CRITICAL();
 8007e94:	f001 faa0 	bl	80093d8 <vPortExitCritical>
				( void ) xTaskResumeAll();
 8007e98:	f000 ff06 	bl	8008ca8 <xTaskResumeAll>
		taskENTER_CRITICAL();
 8007e9c:	f001 fa7a 	bl	8009394 <vPortEnterCritical>
			if( ( pxQueue->uxMessagesWaiting < pxQueue->uxLength ) || ( xCopyPosition == queueOVERWRITE ) )
 8007ea0:	6ba2      	ldr	r2, [r4, #56]	; 0x38
 8007ea2:	6be3      	ldr	r3, [r4, #60]	; 0x3c
 8007ea4:	f04f 0a01 	mov.w	sl, #1
 8007ea8:	429a      	cmp	r2, r3
 8007eaa:	d289      	bcs.n	8007dc0 <xQueueGenericSend+0x6c>
	if( pxQueue->uxItemSize == ( UBaseType_t ) 0 )
 8007eac:	6c22      	ldr	r2, [r4, #64]	; 0x40
	uxMessagesWaiting = pxQueue->uxMessagesWaiting;
 8007eae:	6ba5      	ldr	r5, [r4, #56]	; 0x38
	if( pxQueue->uxItemSize == ( UBaseType_t ) 0 )
 8007eb0:	2a00      	cmp	r2, #0
 8007eb2:	f000 8087 	beq.w	8007fc4 <xQueueGenericSend+0x270>
		( void ) memcpy( ( void * ) pxQueue->pcWriteTo, pvItemToQueue, ( size_t ) pxQueue->uxItemSize ); /*lint !e961 !e418 MISRA exception as the casts are only redundant for some ports, plus previous logic ensures a null pointer can only be passed to memcpy() if the copy size is 0. */
 8007eb6:	4631      	mov	r1, r6
	else if( xPosition == queueSEND_TO_BACK )
 8007eb8:	2f00      	cmp	r7, #0
 8007eba:	f040 80bb 	bne.w	8008034 <xQueueGenericSend+0x2e0>
		( void ) memcpy( ( void * ) pxQueue->pcWriteTo, pvItemToQueue, ( size_t ) pxQueue->uxItemSize ); /*lint !e961 !e418 MISRA exception as the casts are only redundant for some ports, plus previous logic ensures a null pointer can only be passed to memcpy() if the copy size is 0. */
 8007ebe:	68a0      	ldr	r0, [r4, #8]
 8007ec0:	f001 fcb0 	bl	8009824 <memcpy>
		pxQueue->pcWriteTo += pxQueue->uxItemSize;
 8007ec4:	68a3      	ldr	r3, [r4, #8]
 8007ec6:	6c21      	ldr	r1, [r4, #64]	; 0x40
		if( pxQueue->pcWriteTo >= pxQueue->pcTail ) /*lint !e946 MISRA exception justified as comparison of pointers is the cleanest solution. */
 8007ec8:	6862      	ldr	r2, [r4, #4]
		pxQueue->pcWriteTo += pxQueue->uxItemSize;
 8007eca:	440b      	add	r3, r1
		if( pxQueue->pcWriteTo >= pxQueue->pcTail ) /*lint !e946 MISRA exception justified as comparison of pointers is the cleanest solution. */
 8007ecc:	4293      	cmp	r3, r2
 8007ece:	f105 0501 	add.w	r5, r5, #1
		pxQueue->pcWriteTo += pxQueue->uxItemSize;
 8007ed2:	60a3      	str	r3, [r4, #8]
		if( pxQueue->pcWriteTo >= pxQueue->pcTail ) /*lint !e946 MISRA exception justified as comparison of pointers is the cleanest solution. */
 8007ed4:	d379      	bcc.n	8007fca <xQueueGenericSend+0x276>
	pxQueue->uxMessagesWaiting = uxMessagesWaiting + ( UBaseType_t ) 1;
 8007ed6:	63a5      	str	r5, [r4, #56]	; 0x38
			pxQueue->pcWriteTo = pxQueue->pcHead;
 8007ed8:	6822      	ldr	r2, [r4, #0]
					if( listLIST_IS_EMPTY( &( pxQueue->xTasksWaitingToReceive ) ) == pdFALSE )
 8007eda:	6a63      	ldr	r3, [r4, #36]	; 0x24
			pxQueue->pcWriteTo = pxQueue->pcHead;
 8007edc:	60a2      	str	r2, [r4, #8]
					if( listLIST_IS_EMPTY( &( pxQueue->xTasksWaitingToReceive ) ) == pdFALSE )
 8007ede:	2b00      	cmp	r3, #0
 8007ee0:	d077      	beq.n	8007fd2 <xQueueGenericSend+0x27e>
						if( xTaskRemoveFromEventList( &( pxQueue->xTasksWaitingToReceive ) ) != pdFALSE )
 8007ee2:	f104 0024 	add.w	r0, r4, #36	; 0x24
 8007ee6:	f001 f831 	bl	8008f4c <xTaskRemoveFromEventList>
 8007eea:	2800      	cmp	r0, #0
 8007eec:	f040 8082 	bne.w	8007ff4 <xQueueGenericSend+0x2a0>
 8007ef0:	e06f      	b.n	8007fd2 <xQueueGenericSend+0x27e>
				vTaskPlaceOnEventList( &( pxQueue->xTasksWaitingToSend ), xTicksToWait );
 8007ef2:	f104 0a10 	add.w	sl, r4, #16
	taskEXIT_CRITICAL();
 8007ef6:	f001 fa6f 	bl	80093d8 <vPortExitCritical>
				vTaskPlaceOnEventList( &( pxQueue->xTasksWaitingToSend ), xTicksToWait );
 8007efa:	4650      	mov	r0, sl
 8007efc:	9901      	ldr	r1, [sp, #4]
 8007efe:	f000 ffd5 	bl	8008eac <vTaskPlaceOnEventList>
	taskENTER_CRITICAL();
 8007f02:	f001 fa47 	bl	8009394 <vPortEnterCritical>
		int8_t cTxLock = pxQueue->cTxLock;
 8007f06:	f894 5045 	ldrb.w	r5, [r4, #69]	; 0x45
 8007f0a:	b26d      	sxtb	r5, r5
		while( cTxLock > queueLOCKED_UNMODIFIED )
 8007f0c:	2d00      	cmp	r5, #0
 8007f0e:	dd11      	ble.n	8007f34 <xQueueGenericSend+0x1e0>
				if( listLIST_IS_EMPTY( &( pxQueue->xTasksWaitingToReceive ) ) == pdFALSE )
 8007f10:	6a63      	ldr	r3, [r4, #36]	; 0x24
 8007f12:	b17b      	cbz	r3, 8007f34 <xQueueGenericSend+0x1e0>
 8007f14:	f104 0b24 	add.w	fp, r4, #36	; 0x24
 8007f18:	e001      	b.n	8007f1e <xQueueGenericSend+0x1ca>
 8007f1a:	6a63      	ldr	r3, [r4, #36]	; 0x24
 8007f1c:	b153      	cbz	r3, 8007f34 <xQueueGenericSend+0x1e0>
					if( xTaskRemoveFromEventList( &( pxQueue->xTasksWaitingToReceive ) ) != pdFALSE )
 8007f1e:	4658      	mov	r0, fp
 8007f20:	f001 f814 	bl	8008f4c <xTaskRemoveFromEventList>
 8007f24:	b108      	cbz	r0, 8007f2a <xQueueGenericSend+0x1d6>
						vTaskMissedYield();
 8007f26:	f001 f8a9 	bl	800907c <vTaskMissedYield>
 8007f2a:	3d01      	subs	r5, #1
 8007f2c:	b2eb      	uxtb	r3, r5
 8007f2e:	b25d      	sxtb	r5, r3
		while( cTxLock > queueLOCKED_UNMODIFIED )
 8007f30:	2b00      	cmp	r3, #0
 8007f32:	d1f2      	bne.n	8007f1a <xQueueGenericSend+0x1c6>
		pxQueue->cTxLock = queueUNLOCKED;
 8007f34:	23ff      	movs	r3, #255	; 0xff
 8007f36:	f884 3045 	strb.w	r3, [r4, #69]	; 0x45
	taskEXIT_CRITICAL();
 8007f3a:	f001 fa4d 	bl	80093d8 <vPortExitCritical>
	taskENTER_CRITICAL();
 8007f3e:	f001 fa29 	bl	8009394 <vPortEnterCritical>
		int8_t cRxLock = pxQueue->cRxLock;
 8007f42:	f894 5044 	ldrb.w	r5, [r4, #68]	; 0x44
 8007f46:	b26d      	sxtb	r5, r5
		while( cRxLock > queueLOCKED_UNMODIFIED )
 8007f48:	2d00      	cmp	r5, #0
 8007f4a:	dc0a      	bgt.n	8007f62 <xQueueGenericSend+0x20e>
 8007f4c:	e00c      	b.n	8007f68 <xQueueGenericSend+0x214>
				if( xTaskRemoveFromEventList( &( pxQueue->xTasksWaitingToSend ) ) != pdFALSE )
 8007f4e:	4650      	mov	r0, sl
 8007f50:	f000 fffc 	bl	8008f4c <xTaskRemoveFromEventList>
 8007f54:	b108      	cbz	r0, 8007f5a <xQueueGenericSend+0x206>
					vTaskMissedYield();
 8007f56:	f001 f891 	bl	800907c <vTaskMissedYield>
 8007f5a:	3d01      	subs	r5, #1
 8007f5c:	b2eb      	uxtb	r3, r5
 8007f5e:	b25d      	sxtb	r5, r3
		while( cRxLock > queueLOCKED_UNMODIFIED )
 8007f60:	b113      	cbz	r3, 8007f68 <xQueueGenericSend+0x214>
			if( listLIST_IS_EMPTY( &( pxQueue->xTasksWaitingToSend ) ) == pdFALSE )
 8007f62:	6923      	ldr	r3, [r4, #16]
 8007f64:	2b00      	cmp	r3, #0
 8007f66:	d1f2      	bne.n	8007f4e <xQueueGenericSend+0x1fa>
		pxQueue->cRxLock = queueUNLOCKED;
 8007f68:	23ff      	movs	r3, #255	; 0xff
 8007f6a:	f884 3044 	strb.w	r3, [r4, #68]	; 0x44
	taskEXIT_CRITICAL();
 8007f6e:	f001 fa33 	bl	80093d8 <vPortExitCritical>
				if( xTaskResumeAll() == pdFALSE )
 8007f72:	f000 fe99 	bl	8008ca8 <xTaskResumeAll>
 8007f76:	2800      	cmp	r0, #0
 8007f78:	d190      	bne.n	8007e9c <xQueueGenericSend+0x148>
					portYIELD_WITHIN_API();
 8007f7a:	f04f 5380 	mov.w	r3, #268435456	; 0x10000000
 8007f7e:	f8c9 3000 	str.w	r3, [r9]
 8007f82:	f3bf 8f4f 	dsb	sy
 8007f86:	f3bf 8f6f 	isb	sy
 8007f8a:	e787      	b.n	8007e9c <xQueueGenericSend+0x148>
 8007f8c:	f04f 0a00 	mov.w	sl, #0
 8007f90:	e70c      	b.n	8007dac <xQueueGenericSend+0x58>
	configASSERT( !( ( pvItemToQueue == NULL ) && ( pxQueue->uxItemSize != ( UBaseType_t ) 0U ) ) );
 8007f92:	6c02      	ldr	r2, [r0, #64]	; 0x40
 8007f94:	2a00      	cmp	r2, #0
 8007f96:	f43f aee7 	beq.w	8007d68 <xQueueGenericSend+0x14>
 8007f9a:	f04f 0350 	mov.w	r3, #80	; 0x50
 8007f9e:	f383 8811 	msr	BASEPRI, r3
 8007fa2:	f3bf 8f6f 	isb	sy
 8007fa6:	f3bf 8f4f 	dsb	sy
 8007faa:	e7fe      	b.n	8007faa <xQueueGenericSend+0x256>
 8007fac:	f04f 0350 	mov.w	r3, #80	; 0x50
 8007fb0:	f383 8811 	msr	BASEPRI, r3
 8007fb4:	f3bf 8f6f 	isb	sy
 8007fb8:	f3bf 8f4f 	dsb	sy
 8007fbc:	e7fe      	b.n	8007fbc <xQueueGenericSend+0x268>
	if( pxQueue->uxItemSize == ( UBaseType_t ) 0 )
 8007fbe:	6c22      	ldr	r2, [r4, #64]	; 0x40
	uxMessagesWaiting = pxQueue->uxMessagesWaiting;
 8007fc0:	6ba5      	ldr	r5, [r4, #56]	; 0x38
	if( pxQueue->uxItemSize == ( UBaseType_t ) 0 )
 8007fc2:	bb02      	cbnz	r2, 8008006 <xQueueGenericSend+0x2b2>
			if( pxQueue->uxQueueType == queueQUEUE_IS_MUTEX )
 8007fc4:	6826      	ldr	r6, [r4, #0]
 8007fc6:	3501      	adds	r5, #1
 8007fc8:	b14e      	cbz	r6, 8007fde <xQueueGenericSend+0x28a>
	pxQueue->uxMessagesWaiting = uxMessagesWaiting + ( UBaseType_t ) 1;
 8007fca:	63a5      	str	r5, [r4, #56]	; 0x38
					if( listLIST_IS_EMPTY( &( pxQueue->xTasksWaitingToReceive ) ) == pdFALSE )
 8007fcc:	6a63      	ldr	r3, [r4, #36]	; 0x24
 8007fce:	2b00      	cmp	r3, #0
 8007fd0:	d187      	bne.n	8007ee2 <xQueueGenericSend+0x18e>
				taskEXIT_CRITICAL();
 8007fd2:	f001 fa01 	bl	80093d8 <vPortExitCritical>
				return pdPASS;
 8007fd6:	2001      	movs	r0, #1
}
 8007fd8:	b005      	add	sp, #20
 8007fda:	e8bd 8ff0 	ldmia.w	sp!, {r4, r5, r6, r7, r8, r9, sl, fp, pc}
				xReturn = xTaskPriorityDisinherit( ( void * ) pxQueue->pxMutexHolder );
 8007fde:	6860      	ldr	r0, [r4, #4]
 8007fe0:	f001 f8b8 	bl	8009154 <xTaskPriorityDisinherit>
	pxQueue->uxMessagesWaiting = uxMessagesWaiting + ( UBaseType_t ) 1;
 8007fe4:	63a5      	str	r5, [r4, #56]	; 0x38
					if( listLIST_IS_EMPTY( &( pxQueue->xTasksWaitingToReceive ) ) == pdFALSE )
 8007fe6:	6a63      	ldr	r3, [r4, #36]	; 0x24
				pxQueue->pxMutexHolder = NULL;
 8007fe8:	6066      	str	r6, [r4, #4]
					if( listLIST_IS_EMPTY( &( pxQueue->xTasksWaitingToReceive ) ) == pdFALSE )
 8007fea:	2b00      	cmp	r3, #0
 8007fec:	f47f af79 	bne.w	8007ee2 <xQueueGenericSend+0x18e>
					else if( xYieldRequired != pdFALSE )
 8007ff0:	2800      	cmp	r0, #0
 8007ff2:	d0ee      	beq.n	8007fd2 <xQueueGenericSend+0x27e>
						queueYIELD_IF_USING_PREEMPTION();
 8007ff4:	f04f 5280 	mov.w	r2, #268435456	; 0x10000000
 8007ff8:	4b3b      	ldr	r3, [pc, #236]	; (80080e8 <xQueueGenericSend+0x394>)
 8007ffa:	601a      	str	r2, [r3, #0]
 8007ffc:	f3bf 8f4f 	dsb	sy
 8008000:	f3bf 8f6f 	isb	sy
 8008004:	e7e5      	b.n	8007fd2 <xQueueGenericSend+0x27e>
		( void ) memcpy( ( void * ) pxQueue->u.pcReadFrom, pvItemToQueue, ( size_t ) pxQueue->uxItemSize ); /*lint !e961 MISRA exception as the casts are only redundant for some ports. */
 8008006:	4631      	mov	r1, r6
 8008008:	68e0      	ldr	r0, [r4, #12]
 800800a:	f001 fc0b 	bl	8009824 <memcpy>
		pxQueue->u.pcReadFrom -= pxQueue->uxItemSize;
 800800e:	6c23      	ldr	r3, [r4, #64]	; 0x40
 8008010:	68e2      	ldr	r2, [r4, #12]
 8008012:	425b      	negs	r3, r3
		if( pxQueue->u.pcReadFrom < pxQueue->pcHead ) /*lint !e946 MISRA exception justified as comparison of pointers is the cleanest solution. */
 8008014:	6821      	ldr	r1, [r4, #0]
		pxQueue->u.pcReadFrom -= pxQueue->uxItemSize;
 8008016:	441a      	add	r2, r3
		if( pxQueue->u.pcReadFrom < pxQueue->pcHead ) /*lint !e946 MISRA exception justified as comparison of pointers is the cleanest solution. */
 8008018:	428a      	cmp	r2, r1
		pxQueue->u.pcReadFrom -= pxQueue->uxItemSize;
 800801a:	60e2      	str	r2, [r4, #12]
		if( pxQueue->u.pcReadFrom < pxQueue->pcHead ) /*lint !e946 MISRA exception justified as comparison of pointers is the cleanest solution. */
 800801c:	d216      	bcs.n	800804c <xQueueGenericSend+0x2f8>
			pxQueue->u.pcReadFrom = ( pxQueue->pcTail - pxQueue->uxItemSize );
 800801e:	6862      	ldr	r2, [r4, #4]
 8008020:	4413      	add	r3, r2
 8008022:	60e3      	str	r3, [r4, #12]
		if( xPosition == queueOVERWRITE )
 8008024:	2f02      	cmp	r7, #2
 8008026:	d011      	beq.n	800804c <xQueueGenericSend+0x2f8>
	pxQueue->uxMessagesWaiting = uxMessagesWaiting + ( UBaseType_t ) 1;
 8008028:	3501      	adds	r5, #1
 800802a:	63a5      	str	r5, [r4, #56]	; 0x38
					if( listLIST_IS_EMPTY( &( pxQueue->xTasksWaitingToReceive ) ) == pdFALSE )
 800802c:	6a63      	ldr	r3, [r4, #36]	; 0x24
 800802e:	2b00      	cmp	r3, #0
 8008030:	d0cf      	beq.n	8007fd2 <xQueueGenericSend+0x27e>
 8008032:	e756      	b.n	8007ee2 <xQueueGenericSend+0x18e>
		( void ) memcpy( ( void * ) pxQueue->u.pcReadFrom, pvItemToQueue, ( size_t ) pxQueue->uxItemSize ); /*lint !e961 MISRA exception as the casts are only redundant for some ports. */
 8008034:	68e0      	ldr	r0, [r4, #12]
 8008036:	f001 fbf5 	bl	8009824 <memcpy>
		pxQueue->u.pcReadFrom -= pxQueue->uxItemSize;
 800803a:	6c23      	ldr	r3, [r4, #64]	; 0x40
 800803c:	68e2      	ldr	r2, [r4, #12]
 800803e:	425b      	negs	r3, r3
		if( pxQueue->u.pcReadFrom < pxQueue->pcHead ) /*lint !e946 MISRA exception justified as comparison of pointers is the cleanest solution. */
 8008040:	6821      	ldr	r1, [r4, #0]
		pxQueue->u.pcReadFrom -= pxQueue->uxItemSize;
 8008042:	441a      	add	r2, r3
		if( pxQueue->u.pcReadFrom < pxQueue->pcHead ) /*lint !e946 MISRA exception justified as comparison of pointers is the cleanest solution. */
 8008044:	428a      	cmp	r2, r1
		pxQueue->u.pcReadFrom -= pxQueue->uxItemSize;
 8008046:	60e2      	str	r2, [r4, #12]
		if( pxQueue->u.pcReadFrom < pxQueue->pcHead ) /*lint !e946 MISRA exception justified as comparison of pointers is the cleanest solution. */
 8008048:	d2ec      	bcs.n	8008024 <xQueueGenericSend+0x2d0>
 800804a:	e7e8      	b.n	800801e <xQueueGenericSend+0x2ca>
			if( uxMessagesWaiting > ( UBaseType_t ) 0 )
 800804c:	2d00      	cmp	r5, #0
 800804e:	d1bc      	bne.n	8007fca <xQueueGenericSend+0x276>
	pxQueue->uxMessagesWaiting = uxMessagesWaiting + ( UBaseType_t ) 1;
 8008050:	2301      	movs	r3, #1
 8008052:	63a3      	str	r3, [r4, #56]	; 0x38
					if( listLIST_IS_EMPTY( &( pxQueue->xTasksWaitingToReceive ) ) == pdFALSE )
 8008054:	6a63      	ldr	r3, [r4, #36]	; 0x24
 8008056:	2b00      	cmp	r3, #0
 8008058:	d0bb      	beq.n	8007fd2 <xQueueGenericSend+0x27e>
 800805a:	e742      	b.n	8007ee2 <xQueueGenericSend+0x18e>
	taskENTER_CRITICAL();
 800805c:	f001 f99a 	bl	8009394 <vPortEnterCritical>
		int8_t cTxLock = pxQueue->cTxLock;
 8008060:	f894 5045 	ldrb.w	r5, [r4, #69]	; 0x45
 8008064:	b26d      	sxtb	r5, r5
		while( cTxLock > queueLOCKED_UNMODIFIED )
 8008066:	2d00      	cmp	r5, #0
 8008068:	dd16      	ble.n	8008098 <xQueueGenericSend+0x344>
				if( listLIST_IS_EMPTY( &( pxQueue->xTasksWaitingToReceive ) ) == pdFALSE )
 800806a:	6a63      	ldr	r3, [r4, #36]	; 0x24
 800806c:	b1a3      	cbz	r3, 8008098 <xQueueGenericSend+0x344>
 800806e:	f104 0624 	add.w	r6, r4, #36	; 0x24
 8008072:	e005      	b.n	8008080 <xQueueGenericSend+0x32c>
 8008074:	3d01      	subs	r5, #1
 8008076:	b2eb      	uxtb	r3, r5
 8008078:	b25d      	sxtb	r5, r3
		while( cTxLock > queueLOCKED_UNMODIFIED )
 800807a:	b16b      	cbz	r3, 8008098 <xQueueGenericSend+0x344>
				if( listLIST_IS_EMPTY( &( pxQueue->xTasksWaitingToReceive ) ) == pdFALSE )
 800807c:	6a63      	ldr	r3, [r4, #36]	; 0x24
 800807e:	b15b      	cbz	r3, 8008098 <xQueueGenericSend+0x344>
					if( xTaskRemoveFromEventList( &( pxQueue->xTasksWaitingToReceive ) ) != pdFALSE )
 8008080:	4630      	mov	r0, r6
 8008082:	f000 ff63 	bl	8008f4c <xTaskRemoveFromEventList>
 8008086:	2800      	cmp	r0, #0
 8008088:	d0f4      	beq.n	8008074 <xQueueGenericSend+0x320>
						vTaskMissedYield();
 800808a:	f000 fff7 	bl	800907c <vTaskMissedYield>
 800808e:	e7f1      	b.n	8008074 <xQueueGenericSend+0x320>
					taskEXIT_CRITICAL();
 8008090:	f001 f9a2 	bl	80093d8 <vPortExitCritical>
					return errQUEUE_FULL;
 8008094:	4628      	mov	r0, r5
 8008096:	e79f      	b.n	8007fd8 <xQueueGenericSend+0x284>
		pxQueue->cTxLock = queueUNLOCKED;
 8008098:	23ff      	movs	r3, #255	; 0xff
 800809a:	f884 3045 	strb.w	r3, [r4, #69]	; 0x45
	taskEXIT_CRITICAL();
 800809e:	f001 f99b 	bl	80093d8 <vPortExitCritical>
	taskENTER_CRITICAL();
 80080a2:	f001 f977 	bl	8009394 <vPortEnterCritical>
		int8_t cRxLock = pxQueue->cRxLock;
 80080a6:	f894 5044 	ldrb.w	r5, [r4, #68]	; 0x44
 80080aa:	b26d      	sxtb	r5, r5
		while( cRxLock > queueLOCKED_UNMODIFIED )
 80080ac:	2d00      	cmp	r5, #0
 80080ae:	dd12      	ble.n	80080d6 <xQueueGenericSend+0x382>
			if( listLIST_IS_EMPTY( &( pxQueue->xTasksWaitingToSend ) ) == pdFALSE )
 80080b0:	6923      	ldr	r3, [r4, #16]
 80080b2:	b183      	cbz	r3, 80080d6 <xQueueGenericSend+0x382>
 80080b4:	f104 0610 	add.w	r6, r4, #16
 80080b8:	e005      	b.n	80080c6 <xQueueGenericSend+0x372>
 80080ba:	3d01      	subs	r5, #1
 80080bc:	b2eb      	uxtb	r3, r5
 80080be:	b25d      	sxtb	r5, r3
		while( cRxLock > queueLOCKED_UNMODIFIED )
 80080c0:	b14b      	cbz	r3, 80080d6 <xQueueGenericSend+0x382>
			if( listLIST_IS_EMPTY( &( pxQueue->xTasksWaitingToSend ) ) == pdFALSE )
 80080c2:	6923      	ldr	r3, [r4, #16]
 80080c4:	b13b      	cbz	r3, 80080d6 <xQueueGenericSend+0x382>
				if( xTaskRemoveFromEventList( &( pxQueue->xTasksWaitingToSend ) ) != pdFALSE )
 80080c6:	4630      	mov	r0, r6
 80080c8:	f000 ff40 	bl	8008f4c <xTaskRemoveFromEventList>
 80080cc:	2800      	cmp	r0, #0
 80080ce:	d0f4      	beq.n	80080ba <xQueueGenericSend+0x366>
					vTaskMissedYield();
 80080d0:	f000 ffd4 	bl	800907c <vTaskMissedYield>
 80080d4:	e7f1      	b.n	80080ba <xQueueGenericSend+0x366>
		pxQueue->cRxLock = queueUNLOCKED;
 80080d6:	23ff      	movs	r3, #255	; 0xff
 80080d8:	f884 3044 	strb.w	r3, [r4, #68]	; 0x44
	taskEXIT_CRITICAL();
 80080dc:	f001 f97c 	bl	80093d8 <vPortExitCritical>
			( void ) xTaskResumeAll();
 80080e0:	f000 fde2 	bl	8008ca8 <xTaskResumeAll>
			return errQUEUE_FULL;
 80080e4:	2000      	movs	r0, #0
 80080e6:	e777      	b.n	8007fd8 <xQueueGenericSend+0x284>
 80080e8:	e000ed04 	.word	0xe000ed04

080080ec <xQueueGiveFromISR>:
	configASSERT( pxQueue );
 80080ec:	b370      	cbz	r0, 800814c <xQueueGiveFromISR+0x60>
	configASSERT( pxQueue->uxItemSize == 0 );
 80080ee:	6c03      	ldr	r3, [r0, #64]	; 0x40
 80080f0:	b143      	cbz	r3, 8008104 <xQueueGiveFromISR+0x18>
 80080f2:	f04f 0350 	mov.w	r3, #80	; 0x50
 80080f6:	f383 8811 	msr	BASEPRI, r3
 80080fa:	f3bf 8f6f 	isb	sy
 80080fe:	f3bf 8f4f 	dsb	sy
 8008102:	e7fe      	b.n	8008102 <xQueueGiveFromISR+0x16>
	configASSERT( !( ( pxQueue->uxQueueType == queueQUEUE_IS_MUTEX ) && ( pxQueue->pxMutexHolder != NULL ) ) );
 8008104:	6803      	ldr	r3, [r0, #0]
 8008106:	b353      	cbz	r3, 800815e <xQueueGiveFromISR+0x72>
{
 8008108:	b570      	push	{r4, r5, r6, lr}
 800810a:	4604      	mov	r4, r0
 800810c:	460d      	mov	r5, r1
	portASSERT_IF_INTERRUPT_PRIORITY_INVALID();
 800810e:	f001 fa29 	bl	8009564 <vPortValidateInterruptPriority>

portFORCE_INLINE static uint32_t ulPortRaiseBASEPRI( void )
{
uint32_t ulOriginalBASEPRI, ulNewBASEPRI;

	__asm volatile
 8008112:	f3ef 8611 	mrs	r6, BASEPRI
 8008116:	f04f 0350 	mov.w	r3, #80	; 0x50
 800811a:	f383 8811 	msr	BASEPRI, r3
 800811e:	f3bf 8f6f 	isb	sy
 8008122:	f3bf 8f4f 	dsb	sy
		const UBaseType_t uxMessagesWaiting = pxQueue->uxMessagesWaiting;
 8008126:	6ba2      	ldr	r2, [r4, #56]	; 0x38
		if( uxMessagesWaiting < pxQueue->uxLength )
 8008128:	6be3      	ldr	r3, [r4, #60]	; 0x3c
 800812a:	4293      	cmp	r3, r2
 800812c:	d931      	bls.n	8008192 <xQueueGiveFromISR+0xa6>
			const int8_t cTxLock = pxQueue->cTxLock;
 800812e:	f894 3045 	ldrb.w	r3, [r4, #69]	; 0x45
			pxQueue->uxMessagesWaiting = uxMessagesWaiting + ( UBaseType_t ) 1;
 8008132:	3201      	adds	r2, #1
			const int8_t cTxLock = pxQueue->cTxLock;
 8008134:	b25b      	sxtb	r3, r3
			pxQueue->uxMessagesWaiting = uxMessagesWaiting + ( UBaseType_t ) 1;
 8008136:	63a2      	str	r2, [r4, #56]	; 0x38
			if( cTxLock == queueUNLOCKED )
 8008138:	1c5a      	adds	r2, r3, #1
 800813a:	d01c      	beq.n	8008176 <xQueueGiveFromISR+0x8a>
				pxQueue->cTxLock = ( int8_t ) ( cTxLock + 1 );
 800813c:	3301      	adds	r3, #1
 800813e:	b25b      	sxtb	r3, r3
 8008140:	f884 3045 	strb.w	r3, [r4, #69]	; 0x45
			xReturn = pdPASS;
 8008144:	2001      	movs	r0, #1
}
/*-----------------------------------------------------------*/

portFORCE_INLINE static void vPortSetBASEPRI( uint32_t ulNewMaskValue )
{
	__asm volatile
 8008146:	f386 8811 	msr	BASEPRI, r6
}
 800814a:	bd70      	pop	{r4, r5, r6, pc}
	__asm volatile
 800814c:	f04f 0350 	mov.w	r3, #80	; 0x50
 8008150:	f383 8811 	msr	BASEPRI, r3
 8008154:	f3bf 8f6f 	isb	sy
 8008158:	f3bf 8f4f 	dsb	sy
 800815c:	e7fe      	b.n	800815c <xQueueGiveFromISR+0x70>
	configASSERT( !( ( pxQueue->uxQueueType == queueQUEUE_IS_MUTEX ) && ( pxQueue->pxMutexHolder != NULL ) ) );
 800815e:	6843      	ldr	r3, [r0, #4]
 8008160:	2b00      	cmp	r3, #0
 8008162:	d0d1      	beq.n	8008108 <xQueueGiveFromISR+0x1c>
 8008164:	f04f 0350 	mov.w	r3, #80	; 0x50
 8008168:	f383 8811 	msr	BASEPRI, r3
 800816c:	f3bf 8f6f 	isb	sy
 8008170:	f3bf 8f4f 	dsb	sy
 8008174:	e7fe      	b.n	8008174 <xQueueGiveFromISR+0x88>
					if( listLIST_IS_EMPTY( &( pxQueue->xTasksWaitingToReceive ) ) == pdFALSE )
 8008176:	6a63      	ldr	r3, [r4, #36]	; 0x24
 8008178:	2b00      	cmp	r3, #0
 800817a:	d0e3      	beq.n	8008144 <xQueueGiveFromISR+0x58>
						if( xTaskRemoveFromEventList( &( pxQueue->xTasksWaitingToReceive ) ) != pdFALSE )
 800817c:	f104 0024 	add.w	r0, r4, #36	; 0x24
 8008180:	f000 fee4 	bl	8008f4c <xTaskRemoveFromEventList>
 8008184:	2800      	cmp	r0, #0
 8008186:	d0dd      	beq.n	8008144 <xQueueGiveFromISR+0x58>
							if( pxHigherPriorityTaskWoken != NULL )
 8008188:	2d00      	cmp	r5, #0
 800818a:	d0db      	beq.n	8008144 <xQueueGiveFromISR+0x58>
								*pxHigherPriorityTaskWoken = pdTRUE;
 800818c:	2001      	movs	r0, #1
 800818e:	6028      	str	r0, [r5, #0]
 8008190:	e7d9      	b.n	8008146 <xQueueGiveFromISR+0x5a>
			xReturn = errQUEUE_FULL;
 8008192:	2000      	movs	r0, #0
 8008194:	e7d7      	b.n	8008146 <xQueueGiveFromISR+0x5a>
 8008196:	bf00      	nop

08008198 <xQueueSemaphoreTake>:
{
 8008198:	e92d 43f0 	stmdb	sp!, {r4, r5, r6, r7, r8, r9, lr}
 800819c:	b085      	sub	sp, #20
 800819e:	9101      	str	r1, [sp, #4]
	configASSERT( ( pxQueue ) );
 80081a0:	b150      	cbz	r0, 80081b8 <xQueueSemaphoreTake+0x20>
	configASSERT( pxQueue->uxItemSize == 0 );
 80081a2:	6c05      	ldr	r5, [r0, #64]	; 0x40
 80081a4:	b18d      	cbz	r5, 80081ca <xQueueSemaphoreTake+0x32>
 80081a6:	f04f 0350 	mov.w	r3, #80	; 0x50
 80081aa:	f383 8811 	msr	BASEPRI, r3
 80081ae:	f3bf 8f6f 	isb	sy
 80081b2:	f3bf 8f4f 	dsb	sy
 80081b6:	e7fe      	b.n	80081b6 <xQueueSemaphoreTake+0x1e>
 80081b8:	f04f 0350 	mov.w	r3, #80	; 0x50
 80081bc:	f383 8811 	msr	BASEPRI, r3
 80081c0:	f3bf 8f6f 	isb	sy
 80081c4:	f3bf 8f4f 	dsb	sy
 80081c8:	e7fe      	b.n	80081c8 <xQueueSemaphoreTake+0x30>
 80081ca:	4604      	mov	r4, r0
		configASSERT( !( ( xTaskGetSchedulerState() == taskSCHEDULER_SUSPENDED ) && ( xTicksToWait != 0 ) ) );
 80081cc:	f000 ff5c 	bl	8009088 <xTaskGetSchedulerState>
 80081d0:	b950      	cbnz	r0, 80081e8 <xQueueSemaphoreTake+0x50>
 80081d2:	9d01      	ldr	r5, [sp, #4]
 80081d4:	b145      	cbz	r5, 80081e8 <xQueueSemaphoreTake+0x50>
 80081d6:	f04f 0350 	mov.w	r3, #80	; 0x50
 80081da:	f383 8811 	msr	BASEPRI, r3
 80081de:	f3bf 8f6f 	isb	sy
 80081e2:	f3bf 8f4f 	dsb	sy
 80081e6:	e7fe      	b.n	80081e6 <xQueueSemaphoreTake+0x4e>
		taskENTER_CRITICAL();
 80081e8:	f001 f8d4 	bl	8009394 <vPortEnterCritical>
			const UBaseType_t uxSemaphoreCount = pxQueue->uxMessagesWaiting;
 80081ec:	6ba3      	ldr	r3, [r4, #56]	; 0x38
 80081ee:	462e      	mov	r6, r5
		prvLockQueue( pxQueue );
 80081f0:	2700      	movs	r7, #0
					portYIELD_WITHIN_API();
 80081f2:	f8df 82b4 	ldr.w	r8, [pc, #692]	; 80084a8 <xQueueSemaphoreTake+0x310>
			if( uxSemaphoreCount > ( UBaseType_t ) 0 )
 80081f6:	2b00      	cmp	r3, #0
 80081f8:	f040 80b3 	bne.w	8008362 <xQueueSemaphoreTake+0x1ca>
				if( xTicksToWait == ( TickType_t ) 0 )
 80081fc:	9b01      	ldr	r3, [sp, #4]
 80081fe:	2b00      	cmp	r3, #0
 8008200:	f000 8129 	beq.w	8008456 <xQueueSemaphoreTake+0x2be>
				else if( xEntryTimeSet == pdFALSE )
 8008204:	b916      	cbnz	r6, 800820c <xQueueSemaphoreTake+0x74>
					vTaskInternalSetTimeOutState( &xTimeOut );
 8008206:	a802      	add	r0, sp, #8
 8008208:	f000 fee6 	bl	8008fd8 <vTaskInternalSetTimeOutState>
		taskEXIT_CRITICAL();
 800820c:	f001 f8e4 	bl	80093d8 <vPortExitCritical>
		vTaskSuspendAll();
 8008210:	f000 fc96 	bl	8008b40 <vTaskSuspendAll>
		prvLockQueue( pxQueue );
 8008214:	f001 f8be 	bl	8009394 <vPortEnterCritical>
 8008218:	f894 3044 	ldrb.w	r3, [r4, #68]	; 0x44
 800821c:	2bff      	cmp	r3, #255	; 0xff
 800821e:	bf08      	it	eq
 8008220:	f884 7044 	strbeq.w	r7, [r4, #68]	; 0x44
 8008224:	f894 3045 	ldrb.w	r3, [r4, #69]	; 0x45
 8008228:	2bff      	cmp	r3, #255	; 0xff
 800822a:	bf08      	it	eq
 800822c:	f884 7045 	strbeq.w	r7, [r4, #69]	; 0x45
 8008230:	f001 f8d2 	bl	80093d8 <vPortExitCritical>
		if( xTaskCheckForTimeOut( &xTimeOut, &xTicksToWait ) == pdFALSE )
 8008234:	a901      	add	r1, sp, #4
 8008236:	a802      	add	r0, sp, #8
 8008238:	f000 feda 	bl	8008ff0 <xTaskCheckForTimeOut>
 800823c:	2800      	cmp	r0, #0
 800823e:	d144      	bne.n	80082ca <xQueueSemaphoreTake+0x132>
	taskENTER_CRITICAL();
 8008240:	f001 f8a8 	bl	8009394 <vPortEnterCritical>
		if( pxQueue->uxMessagesWaiting == ( UBaseType_t )  0 )
 8008244:	6ba3      	ldr	r3, [r4, #56]	; 0x38
 8008246:	2b00      	cmp	r3, #0
 8008248:	f000 809d 	beq.w	8008386 <xQueueSemaphoreTake+0x1ee>
	taskEXIT_CRITICAL();
 800824c:	f001 f8c4 	bl	80093d8 <vPortExitCritical>
	taskENTER_CRITICAL();
 8008250:	f001 f8a0 	bl	8009394 <vPortEnterCritical>
		int8_t cTxLock = pxQueue->cTxLock;
 8008254:	f894 6045 	ldrb.w	r6, [r4, #69]	; 0x45
 8008258:	b276      	sxtb	r6, r6
		while( cTxLock > queueLOCKED_UNMODIFIED )
 800825a:	2e00      	cmp	r6, #0
 800825c:	dd10      	ble.n	8008280 <xQueueSemaphoreTake+0xe8>
				if( listLIST_IS_EMPTY( &( pxQueue->xTasksWaitingToReceive ) ) == pdFALSE )
 800825e:	6a63      	ldr	r3, [r4, #36]	; 0x24
 8008260:	b173      	cbz	r3, 8008280 <xQueueSemaphoreTake+0xe8>
 8008262:	f104 0924 	add.w	r9, r4, #36	; 0x24
					if( xTaskRemoveFromEventList( &( pxQueue->xTasksWaitingToReceive ) ) != pdFALSE )
 8008266:	4648      	mov	r0, r9
 8008268:	f000 fe70 	bl	8008f4c <xTaskRemoveFromEventList>
 800826c:	2800      	cmp	r0, #0
 800826e:	f040 8087 	bne.w	8008380 <xQueueSemaphoreTake+0x1e8>
 8008272:	3e01      	subs	r6, #1
 8008274:	b2f3      	uxtb	r3, r6
 8008276:	b25e      	sxtb	r6, r3
		while( cTxLock > queueLOCKED_UNMODIFIED )
 8008278:	b113      	cbz	r3, 8008280 <xQueueSemaphoreTake+0xe8>
				if( listLIST_IS_EMPTY( &( pxQueue->xTasksWaitingToReceive ) ) == pdFALSE )
 800827a:	6a63      	ldr	r3, [r4, #36]	; 0x24
 800827c:	2b00      	cmp	r3, #0
 800827e:	d1f2      	bne.n	8008266 <xQueueSemaphoreTake+0xce>
		pxQueue->cTxLock = queueUNLOCKED;
 8008280:	23ff      	movs	r3, #255	; 0xff
 8008282:	f884 3045 	strb.w	r3, [r4, #69]	; 0x45
	taskEXIT_CRITICAL();
 8008286:	f001 f8a7 	bl	80093d8 <vPortExitCritical>
	taskENTER_CRITICAL();
 800828a:	f001 f883 	bl	8009394 <vPortEnterCritical>
		int8_t cRxLock = pxQueue->cRxLock;
 800828e:	f894 6044 	ldrb.w	r6, [r4, #68]	; 0x44
 8008292:	b276      	sxtb	r6, r6
		while( cRxLock > queueLOCKED_UNMODIFIED )
 8008294:	2e00      	cmp	r6, #0
 8008296:	dd10      	ble.n	80082ba <xQueueSemaphoreTake+0x122>
			if( listLIST_IS_EMPTY( &( pxQueue->xTasksWaitingToSend ) ) == pdFALSE )
 8008298:	6923      	ldr	r3, [r4, #16]
 800829a:	b173      	cbz	r3, 80082ba <xQueueSemaphoreTake+0x122>
 800829c:	f104 0910 	add.w	r9, r4, #16
				if( xTaskRemoveFromEventList( &( pxQueue->xTasksWaitingToSend ) ) != pdFALSE )
 80082a0:	4648      	mov	r0, r9
 80082a2:	f000 fe53 	bl	8008f4c <xTaskRemoveFromEventList>
 80082a6:	2800      	cmp	r0, #0
 80082a8:	f040 80bf 	bne.w	800842a <xQueueSemaphoreTake+0x292>
 80082ac:	3e01      	subs	r6, #1
 80082ae:	b2f3      	uxtb	r3, r6
 80082b0:	b25e      	sxtb	r6, r3
		while( cRxLock > queueLOCKED_UNMODIFIED )
 80082b2:	b113      	cbz	r3, 80082ba <xQueueSemaphoreTake+0x122>
			if( listLIST_IS_EMPTY( &( pxQueue->xTasksWaitingToSend ) ) == pdFALSE )
 80082b4:	6923      	ldr	r3, [r4, #16]
 80082b6:	2b00      	cmp	r3, #0
 80082b8:	d1f2      	bne.n	80082a0 <xQueueSemaphoreTake+0x108>
		pxQueue->cRxLock = queueUNLOCKED;
 80082ba:	23ff      	movs	r3, #255	; 0xff
 80082bc:	f884 3044 	strb.w	r3, [r4, #68]	; 0x44
	taskEXIT_CRITICAL();
 80082c0:	f001 f88a 	bl	80093d8 <vPortExitCritical>
				( void ) xTaskResumeAll();
 80082c4:	f000 fcf0 	bl	8008ca8 <xTaskResumeAll>
 80082c8:	e044      	b.n	8008354 <xQueueSemaphoreTake+0x1bc>
	taskENTER_CRITICAL();
 80082ca:	f001 f863 	bl	8009394 <vPortEnterCritical>
		int8_t cTxLock = pxQueue->cTxLock;
 80082ce:	f894 6045 	ldrb.w	r6, [r4, #69]	; 0x45
 80082d2:	b276      	sxtb	r6, r6
		while( cTxLock > queueLOCKED_UNMODIFIED )
 80082d4:	2e00      	cmp	r6, #0
 80082d6:	dd11      	ble.n	80082fc <xQueueSemaphoreTake+0x164>
				if( listLIST_IS_EMPTY( &( pxQueue->xTasksWaitingToReceive ) ) == pdFALSE )
 80082d8:	6a63      	ldr	r3, [r4, #36]	; 0x24
 80082da:	b17b      	cbz	r3, 80082fc <xQueueSemaphoreTake+0x164>
 80082dc:	f104 0924 	add.w	r9, r4, #36	; 0x24
 80082e0:	e001      	b.n	80082e6 <xQueueSemaphoreTake+0x14e>
 80082e2:	6a63      	ldr	r3, [r4, #36]	; 0x24
 80082e4:	b153      	cbz	r3, 80082fc <xQueueSemaphoreTake+0x164>
					if( xTaskRemoveFromEventList( &( pxQueue->xTasksWaitingToReceive ) ) != pdFALSE )
 80082e6:	4648      	mov	r0, r9
 80082e8:	f000 fe30 	bl	8008f4c <xTaskRemoveFromEventList>
 80082ec:	b108      	cbz	r0, 80082f2 <xQueueSemaphoreTake+0x15a>
						vTaskMissedYield();
 80082ee:	f000 fec5 	bl	800907c <vTaskMissedYield>
 80082f2:	3e01      	subs	r6, #1
 80082f4:	b2f3      	uxtb	r3, r6
 80082f6:	b25e      	sxtb	r6, r3
		while( cTxLock > queueLOCKED_UNMODIFIED )
 80082f8:	2b00      	cmp	r3, #0
 80082fa:	d1f2      	bne.n	80082e2 <xQueueSemaphoreTake+0x14a>
		pxQueue->cTxLock = queueUNLOCKED;
 80082fc:	23ff      	movs	r3, #255	; 0xff
 80082fe:	f884 3045 	strb.w	r3, [r4, #69]	; 0x45
	taskEXIT_CRITICAL();
 8008302:	f001 f869 	bl	80093d8 <vPortExitCritical>
	taskENTER_CRITICAL();
 8008306:	f001 f845 	bl	8009394 <vPortEnterCritical>
		int8_t cRxLock = pxQueue->cRxLock;
 800830a:	f894 6044 	ldrb.w	r6, [r4, #68]	; 0x44
 800830e:	b276      	sxtb	r6, r6
		while( cRxLock > queueLOCKED_UNMODIFIED )
 8008310:	2e00      	cmp	r6, #0
 8008312:	dd11      	ble.n	8008338 <xQueueSemaphoreTake+0x1a0>
			if( listLIST_IS_EMPTY( &( pxQueue->xTasksWaitingToSend ) ) == pdFALSE )
 8008314:	6923      	ldr	r3, [r4, #16]
 8008316:	b17b      	cbz	r3, 8008338 <xQueueSemaphoreTake+0x1a0>
 8008318:	f104 0910 	add.w	r9, r4, #16
 800831c:	e001      	b.n	8008322 <xQueueSemaphoreTake+0x18a>
 800831e:	6923      	ldr	r3, [r4, #16]
 8008320:	b153      	cbz	r3, 8008338 <xQueueSemaphoreTake+0x1a0>
				if( xTaskRemoveFromEventList( &( pxQueue->xTasksWaitingToSend ) ) != pdFALSE )
 8008322:	4648      	mov	r0, r9
 8008324:	f000 fe12 	bl	8008f4c <xTaskRemoveFromEventList>
 8008328:	b108      	cbz	r0, 800832e <xQueueSemaphoreTake+0x196>
					vTaskMissedYield();
 800832a:	f000 fea7 	bl	800907c <vTaskMissedYield>
 800832e:	3e01      	subs	r6, #1
 8008330:	b2f3      	uxtb	r3, r6
 8008332:	b25e      	sxtb	r6, r3
		while( cRxLock > queueLOCKED_UNMODIFIED )
 8008334:	2b00      	cmp	r3, #0
 8008336:	d1f2      	bne.n	800831e <xQueueSemaphoreTake+0x186>
		pxQueue->cRxLock = queueUNLOCKED;
 8008338:	23ff      	movs	r3, #255	; 0xff
 800833a:	f884 3044 	strb.w	r3, [r4, #68]	; 0x44
	taskEXIT_CRITICAL();
 800833e:	f001 f84b 	bl	80093d8 <vPortExitCritical>
			( void ) xTaskResumeAll();
 8008342:	f000 fcb1 	bl	8008ca8 <xTaskResumeAll>
	taskENTER_CRITICAL();
 8008346:	f001 f825 	bl	8009394 <vPortEnterCritical>
		if( pxQueue->uxMessagesWaiting == ( UBaseType_t )  0 )
 800834a:	6ba3      	ldr	r3, [r4, #56]	; 0x38
 800834c:	2b00      	cmp	r3, #0
 800834e:	d07b      	beq.n	8008448 <xQueueSemaphoreTake+0x2b0>
	taskEXIT_CRITICAL();
 8008350:	f001 f842 	bl	80093d8 <vPortExitCritical>
		taskENTER_CRITICAL();
 8008354:	f001 f81e 	bl	8009394 <vPortEnterCritical>
			const UBaseType_t uxSemaphoreCount = pxQueue->uxMessagesWaiting;
 8008358:	6ba3      	ldr	r3, [r4, #56]	; 0x38
 800835a:	2601      	movs	r6, #1
			if( uxSemaphoreCount > ( UBaseType_t ) 0 )
 800835c:	2b00      	cmp	r3, #0
 800835e:	f43f af4d 	beq.w	80081fc <xQueueSemaphoreTake+0x64>
					if( pxQueue->uxQueueType == queueQUEUE_IS_MUTEX )
 8008362:	6822      	ldr	r2, [r4, #0]
				pxQueue->uxMessagesWaiting = uxSemaphoreCount - ( UBaseType_t ) 1;
 8008364:	3b01      	subs	r3, #1
 8008366:	63a3      	str	r3, [r4, #56]	; 0x38
					if( pxQueue->uxQueueType == queueQUEUE_IS_MUTEX )
 8008368:	b912      	cbnz	r2, 8008370 <xQueueSemaphoreTake+0x1d8>
						pxQueue->pxMutexHolder = ( int8_t * ) pvTaskIncrementMutexHeldCount(); /*lint !e961 Cast is not redundant as TaskHandle_t is a typedef. */
 800836a:	f000 ffad 	bl	80092c8 <pvTaskIncrementMutexHeldCount>
 800836e:	6060      	str	r0, [r4, #4]
				if( listLIST_IS_EMPTY( &( pxQueue->xTasksWaitingToSend ) ) == pdFALSE )
 8008370:	6923      	ldr	r3, [r4, #16]
 8008372:	2b00      	cmp	r3, #0
 8008374:	f040 8088 	bne.w	8008488 <xQueueSemaphoreTake+0x2f0>
				taskEXIT_CRITICAL();
 8008378:	f001 f82e 	bl	80093d8 <vPortExitCritical>
				return pdPASS;
 800837c:	2501      	movs	r5, #1
 800837e:	e066      	b.n	800844e <xQueueSemaphoreTake+0x2b6>
						vTaskMissedYield();
 8008380:	f000 fe7c 	bl	800907c <vTaskMissedYield>
 8008384:	e775      	b.n	8008272 <xQueueSemaphoreTake+0xda>
	taskEXIT_CRITICAL();
 8008386:	f001 f827 	bl	80093d8 <vPortExitCritical>
					if( pxQueue->uxQueueType == queueQUEUE_IS_MUTEX )
 800838a:	6823      	ldr	r3, [r4, #0]
 800838c:	2b00      	cmp	r3, #0
 800838e:	d052      	beq.n	8008436 <xQueueSemaphoreTake+0x29e>
				vTaskPlaceOnEventList( &( pxQueue->xTasksWaitingToReceive ), xTicksToWait );
 8008390:	f104 0924 	add.w	r9, r4, #36	; 0x24
 8008394:	4648      	mov	r0, r9
 8008396:	9901      	ldr	r1, [sp, #4]
 8008398:	f000 fd88 	bl	8008eac <vTaskPlaceOnEventList>
	taskENTER_CRITICAL();
 800839c:	f000 fffa 	bl	8009394 <vPortEnterCritical>
		int8_t cTxLock = pxQueue->cTxLock;
 80083a0:	f894 6045 	ldrb.w	r6, [r4, #69]	; 0x45
 80083a4:	b276      	sxtb	r6, r6
		while( cTxLock > queueLOCKED_UNMODIFIED )
 80083a6:	2e00      	cmp	r6, #0
 80083a8:	dc04      	bgt.n	80083b4 <xQueueSemaphoreTake+0x21c>
 80083aa:	e011      	b.n	80083d0 <xQueueSemaphoreTake+0x238>
 80083ac:	3e01      	subs	r6, #1
 80083ae:	b2f3      	uxtb	r3, r6
 80083b0:	b25e      	sxtb	r6, r3
 80083b2:	b16b      	cbz	r3, 80083d0 <xQueueSemaphoreTake+0x238>
				if( listLIST_IS_EMPTY( &( pxQueue->xTasksWaitingToReceive ) ) == pdFALSE )
 80083b4:	6a63      	ldr	r3, [r4, #36]	; 0x24
 80083b6:	b15b      	cbz	r3, 80083d0 <xQueueSemaphoreTake+0x238>
					if( xTaskRemoveFromEventList( &( pxQueue->xTasksWaitingToReceive ) ) != pdFALSE )
 80083b8:	4648      	mov	r0, r9
 80083ba:	f000 fdc7 	bl	8008f4c <xTaskRemoveFromEventList>
 80083be:	2800      	cmp	r0, #0
 80083c0:	d0f4      	beq.n	80083ac <xQueueSemaphoreTake+0x214>
 80083c2:	3e01      	subs	r6, #1
						vTaskMissedYield();
 80083c4:	f000 fe5a 	bl	800907c <vTaskMissedYield>
 80083c8:	b2f3      	uxtb	r3, r6
 80083ca:	b25e      	sxtb	r6, r3
		while( cTxLock > queueLOCKED_UNMODIFIED )
 80083cc:	2b00      	cmp	r3, #0
 80083ce:	d1f1      	bne.n	80083b4 <xQueueSemaphoreTake+0x21c>
		pxQueue->cTxLock = queueUNLOCKED;
 80083d0:	23ff      	movs	r3, #255	; 0xff
 80083d2:	f884 3045 	strb.w	r3, [r4, #69]	; 0x45
	taskEXIT_CRITICAL();
 80083d6:	f000 ffff 	bl	80093d8 <vPortExitCritical>
	taskENTER_CRITICAL();
 80083da:	f000 ffdb 	bl	8009394 <vPortEnterCritical>
		int8_t cRxLock = pxQueue->cRxLock;
 80083de:	f894 6044 	ldrb.w	r6, [r4, #68]	; 0x44
 80083e2:	b276      	sxtb	r6, r6
		while( cRxLock > queueLOCKED_UNMODIFIED )
 80083e4:	2e00      	cmp	r6, #0
 80083e6:	dd0e      	ble.n	8008406 <xQueueSemaphoreTake+0x26e>
			if( listLIST_IS_EMPTY( &( pxQueue->xTasksWaitingToSend ) ) == pdFALSE )
 80083e8:	6923      	ldr	r3, [r4, #16]
 80083ea:	b163      	cbz	r3, 8008406 <xQueueSemaphoreTake+0x26e>
 80083ec:	f104 0910 	add.w	r9, r4, #16
				if( xTaskRemoveFromEventList( &( pxQueue->xTasksWaitingToSend ) ) != pdFALSE )
 80083f0:	4648      	mov	r0, r9
 80083f2:	f000 fdab 	bl	8008f4c <xTaskRemoveFromEventList>
 80083f6:	b9d8      	cbnz	r0, 8008430 <xQueueSemaphoreTake+0x298>
 80083f8:	3e01      	subs	r6, #1
 80083fa:	b2f3      	uxtb	r3, r6
 80083fc:	b25e      	sxtb	r6, r3
		while( cRxLock > queueLOCKED_UNMODIFIED )
 80083fe:	b113      	cbz	r3, 8008406 <xQueueSemaphoreTake+0x26e>
			if( listLIST_IS_EMPTY( &( pxQueue->xTasksWaitingToSend ) ) == pdFALSE )
 8008400:	6923      	ldr	r3, [r4, #16]
 8008402:	2b00      	cmp	r3, #0
 8008404:	d1f4      	bne.n	80083f0 <xQueueSemaphoreTake+0x258>
		pxQueue->cRxLock = queueUNLOCKED;
 8008406:	23ff      	movs	r3, #255	; 0xff
 8008408:	f884 3044 	strb.w	r3, [r4, #68]	; 0x44
	taskEXIT_CRITICAL();
 800840c:	f000 ffe4 	bl	80093d8 <vPortExitCritical>
				if( xTaskResumeAll() == pdFALSE )
 8008410:	f000 fc4a 	bl	8008ca8 <xTaskResumeAll>
 8008414:	2800      	cmp	r0, #0
 8008416:	d19d      	bne.n	8008354 <xQueueSemaphoreTake+0x1bc>
					portYIELD_WITHIN_API();
 8008418:	f04f 5380 	mov.w	r3, #268435456	; 0x10000000
 800841c:	f8c8 3000 	str.w	r3, [r8]
 8008420:	f3bf 8f4f 	dsb	sy
 8008424:	f3bf 8f6f 	isb	sy
 8008428:	e794      	b.n	8008354 <xQueueSemaphoreTake+0x1bc>
					vTaskMissedYield();
 800842a:	f000 fe27 	bl	800907c <vTaskMissedYield>
 800842e:	e73d      	b.n	80082ac <xQueueSemaphoreTake+0x114>
 8008430:	f000 fe24 	bl	800907c <vTaskMissedYield>
 8008434:	e7e0      	b.n	80083f8 <xQueueSemaphoreTake+0x260>
						taskENTER_CRITICAL();
 8008436:	f000 ffad 	bl	8009394 <vPortEnterCritical>
							xInheritanceOccurred = xTaskPriorityInherit( ( void * ) pxQueue->pxMutexHolder );
 800843a:	6860      	ldr	r0, [r4, #4]
 800843c:	f000 fe34 	bl	80090a8 <xTaskPriorityInherit>
 8008440:	4605      	mov	r5, r0
						taskEXIT_CRITICAL();
 8008442:	f000 ffc9 	bl	80093d8 <vPortExitCritical>
 8008446:	e7a3      	b.n	8008390 <xQueueSemaphoreTake+0x1f8>
	taskEXIT_CRITICAL();
 8008448:	f000 ffc6 	bl	80093d8 <vPortExitCritical>
					if( xInheritanceOccurred != pdFALSE )
 800844c:	b96d      	cbnz	r5, 800846a <xQueueSemaphoreTake+0x2d2>
}
 800844e:	4628      	mov	r0, r5
 8008450:	b005      	add	sp, #20
 8008452:	e8bd 83f0 	ldmia.w	sp!, {r4, r5, r6, r7, r8, r9, pc}
						configASSERT( xInheritanceOccurred == pdFALSE );
 8008456:	b1a5      	cbz	r5, 8008482 <xQueueSemaphoreTake+0x2ea>
 8008458:	f04f 0350 	mov.w	r3, #80	; 0x50
 800845c:	f383 8811 	msr	BASEPRI, r3
 8008460:	f3bf 8f6f 	isb	sy
 8008464:	f3bf 8f4f 	dsb	sy
 8008468:	e7fe      	b.n	8008468 <xQueueSemaphoreTake+0x2d0>
						taskENTER_CRITICAL();
 800846a:	f000 ff93 	bl	8009394 <vPortEnterCritical>
		if( listCURRENT_LIST_LENGTH( &( pxQueue->xTasksWaitingToReceive ) ) > 0 )
 800846e:	6a61      	ldr	r1, [r4, #36]	; 0x24
 8008470:	b119      	cbz	r1, 800847a <xQueueSemaphoreTake+0x2e2>
			uxHighestPriorityOfWaitingTasks = configMAX_PRIORITIES - listGET_ITEM_VALUE_OF_HEAD_ENTRY( &( pxQueue->xTasksWaitingToReceive ) );
 8008472:	6b23      	ldr	r3, [r4, #48]	; 0x30
 8008474:	6819      	ldr	r1, [r3, #0]
 8008476:	f1c1 0107 	rsb	r1, r1, #7
							vTaskPriorityDisinheritAfterTimeout( ( void * ) pxQueue->pxMutexHolder, uxHighestWaitingPriority );
 800847a:	6860      	ldr	r0, [r4, #4]
 800847c:	f000 fec6 	bl	800920c <vTaskPriorityDisinheritAfterTimeout>
				return errQUEUE_EMPTY;
 8008480:	2500      	movs	r5, #0
						taskEXIT_CRITICAL();
 8008482:	f000 ffa9 	bl	80093d8 <vPortExitCritical>
 8008486:	e7e2      	b.n	800844e <xQueueSemaphoreTake+0x2b6>
					if( xTaskRemoveFromEventList( &( pxQueue->xTasksWaitingToSend ) ) != pdFALSE )
 8008488:	f104 0010 	add.w	r0, r4, #16
 800848c:	f000 fd5e 	bl	8008f4c <xTaskRemoveFromEventList>
 8008490:	2800      	cmp	r0, #0
 8008492:	f43f af71 	beq.w	8008378 <xQueueSemaphoreTake+0x1e0>
						queueYIELD_IF_USING_PREEMPTION();
 8008496:	f04f 5280 	mov.w	r2, #268435456	; 0x10000000
 800849a:	4b03      	ldr	r3, [pc, #12]	; (80084a8 <xQueueSemaphoreTake+0x310>)
 800849c:	601a      	str	r2, [r3, #0]
 800849e:	f3bf 8f4f 	dsb	sy
 80084a2:	f3bf 8f6f 	isb	sy
 80084a6:	e767      	b.n	8008378 <xQueueSemaphoreTake+0x1e0>
 80084a8:	e000ed04 	.word	0xe000ed04

080084ac <xQueueReceiveFromISR>:
{
 80084ac:	e92d 43f8 	stmdb	sp!, {r3, r4, r5, r6, r7, r8, r9, lr}
	configASSERT( pxQueue );
 80084b0:	b1b8      	cbz	r0, 80084e2 <xQueueReceiveFromISR+0x36>
	configASSERT( !( ( pvBuffer == NULL ) && ( pxQueue->uxItemSize != ( UBaseType_t ) 0U ) ) );
 80084b2:	2900      	cmp	r1, #0
 80084b4:	d038      	beq.n	8008528 <xQueueReceiveFromISR+0x7c>
 80084b6:	4604      	mov	r4, r0
 80084b8:	4690      	mov	r8, r2
 80084ba:	4689      	mov	r9, r1
	portASSERT_IF_INTERRUPT_PRIORITY_INVALID();
 80084bc:	f001 f852 	bl	8009564 <vPortValidateInterruptPriority>
	__asm volatile
 80084c0:	f3ef 8711 	mrs	r7, BASEPRI
 80084c4:	f04f 0350 	mov.w	r3, #80	; 0x50
 80084c8:	f383 8811 	msr	BASEPRI, r3
 80084cc:	f3bf 8f6f 	isb	sy
 80084d0:	f3bf 8f4f 	dsb	sy
		const UBaseType_t uxMessagesWaiting = pxQueue->uxMessagesWaiting;
 80084d4:	6ba5      	ldr	r5, [r4, #56]	; 0x38
		if( uxMessagesWaiting > ( UBaseType_t ) 0 )
 80084d6:	b96d      	cbnz	r5, 80084f4 <xQueueReceiveFromISR+0x48>
			xReturn = pdFAIL;
 80084d8:	4628      	mov	r0, r5
	__asm volatile
 80084da:	f387 8811 	msr	BASEPRI, r7
}
 80084de:	e8bd 83f8 	ldmia.w	sp!, {r3, r4, r5, r6, r7, r8, r9, pc}
	__asm volatile
 80084e2:	f04f 0350 	mov.w	r3, #80	; 0x50
 80084e6:	f383 8811 	msr	BASEPRI, r3
 80084ea:	f3bf 8f6f 	isb	sy
 80084ee:	f3bf 8f4f 	dsb	sy
 80084f2:	e7fe      	b.n	80084f2 <xQueueReceiveFromISR+0x46>
			const int8_t cRxLock = pxQueue->cRxLock;
 80084f4:	f894 6044 	ldrb.w	r6, [r4, #68]	; 0x44
	if( pxQueue->uxItemSize != ( UBaseType_t ) 0 )
 80084f8:	6c22      	ldr	r2, [r4, #64]	; 0x40
			const int8_t cRxLock = pxQueue->cRxLock;
 80084fa:	b276      	sxtb	r6, r6
	if( pxQueue->uxItemSize != ( UBaseType_t ) 0 )
 80084fc:	b15a      	cbz	r2, 8008516 <xQueueReceiveFromISR+0x6a>
		pxQueue->u.pcReadFrom += pxQueue->uxItemSize;
 80084fe:	68e1      	ldr	r1, [r4, #12]
		if( pxQueue->u.pcReadFrom >= pxQueue->pcTail ) /*lint !e946 MISRA exception justified as use of the relational operator is the cleanest solutions. */
 8008500:	6863      	ldr	r3, [r4, #4]
		pxQueue->u.pcReadFrom += pxQueue->uxItemSize;
 8008502:	4411      	add	r1, r2
		if( pxQueue->u.pcReadFrom >= pxQueue->pcTail ) /*lint !e946 MISRA exception justified as use of the relational operator is the cleanest solutions. */
 8008504:	4299      	cmp	r1, r3
		pxQueue->u.pcReadFrom += pxQueue->uxItemSize;
 8008506:	60e1      	str	r1, [r4, #12]
		if( pxQueue->u.pcReadFrom >= pxQueue->pcTail ) /*lint !e946 MISRA exception justified as use of the relational operator is the cleanest solutions. */
 8008508:	d302      	bcc.n	8008510 <xQueueReceiveFromISR+0x64>
			pxQueue->u.pcReadFrom = pxQueue->pcHead;
 800850a:	6823      	ldr	r3, [r4, #0]
 800850c:	4619      	mov	r1, r3
 800850e:	60e3      	str	r3, [r4, #12]
		( void ) memcpy( ( void * ) pvBuffer, ( void * ) pxQueue->u.pcReadFrom, ( size_t ) pxQueue->uxItemSize ); /*lint !e961 !e418 MISRA exception as the casts are only redundant for some ports.  Also previous logic ensures a null pointer can only be passed to memcpy() when the count is 0. */
 8008510:	4648      	mov	r0, r9
 8008512:	f001 f987 	bl	8009824 <memcpy>
			pxQueue->uxMessagesWaiting = uxMessagesWaiting - ( UBaseType_t ) 1;
 8008516:	3d01      	subs	r5, #1
			if( cRxLock == queueUNLOCKED )
 8008518:	1c73      	adds	r3, r6, #1
			pxQueue->uxMessagesWaiting = uxMessagesWaiting - ( UBaseType_t ) 1;
 800851a:	63a5      	str	r5, [r4, #56]	; 0x38
			if( cRxLock == queueUNLOCKED )
 800851c:	d010      	beq.n	8008540 <xQueueReceiveFromISR+0x94>
				pxQueue->cRxLock = ( int8_t ) ( cRxLock + 1 );
 800851e:	1c73      	adds	r3, r6, #1
 8008520:	b25b      	sxtb	r3, r3
 8008522:	f884 3044 	strb.w	r3, [r4, #68]	; 0x44
 8008526:	e00d      	b.n	8008544 <xQueueReceiveFromISR+0x98>
	configASSERT( !( ( pvBuffer == NULL ) && ( pxQueue->uxItemSize != ( UBaseType_t ) 0U ) ) );
 8008528:	6c03      	ldr	r3, [r0, #64]	; 0x40
 800852a:	2b00      	cmp	r3, #0
 800852c:	d0c3      	beq.n	80084b6 <xQueueReceiveFromISR+0xa>
 800852e:	f04f 0350 	mov.w	r3, #80	; 0x50
 8008532:	f383 8811 	msr	BASEPRI, r3
 8008536:	f3bf 8f6f 	isb	sy
 800853a:	f3bf 8f4f 	dsb	sy
 800853e:	e7fe      	b.n	800853e <xQueueReceiveFromISR+0x92>
				if( listLIST_IS_EMPTY( &( pxQueue->xTasksWaitingToSend ) ) == pdFALSE )
 8008540:	6923      	ldr	r3, [r4, #16]
 8008542:	b90b      	cbnz	r3, 8008548 <xQueueReceiveFromISR+0x9c>
			xReturn = pdPASS;
 8008544:	2001      	movs	r0, #1
 8008546:	e7c8      	b.n	80084da <xQueueReceiveFromISR+0x2e>
					if( xTaskRemoveFromEventList( &( pxQueue->xTasksWaitingToSend ) ) != pdFALSE )
 8008548:	f104 0010 	add.w	r0, r4, #16
 800854c:	f000 fcfe 	bl	8008f4c <xTaskRemoveFromEventList>
 8008550:	2800      	cmp	r0, #0
 8008552:	d0f7      	beq.n	8008544 <xQueueReceiveFromISR+0x98>
						if( pxHigherPriorityTaskWoken != NULL )
 8008554:	f1b8 0f00 	cmp.w	r8, #0
 8008558:	d0f4      	beq.n	8008544 <xQueueReceiveFromISR+0x98>
							*pxHigherPriorityTaskWoken = pdTRUE;
 800855a:	2001      	movs	r0, #1
 800855c:	f8c8 0000 	str.w	r0, [r8]
 8008560:	e7bb      	b.n	80084da <xQueueReceiveFromISR+0x2e>
 8008562:	bf00      	nop

08008564 <vQueueDelete>:
	configASSERT( pxQueue );
 8008564:	b1e0      	cbz	r0, 80085a0 <vQueueDelete+0x3c>

		/* See if the handle of the queue being unregistered in actually in the
		registry. */
		for( ux = ( UBaseType_t ) 0U; ux < ( UBaseType_t ) configQUEUE_REGISTRY_SIZE; ux++ )
		{
			if( xQueueRegistry[ ux ].xHandle == xQueue )
 8008566:	4b1e      	ldr	r3, [pc, #120]	; (80085e0 <vQueueDelete+0x7c>)
 8008568:	685a      	ldr	r2, [r3, #4]
 800856a:	4290      	cmp	r0, r2
 800856c:	d02c      	beq.n	80085c8 <vQueueDelete+0x64>
 800856e:	68da      	ldr	r2, [r3, #12]
 8008570:	4290      	cmp	r0, r2
 8008572:	d033      	beq.n	80085dc <vQueueDelete+0x78>
 8008574:	695a      	ldr	r2, [r3, #20]
 8008576:	4290      	cmp	r0, r2
 8008578:	d02e      	beq.n	80085d8 <vQueueDelete+0x74>
 800857a:	69da      	ldr	r2, [r3, #28]
 800857c:	4290      	cmp	r0, r2
 800857e:	d029      	beq.n	80085d4 <vQueueDelete+0x70>
 8008580:	6a5a      	ldr	r2, [r3, #36]	; 0x24
 8008582:	4290      	cmp	r0, r2
 8008584:	d024      	beq.n	80085d0 <vQueueDelete+0x6c>
 8008586:	6ada      	ldr	r2, [r3, #44]	; 0x2c
 8008588:	4290      	cmp	r0, r2
 800858a:	d01f      	beq.n	80085cc <vQueueDelete+0x68>
 800858c:	6b5a      	ldr	r2, [r3, #52]	; 0x34
 800858e:	4290      	cmp	r0, r2
 8008590:	d00f      	beq.n	80085b2 <vQueueDelete+0x4e>
 8008592:	6bda      	ldr	r2, [r3, #60]	; 0x3c
 8008594:	4290      	cmp	r0, r2
		for( ux = ( UBaseType_t ) 0U; ux < ( UBaseType_t ) configQUEUE_REGISTRY_SIZE; ux++ )
 8008596:	bf08      	it	eq
 8008598:	2207      	moveq	r2, #7
			if( xQueueRegistry[ ux ].xHandle == xQueue )
 800859a:	d00b      	beq.n	80085b4 <vQueueDelete+0x50>
		vPortFree( pxQueue );
 800859c:	f001 b8d0 	b.w	8009740 <vPortFree>
 80085a0:	f04f 0350 	mov.w	r3, #80	; 0x50
 80085a4:	f383 8811 	msr	BASEPRI, r3
 80085a8:	f3bf 8f6f 	isb	sy
 80085ac:	f3bf 8f4f 	dsb	sy
 80085b0:	e7fe      	b.n	80085b0 <vQueueDelete+0x4c>
		for( ux = ( UBaseType_t ) 0U; ux < ( UBaseType_t ) configQUEUE_REGISTRY_SIZE; ux++ )
 80085b2:	2206      	movs	r2, #6
			{
				/* Set the name to NULL to show that this slot if free again. */
				xQueueRegistry[ ux ].pcQueueName = NULL;
 80085b4:	2100      	movs	r1, #0
{
 80085b6:	b410      	push	{r4}

				/* Set the handle to NULL to ensure the same queue handle cannot
				appear in the registry twice if it is added, removed, then
				added again. */
				xQueueRegistry[ ux ].xHandle = ( QueueHandle_t ) 0;
 80085b8:	eb03 04c2 	add.w	r4, r3, r2, lsl #3
 80085bc:	6061      	str	r1, [r4, #4]
				xQueueRegistry[ ux ].pcQueueName = NULL;
 80085be:	f843 1032 	str.w	r1, [r3, r2, lsl #3]
}
 80085c2:	bc10      	pop	{r4}
		vPortFree( pxQueue );
 80085c4:	f001 b8bc 	b.w	8009740 <vPortFree>
		for( ux = ( UBaseType_t ) 0U; ux < ( UBaseType_t ) configQUEUE_REGISTRY_SIZE; ux++ )
 80085c8:	2200      	movs	r2, #0
 80085ca:	e7f3      	b.n	80085b4 <vQueueDelete+0x50>
 80085cc:	2205      	movs	r2, #5
 80085ce:	e7f1      	b.n	80085b4 <vQueueDelete+0x50>
 80085d0:	2204      	movs	r2, #4
 80085d2:	e7ef      	b.n	80085b4 <vQueueDelete+0x50>
 80085d4:	2203      	movs	r2, #3
 80085d6:	e7ed      	b.n	80085b4 <vQueueDelete+0x50>
 80085d8:	2202      	movs	r2, #2
 80085da:	e7eb      	b.n	80085b4 <vQueueDelete+0x50>
 80085dc:	2201      	movs	r2, #1
 80085de:	e7e9      	b.n	80085b4 <vQueueDelete+0x50>
 80085e0:	20004d10 	.word	0x20004d10

080085e4 <prvIdleTask>:
 *
 * void prvIdleTask( void *pvParameters );
 *
 */
static portTASK_FUNCTION( prvIdleTask, pvParameters )
{
 80085e4:	b580      	push	{r7, lr}
			the list, and an occasional incorrect value will not matter.  If
			the ready list at the idle priority contains more than one task
			then a task other than the idle task is ready to execute. */
			if( listCURRENT_LIST_LENGTH( &( pxReadyTasksLists[ tskIDLE_PRIORITY ] ) ) > ( UBaseType_t ) 1 )
			{
				taskYIELD();
 80085e6:	f04f 5a80 	mov.w	sl, #268435456	; 0x10000000
 80085ea:	4d16      	ldr	r5, [pc, #88]	; (8008644 <prvIdleTask+0x60>)
 80085ec:	4f16      	ldr	r7, [pc, #88]	; (8008648 <prvIdleTask+0x64>)
 80085ee:	4e17      	ldr	r6, [pc, #92]	; (800864c <prvIdleTask+0x68>)
 80085f0:	f8df 805c 	ldr.w	r8, [pc, #92]	; 8008650 <prvIdleTask+0x6c>
 80085f4:	f8df 905c 	ldr.w	r9, [pc, #92]	; 8008654 <prvIdleTask+0x70>
 80085f8:	e014      	b.n	8008624 <prvIdleTask+0x40>

		/* uxDeletedTasksWaitingCleanUp is used to prevent vTaskSuspendAll()
		being called too often in the idle task. */
		while( uxDeletedTasksWaitingCleanUp > ( UBaseType_t ) 0U )
		{
			taskENTER_CRITICAL();
 80085fa:	f000 fecb 	bl	8009394 <vPortEnterCritical>
			{
				pxTCB = ( TCB_t * ) listGET_OWNER_OF_HEAD_ENTRY( ( &xTasksWaitingTermination ) );
 80085fe:	68fb      	ldr	r3, [r7, #12]
 8008600:	68dc      	ldr	r4, [r3, #12]
				( void ) uxListRemove( &( pxTCB->xStateListItem ) );
 8008602:	1d20      	adds	r0, r4, #4
 8008604:	f7ff fb30 	bl	8007c68 <uxListRemove>
				--uxCurrentNumberOfTasks;
 8008608:	6833      	ldr	r3, [r6, #0]
 800860a:	3b01      	subs	r3, #1
 800860c:	6033      	str	r3, [r6, #0]
				--uxDeletedTasksWaitingCleanUp;
 800860e:	682b      	ldr	r3, [r5, #0]
 8008610:	3b01      	subs	r3, #1
 8008612:	602b      	str	r3, [r5, #0]
			}
			taskEXIT_CRITICAL();
 8008614:	f000 fee0 	bl	80093d8 <vPortExitCritical>

		#if( ( configSUPPORT_DYNAMIC_ALLOCATION == 1 ) && ( configSUPPORT_STATIC_ALLOCATION == 0 ) && ( portUSING_MPU_WRAPPERS == 0 ) )
		{
			/* The task can only have been allocated dynamically - free both
			the stack and TCB. */
			vPortFree( pxTCB->pxStack );
 8008618:	6b20      	ldr	r0, [r4, #48]	; 0x30
 800861a:	f001 f891 	bl	8009740 <vPortFree>
			vPortFree( pxTCB );
 800861e:	4620      	mov	r0, r4
 8008620:	f001 f88e 	bl	8009740 <vPortFree>
		while( uxDeletedTasksWaitingCleanUp > ( UBaseType_t ) 0U )
 8008624:	682b      	ldr	r3, [r5, #0]
 8008626:	2b00      	cmp	r3, #0
 8008628:	d1e7      	bne.n	80085fa <prvIdleTask+0x16>
			if( listCURRENT_LIST_LENGTH( &( pxReadyTasksLists[ tskIDLE_PRIORITY ] ) ) > ( UBaseType_t ) 1 )
 800862a:	f8d8 3000 	ldr.w	r3, [r8]
 800862e:	2b01      	cmp	r3, #1
 8008630:	d905      	bls.n	800863e <prvIdleTask+0x5a>
				taskYIELD();
 8008632:	f8c9 a000 	str.w	sl, [r9]
 8008636:	f3bf 8f4f 	dsb	sy
 800863a:	f3bf 8f6f 	isb	sy
			vApplicationIdleHook();
 800863e:	f7f7 ff49 	bl	80004d4 <vApplicationIdleHook>
		prvCheckTasksWaitingTermination();
 8008642:	e7ef      	b.n	8008624 <prvIdleTask+0x40>
 8008644:	20000160 	.word	0x20000160
 8008648:	200001d4 	.word	0x200001d4
 800864c:	2000015c 	.word	0x2000015c
 8008650:	200000d0 	.word	0x200000d0
 8008654:	e000ed04 	.word	0xe000ed04

08008658 <prvAddCurrentTaskToDelayedList>:
#endif /* configUSE_TASK_NOTIFICATIONS */
/*-----------------------------------------------------------*/


static void prvAddCurrentTaskToDelayedList( TickType_t xTicksToWait, const BaseType_t xCanBlockIndefinitely )
{
 8008658:	b5f8      	push	{r3, r4, r5, r6, r7, lr}
TickType_t xTimeToWake;
const TickType_t xConstTickCount = xTickCount;
 800865a:	4b1b      	ldr	r3, [pc, #108]	; (80086c8 <prvAddCurrentTaskToDelayedList+0x70>)
	}
	#endif

	/* Remove the task from the ready list before adding it to the blocked list
	as the same list item is used for both lists. */
	if( uxListRemove( &( pxCurrentTCB->xStateListItem ) ) == ( UBaseType_t ) 0 )
 800865c:	4e1b      	ldr	r6, [pc, #108]	; (80086cc <prvAddCurrentTaskToDelayedList+0x74>)
const TickType_t xConstTickCount = xTickCount;
 800865e:	681c      	ldr	r4, [r3, #0]
	if( uxListRemove( &( pxCurrentTCB->xStateListItem ) ) == ( UBaseType_t ) 0 )
 8008660:	6833      	ldr	r3, [r6, #0]
{
 8008662:	4605      	mov	r5, r0
	if( uxListRemove( &( pxCurrentTCB->xStateListItem ) ) == ( UBaseType_t ) 0 )
 8008664:	1d18      	adds	r0, r3, #4
{
 8008666:	460f      	mov	r7, r1
	if( uxListRemove( &( pxCurrentTCB->xStateListItem ) ) == ( UBaseType_t ) 0 )
 8008668:	f7ff fafe 	bl	8007c68 <uxListRemove>
 800866c:	b940      	cbnz	r0, 8008680 <prvAddCurrentTaskToDelayedList+0x28>
	{
		/* The current task must be in a ready list, so there is no need to
		check, and the port reset macro can be called directly. */
		portRESET_READY_PRIORITY( pxCurrentTCB->uxPriority, uxTopReadyPriority );
 800866e:	2201      	movs	r2, #1
 8008670:	6833      	ldr	r3, [r6, #0]
 8008672:	4917      	ldr	r1, [pc, #92]	; (80086d0 <prvAddCurrentTaskToDelayedList+0x78>)
 8008674:	6ad8      	ldr	r0, [r3, #44]	; 0x2c
 8008676:	680b      	ldr	r3, [r1, #0]
 8008678:	4082      	lsls	r2, r0
 800867a:	ea23 0302 	bic.w	r3, r3, r2
 800867e:	600b      	str	r3, [r1, #0]
		mtCOVERAGE_TEST_MARKER();
	}

	#if ( INCLUDE_vTaskSuspend == 1 )
	{
		if( ( xTicksToWait == portMAX_DELAY ) && ( xCanBlockIndefinitely != pdFALSE ) )
 8008680:	1c6b      	adds	r3, r5, #1
 8008682:	d017      	beq.n	80086b4 <prvAddCurrentTaskToDelayedList+0x5c>
			does not occur.  This may overflow but this doesn't matter, the
			kernel will manage it correctly. */
			xTimeToWake = xConstTickCount + xTicksToWait;

			/* The list item will be inserted in wake time order. */
			listSET_LIST_ITEM_VALUE( &( pxCurrentTCB->xStateListItem ), xTimeToWake );
 8008684:	6833      	ldr	r3, [r6, #0]
 8008686:	1964      	adds	r4, r4, r5
 8008688:	605c      	str	r4, [r3, #4]

			if( xTimeToWake < xConstTickCount )
 800868a:	d20b      	bcs.n	80086a4 <prvAddCurrentTaskToDelayedList+0x4c>
			}
			else
			{
				/* The wake time has not overflowed, so the current block list
				is used. */
				vListInsert( pxDelayedTaskList, &( pxCurrentTCB->xStateListItem ) );
 800868c:	4b11      	ldr	r3, [pc, #68]	; (80086d4 <prvAddCurrentTaskToDelayedList+0x7c>)
 800868e:	6818      	ldr	r0, [r3, #0]
 8008690:	6831      	ldr	r1, [r6, #0]
 8008692:	3104      	adds	r1, #4
 8008694:	f7ff face 	bl	8007c34 <vListInsert>

				/* If the task entering the blocked state was placed at the
				head of the list of blocked tasks then xNextTaskUnblockTime
				needs to be updated too. */
				if( xTimeToWake < xNextTaskUnblockTime )
 8008698:	4b0f      	ldr	r3, [pc, #60]	; (80086d8 <prvAddCurrentTaskToDelayedList+0x80>)
 800869a:	681a      	ldr	r2, [r3, #0]
 800869c:	42a2      	cmp	r2, r4
				{
					xNextTaskUnblockTime = xTimeToWake;
 800869e:	bf88      	it	hi
 80086a0:	601c      	strhi	r4, [r3, #0]

		/* Avoid compiler warning when INCLUDE_vTaskSuspend is not 1. */
		( void ) xCanBlockIndefinitely;
	}
	#endif /* INCLUDE_vTaskSuspend */
}
 80086a2:	bdf8      	pop	{r3, r4, r5, r6, r7, pc}
				vListInsert( pxOverflowDelayedTaskList, &( pxCurrentTCB->xStateListItem ) );
 80086a4:	4b0d      	ldr	r3, [pc, #52]	; (80086dc <prvAddCurrentTaskToDelayedList+0x84>)
 80086a6:	6818      	ldr	r0, [r3, #0]
 80086a8:	6831      	ldr	r1, [r6, #0]
}
 80086aa:	e8bd 40f8 	ldmia.w	sp!, {r3, r4, r5, r6, r7, lr}
				vListInsert( pxOverflowDelayedTaskList, &( pxCurrentTCB->xStateListItem ) );
 80086ae:	3104      	adds	r1, #4
 80086b0:	f7ff bac0 	b.w	8007c34 <vListInsert>
		if( ( xTicksToWait == portMAX_DELAY ) && ( xCanBlockIndefinitely != pdFALSE ) )
 80086b4:	2f00      	cmp	r7, #0
 80086b6:	d0e5      	beq.n	8008684 <prvAddCurrentTaskToDelayedList+0x2c>
			vListInsertEnd( &xSuspendedTaskList, &( pxCurrentTCB->xStateListItem ) );
 80086b8:	6831      	ldr	r1, [r6, #0]
 80086ba:	4809      	ldr	r0, [pc, #36]	; (80086e0 <prvAddCurrentTaskToDelayedList+0x88>)
 80086bc:	3104      	adds	r1, #4
}
 80086be:	e8bd 40f8 	ldmia.w	sp!, {r3, r4, r5, r6, r7, lr}
			vListInsertEnd( &xSuspendedTaskList, &( pxCurrentTCB->xStateListItem ) );
 80086c2:	f7ff baa9 	b.w	8007c18 <vListInsertEnd>
 80086c6:	bf00      	nop
 80086c8:	200001e8 	.word	0x200001e8
 80086cc:	200000c4 	.word	0x200000c4
 80086d0:	20000170 	.word	0x20000170
 80086d4:	200000c8 	.word	0x200000c8
 80086d8:	200001a0 	.word	0x200001a0
 80086dc:	200000cc 	.word	0x200000cc
 80086e0:	200001c0 	.word	0x200001c0

080086e4 <xTaskCreate>:
	{
 80086e4:	e92d 4ff8 	stmdb	sp!, {r3, r4, r5, r6, r7, r8, r9, sl, fp, lr}
			pxStack = ( StackType_t * ) pvPortMalloc( ( ( ( size_t ) usStackDepth ) * sizeof( StackType_t ) ) ); /*lint !e961 MISRA exception as the casts are only redundant for some ports. */
 80086e8:	0096      	lsls	r6, r2, #2
	{
 80086ea:	4680      	mov	r8, r0
			pxStack = ( StackType_t * ) pvPortMalloc( ( ( ( size_t ) usStackDepth ) * sizeof( StackType_t ) ) ); /*lint !e961 MISRA exception as the casts are only redundant for some ports. */
 80086ec:	4630      	mov	r0, r6
	{
 80086ee:	460d      	mov	r5, r1
 80086f0:	4699      	mov	r9, r3
 80086f2:	9f0b      	ldr	r7, [sp, #44]	; 0x2c
			pxStack = ( StackType_t * ) pvPortMalloc( ( ( ( size_t ) usStackDepth ) * sizeof( StackType_t ) ) ); /*lint !e961 MISRA exception as the casts are only redundant for some ports. */
 80086f4:	f000 ff8c 	bl	8009610 <pvPortMalloc>
			if( pxStack != NULL )
 80086f8:	2800      	cmp	r0, #0
 80086fa:	f000 8110 	beq.w	800891e <xTaskCreate+0x23a>
 80086fe:	4682      	mov	sl, r0
				pxNewTCB = ( TCB_t * ) pvPortMalloc( sizeof( TCB_t ) ); /*lint !e961 MISRA exception as the casts are only redundant for some paths. */
 8008700:	2058      	movs	r0, #88	; 0x58
 8008702:	f000 ff85 	bl	8009610 <pvPortMalloc>
				if( pxNewTCB != NULL )
 8008706:	4604      	mov	r4, r0
 8008708:	2800      	cmp	r0, #0
 800870a:	f000 80db 	beq.w	80088c4 <xTaskCreate+0x1e0>
					pxNewTCB->pxStack = pxStack;
 800870e:	f8c0 a030 	str.w	sl, [r0, #48]	; 0x30
		( void ) memset( pxNewTCB->pxStack, ( int ) tskSTACK_FILL_BYTE, ( size_t ) ulStackDepth * sizeof( StackType_t ) );
 8008712:	4632      	mov	r2, r6
 8008714:	4650      	mov	r0, sl
 8008716:	21a5      	movs	r1, #165	; 0xa5
 8008718:	f001 f88f 	bl	800983a <memset>
		pxNewTCB->pcTaskName[ x ] = pcName[ x ];
 800871c:	782a      	ldrb	r2, [r5, #0]
		pxTopOfStack = pxNewTCB->pxStack + ( ulStackDepth - ( uint32_t ) 1 );
 800871e:	6b23      	ldr	r3, [r4, #48]	; 0x30
		pxNewTCB->pcTaskName[ x ] = pcName[ x ];
 8008720:	f884 2034 	strb.w	r2, [r4, #52]	; 0x34
		pxTopOfStack = pxNewTCB->pxStack + ( ulStackDepth - ( uint32_t ) 1 );
 8008724:	3e04      	subs	r6, #4
		if( pcName[ x ] == 0x00 )
 8008726:	782a      	ldrb	r2, [r5, #0]
		pxTopOfStack = pxNewTCB->pxStack + ( ulStackDepth - ( uint32_t ) 1 );
 8008728:	441e      	add	r6, r3
		pxTopOfStack = ( StackType_t * ) ( ( ( portPOINTER_SIZE_TYPE ) pxTopOfStack ) & ( ~( ( portPOINTER_SIZE_TYPE ) portBYTE_ALIGNMENT_MASK ) ) ); /*lint !e923 MISRA exception.  Avoiding casts between pointers and integers is not practical.  Size differences accounted for using portPOINTER_SIZE_TYPE type. */
 800872a:	f026 0a07 	bic.w	sl, r6, #7
		if( pcName[ x ] == 0x00 )
 800872e:	2a00      	cmp	r2, #0
 8008730:	d04d      	beq.n	80087ce <xTaskCreate+0xea>
		pxNewTCB->pcTaskName[ x ] = pcName[ x ];
 8008732:	786b      	ldrb	r3, [r5, #1]
 8008734:	f884 3035 	strb.w	r3, [r4, #53]	; 0x35
		if( pcName[ x ] == 0x00 )
 8008738:	786b      	ldrb	r3, [r5, #1]
 800873a:	2b00      	cmp	r3, #0
 800873c:	d047      	beq.n	80087ce <xTaskCreate+0xea>
		pxNewTCB->pcTaskName[ x ] = pcName[ x ];
 800873e:	78ab      	ldrb	r3, [r5, #2]
 8008740:	f884 3036 	strb.w	r3, [r4, #54]	; 0x36
		if( pcName[ x ] == 0x00 )
 8008744:	78ab      	ldrb	r3, [r5, #2]
 8008746:	2b00      	cmp	r3, #0
 8008748:	d041      	beq.n	80087ce <xTaskCreate+0xea>
		pxNewTCB->pcTaskName[ x ] = pcName[ x ];
 800874a:	78eb      	ldrb	r3, [r5, #3]
 800874c:	f884 3037 	strb.w	r3, [r4, #55]	; 0x37
		if( pcName[ x ] == 0x00 )
 8008750:	78eb      	ldrb	r3, [r5, #3]
 8008752:	2b00      	cmp	r3, #0
 8008754:	d03b      	beq.n	80087ce <xTaskCreate+0xea>
		pxNewTCB->pcTaskName[ x ] = pcName[ x ];
 8008756:	792b      	ldrb	r3, [r5, #4]
 8008758:	f884 3038 	strb.w	r3, [r4, #56]	; 0x38
		if( pcName[ x ] == 0x00 )
 800875c:	792b      	ldrb	r3, [r5, #4]
 800875e:	2b00      	cmp	r3, #0
 8008760:	d035      	beq.n	80087ce <xTaskCreate+0xea>
		pxNewTCB->pcTaskName[ x ] = pcName[ x ];
 8008762:	796b      	ldrb	r3, [r5, #5]
 8008764:	f884 3039 	strb.w	r3, [r4, #57]	; 0x39
		if( pcName[ x ] == 0x00 )
 8008768:	796b      	ldrb	r3, [r5, #5]
 800876a:	2b00      	cmp	r3, #0
 800876c:	d02f      	beq.n	80087ce <xTaskCreate+0xea>
		pxNewTCB->pcTaskName[ x ] = pcName[ x ];
 800876e:	79ab      	ldrb	r3, [r5, #6]
 8008770:	f884 303a 	strb.w	r3, [r4, #58]	; 0x3a
		if( pcName[ x ] == 0x00 )
 8008774:	79ab      	ldrb	r3, [r5, #6]
 8008776:	b353      	cbz	r3, 80087ce <xTaskCreate+0xea>
		pxNewTCB->pcTaskName[ x ] = pcName[ x ];
 8008778:	79eb      	ldrb	r3, [r5, #7]
 800877a:	f884 303b 	strb.w	r3, [r4, #59]	; 0x3b
		if( pcName[ x ] == 0x00 )
 800877e:	79eb      	ldrb	r3, [r5, #7]
 8008780:	b32b      	cbz	r3, 80087ce <xTaskCreate+0xea>
		pxNewTCB->pcTaskName[ x ] = pcName[ x ];
 8008782:	7a2b      	ldrb	r3, [r5, #8]
 8008784:	f884 303c 	strb.w	r3, [r4, #60]	; 0x3c
		if( pcName[ x ] == 0x00 )
 8008788:	7a2b      	ldrb	r3, [r5, #8]
 800878a:	b303      	cbz	r3, 80087ce <xTaskCreate+0xea>
		pxNewTCB->pcTaskName[ x ] = pcName[ x ];
 800878c:	7a6b      	ldrb	r3, [r5, #9]
 800878e:	f884 303d 	strb.w	r3, [r4, #61]	; 0x3d
		if( pcName[ x ] == 0x00 )
 8008792:	7a6b      	ldrb	r3, [r5, #9]
 8008794:	b1db      	cbz	r3, 80087ce <xTaskCreate+0xea>
		pxNewTCB->pcTaskName[ x ] = pcName[ x ];
 8008796:	7aab      	ldrb	r3, [r5, #10]
 8008798:	f884 303e 	strb.w	r3, [r4, #62]	; 0x3e
		if( pcName[ x ] == 0x00 )
 800879c:	7aab      	ldrb	r3, [r5, #10]
 800879e:	b1b3      	cbz	r3, 80087ce <xTaskCreate+0xea>
		pxNewTCB->pcTaskName[ x ] = pcName[ x ];
 80087a0:	7aeb      	ldrb	r3, [r5, #11]
 80087a2:	f884 303f 	strb.w	r3, [r4, #63]	; 0x3f
		if( pcName[ x ] == 0x00 )
 80087a6:	7aeb      	ldrb	r3, [r5, #11]
 80087a8:	b18b      	cbz	r3, 80087ce <xTaskCreate+0xea>
		pxNewTCB->pcTaskName[ x ] = pcName[ x ];
 80087aa:	7b2b      	ldrb	r3, [r5, #12]
 80087ac:	f884 3040 	strb.w	r3, [r4, #64]	; 0x40
		if( pcName[ x ] == 0x00 )
 80087b0:	7b2b      	ldrb	r3, [r5, #12]
 80087b2:	b163      	cbz	r3, 80087ce <xTaskCreate+0xea>
		pxNewTCB->pcTaskName[ x ] = pcName[ x ];
 80087b4:	7b6b      	ldrb	r3, [r5, #13]
 80087b6:	f884 3041 	strb.w	r3, [r4, #65]	; 0x41
		if( pcName[ x ] == 0x00 )
 80087ba:	7b6b      	ldrb	r3, [r5, #13]
 80087bc:	b13b      	cbz	r3, 80087ce <xTaskCreate+0xea>
		pxNewTCB->pcTaskName[ x ] = pcName[ x ];
 80087be:	7bab      	ldrb	r3, [r5, #14]
 80087c0:	f884 3042 	strb.w	r3, [r4, #66]	; 0x42
		if( pcName[ x ] == 0x00 )
 80087c4:	7bab      	ldrb	r3, [r5, #14]
 80087c6:	b113      	cbz	r3, 80087ce <xTaskCreate+0xea>
		pxNewTCB->pcTaskName[ x ] = pcName[ x ];
 80087c8:	7beb      	ldrb	r3, [r5, #15]
 80087ca:	f884 3043 	strb.w	r3, [r4, #67]	; 0x43
 80087ce:	9d0a      	ldr	r5, [sp, #40]	; 0x28
	pxNewTCB->pcTaskName[ configMAX_TASK_NAME_LEN - 1 ] = '\0';
 80087d0:	f04f 0b00 	mov.w	fp, #0
 80087d4:	2d06      	cmp	r5, #6
 80087d6:	bf28      	it	cs
 80087d8:	2506      	movcs	r5, #6
	vListInitialiseItem( &( pxNewTCB->xStateListItem ) );
 80087da:	1d26      	adds	r6, r4, #4
	pxNewTCB->uxPriority = uxPriority;
 80087dc:	62e5      	str	r5, [r4, #44]	; 0x2c
		pxNewTCB->uxBasePriority = uxPriority;
 80087de:	6465      	str	r5, [r4, #68]	; 0x44
	vListInitialiseItem( &( pxNewTCB->xStateListItem ) );
 80087e0:	4630      	mov	r0, r6
	pxNewTCB->pcTaskName[ configMAX_TASK_NAME_LEN - 1 ] = '\0';
 80087e2:	f884 b043 	strb.w	fp, [r4, #67]	; 0x43
		pxNewTCB->uxMutexesHeld = 0;
 80087e6:	f8c4 b048 	str.w	fp, [r4, #72]	; 0x48
	vListInitialiseItem( &( pxNewTCB->xStateListItem ) );
 80087ea:	f7ff fa11 	bl	8007c10 <vListInitialiseItem>
	listSET_LIST_ITEM_VALUE( &( pxNewTCB->xEventListItem ), ( TickType_t ) configMAX_PRIORITIES - ( TickType_t ) uxPriority ); /*lint !e961 MISRA exception as the casts are only redundant for some ports. */
 80087ee:	f1c5 0507 	rsb	r5, r5, #7
	vListInitialiseItem( &( pxNewTCB->xEventListItem ) );
 80087f2:	f104 0018 	add.w	r0, r4, #24
 80087f6:	f7ff fa0b 	bl	8007c10 <vListInitialiseItem>
		pxNewTCB->ulNotifiedValue = 0;
 80087fa:	f8c4 b050 	str.w	fp, [r4, #80]	; 0x50
	listSET_LIST_ITEM_VALUE( &( pxNewTCB->xEventListItem ), ( TickType_t ) configMAX_PRIORITIES - ( TickType_t ) uxPriority ); /*lint !e961 MISRA exception as the casts are only redundant for some ports. */
 80087fe:	61a5      	str	r5, [r4, #24]
		pxNewTCB->pxTaskTag = NULL;
 8008800:	f8c4 b04c 	str.w	fp, [r4, #76]	; 0x4c
		pxNewTCB->ucNotifyState = taskNOT_WAITING_NOTIFICATION;
 8008804:	f884 b054 	strb.w	fp, [r4, #84]	; 0x54
	listSET_LIST_ITEM_OWNER( &( pxNewTCB->xStateListItem ), pxNewTCB );
 8008808:	6124      	str	r4, [r4, #16]
	listSET_LIST_ITEM_OWNER( &( pxNewTCB->xEventListItem ), pxNewTCB );
 800880a:	6264      	str	r4, [r4, #36]	; 0x24
		pxNewTCB->pxTopOfStack = pxPortInitialiseStack( pxTopOfStack, pxTaskCode, pvParameters );
 800880c:	464a      	mov	r2, r9
 800880e:	4641      	mov	r1, r8
 8008810:	4650      	mov	r0, sl
 8008812:	f000 fd95 	bl	8009340 <pxPortInitialiseStack>
 8008816:	6020      	str	r0, [r4, #0]
	if( ( void * ) pxCreatedTask != NULL )
 8008818:	b107      	cbz	r7, 800881c <xTaskCreate+0x138>
		*pxCreatedTask = ( TaskHandle_t ) pxNewTCB;
 800881a:	603c      	str	r4, [r7, #0]
	taskENTER_CRITICAL();
 800881c:	f000 fdba 	bl	8009394 <vPortEnterCritical>
		uxCurrentNumberOfTasks++;
 8008820:	4a40      	ldr	r2, [pc, #256]	; (8008924 <xTaskCreate+0x240>)
		if( pxCurrentTCB == NULL )
 8008822:	4f41      	ldr	r7, [pc, #260]	; (8008928 <xTaskCreate+0x244>)
		uxCurrentNumberOfTasks++;
 8008824:	6813      	ldr	r3, [r2, #0]
 8008826:	3301      	adds	r3, #1
 8008828:	6013      	str	r3, [r2, #0]
		if( pxCurrentTCB == NULL )
 800882a:	683b      	ldr	r3, [r7, #0]
 800882c:	2b00      	cmp	r3, #0
 800882e:	d03f      	beq.n	80088b0 <xTaskCreate+0x1cc>
			if( xSchedulerRunning == pdFALSE )
 8008830:	f8df 8114 	ldr.w	r8, [pc, #276]	; 8008948 <xTaskCreate+0x264>
 8008834:	6ae3      	ldr	r3, [r4, #44]	; 0x2c
 8008836:	f8d8 2000 	ldr.w	r2, [r8]
 800883a:	b372      	cbz	r2, 800889a <xTaskCreate+0x1b6>
 800883c:	f8df 910c 	ldr.w	r9, [pc, #268]	; 800894c <xTaskCreate+0x268>
		prvAddTaskToReadyList( pxNewTCB );
 8008840:	2501      	movs	r5, #1
 8008842:	f8df e10c 	ldr.w	lr, [pc, #268]	; 8008950 <xTaskCreate+0x26c>
		uxTaskNumber++;
 8008846:	f8df c10c 	ldr.w	ip, [pc, #268]	; 8008954 <xTaskCreate+0x270>
		prvAddTaskToReadyList( pxNewTCB );
 800884a:	fa05 f203 	lsl.w	r2, r5, r3
 800884e:	eb03 0383 	add.w	r3, r3, r3, lsl #2
 8008852:	4631      	mov	r1, r6
 8008854:	eb09 0083 	add.w	r0, r9, r3, lsl #2
 8008858:	f8de 6000 	ldr.w	r6, [lr]
		uxTaskNumber++;
 800885c:	f8dc 3000 	ldr.w	r3, [ip]
		prvAddTaskToReadyList( pxNewTCB );
 8008860:	4332      	orrs	r2, r6
		uxTaskNumber++;
 8008862:	442b      	add	r3, r5
 8008864:	f8cc 3000 	str.w	r3, [ip]
		prvAddTaskToReadyList( pxNewTCB );
 8008868:	f8ce 2000 	str.w	r2, [lr]
 800886c:	f7ff f9d4 	bl	8007c18 <vListInsertEnd>
	taskEXIT_CRITICAL();
 8008870:	f000 fdb2 	bl	80093d8 <vPortExitCritical>
	if( xSchedulerRunning != pdFALSE )
 8008874:	f8d8 3000 	ldr.w	r3, [r8]
 8008878:	b1bb      	cbz	r3, 80088aa <xTaskCreate+0x1c6>
		if( pxCurrentTCB->uxPriority < pxNewTCB->uxPriority )
 800887a:	683a      	ldr	r2, [r7, #0]
 800887c:	6ae3      	ldr	r3, [r4, #44]	; 0x2c
 800887e:	6ad2      	ldr	r2, [r2, #44]	; 0x2c
 8008880:	429a      	cmp	r2, r3
 8008882:	d212      	bcs.n	80088aa <xTaskCreate+0x1c6>
			taskYIELD_IF_USING_PREEMPTION();
 8008884:	f04f 5280 	mov.w	r2, #268435456	; 0x10000000
 8008888:	4b28      	ldr	r3, [pc, #160]	; (800892c <xTaskCreate+0x248>)
 800888a:	601a      	str	r2, [r3, #0]
 800888c:	f3bf 8f4f 	dsb	sy
 8008890:	f3bf 8f6f 	isb	sy
			xReturn = pdPASS;
 8008894:	4628      	mov	r0, r5
	}
 8008896:	e8bd 8ff8 	ldmia.w	sp!, {r3, r4, r5, r6, r7, r8, r9, sl, fp, pc}
				if( pxCurrentTCB->uxPriority <= pxNewTCB->uxPriority )
 800889a:	683a      	ldr	r2, [r7, #0]
 800889c:	f8df 90ac 	ldr.w	r9, [pc, #172]	; 800894c <xTaskCreate+0x268>
 80088a0:	6ad2      	ldr	r2, [r2, #44]	; 0x2c
 80088a2:	429a      	cmp	r2, r3
					pxCurrentTCB = pxNewTCB;
 80088a4:	bf98      	it	ls
 80088a6:	603c      	strls	r4, [r7, #0]
 80088a8:	e7ca      	b.n	8008840 <xTaskCreate+0x15c>
			xReturn = pdPASS;
 80088aa:	4628      	mov	r0, r5
	}
 80088ac:	e8bd 8ff8 	ldmia.w	sp!, {r3, r4, r5, r6, r7, r8, r9, sl, fp, pc}
			pxCurrentTCB = pxNewTCB;
 80088b0:	603c      	str	r4, [r7, #0]
			if( uxCurrentNumberOfTasks == ( UBaseType_t ) 1 )
 80088b2:	6813      	ldr	r3, [r2, #0]
 80088b4:	2b01      	cmp	r3, #1
 80088b6:	d00c      	beq.n	80088d2 <xTaskCreate+0x1ee>
 80088b8:	6ae3      	ldr	r3, [r4, #44]	; 0x2c
 80088ba:	f8df 9090 	ldr.w	r9, [pc, #144]	; 800894c <xTaskCreate+0x268>
 80088be:	f8df 8088 	ldr.w	r8, [pc, #136]	; 8008948 <xTaskCreate+0x264>
 80088c2:	e7bd      	b.n	8008840 <xTaskCreate+0x15c>
					vPortFree( pxStack );
 80088c4:	4650      	mov	r0, sl
 80088c6:	f000 ff3b 	bl	8009740 <vPortFree>
			xReturn = errCOULD_NOT_ALLOCATE_REQUIRED_MEMORY;
 80088ca:	f04f 30ff 	mov.w	r0, #4294967295
	}
 80088ce:	e8bd 8ff8 	ldmia.w	sp!, {r3, r4, r5, r6, r7, r8, r9, sl, fp, pc}
 80088d2:	f8df 9078 	ldr.w	r9, [pc, #120]	; 800894c <xTaskCreate+0x268>
 80088d6:	464d      	mov	r5, r9
 80088d8:	f109 088c 	add.w	r8, r9, #140	; 0x8c
		vListInitialise( &( pxReadyTasksLists[ uxPriority ] ) );
 80088dc:	4628      	mov	r0, r5
 80088de:	3514      	adds	r5, #20
 80088e0:	f7ff f98a 	bl	8007bf8 <vListInitialise>
	for( uxPriority = ( UBaseType_t ) 0U; uxPriority < ( UBaseType_t ) configMAX_PRIORITIES; uxPriority++ )
 80088e4:	4545      	cmp	r5, r8
 80088e6:	d1f9      	bne.n	80088dc <xTaskCreate+0x1f8>
	vListInitialise( &xDelayedTaskList1 );
 80088e8:	f8df 806c 	ldr.w	r8, [pc, #108]	; 8008958 <xTaskCreate+0x274>
	vListInitialise( &xDelayedTaskList2 );
 80088ec:	4d10      	ldr	r5, [pc, #64]	; (8008930 <xTaskCreate+0x24c>)
	vListInitialise( &xDelayedTaskList1 );
 80088ee:	4640      	mov	r0, r8
 80088f0:	f7ff f982 	bl	8007bf8 <vListInitialise>
	vListInitialise( &xDelayedTaskList2 );
 80088f4:	4628      	mov	r0, r5
 80088f6:	f7ff f97f 	bl	8007bf8 <vListInitialise>
	vListInitialise( &xPendingReadyList );
 80088fa:	480e      	ldr	r0, [pc, #56]	; (8008934 <xTaskCreate+0x250>)
 80088fc:	f7ff f97c 	bl	8007bf8 <vListInitialise>
		vListInitialise( &xTasksWaitingTermination );
 8008900:	480d      	ldr	r0, [pc, #52]	; (8008938 <xTaskCreate+0x254>)
 8008902:	f7ff f979 	bl	8007bf8 <vListInitialise>
		vListInitialise( &xSuspendedTaskList );
 8008906:	480d      	ldr	r0, [pc, #52]	; (800893c <xTaskCreate+0x258>)
 8008908:	f7ff f976 	bl	8007bf8 <vListInitialise>
	pxDelayedTaskList = &xDelayedTaskList1;
 800890c:	4b0c      	ldr	r3, [pc, #48]	; (8008940 <xTaskCreate+0x25c>)
	pxOverflowDelayedTaskList = &xDelayedTaskList2;
 800890e:	4a0d      	ldr	r2, [pc, #52]	; (8008944 <xTaskCreate+0x260>)
	pxDelayedTaskList = &xDelayedTaskList1;
 8008910:	f8c3 8000 	str.w	r8, [r3]
 8008914:	6ae3      	ldr	r3, [r4, #44]	; 0x2c
	pxOverflowDelayedTaskList = &xDelayedTaskList2;
 8008916:	6015      	str	r5, [r2, #0]
 8008918:	f8df 802c 	ldr.w	r8, [pc, #44]	; 8008948 <xTaskCreate+0x264>
 800891c:	e790      	b.n	8008840 <xTaskCreate+0x15c>
			xReturn = errCOULD_NOT_ALLOCATE_REQUIRED_MEMORY;
 800891e:	f04f 30ff 	mov.w	r0, #4294967295
 8008922:	e7b8      	b.n	8008896 <xTaskCreate+0x1b2>
 8008924:	2000015c 	.word	0x2000015c
 8008928:	200000c4 	.word	0x200000c4
 800892c:	e000ed04 	.word	0xe000ed04
 8008930:	20000188 	.word	0x20000188
 8008934:	200001a8 	.word	0x200001a8
 8008938:	200001d4 	.word	0x200001d4
 800893c:	200001c0 	.word	0x200001c0
 8008940:	200000c8 	.word	0x200000c8
 8008944:	200000cc 	.word	0x200000cc
 8008948:	200001bc 	.word	0x200001bc
 800894c:	200000d0 	.word	0x200000d0
 8008950:	20000170 	.word	0x20000170
 8008954:	2000016c 	.word	0x2000016c
 8008958:	20000174 	.word	0x20000174

0800895c <vTaskStartScheduler>:
{
 800895c:	e92d 43f8 	stmdb	sp!, {r3, r4, r5, r6, r7, r8, r9, lr}
			pxStack = ( StackType_t * ) pvPortMalloc( ( ( ( size_t ) usStackDepth ) * sizeof( StackType_t ) ) ); /*lint !e961 MISRA exception as the casts are only redundant for some ports. */
 8008960:	f44f 7000 	mov.w	r0, #512	; 0x200
 8008964:	f000 fe54 	bl	8009610 <pvPortMalloc>
			if( pxStack != NULL )
 8008968:	2800      	cmp	r0, #0
 800896a:	f000 8096 	beq.w	8008a9a <vTaskStartScheduler+0x13e>
 800896e:	4606      	mov	r6, r0
				pxNewTCB = ( TCB_t * ) pvPortMalloc( sizeof( TCB_t ) ); /*lint !e961 MISRA exception as the casts are only redundant for some paths. */
 8008970:	2058      	movs	r0, #88	; 0x58
 8008972:	f000 fe4d 	bl	8009610 <pvPortMalloc>
				if( pxNewTCB != NULL )
 8008976:	4604      	mov	r4, r0
 8008978:	2800      	cmp	r0, #0
 800897a:	f000 808b 	beq.w	8008a94 <vTaskStartScheduler+0x138>
		pxNewTCB->pcTaskName[ x ] = pcName[ x ];
 800897e:	2500      	movs	r5, #0
		( void ) memset( pxNewTCB->pxStack, ( int ) tskSTACK_FILL_BYTE, ( size_t ) ulStackDepth * sizeof( StackType_t ) );
 8008980:	21a5      	movs	r1, #165	; 0xa5
					pxNewTCB->pxStack = pxStack;
 8008982:	6306      	str	r6, [r0, #48]	; 0x30
		( void ) memset( pxNewTCB->pxStack, ( int ) tskSTACK_FILL_BYTE, ( size_t ) ulStackDepth * sizeof( StackType_t ) );
 8008984:	f44f 7200 	mov.w	r2, #512	; 0x200
 8008988:	4630      	mov	r0, r6
 800898a:	f000 ff56 	bl	800983a <memset>
		pxNewTCB->pcTaskName[ x ] = pcName[ x ];
 800898e:	4a59      	ldr	r2, [pc, #356]	; (8008af4 <vTaskStartScheduler+0x198>)
		pxTopOfStack = pxNewTCB->pxStack + ( ulStackDepth - ( uint32_t ) 1 );
 8008990:	6b23      	ldr	r3, [r4, #48]	; 0x30
	vListInitialiseItem( &( pxNewTCB->xStateListItem ) );
 8008992:	f104 0804 	add.w	r8, r4, #4
		pxTopOfStack = pxNewTCB->pxStack + ( ulStackDepth - ( uint32_t ) 1 );
 8008996:	f503 73fe 	add.w	r3, r3, #508	; 0x1fc
		pxNewTCB->pcTaskName[ x ] = pcName[ x ];
 800899a:	6362      	str	r2, [r4, #52]	; 0x34
	vListInitialiseItem( &( pxNewTCB->xStateListItem ) );
 800899c:	4640      	mov	r0, r8
		pxNewTCB->pcTaskName[ x ] = pcName[ x ];
 800899e:	f884 5038 	strb.w	r5, [r4, #56]	; 0x38
	pxNewTCB->pcTaskName[ configMAX_TASK_NAME_LEN - 1 ] = '\0';
 80089a2:	f884 5043 	strb.w	r5, [r4, #67]	; 0x43
	pxNewTCB->uxPriority = uxPriority;
 80089a6:	62e5      	str	r5, [r4, #44]	; 0x2c
		pxNewTCB->uxMutexesHeld = 0;
 80089a8:	e9c4 5511 	strd	r5, r5, [r4, #68]	; 0x44
		pxTopOfStack = ( StackType_t * ) ( ( ( portPOINTER_SIZE_TYPE ) pxTopOfStack ) & ( ~( ( portPOINTER_SIZE_TYPE ) portBYTE_ALIGNMENT_MASK ) ) ); /*lint !e923 MISRA exception.  Avoiding casts between pointers and integers is not practical.  Size differences accounted for using portPOINTER_SIZE_TYPE type. */
 80089ac:	f023 0607 	bic.w	r6, r3, #7
	vListInitialiseItem( &( pxNewTCB->xStateListItem ) );
 80089b0:	f7ff f92e 	bl	8007c10 <vListInitialiseItem>
	vListInitialiseItem( &( pxNewTCB->xEventListItem ) );
 80089b4:	f104 0018 	add.w	r0, r4, #24
 80089b8:	f7ff f92a 	bl	8007c10 <vListInitialiseItem>
	listSET_LIST_ITEM_VALUE( &( pxNewTCB->xEventListItem ), ( TickType_t ) configMAX_PRIORITIES - ( TickType_t ) uxPriority ); /*lint !e961 MISRA exception as the casts are only redundant for some ports. */
 80089bc:	2307      	movs	r3, #7
		pxNewTCB->pxTopOfStack = pxPortInitialiseStack( pxTopOfStack, pxTaskCode, pvParameters );
 80089be:	462a      	mov	r2, r5
		pxNewTCB->ulNotifiedValue = 0;
 80089c0:	6525      	str	r5, [r4, #80]	; 0x50
	listSET_LIST_ITEM_VALUE( &( pxNewTCB->xEventListItem ), ( TickType_t ) configMAX_PRIORITIES - ( TickType_t ) uxPriority ); /*lint !e961 MISRA exception as the casts are only redundant for some ports. */
 80089c2:	61a3      	str	r3, [r4, #24]
		pxNewTCB->pxTopOfStack = pxPortInitialiseStack( pxTopOfStack, pxTaskCode, pvParameters );
 80089c4:	494c      	ldr	r1, [pc, #304]	; (8008af8 <vTaskStartScheduler+0x19c>)
 80089c6:	4630      	mov	r0, r6
		pxNewTCB->pxTaskTag = NULL;
 80089c8:	64e5      	str	r5, [r4, #76]	; 0x4c
		pxNewTCB->ucNotifyState = taskNOT_WAITING_NOTIFICATION;
 80089ca:	f884 5054 	strb.w	r5, [r4, #84]	; 0x54
	listSET_LIST_ITEM_OWNER( &( pxNewTCB->xStateListItem ), pxNewTCB );
 80089ce:	6124      	str	r4, [r4, #16]
	listSET_LIST_ITEM_OWNER( &( pxNewTCB->xEventListItem ), pxNewTCB );
 80089d0:	6264      	str	r4, [r4, #36]	; 0x24
		pxNewTCB->pxTopOfStack = pxPortInitialiseStack( pxTopOfStack, pxTaskCode, pvParameters );
 80089d2:	f000 fcb5 	bl	8009340 <pxPortInitialiseStack>
		*pxCreatedTask = ( TaskHandle_t ) pxNewTCB;
 80089d6:	4b49      	ldr	r3, [pc, #292]	; (8008afc <vTaskStartScheduler+0x1a0>)
		pxNewTCB->pxTopOfStack = pxPortInitialiseStack( pxTopOfStack, pxTaskCode, pvParameters );
 80089d8:	6020      	str	r0, [r4, #0]
		*pxCreatedTask = ( TaskHandle_t ) pxNewTCB;
 80089da:	601c      	str	r4, [r3, #0]
	taskENTER_CRITICAL();
 80089dc:	f000 fcda 	bl	8009394 <vPortEnterCritical>
		uxCurrentNumberOfTasks++;
 80089e0:	4b47      	ldr	r3, [pc, #284]	; (8008b00 <vTaskStartScheduler+0x1a4>)
		if( pxCurrentTCB == NULL )
 80089e2:	4f48      	ldr	r7, [pc, #288]	; (8008b04 <vTaskStartScheduler+0x1a8>)
		uxCurrentNumberOfTasks++;
 80089e4:	681a      	ldr	r2, [r3, #0]
 80089e6:	3201      	adds	r2, #1
 80089e8:	601a      	str	r2, [r3, #0]
		if( pxCurrentTCB == NULL )
 80089ea:	683a      	ldr	r2, [r7, #0]
 80089ec:	2a00      	cmp	r2, #0
 80089ee:	d049      	beq.n	8008a84 <vTaskStartScheduler+0x128>
			if( xSchedulerRunning == pdFALSE )
 80089f0:	4e45      	ldr	r6, [pc, #276]	; (8008b08 <vTaskStartScheduler+0x1ac>)
 80089f2:	6ae0      	ldr	r0, [r4, #44]	; 0x2c
 80089f4:	6833      	ldr	r3, [r6, #0]
 80089f6:	2b00      	cmp	r3, #0
 80089f8:	d03d      	beq.n	8008a76 <vTaskStartScheduler+0x11a>
 80089fa:	4d44      	ldr	r5, [pc, #272]	; (8008b0c <vTaskStartScheduler+0x1b0>)
		prvAddTaskToReadyList( pxNewTCB );
 80089fc:	2301      	movs	r3, #1
 80089fe:	f8df e134 	ldr.w	lr, [pc, #308]	; 8008b34 <vTaskStartScheduler+0x1d8>
		uxTaskNumber++;
 8008a02:	f8df c134 	ldr.w	ip, [pc, #308]	; 8008b38 <vTaskStartScheduler+0x1dc>
		prvAddTaskToReadyList( pxNewTCB );
 8008a06:	4083      	lsls	r3, r0
 8008a08:	eb00 0080 	add.w	r0, r0, r0, lsl #2
		uxTaskNumber++;
 8008a0c:	f8dc 2000 	ldr.w	r2, [ip]
		prvAddTaskToReadyList( pxNewTCB );
 8008a10:	eb05 0080 	add.w	r0, r5, r0, lsl #2
 8008a14:	f8de 5000 	ldr.w	r5, [lr]
		uxTaskNumber++;
 8008a18:	3201      	adds	r2, #1
		prvAddTaskToReadyList( pxNewTCB );
 8008a1a:	432b      	orrs	r3, r5
 8008a1c:	4641      	mov	r1, r8
 8008a1e:	f8ce 3000 	str.w	r3, [lr]
		uxTaskNumber++;
 8008a22:	f8cc 2000 	str.w	r2, [ip]
		prvAddTaskToReadyList( pxNewTCB );
 8008a26:	f7ff f8f7 	bl	8007c18 <vListInsertEnd>
	taskEXIT_CRITICAL();
 8008a2a:	f000 fcd5 	bl	80093d8 <vPortExitCritical>
	if( xSchedulerRunning != pdFALSE )
 8008a2e:	6833      	ldr	r3, [r6, #0]
 8008a30:	b163      	cbz	r3, 8008a4c <vTaskStartScheduler+0xf0>
		if( pxCurrentTCB->uxPriority < pxNewTCB->uxPriority )
 8008a32:	683a      	ldr	r2, [r7, #0]
 8008a34:	6ae3      	ldr	r3, [r4, #44]	; 0x2c
 8008a36:	6ad2      	ldr	r2, [r2, #44]	; 0x2c
 8008a38:	429a      	cmp	r2, r3
 8008a3a:	d207      	bcs.n	8008a4c <vTaskStartScheduler+0xf0>
			taskYIELD_IF_USING_PREEMPTION();
 8008a3c:	f04f 5280 	mov.w	r2, #268435456	; 0x10000000
 8008a40:	4b33      	ldr	r3, [pc, #204]	; (8008b10 <vTaskStartScheduler+0x1b4>)
 8008a42:	601a      	str	r2, [r3, #0]
 8008a44:	f3bf 8f4f 	dsb	sy
 8008a48:	f3bf 8f6f 	isb	sy
 8008a4c:	f04f 0350 	mov.w	r3, #80	; 0x50
 8008a50:	f383 8811 	msr	BASEPRI, r3
 8008a54:	f3bf 8f6f 	isb	sy
 8008a58:	f3bf 8f4f 	dsb	sy
		xNextTaskUnblockTime = portMAX_DELAY;
 8008a5c:	f04f 34ff 	mov.w	r4, #4294967295
		xSchedulerRunning = pdTRUE;
 8008a60:	2101      	movs	r1, #1
		xTickCount = ( TickType_t ) 0U;
 8008a62:	2200      	movs	r2, #0
 8008a64:	4b2b      	ldr	r3, [pc, #172]	; (8008b14 <vTaskStartScheduler+0x1b8>)
		xNextTaskUnblockTime = portMAX_DELAY;
 8008a66:	482c      	ldr	r0, [pc, #176]	; (8008b18 <vTaskStartScheduler+0x1bc>)
 8008a68:	6004      	str	r4, [r0, #0]
		xSchedulerRunning = pdTRUE;
 8008a6a:	6031      	str	r1, [r6, #0]
		xTickCount = ( TickType_t ) 0U;
 8008a6c:	601a      	str	r2, [r3, #0]
}
 8008a6e:	e8bd 43f8 	ldmia.w	sp!, {r3, r4, r5, r6, r7, r8, r9, lr}
		if( xPortStartScheduler() != pdFALSE )
 8008a72:	f000 bd1b 	b.w	80094ac <xPortStartScheduler>
				if( pxCurrentTCB->uxPriority <= pxNewTCB->uxPriority )
 8008a76:	683b      	ldr	r3, [r7, #0]
 8008a78:	4d24      	ldr	r5, [pc, #144]	; (8008b0c <vTaskStartScheduler+0x1b0>)
 8008a7a:	6adb      	ldr	r3, [r3, #44]	; 0x2c
 8008a7c:	4283      	cmp	r3, r0
					pxCurrentTCB = pxNewTCB;
 8008a7e:	bf98      	it	ls
 8008a80:	603c      	strls	r4, [r7, #0]
 8008a82:	e7bb      	b.n	80089fc <vTaskStartScheduler+0xa0>
			pxCurrentTCB = pxNewTCB;
 8008a84:	603c      	str	r4, [r7, #0]
			if( uxCurrentNumberOfTasks == ( UBaseType_t ) 1 )
 8008a86:	681b      	ldr	r3, [r3, #0]
 8008a88:	2b01      	cmp	r3, #1
 8008a8a:	d00f      	beq.n	8008aac <vTaskStartScheduler+0x150>
 8008a8c:	6ae0      	ldr	r0, [r4, #44]	; 0x2c
 8008a8e:	4d1f      	ldr	r5, [pc, #124]	; (8008b0c <vTaskStartScheduler+0x1b0>)
 8008a90:	4e1d      	ldr	r6, [pc, #116]	; (8008b08 <vTaskStartScheduler+0x1ac>)
 8008a92:	e7b3      	b.n	80089fc <vTaskStartScheduler+0xa0>
					vPortFree( pxStack );
 8008a94:	4630      	mov	r0, r6
 8008a96:	f000 fe53 	bl	8009740 <vPortFree>
 8008a9a:	f04f 0350 	mov.w	r3, #80	; 0x50
 8008a9e:	f383 8811 	msr	BASEPRI, r3
 8008aa2:	f3bf 8f6f 	isb	sy
 8008aa6:	f3bf 8f4f 	dsb	sy
 8008aaa:	e7fe      	b.n	8008aaa <vTaskStartScheduler+0x14e>
 8008aac:	4d17      	ldr	r5, [pc, #92]	; (8008b0c <vTaskStartScheduler+0x1b0>)
 8008aae:	462e      	mov	r6, r5
 8008ab0:	f105 098c 	add.w	r9, r5, #140	; 0x8c
		vListInitialise( &( pxReadyTasksLists[ uxPriority ] ) );
 8008ab4:	4630      	mov	r0, r6
 8008ab6:	3614      	adds	r6, #20
 8008ab8:	f7ff f89e 	bl	8007bf8 <vListInitialise>
	for( uxPriority = ( UBaseType_t ) 0U; uxPriority < ( UBaseType_t ) configMAX_PRIORITIES; uxPriority++ )
 8008abc:	45b1      	cmp	r9, r6
 8008abe:	d1f9      	bne.n	8008ab4 <vTaskStartScheduler+0x158>
	vListInitialise( &xDelayedTaskList1 );
 8008ac0:	f8df 9078 	ldr.w	r9, [pc, #120]	; 8008b3c <vTaskStartScheduler+0x1e0>
	vListInitialise( &xDelayedTaskList2 );
 8008ac4:	4e15      	ldr	r6, [pc, #84]	; (8008b1c <vTaskStartScheduler+0x1c0>)
	vListInitialise( &xDelayedTaskList1 );
 8008ac6:	4648      	mov	r0, r9
 8008ac8:	f7ff f896 	bl	8007bf8 <vListInitialise>
	vListInitialise( &xDelayedTaskList2 );
 8008acc:	4630      	mov	r0, r6
 8008ace:	f7ff f893 	bl	8007bf8 <vListInitialise>
	vListInitialise( &xPendingReadyList );
 8008ad2:	4813      	ldr	r0, [pc, #76]	; (8008b20 <vTaskStartScheduler+0x1c4>)
 8008ad4:	f7ff f890 	bl	8007bf8 <vListInitialise>
		vListInitialise( &xTasksWaitingTermination );
 8008ad8:	4812      	ldr	r0, [pc, #72]	; (8008b24 <vTaskStartScheduler+0x1c8>)
 8008ada:	f7ff f88d 	bl	8007bf8 <vListInitialise>
		vListInitialise( &xSuspendedTaskList );
 8008ade:	4812      	ldr	r0, [pc, #72]	; (8008b28 <vTaskStartScheduler+0x1cc>)
 8008ae0:	f7ff f88a 	bl	8007bf8 <vListInitialise>
	pxDelayedTaskList = &xDelayedTaskList1;
 8008ae4:	4a11      	ldr	r2, [pc, #68]	; (8008b2c <vTaskStartScheduler+0x1d0>)
	pxOverflowDelayedTaskList = &xDelayedTaskList2;
 8008ae6:	4b12      	ldr	r3, [pc, #72]	; (8008b30 <vTaskStartScheduler+0x1d4>)
	pxDelayedTaskList = &xDelayedTaskList1;
 8008ae8:	f8c2 9000 	str.w	r9, [r2]
 8008aec:	6ae0      	ldr	r0, [r4, #44]	; 0x2c
	pxOverflowDelayedTaskList = &xDelayedTaskList2;
 8008aee:	601e      	str	r6, [r3, #0]
 8008af0:	4e05      	ldr	r6, [pc, #20]	; (8008b08 <vTaskStartScheduler+0x1ac>)
 8008af2:	e783      	b.n	80089fc <vTaskStartScheduler+0xa0>
 8008af4:	454c4449 	.word	0x454c4449
 8008af8:	080085e5 	.word	0x080085e5
 8008afc:	2000019c 	.word	0x2000019c
 8008b00:	2000015c 	.word	0x2000015c
 8008b04:	200000c4 	.word	0x200000c4
 8008b08:	200001bc 	.word	0x200001bc
 8008b0c:	200000d0 	.word	0x200000d0
 8008b10:	e000ed04 	.word	0xe000ed04
 8008b14:	200001e8 	.word	0x200001e8
 8008b18:	200001a0 	.word	0x200001a0
 8008b1c:	20000188 	.word	0x20000188
 8008b20:	200001a8 	.word	0x200001a8
 8008b24:	200001d4 	.word	0x200001d4
 8008b28:	200001c0 	.word	0x200001c0
 8008b2c:	200000c8 	.word	0x200000c8
 8008b30:	200000cc 	.word	0x200000cc
 8008b34:	20000170 	.word	0x20000170
 8008b38:	2000016c 	.word	0x2000016c
 8008b3c:	20000174 	.word	0x20000174

08008b40 <vTaskSuspendAll>:
	++uxSchedulerSuspended;
 8008b40:	4a02      	ldr	r2, [pc, #8]	; (8008b4c <vTaskSuspendAll+0xc>)
 8008b42:	6813      	ldr	r3, [r2, #0]
 8008b44:	3301      	adds	r3, #1
 8008b46:	6013      	str	r3, [r2, #0]
}
 8008b48:	4770      	bx	lr
 8008b4a:	bf00      	nop
 8008b4c:	20000168 	.word	0x20000168

08008b50 <xTaskIncrementTick>:
{
 8008b50:	e92d 4ff8 	stmdb	sp!, {r3, r4, r5, r6, r7, r8, r9, sl, fp, lr}
	if( uxSchedulerSuspended == ( UBaseType_t ) pdFALSE )
 8008b54:	4b49      	ldr	r3, [pc, #292]	; (8008c7c <xTaskIncrementTick+0x12c>)
 8008b56:	681b      	ldr	r3, [r3, #0]
 8008b58:	b9cb      	cbnz	r3, 8008b8e <xTaskIncrementTick+0x3e>
		const TickType_t xConstTickCount = xTickCount + ( TickType_t ) 1;
 8008b5a:	4b49      	ldr	r3, [pc, #292]	; (8008c80 <xTaskIncrementTick+0x130>)
 8008b5c:	681e      	ldr	r6, [r3, #0]
 8008b5e:	3601      	adds	r6, #1
		xTickCount = xConstTickCount;
 8008b60:	601e      	str	r6, [r3, #0]
		if( xConstTickCount == ( TickType_t ) 0U ) /*lint !e774 'if' does not always evaluate to false as it is looking for an overflow. */
 8008b62:	b30e      	cbz	r6, 8008ba8 <xTaskIncrementTick+0x58>
 8008b64:	f8df b138 	ldr.w	fp, [pc, #312]	; 8008ca0 <xTaskIncrementTick+0x150>
		if( xConstTickCount >= xNextTaskUnblockTime )
 8008b68:	f8db 2000 	ldr.w	r2, [fp]
BaseType_t xSwitchRequired = pdFALSE;
 8008b6c:	2500      	movs	r5, #0
		if( xConstTickCount >= xNextTaskUnblockTime )
 8008b6e:	42b2      	cmp	r2, r6
 8008b70:	d928      	bls.n	8008bc4 <xTaskIncrementTick+0x74>
 8008b72:	4f44      	ldr	r7, [pc, #272]	; (8008c84 <xTaskIncrementTick+0x134>)
 8008b74:	f8df 812c 	ldr.w	r8, [pc, #300]	; 8008ca4 <xTaskIncrementTick+0x154>
			if( listCURRENT_LIST_LENGTH( &( pxReadyTasksLists[ pxCurrentTCB->uxPriority ] ) ) > ( UBaseType_t ) 1 )
 8008b78:	f8d8 3000 	ldr.w	r3, [r8]
 8008b7c:	6adb      	ldr	r3, [r3, #44]	; 0x2c
 8008b7e:	eb03 0383 	add.w	r3, r3, r3, lsl #2
 8008b82:	009b      	lsls	r3, r3, #2
 8008b84:	58fb      	ldr	r3, [r7, r3]
				xSwitchRequired = pdTRUE;
 8008b86:	2b02      	cmp	r3, #2
 8008b88:	bf28      	it	cs
 8008b8a:	2501      	movcs	r5, #1
 8008b8c:	e004      	b.n	8008b98 <xTaskIncrementTick+0x48>
BaseType_t xSwitchRequired = pdFALSE;
 8008b8e:	2500      	movs	r5, #0
		++uxPendedTicks;
 8008b90:	4a3d      	ldr	r2, [pc, #244]	; (8008c88 <xTaskIncrementTick+0x138>)
 8008b92:	6813      	ldr	r3, [r2, #0]
 8008b94:	3301      	adds	r3, #1
 8008b96:	6013      	str	r3, [r2, #0]
		if( xYieldPending != pdFALSE )
 8008b98:	4b3c      	ldr	r3, [pc, #240]	; (8008c8c <xTaskIncrementTick+0x13c>)
 8008b9a:	681b      	ldr	r3, [r3, #0]
			xSwitchRequired = pdTRUE;
 8008b9c:	2b00      	cmp	r3, #0
}
 8008b9e:	bf0c      	ite	eq
 8008ba0:	4628      	moveq	r0, r5
 8008ba2:	2001      	movne	r0, #1
 8008ba4:	e8bd 8ff8 	ldmia.w	sp!, {r3, r4, r5, r6, r7, r8, r9, sl, fp, pc}
			taskSWITCH_DELAYED_LISTS();
 8008ba8:	4c39      	ldr	r4, [pc, #228]	; (8008c90 <xTaskIncrementTick+0x140>)
 8008baa:	6823      	ldr	r3, [r4, #0]
 8008bac:	681b      	ldr	r3, [r3, #0]
 8008bae:	2b00      	cmp	r3, #0
 8008bb0:	d047      	beq.n	8008c42 <xTaskIncrementTick+0xf2>
 8008bb2:	f04f 0350 	mov.w	r3, #80	; 0x50
 8008bb6:	f383 8811 	msr	BASEPRI, r3
 8008bba:	f3bf 8f6f 	isb	sy
 8008bbe:	f3bf 8f4f 	dsb	sy
 8008bc2:	e7fe      	b.n	8008bc2 <xTaskIncrementTick+0x72>
 8008bc4:	4c32      	ldr	r4, [pc, #200]	; (8008c90 <xTaskIncrementTick+0x140>)
 8008bc6:	4f2f      	ldr	r7, [pc, #188]	; (8008c84 <xTaskIncrementTick+0x134>)
 8008bc8:	f8df 80d8 	ldr.w	r8, [pc, #216]	; 8008ca4 <xTaskIncrementTick+0x154>
 8008bcc:	e02d      	b.n	8008c2a <xTaskIncrementTick+0xda>
					pxTCB = ( TCB_t * ) listGET_OWNER_OF_HEAD_ENTRY( pxDelayedTaskList );
 8008bce:	6822      	ldr	r2, [r4, #0]
 8008bd0:	68d2      	ldr	r2, [r2, #12]
 8008bd2:	f8d2 900c 	ldr.w	r9, [r2, #12]
					xItemValue = listGET_LIST_ITEM_VALUE( &( pxTCB->xStateListItem ) );
 8008bd6:	f8d9 1004 	ldr.w	r1, [r9, #4]
					( void ) uxListRemove( &( pxTCB->xStateListItem ) );
 8008bda:	f109 0a04 	add.w	sl, r9, #4
					if( xConstTickCount < xItemValue )
 8008bde:	428e      	cmp	r6, r1
 8008be0:	d32c      	bcc.n	8008c3c <xTaskIncrementTick+0xec>
					( void ) uxListRemove( &( pxTCB->xStateListItem ) );
 8008be2:	4650      	mov	r0, sl
 8008be4:	f7ff f840 	bl	8007c68 <uxListRemove>
					if( listLIST_ITEM_CONTAINER( &( pxTCB->xEventListItem ) ) != NULL )
 8008be8:	f8d9 1028 	ldr.w	r1, [r9, #40]	; 0x28
						( void ) uxListRemove( &( pxTCB->xEventListItem ) );
 8008bec:	f109 0018 	add.w	r0, r9, #24
					if( listLIST_ITEM_CONTAINER( &( pxTCB->xEventListItem ) ) != NULL )
 8008bf0:	b109      	cbz	r1, 8008bf6 <xTaskIncrementTick+0xa6>
						( void ) uxListRemove( &( pxTCB->xEventListItem ) );
 8008bf2:	f7ff f839 	bl	8007c68 <uxListRemove>
					prvAddTaskToReadyList( pxTCB );
 8008bf6:	2101      	movs	r1, #1
 8008bf8:	4a26      	ldr	r2, [pc, #152]	; (8008c94 <xTaskIncrementTick+0x144>)
 8008bfa:	f8d9 002c 	ldr.w	r0, [r9, #44]	; 0x2c
 8008bfe:	6813      	ldr	r3, [r2, #0]
 8008c00:	fa01 fc00 	lsl.w	ip, r1, r0
 8008c04:	eb00 0080 	add.w	r0, r0, r0, lsl #2
 8008c08:	4651      	mov	r1, sl
 8008c0a:	eb07 0080 	add.w	r0, r7, r0, lsl #2
 8008c0e:	ea4c 0c03 	orr.w	ip, ip, r3
 8008c12:	f8c2 c000 	str.w	ip, [r2]
 8008c16:	f7fe ffff 	bl	8007c18 <vListInsertEnd>
						if( pxTCB->uxPriority >= pxCurrentTCB->uxPriority )
 8008c1a:	f8d8 0000 	ldr.w	r0, [r8]
 8008c1e:	f8d9 102c 	ldr.w	r1, [r9, #44]	; 0x2c
 8008c22:	6ac2      	ldr	r2, [r0, #44]	; 0x2c
							xSwitchRequired = pdTRUE;
 8008c24:	4291      	cmp	r1, r2
 8008c26:	bf28      	it	cs
 8008c28:	2501      	movcs	r5, #1
				if( listLIST_IS_EMPTY( pxDelayedTaskList ) != pdFALSE )
 8008c2a:	6822      	ldr	r2, [r4, #0]
 8008c2c:	6812      	ldr	r2, [r2, #0]
 8008c2e:	2a00      	cmp	r2, #0
 8008c30:	d1cd      	bne.n	8008bce <xTaskIncrementTick+0x7e>
					xNextTaskUnblockTime = portMAX_DELAY; /*lint !e961 MISRA exception as the casts are only redundant for some ports. */
 8008c32:	f04f 32ff 	mov.w	r2, #4294967295
 8008c36:	f8cb 2000 	str.w	r2, [fp]
					break;
 8008c3a:	e79d      	b.n	8008b78 <xTaskIncrementTick+0x28>
						xNextTaskUnblockTime = xItemValue;
 8008c3c:	f8cb 1000 	str.w	r1, [fp]
						break;
 8008c40:	e79a      	b.n	8008b78 <xTaskIncrementTick+0x28>
			taskSWITCH_DELAYED_LISTS();
 8008c42:	4b15      	ldr	r3, [pc, #84]	; (8008c98 <xTaskIncrementTick+0x148>)
 8008c44:	6821      	ldr	r1, [r4, #0]
 8008c46:	6818      	ldr	r0, [r3, #0]
 8008c48:	4a14      	ldr	r2, [pc, #80]	; (8008c9c <xTaskIncrementTick+0x14c>)
 8008c4a:	6020      	str	r0, [r4, #0]
 8008c4c:	6019      	str	r1, [r3, #0]
 8008c4e:	6813      	ldr	r3, [r2, #0]
 8008c50:	3301      	adds	r3, #1
 8008c52:	6013      	str	r3, [r2, #0]
	if( listLIST_IS_EMPTY( pxDelayedTaskList ) != pdFALSE )
 8008c54:	6823      	ldr	r3, [r4, #0]
 8008c56:	681b      	ldr	r3, [r3, #0]
 8008c58:	b933      	cbnz	r3, 8008c68 <xTaskIncrementTick+0x118>
		xNextTaskUnblockTime = portMAX_DELAY;
 8008c5a:	f04f 32ff 	mov.w	r2, #4294967295
 8008c5e:	f8df b040 	ldr.w	fp, [pc, #64]	; 8008ca0 <xTaskIncrementTick+0x150>
 8008c62:	f8cb 2000 	str.w	r2, [fp]
 8008c66:	e77f      	b.n	8008b68 <xTaskIncrementTick+0x18>
		( pxTCB ) = ( TCB_t * ) listGET_OWNER_OF_HEAD_ENTRY( pxDelayedTaskList );
 8008c68:	6822      	ldr	r2, [r4, #0]
		xNextTaskUnblockTime = listGET_LIST_ITEM_VALUE( &( ( pxTCB )->xStateListItem ) );
 8008c6a:	f8df b034 	ldr.w	fp, [pc, #52]	; 8008ca0 <xTaskIncrementTick+0x150>
		( pxTCB ) = ( TCB_t * ) listGET_OWNER_OF_HEAD_ENTRY( pxDelayedTaskList );
 8008c6e:	68d2      	ldr	r2, [r2, #12]
		xNextTaskUnblockTime = listGET_LIST_ITEM_VALUE( &( ( pxTCB )->xStateListItem ) );
 8008c70:	68d2      	ldr	r2, [r2, #12]
 8008c72:	6852      	ldr	r2, [r2, #4]
 8008c74:	f8cb 2000 	str.w	r2, [fp]
 8008c78:	e776      	b.n	8008b68 <xTaskIncrementTick+0x18>
 8008c7a:	bf00      	nop
 8008c7c:	20000168 	.word	0x20000168
 8008c80:	200001e8 	.word	0x200001e8
 8008c84:	200000d0 	.word	0x200000d0
 8008c88:	20000164 	.word	0x20000164
 8008c8c:	200001ec 	.word	0x200001ec
 8008c90:	200000c8 	.word	0x200000c8
 8008c94:	20000170 	.word	0x20000170
 8008c98:	200000cc 	.word	0x200000cc
 8008c9c:	200001a4 	.word	0x200001a4
 8008ca0:	200001a0 	.word	0x200001a0
 8008ca4:	200000c4 	.word	0x200000c4

08008ca8 <xTaskResumeAll>:
{
 8008ca8:	e92d 4ff8 	stmdb	sp!, {r3, r4, r5, r6, r7, r8, r9, sl, fp, lr}
	configASSERT( uxSchedulerSuspended );
 8008cac:	4c38      	ldr	r4, [pc, #224]	; (8008d90 <xTaskResumeAll+0xe8>)
 8008cae:	6823      	ldr	r3, [r4, #0]
 8008cb0:	b943      	cbnz	r3, 8008cc4 <xTaskResumeAll+0x1c>
 8008cb2:	f04f 0350 	mov.w	r3, #80	; 0x50
 8008cb6:	f383 8811 	msr	BASEPRI, r3
 8008cba:	f3bf 8f6f 	isb	sy
 8008cbe:	f3bf 8f4f 	dsb	sy
 8008cc2:	e7fe      	b.n	8008cc2 <xTaskResumeAll+0x1a>
	taskENTER_CRITICAL();
 8008cc4:	f000 fb66 	bl	8009394 <vPortEnterCritical>
		--uxSchedulerSuspended;
 8008cc8:	6823      	ldr	r3, [r4, #0]
 8008cca:	3b01      	subs	r3, #1
 8008ccc:	6023      	str	r3, [r4, #0]
		if( uxSchedulerSuspended == ( UBaseType_t ) pdFALSE )
 8008cce:	6824      	ldr	r4, [r4, #0]
 8008cd0:	bb7c      	cbnz	r4, 8008d32 <xTaskResumeAll+0x8a>
			if( uxCurrentNumberOfTasks > ( UBaseType_t ) 0U )
 8008cd2:	4b30      	ldr	r3, [pc, #192]	; (8008d94 <xTaskResumeAll+0xec>)
 8008cd4:	681b      	ldr	r3, [r3, #0]
 8008cd6:	b363      	cbz	r3, 8008d32 <xTaskResumeAll+0x8a>
 8008cd8:	4d2f      	ldr	r5, [pc, #188]	; (8008d98 <xTaskResumeAll+0xf0>)
 8008cda:	f8df a0d4 	ldr.w	sl, [pc, #212]	; 8008db0 <xTaskResumeAll+0x108>
					prvAddTaskToReadyList( pxTCB );
 8008cde:	4e2f      	ldr	r6, [pc, #188]	; (8008d9c <xTaskResumeAll+0xf4>)
 8008ce0:	f8df 90d0 	ldr.w	r9, [pc, #208]	; 8008db4 <xTaskResumeAll+0x10c>
					if( pxTCB->uxPriority >= pxCurrentTCB->uxPriority )
 8008ce4:	f8df b0d0 	ldr.w	fp, [pc, #208]	; 8008db8 <xTaskResumeAll+0x110>
				while( listLIST_IS_EMPTY( &xPendingReadyList ) == pdFALSE )
 8008ce8:	f8da 3000 	ldr.w	r3, [sl]
 8008cec:	b33b      	cbz	r3, 8008d3e <xTaskResumeAll+0x96>
					prvAddTaskToReadyList( pxTCB );
 8008cee:	2701      	movs	r7, #1
					pxTCB = ( TCB_t * ) listGET_OWNER_OF_HEAD_ENTRY( ( &xPendingReadyList ) );
 8008cf0:	f8da 300c 	ldr.w	r3, [sl, #12]
 8008cf4:	68dc      	ldr	r4, [r3, #12]
					( void ) uxListRemove( &( pxTCB->xStateListItem ) );
 8008cf6:	f104 0804 	add.w	r8, r4, #4
					( void ) uxListRemove( &( pxTCB->xEventListItem ) );
 8008cfa:	f104 0018 	add.w	r0, r4, #24
 8008cfe:	f7fe ffb3 	bl	8007c68 <uxListRemove>
					( void ) uxListRemove( &( pxTCB->xStateListItem ) );
 8008d02:	4640      	mov	r0, r8
 8008d04:	f7fe ffb0 	bl	8007c68 <uxListRemove>
					prvAddTaskToReadyList( pxTCB );
 8008d08:	6ae0      	ldr	r0, [r4, #44]	; 0x2c
 8008d0a:	6832      	ldr	r2, [r6, #0]
 8008d0c:	fa07 f300 	lsl.w	r3, r7, r0
 8008d10:	eb00 0080 	add.w	r0, r0, r0, lsl #2
 8008d14:	4313      	orrs	r3, r2
 8008d16:	4641      	mov	r1, r8
 8008d18:	eb09 0080 	add.w	r0, r9, r0, lsl #2
 8008d1c:	6033      	str	r3, [r6, #0]
 8008d1e:	f7fe ff7b 	bl	8007c18 <vListInsertEnd>
					if( pxTCB->uxPriority >= pxCurrentTCB->uxPriority )
 8008d22:	f8db 3000 	ldr.w	r3, [fp]
 8008d26:	6ae2      	ldr	r2, [r4, #44]	; 0x2c
 8008d28:	6adb      	ldr	r3, [r3, #44]	; 0x2c
 8008d2a:	429a      	cmp	r2, r3
 8008d2c:	d3dc      	bcc.n	8008ce8 <xTaskResumeAll+0x40>
						xYieldPending = pdTRUE;
 8008d2e:	602f      	str	r7, [r5, #0]
 8008d30:	e7da      	b.n	8008ce8 <xTaskResumeAll+0x40>
BaseType_t xAlreadyYielded = pdFALSE;
 8008d32:	2400      	movs	r4, #0
	taskEXIT_CRITICAL();
 8008d34:	f000 fb50 	bl	80093d8 <vPortExitCritical>
}
 8008d38:	4620      	mov	r0, r4
 8008d3a:	e8bd 8ff8 	ldmia.w	sp!, {r3, r4, r5, r6, r7, r8, r9, sl, fp, pc}
				if( pxTCB != NULL )
 8008d3e:	b13c      	cbz	r4, 8008d50 <xTaskResumeAll+0xa8>
	if( listLIST_IS_EMPTY( pxDelayedTaskList ) != pdFALSE )
 8008d40:	4b17      	ldr	r3, [pc, #92]	; (8008da0 <xTaskResumeAll+0xf8>)
 8008d42:	681a      	ldr	r2, [r3, #0]
 8008d44:	6812      	ldr	r2, [r2, #0]
 8008d46:	b9da      	cbnz	r2, 8008d80 <xTaskResumeAll+0xd8>
		xNextTaskUnblockTime = portMAX_DELAY;
 8008d48:	f04f 32ff 	mov.w	r2, #4294967295
 8008d4c:	4b15      	ldr	r3, [pc, #84]	; (8008da4 <xTaskResumeAll+0xfc>)
 8008d4e:	601a      	str	r2, [r3, #0]
					UBaseType_t uxPendedCounts = uxPendedTicks; /* Non-volatile copy. */
 8008d50:	4e15      	ldr	r6, [pc, #84]	; (8008da8 <xTaskResumeAll+0x100>)
 8008d52:	6834      	ldr	r4, [r6, #0]
					if( uxPendedCounts > ( UBaseType_t ) 0U )
 8008d54:	b13c      	cbz	r4, 8008d66 <xTaskResumeAll+0xbe>
								xYieldPending = pdTRUE;
 8008d56:	2701      	movs	r7, #1
							if( xTaskIncrementTick() != pdFALSE )
 8008d58:	f7ff fefa 	bl	8008b50 <xTaskIncrementTick>
 8008d5c:	b100      	cbz	r0, 8008d60 <xTaskResumeAll+0xb8>
								xYieldPending = pdTRUE;
 8008d5e:	602f      	str	r7, [r5, #0]
						} while( uxPendedCounts > ( UBaseType_t ) 0U );
 8008d60:	3c01      	subs	r4, #1
 8008d62:	d1f9      	bne.n	8008d58 <xTaskResumeAll+0xb0>
						uxPendedTicks = 0;
 8008d64:	6034      	str	r4, [r6, #0]
				if( xYieldPending != pdFALSE )
 8008d66:	682b      	ldr	r3, [r5, #0]
 8008d68:	2b00      	cmp	r3, #0
 8008d6a:	d0e2      	beq.n	8008d32 <xTaskResumeAll+0x8a>
					taskYIELD_IF_USING_PREEMPTION();
 8008d6c:	f04f 5280 	mov.w	r2, #268435456	; 0x10000000
 8008d70:	4b0e      	ldr	r3, [pc, #56]	; (8008dac <xTaskResumeAll+0x104>)
 8008d72:	601a      	str	r2, [r3, #0]
 8008d74:	f3bf 8f4f 	dsb	sy
 8008d78:	f3bf 8f6f 	isb	sy
						xAlreadyYielded = pdTRUE;
 8008d7c:	2401      	movs	r4, #1
 8008d7e:	e7d9      	b.n	8008d34 <xTaskResumeAll+0x8c>
		( pxTCB ) = ( TCB_t * ) listGET_OWNER_OF_HEAD_ENTRY( pxDelayedTaskList );
 8008d80:	681a      	ldr	r2, [r3, #0]
		xNextTaskUnblockTime = listGET_LIST_ITEM_VALUE( &( ( pxTCB )->xStateListItem ) );
 8008d82:	4b08      	ldr	r3, [pc, #32]	; (8008da4 <xTaskResumeAll+0xfc>)
		( pxTCB ) = ( TCB_t * ) listGET_OWNER_OF_HEAD_ENTRY( pxDelayedTaskList );
 8008d84:	68d2      	ldr	r2, [r2, #12]
		xNextTaskUnblockTime = listGET_LIST_ITEM_VALUE( &( ( pxTCB )->xStateListItem ) );
 8008d86:	68d2      	ldr	r2, [r2, #12]
 8008d88:	6852      	ldr	r2, [r2, #4]
 8008d8a:	601a      	str	r2, [r3, #0]
 8008d8c:	e7e0      	b.n	8008d50 <xTaskResumeAll+0xa8>
 8008d8e:	bf00      	nop
 8008d90:	20000168 	.word	0x20000168
 8008d94:	2000015c 	.word	0x2000015c
 8008d98:	200001ec 	.word	0x200001ec
 8008d9c:	20000170 	.word	0x20000170
 8008da0:	200000c8 	.word	0x200000c8
 8008da4:	200001a0 	.word	0x200001a0
 8008da8:	20000164 	.word	0x20000164
 8008dac:	e000ed04 	.word	0xe000ed04
 8008db0:	200001a8 	.word	0x200001a8
 8008db4:	200000d0 	.word	0x200000d0
 8008db8:	200000c4 	.word	0x200000c4

08008dbc <vTaskDelay>:
	{
 8008dbc:	b508      	push	{r3, lr}
		if( xTicksToDelay > ( TickType_t ) 0U )
 8008dbe:	b198      	cbz	r0, 8008de8 <vTaskDelay+0x2c>
			configASSERT( uxSchedulerSuspended == 0 );
 8008dc0:	4b0e      	ldr	r3, [pc, #56]	; (8008dfc <vTaskDelay+0x40>)
 8008dc2:	6819      	ldr	r1, [r3, #0]
 8008dc4:	b141      	cbz	r1, 8008dd8 <vTaskDelay+0x1c>
 8008dc6:	f04f 0350 	mov.w	r3, #80	; 0x50
 8008dca:	f383 8811 	msr	BASEPRI, r3
 8008dce:	f3bf 8f6f 	isb	sy
 8008dd2:	f3bf 8f4f 	dsb	sy
 8008dd6:	e7fe      	b.n	8008dd6 <vTaskDelay+0x1a>
	++uxSchedulerSuspended;
 8008dd8:	681a      	ldr	r2, [r3, #0]
 8008dda:	3201      	adds	r2, #1
 8008ddc:	601a      	str	r2, [r3, #0]
				prvAddCurrentTaskToDelayedList( xTicksToDelay, pdFALSE );
 8008dde:	f7ff fc3b 	bl	8008658 <prvAddCurrentTaskToDelayedList>
			xAlreadyYielded = xTaskResumeAll();
 8008de2:	f7ff ff61 	bl	8008ca8 <xTaskResumeAll>
		if( xAlreadyYielded == pdFALSE )
 8008de6:	b938      	cbnz	r0, 8008df8 <vTaskDelay+0x3c>
			portYIELD_WITHIN_API();
 8008de8:	f04f 5280 	mov.w	r2, #268435456	; 0x10000000
 8008dec:	4b04      	ldr	r3, [pc, #16]	; (8008e00 <vTaskDelay+0x44>)
 8008dee:	601a      	str	r2, [r3, #0]
 8008df0:	f3bf 8f4f 	dsb	sy
 8008df4:	f3bf 8f6f 	isb	sy
	}
 8008df8:	bd08      	pop	{r3, pc}
 8008dfa:	bf00      	nop
 8008dfc:	20000168 	.word	0x20000168
 8008e00:	e000ed04 	.word	0xe000ed04

08008e04 <vTaskSwitchContext>:
{
 8008e04:	b538      	push	{r3, r4, r5, lr}
	if( uxSchedulerSuspended != ( UBaseType_t ) pdFALSE )
 8008e06:	4b24      	ldr	r3, [pc, #144]	; (8008e98 <vTaskSwitchContext+0x94>)
 8008e08:	681b      	ldr	r3, [r3, #0]
 8008e0a:	2b00      	cmp	r3, #0
 8008e0c:	d131      	bne.n	8008e72 <vTaskSwitchContext+0x6e>
		xYieldPending = pdFALSE;
 8008e0e:	4a23      	ldr	r2, [pc, #140]	; (8008e9c <vTaskSwitchContext+0x98>)
		taskCHECK_FOR_STACK_OVERFLOW();
 8008e10:	4c23      	ldr	r4, [pc, #140]	; (8008ea0 <vTaskSwitchContext+0x9c>)
		xYieldPending = pdFALSE;
 8008e12:	6013      	str	r3, [r2, #0]
		taskCHECK_FOR_STACK_OVERFLOW();
 8008e14:	6823      	ldr	r3, [r4, #0]
 8008e16:	6b1b      	ldr	r3, [r3, #48]	; 0x30
 8008e18:	681a      	ldr	r2, [r3, #0]
 8008e1a:	f1b2 3fa5 	cmp.w	r2, #2779096485	; 0xa5a5a5a5
 8008e1e:	d10b      	bne.n	8008e38 <vTaskSwitchContext+0x34>
 8008e20:	685a      	ldr	r2, [r3, #4]
 8008e22:	f1b2 3fa5 	cmp.w	r2, #2779096485	; 0xa5a5a5a5
 8008e26:	d107      	bne.n	8008e38 <vTaskSwitchContext+0x34>
 8008e28:	689a      	ldr	r2, [r3, #8]
 8008e2a:	f1b2 3fa5 	cmp.w	r2, #2779096485	; 0xa5a5a5a5
 8008e2e:	d103      	bne.n	8008e38 <vTaskSwitchContext+0x34>
 8008e30:	68db      	ldr	r3, [r3, #12]
 8008e32:	f1b3 3fa5 	cmp.w	r3, #2779096485	; 0xa5a5a5a5
 8008e36:	d004      	beq.n	8008e42 <vTaskSwitchContext+0x3e>
 8008e38:	6820      	ldr	r0, [r4, #0]
 8008e3a:	6821      	ldr	r1, [r4, #0]
 8008e3c:	3134      	adds	r1, #52	; 0x34
 8008e3e:	f7f7 fb4b 	bl	80004d8 <vApplicationStackOverflowHook>
		taskSELECT_HIGHEST_PRIORITY_TASK();
 8008e42:	4b18      	ldr	r3, [pc, #96]	; (8008ea4 <vTaskSwitchContext+0xa0>)
 8008e44:	681b      	ldr	r3, [r3, #0]
		__asm volatile ( "clz %0, %1" : "=r" ( ucReturn ) : "r" ( ulBitmap ) : "memory" );
 8008e46:	fab3 f383 	clz	r3, r3
 8008e4a:	b2db      	uxtb	r3, r3
 8008e4c:	f1c3 031f 	rsb	r3, r3, #31
 8008e50:	4815      	ldr	r0, [pc, #84]	; (8008ea8 <vTaskSwitchContext+0xa4>)
 8008e52:	eb03 0283 	add.w	r2, r3, r3, lsl #2
 8008e56:	0092      	lsls	r2, r2, #2
 8008e58:	5881      	ldr	r1, [r0, r2]
 8008e5a:	1885      	adds	r5, r0, r2
 8008e5c:	b169      	cbz	r1, 8008e7a <vTaskSwitchContext+0x76>
 8008e5e:	6869      	ldr	r1, [r5, #4]
 8008e60:	3208      	adds	r2, #8
 8008e62:	6849      	ldr	r1, [r1, #4]
 8008e64:	4402      	add	r2, r0
 8008e66:	4291      	cmp	r1, r2
 8008e68:	6069      	str	r1, [r5, #4]
 8008e6a:	d00f      	beq.n	8008e8c <vTaskSwitchContext+0x88>
 8008e6c:	68cb      	ldr	r3, [r1, #12]
 8008e6e:	6023      	str	r3, [r4, #0]
}
 8008e70:	bd38      	pop	{r3, r4, r5, pc}
		xYieldPending = pdTRUE;
 8008e72:	2201      	movs	r2, #1
 8008e74:	4b09      	ldr	r3, [pc, #36]	; (8008e9c <vTaskSwitchContext+0x98>)
 8008e76:	601a      	str	r2, [r3, #0]
}
 8008e78:	bd38      	pop	{r3, r4, r5, pc}
	__asm volatile
 8008e7a:	f04f 0350 	mov.w	r3, #80	; 0x50
 8008e7e:	f383 8811 	msr	BASEPRI, r3
 8008e82:	f3bf 8f6f 	isb	sy
 8008e86:	f3bf 8f4f 	dsb	sy
 8008e8a:	e7fe      	b.n	8008e8a <vTaskSwitchContext+0x86>
		taskSELECT_HIGHEST_PRIORITY_TASK();
 8008e8c:	2214      	movs	r2, #20
 8008e8e:	fb02 0303 	mla	r3, r2, r3, r0
 8008e92:	6849      	ldr	r1, [r1, #4]
 8008e94:	6059      	str	r1, [r3, #4]
 8008e96:	e7e9      	b.n	8008e6c <vTaskSwitchContext+0x68>
 8008e98:	20000168 	.word	0x20000168
 8008e9c:	200001ec 	.word	0x200001ec
 8008ea0:	200000c4 	.word	0x200000c4
 8008ea4:	20000170 	.word	0x20000170
 8008ea8:	200000d0 	.word	0x200000d0

08008eac <vTaskPlaceOnEventList>:
	configASSERT( pxEventList );
 8008eac:	b940      	cbnz	r0, 8008ec0 <vTaskPlaceOnEventList+0x14>
 8008eae:	f04f 0350 	mov.w	r3, #80	; 0x50
 8008eb2:	f383 8811 	msr	BASEPRI, r3
 8008eb6:	f3bf 8f6f 	isb	sy
 8008eba:	f3bf 8f4f 	dsb	sy
 8008ebe:	e7fe      	b.n	8008ebe <vTaskPlaceOnEventList+0x12>
{
 8008ec0:	b570      	push	{r4, r5, r6, lr}
	vListInsert( pxEventList, &( pxCurrentTCB->xEventListItem ) );
 8008ec2:	4d1b      	ldr	r5, [pc, #108]	; (8008f30 <vTaskPlaceOnEventList+0x84>)
 8008ec4:	460c      	mov	r4, r1
 8008ec6:	6829      	ldr	r1, [r5, #0]
 8008ec8:	3118      	adds	r1, #24
 8008eca:	f7fe feb3 	bl	8007c34 <vListInsert>
const TickType_t xConstTickCount = xTickCount;
 8008ece:	4b19      	ldr	r3, [pc, #100]	; (8008f34 <vTaskPlaceOnEventList+0x88>)
 8008ed0:	681e      	ldr	r6, [r3, #0]
	if( uxListRemove( &( pxCurrentTCB->xStateListItem ) ) == ( UBaseType_t ) 0 )
 8008ed2:	6828      	ldr	r0, [r5, #0]
 8008ed4:	3004      	adds	r0, #4
 8008ed6:	f7fe fec7 	bl	8007c68 <uxListRemove>
 8008eda:	b940      	cbnz	r0, 8008eee <vTaskPlaceOnEventList+0x42>
		portRESET_READY_PRIORITY( pxCurrentTCB->uxPriority, uxTopReadyPriority );
 8008edc:	2201      	movs	r2, #1
 8008ede:	682b      	ldr	r3, [r5, #0]
 8008ee0:	4915      	ldr	r1, [pc, #84]	; (8008f38 <vTaskPlaceOnEventList+0x8c>)
 8008ee2:	6ad8      	ldr	r0, [r3, #44]	; 0x2c
 8008ee4:	680b      	ldr	r3, [r1, #0]
 8008ee6:	4082      	lsls	r2, r0
 8008ee8:	ea23 0302 	bic.w	r3, r3, r2
 8008eec:	600b      	str	r3, [r1, #0]
		if( ( xTicksToWait == portMAX_DELAY ) && ( xCanBlockIndefinitely != pdFALSE ) )
 8008eee:	1c63      	adds	r3, r4, #1
 8008ef0:	d00f      	beq.n	8008f12 <vTaskPlaceOnEventList+0x66>
			listSET_LIST_ITEM_VALUE( &( pxCurrentTCB->xStateListItem ), xTimeToWake );
 8008ef2:	682b      	ldr	r3, [r5, #0]
 8008ef4:	19a4      	adds	r4, r4, r6
 8008ef6:	605c      	str	r4, [r3, #4]
			if( xTimeToWake < xConstTickCount )
 8008ef8:	d212      	bcs.n	8008f20 <vTaskPlaceOnEventList+0x74>
				vListInsert( pxDelayedTaskList, &( pxCurrentTCB->xStateListItem ) );
 8008efa:	4b10      	ldr	r3, [pc, #64]	; (8008f3c <vTaskPlaceOnEventList+0x90>)
 8008efc:	6818      	ldr	r0, [r3, #0]
 8008efe:	6829      	ldr	r1, [r5, #0]
 8008f00:	3104      	adds	r1, #4
 8008f02:	f7fe fe97 	bl	8007c34 <vListInsert>
				if( xTimeToWake < xNextTaskUnblockTime )
 8008f06:	4b0e      	ldr	r3, [pc, #56]	; (8008f40 <vTaskPlaceOnEventList+0x94>)
 8008f08:	681a      	ldr	r2, [r3, #0]
 8008f0a:	4294      	cmp	r4, r2
					xNextTaskUnblockTime = xTimeToWake;
 8008f0c:	bf38      	it	cc
 8008f0e:	601c      	strcc	r4, [r3, #0]
}
 8008f10:	bd70      	pop	{r4, r5, r6, pc}
			vListInsertEnd( &xSuspendedTaskList, &( pxCurrentTCB->xStateListItem ) );
 8008f12:	6829      	ldr	r1, [r5, #0]
 8008f14:	480b      	ldr	r0, [pc, #44]	; (8008f44 <vTaskPlaceOnEventList+0x98>)
 8008f16:	3104      	adds	r1, #4
}
 8008f18:	e8bd 4070 	ldmia.w	sp!, {r4, r5, r6, lr}
			vListInsertEnd( &xSuspendedTaskList, &( pxCurrentTCB->xStateListItem ) );
 8008f1c:	f7fe be7c 	b.w	8007c18 <vListInsertEnd>
				vListInsert( pxOverflowDelayedTaskList, &( pxCurrentTCB->xStateListItem ) );
 8008f20:	4b09      	ldr	r3, [pc, #36]	; (8008f48 <vTaskPlaceOnEventList+0x9c>)
 8008f22:	6818      	ldr	r0, [r3, #0]
 8008f24:	6829      	ldr	r1, [r5, #0]
}
 8008f26:	e8bd 4070 	ldmia.w	sp!, {r4, r5, r6, lr}
				vListInsert( pxOverflowDelayedTaskList, &( pxCurrentTCB->xStateListItem ) );
 8008f2a:	3104      	adds	r1, #4
 8008f2c:	f7fe be82 	b.w	8007c34 <vListInsert>
 8008f30:	200000c4 	.word	0x200000c4
 8008f34:	200001e8 	.word	0x200001e8
 8008f38:	20000170 	.word	0x20000170
 8008f3c:	200000c8 	.word	0x200000c8
 8008f40:	200001a0 	.word	0x200001a0
 8008f44:	200001c0 	.word	0x200001c0
 8008f48:	200000cc 	.word	0x200000cc

08008f4c <xTaskRemoveFromEventList>:
{
 8008f4c:	b5f8      	push	{r3, r4, r5, r6, r7, lr}
	pxUnblockedTCB = ( TCB_t * ) listGET_OWNER_OF_HEAD_ENTRY( pxEventList );
 8008f4e:	68c3      	ldr	r3, [r0, #12]
 8008f50:	68dc      	ldr	r4, [r3, #12]
	configASSERT( pxUnblockedTCB );
 8008f52:	b354      	cbz	r4, 8008faa <xTaskRemoveFromEventList+0x5e>
	( void ) uxListRemove( &( pxUnblockedTCB->xEventListItem ) );
 8008f54:	f104 0518 	add.w	r5, r4, #24
 8008f58:	4628      	mov	r0, r5
 8008f5a:	f7fe fe85 	bl	8007c68 <uxListRemove>
	if( uxSchedulerSuspended == ( UBaseType_t ) pdFALSE )
 8008f5e:	4b18      	ldr	r3, [pc, #96]	; (8008fc0 <xTaskRemoveFromEventList+0x74>)
 8008f60:	681b      	ldr	r3, [r3, #0]
 8008f62:	b9eb      	cbnz	r3, 8008fa0 <xTaskRemoveFromEventList+0x54>
		( void ) uxListRemove( &( pxUnblockedTCB->xStateListItem ) );
 8008f64:	1d26      	adds	r6, r4, #4
 8008f66:	4630      	mov	r0, r6
 8008f68:	f7fe fe7e 	bl	8007c68 <uxListRemove>
		prvAddTaskToReadyList( pxUnblockedTCB );
 8008f6c:	2301      	movs	r3, #1
 8008f6e:	4d15      	ldr	r5, [pc, #84]	; (8008fc4 <xTaskRemoveFromEventList+0x78>)
 8008f70:	6ae2      	ldr	r2, [r4, #44]	; 0x2c
 8008f72:	682f      	ldr	r7, [r5, #0]
 8008f74:	4814      	ldr	r0, [pc, #80]	; (8008fc8 <xTaskRemoveFromEventList+0x7c>)
 8008f76:	4093      	lsls	r3, r2
 8008f78:	eb02 0282 	add.w	r2, r2, r2, lsl #2
 8008f7c:	433b      	orrs	r3, r7
 8008f7e:	4631      	mov	r1, r6
 8008f80:	eb00 0082 	add.w	r0, r0, r2, lsl #2
 8008f84:	602b      	str	r3, [r5, #0]
 8008f86:	f7fe fe47 	bl	8007c18 <vListInsertEnd>
	if( pxUnblockedTCB->uxPriority > pxCurrentTCB->uxPriority )
 8008f8a:	4b10      	ldr	r3, [pc, #64]	; (8008fcc <xTaskRemoveFromEventList+0x80>)
 8008f8c:	6ae2      	ldr	r2, [r4, #44]	; 0x2c
 8008f8e:	681b      	ldr	r3, [r3, #0]
 8008f90:	6adb      	ldr	r3, [r3, #44]	; 0x2c
 8008f92:	429a      	cmp	r2, r3
 8008f94:	d912      	bls.n	8008fbc <xTaskRemoveFromEventList+0x70>
		xYieldPending = pdTRUE;
 8008f96:	2301      	movs	r3, #1
 8008f98:	4a0d      	ldr	r2, [pc, #52]	; (8008fd0 <xTaskRemoveFromEventList+0x84>)
		xReturn = pdTRUE;
 8008f9a:	4618      	mov	r0, r3
		xYieldPending = pdTRUE;
 8008f9c:	6013      	str	r3, [r2, #0]
}
 8008f9e:	bdf8      	pop	{r3, r4, r5, r6, r7, pc}
		vListInsertEnd( &( xPendingReadyList ), &( pxUnblockedTCB->xEventListItem ) );
 8008fa0:	4629      	mov	r1, r5
 8008fa2:	480c      	ldr	r0, [pc, #48]	; (8008fd4 <xTaskRemoveFromEventList+0x88>)
 8008fa4:	f7fe fe38 	bl	8007c18 <vListInsertEnd>
 8008fa8:	e7ef      	b.n	8008f8a <xTaskRemoveFromEventList+0x3e>
 8008faa:	f04f 0350 	mov.w	r3, #80	; 0x50
 8008fae:	f383 8811 	msr	BASEPRI, r3
 8008fb2:	f3bf 8f6f 	isb	sy
 8008fb6:	f3bf 8f4f 	dsb	sy
 8008fba:	e7fe      	b.n	8008fba <xTaskRemoveFromEventList+0x6e>
		xReturn = pdFALSE;
 8008fbc:	2000      	movs	r0, #0
}
 8008fbe:	bdf8      	pop	{r3, r4, r5, r6, r7, pc}
 8008fc0:	20000168 	.word	0x20000168
 8008fc4:	20000170 	.word	0x20000170
 8008fc8:	200000d0 	.word	0x200000d0
 8008fcc:	200000c4 	.word	0x200000c4
 8008fd0:	200001ec 	.word	0x200001ec
 8008fd4:	200001a8 	.word	0x200001a8

08008fd8 <vTaskInternalSetTimeOutState>:
	pxTimeOut->xOverflowCount = xNumOfOverflows;
 8008fd8:	4a03      	ldr	r2, [pc, #12]	; (8008fe8 <vTaskInternalSetTimeOutState+0x10>)
	pxTimeOut->xTimeOnEntering = xTickCount;
 8008fda:	4b04      	ldr	r3, [pc, #16]	; (8008fec <vTaskInternalSetTimeOutState+0x14>)
	pxTimeOut->xOverflowCount = xNumOfOverflows;
 8008fdc:	6812      	ldr	r2, [r2, #0]
	pxTimeOut->xTimeOnEntering = xTickCount;
 8008fde:	681b      	ldr	r3, [r3, #0]
 8008fe0:	e9c0 2300 	strd	r2, r3, [r0]
}
 8008fe4:	4770      	bx	lr
 8008fe6:	bf00      	nop
 8008fe8:	200001a4 	.word	0x200001a4
 8008fec:	200001e8 	.word	0x200001e8

08008ff0 <xTaskCheckForTimeOut>:
{
 8008ff0:	b5f8      	push	{r3, r4, r5, r6, r7, lr}
	configASSERT( pxTimeOut );
 8008ff2:	b340      	cbz	r0, 8009046 <xTaskCheckForTimeOut+0x56>
	configASSERT( pxTicksToWait );
 8008ff4:	b1f1      	cbz	r1, 8009034 <xTaskCheckForTimeOut+0x44>
 8008ff6:	460d      	mov	r5, r1
 8008ff8:	4604      	mov	r4, r0
	taskENTER_CRITICAL();
 8008ffa:	f000 f9cb 	bl	8009394 <vPortEnterCritical>
		const TickType_t xConstTickCount = xTickCount;
 8008ffe:	f8df c078 	ldr.w	ip, [pc, #120]	; 8009078 <xTaskCheckForTimeOut+0x88>
			if( *pxTicksToWait == portMAX_DELAY )
 8009002:	682b      	ldr	r3, [r5, #0]
		const TickType_t xElapsedTime = xConstTickCount - pxTimeOut->xTimeOnEntering;
 8009004:	6867      	ldr	r7, [r4, #4]
		const TickType_t xConstTickCount = xTickCount;
 8009006:	f8dc 6000 	ldr.w	r6, [ip]
			if( *pxTicksToWait == portMAX_DELAY )
 800900a:	1c59      	adds	r1, r3, #1
		const TickType_t xElapsedTime = xConstTickCount - pxTimeOut->xTimeOnEntering;
 800900c:	eba6 0207 	sub.w	r2, r6, r7
			if( *pxTicksToWait == portMAX_DELAY )
 8009010:	d022      	beq.n	8009058 <xTaskCheckForTimeOut+0x68>
		if( ( xNumOfOverflows != pxTimeOut->xOverflowCount ) && ( xConstTickCount >= pxTimeOut->xTimeOnEntering ) ) /*lint !e525 Indentation preferred as is to make code within pre-processor directives clearer. */
 8009012:	4818      	ldr	r0, [pc, #96]	; (8009074 <xTaskCheckForTimeOut+0x84>)
 8009014:	6821      	ldr	r1, [r4, #0]
 8009016:	f8d0 e000 	ldr.w	lr, [r0]
 800901a:	4571      	cmp	r1, lr
 800901c:	d001      	beq.n	8009022 <xTaskCheckForTimeOut+0x32>
 800901e:	42b7      	cmp	r7, r6
 8009020:	d925      	bls.n	800906e <xTaskCheckForTimeOut+0x7e>
		else if( xElapsedTime < *pxTicksToWait ) /*lint !e961 Explicit casting is only redundant with some compilers, whereas others require it to prevent integer conversion errors. */
 8009022:	4293      	cmp	r3, r2
 8009024:	d81a      	bhi.n	800905c <xTaskCheckForTimeOut+0x6c>
			*pxTicksToWait = 0;
 8009026:	2300      	movs	r3, #0
			xReturn = pdTRUE;
 8009028:	2601      	movs	r6, #1
			*pxTicksToWait = 0;
 800902a:	602b      	str	r3, [r5, #0]
	taskEXIT_CRITICAL();
 800902c:	f000 f9d4 	bl	80093d8 <vPortExitCritical>
}
 8009030:	4630      	mov	r0, r6
 8009032:	bdf8      	pop	{r3, r4, r5, r6, r7, pc}
 8009034:	f04f 0350 	mov.w	r3, #80	; 0x50
 8009038:	f383 8811 	msr	BASEPRI, r3
 800903c:	f3bf 8f6f 	isb	sy
 8009040:	f3bf 8f4f 	dsb	sy
 8009044:	e7fe      	b.n	8009044 <xTaskCheckForTimeOut+0x54>
 8009046:	f04f 0350 	mov.w	r3, #80	; 0x50
 800904a:	f383 8811 	msr	BASEPRI, r3
 800904e:	f3bf 8f6f 	isb	sy
 8009052:	f3bf 8f4f 	dsb	sy
 8009056:	e7fe      	b.n	8009056 <xTaskCheckForTimeOut+0x66>
				xReturn = pdFALSE;
 8009058:	2600      	movs	r6, #0
 800905a:	e7e7      	b.n	800902c <xTaskCheckForTimeOut+0x3c>
	pxTimeOut->xOverflowCount = xNumOfOverflows;
 800905c:	6800      	ldr	r0, [r0, #0]
	pxTimeOut->xTimeOnEntering = xTickCount;
 800905e:	f8dc 1000 	ldr.w	r1, [ip]
			*pxTicksToWait -= xElapsedTime;
 8009062:	1a9b      	subs	r3, r3, r2
 8009064:	602b      	str	r3, [r5, #0]
			xReturn = pdFALSE;
 8009066:	2600      	movs	r6, #0
	pxTimeOut->xTimeOnEntering = xTickCount;
 8009068:	e9c4 0100 	strd	r0, r1, [r4]
 800906c:	e7de      	b.n	800902c <xTaskCheckForTimeOut+0x3c>
			xReturn = pdTRUE;
 800906e:	2601      	movs	r6, #1
 8009070:	e7dc      	b.n	800902c <xTaskCheckForTimeOut+0x3c>
 8009072:	bf00      	nop
 8009074:	200001a4 	.word	0x200001a4
 8009078:	200001e8 	.word	0x200001e8

0800907c <vTaskMissedYield>:
	xYieldPending = pdTRUE;
 800907c:	2201      	movs	r2, #1
 800907e:	4b01      	ldr	r3, [pc, #4]	; (8009084 <vTaskMissedYield+0x8>)
 8009080:	601a      	str	r2, [r3, #0]
}
 8009082:	4770      	bx	lr
 8009084:	200001ec 	.word	0x200001ec

08009088 <xTaskGetSchedulerState>:
		if( xSchedulerRunning == pdFALSE )
 8009088:	4b05      	ldr	r3, [pc, #20]	; (80090a0 <xTaskGetSchedulerState+0x18>)
 800908a:	681b      	ldr	r3, [r3, #0]
 800908c:	b133      	cbz	r3, 800909c <xTaskGetSchedulerState+0x14>
			if( uxSchedulerSuspended == ( UBaseType_t ) pdFALSE )
 800908e:	4b05      	ldr	r3, [pc, #20]	; (80090a4 <xTaskGetSchedulerState+0x1c>)
 8009090:	681b      	ldr	r3, [r3, #0]
 8009092:	2b00      	cmp	r3, #0
				xReturn = taskSCHEDULER_SUSPENDED;
 8009094:	bf0c      	ite	eq
 8009096:	2002      	moveq	r0, #2
 8009098:	2000      	movne	r0, #0
 800909a:	4770      	bx	lr
			xReturn = taskSCHEDULER_NOT_STARTED;
 800909c:	2001      	movs	r0, #1
	}
 800909e:	4770      	bx	lr
 80090a0:	200001bc 	.word	0x200001bc
 80090a4:	20000168 	.word	0x20000168

080090a8 <xTaskPriorityInherit>:
	{
 80090a8:	e92d 41f0 	stmdb	sp!, {r4, r5, r6, r7, r8, lr}
		if( pxMutexHolder != NULL )
 80090ac:	4607      	mov	r7, r0
 80090ae:	b1c8      	cbz	r0, 80090e4 <xTaskPriorityInherit+0x3c>
			if( pxMutexHolderTCB->uxPriority < pxCurrentTCB->uxPriority )
 80090b0:	4d25      	ldr	r5, [pc, #148]	; (8009148 <xTaskPriorityInherit+0xa0>)
 80090b2:	6ac2      	ldr	r2, [r0, #44]	; 0x2c
 80090b4:	6829      	ldr	r1, [r5, #0]
 80090b6:	6ac9      	ldr	r1, [r1, #44]	; 0x2c
 80090b8:	428a      	cmp	r2, r1
 80090ba:	d215      	bcs.n	80090e8 <xTaskPriorityInherit+0x40>
				if( ( listGET_LIST_ITEM_VALUE( &( pxMutexHolderTCB->xEventListItem ) ) & taskEVENT_LIST_ITEM_VALUE_IN_USE ) == 0UL )
 80090bc:	6981      	ldr	r1, [r0, #24]
 80090be:	2900      	cmp	r1, #0
 80090c0:	db04      	blt.n	80090cc <xTaskPriorityInherit+0x24>
					listSET_LIST_ITEM_VALUE( &( pxMutexHolderTCB->xEventListItem ), ( TickType_t ) configMAX_PRIORITIES - ( TickType_t ) pxCurrentTCB->uxPriority ); /*lint !e961 MISRA exception as the casts are only redundant for some ports. */
 80090c2:	6829      	ldr	r1, [r5, #0]
 80090c4:	6ac9      	ldr	r1, [r1, #44]	; 0x2c
 80090c6:	f1c1 0107 	rsb	r1, r1, #7
 80090ca:	6181      	str	r1, [r0, #24]
				if( listIS_CONTAINED_WITHIN( &( pxReadyTasksLists[ pxMutexHolderTCB->uxPriority ] ), &( pxMutexHolderTCB->xStateListItem ) ) != pdFALSE )
 80090cc:	4e1f      	ldr	r6, [pc, #124]	; (800914c <xTaskPriorityInherit+0xa4>)
 80090ce:	eb02 0282 	add.w	r2, r2, r2, lsl #2
 80090d2:	6979      	ldr	r1, [r7, #20]
 80090d4:	eb06 0282 	add.w	r2, r6, r2, lsl #2
 80090d8:	4291      	cmp	r1, r2
 80090da:	d00e      	beq.n	80090fa <xTaskPriorityInherit+0x52>
				xReturn = pdTRUE;
 80090dc:	2001      	movs	r0, #1
					pxMutexHolderTCB->uxPriority = pxCurrentTCB->uxPriority;
 80090de:	682a      	ldr	r2, [r5, #0]
 80090e0:	6ad2      	ldr	r2, [r2, #44]	; 0x2c
 80090e2:	62fa      	str	r2, [r7, #44]	; 0x2c
	}
 80090e4:	e8bd 81f0 	ldmia.w	sp!, {r4, r5, r6, r7, r8, pc}
				if( pxMutexHolderTCB->uxBasePriority < pxCurrentTCB->uxPriority )
 80090e8:	682a      	ldr	r2, [r5, #0]
 80090ea:	6c40      	ldr	r0, [r0, #68]	; 0x44
 80090ec:	6ad3      	ldr	r3, [r2, #44]	; 0x2c
 80090ee:	4298      	cmp	r0, r3
 80090f0:	bf2c      	ite	cs
 80090f2:	2000      	movcs	r0, #0
 80090f4:	2001      	movcc	r0, #1
	}
 80090f6:	e8bd 81f0 	ldmia.w	sp!, {r4, r5, r6, r7, r8, pc}
					if( uxListRemove( &( pxMutexHolderTCB->xStateListItem ) ) == ( UBaseType_t ) 0 )
 80090fa:	f107 0804 	add.w	r8, r7, #4
 80090fe:	4640      	mov	r0, r8
 8009100:	f7fe fdb2 	bl	8007c68 <uxListRemove>
 8009104:	b968      	cbnz	r0, 8009122 <xTaskPriorityInherit+0x7a>
						taskRESET_READY_PRIORITY( pxMutexHolderTCB->uxPriority );
 8009106:	6af9      	ldr	r1, [r7, #44]	; 0x2c
 8009108:	eb01 0381 	add.w	r3, r1, r1, lsl #2
 800910c:	009b      	lsls	r3, r3, #2
 800910e:	58f3      	ldr	r3, [r6, r3]
 8009110:	b93b      	cbnz	r3, 8009122 <xTaskPriorityInherit+0x7a>
 8009112:	2301      	movs	r3, #1
 8009114:	4a0e      	ldr	r2, [pc, #56]	; (8009150 <xTaskPriorityInherit+0xa8>)
 8009116:	408b      	lsls	r3, r1
 8009118:	6811      	ldr	r1, [r2, #0]
 800911a:	ea21 0103 	bic.w	r1, r1, r3
 800911e:	6011      	str	r1, [r2, #0]
 8009120:	e000      	b.n	8009124 <xTaskPriorityInherit+0x7c>
 8009122:	4a0b      	ldr	r2, [pc, #44]	; (8009150 <xTaskPriorityInherit+0xa8>)
					prvAddTaskToReadyList( pxMutexHolderTCB );
 8009124:	2401      	movs	r4, #1
					pxMutexHolderTCB->uxPriority = pxCurrentTCB->uxPriority;
 8009126:	682b      	ldr	r3, [r5, #0]
					prvAddTaskToReadyList( pxMutexHolderTCB );
 8009128:	6815      	ldr	r5, [r2, #0]
					pxMutexHolderTCB->uxPriority = pxCurrentTCB->uxPriority;
 800912a:	6ad8      	ldr	r0, [r3, #44]	; 0x2c
					prvAddTaskToReadyList( pxMutexHolderTCB );
 800912c:	4641      	mov	r1, r8
					pxMutexHolderTCB->uxPriority = pxCurrentTCB->uxPriority;
 800912e:	62f8      	str	r0, [r7, #44]	; 0x2c
					prvAddTaskToReadyList( pxMutexHolderTCB );
 8009130:	fa04 f300 	lsl.w	r3, r4, r0
 8009134:	eb00 0080 	add.w	r0, r0, r0, lsl #2
 8009138:	eb06 0080 	add.w	r0, r6, r0, lsl #2
 800913c:	432b      	orrs	r3, r5
 800913e:	6013      	str	r3, [r2, #0]
 8009140:	f7fe fd6a 	bl	8007c18 <vListInsertEnd>
				xReturn = pdTRUE;
 8009144:	4620      	mov	r0, r4
 8009146:	e7cd      	b.n	80090e4 <xTaskPriorityInherit+0x3c>
 8009148:	200000c4 	.word	0x200000c4
 800914c:	200000d0 	.word	0x200000d0
 8009150:	20000170 	.word	0x20000170

08009154 <xTaskPriorityDisinherit>:
		if( pxMutexHolder != NULL )
 8009154:	b168      	cbz	r0, 8009172 <xTaskPriorityDisinherit+0x1e>
	{
 8009156:	b5f8      	push	{r3, r4, r5, r6, r7, lr}
			configASSERT( pxTCB == pxCurrentTCB );
 8009158:	4b29      	ldr	r3, [pc, #164]	; (8009200 <xTaskPriorityDisinherit+0xac>)
 800915a:	681b      	ldr	r3, [r3, #0]
 800915c:	4283      	cmp	r3, r0
 800915e:	d00a      	beq.n	8009176 <xTaskPriorityDisinherit+0x22>
 8009160:	f04f 0350 	mov.w	r3, #80	; 0x50
 8009164:	f383 8811 	msr	BASEPRI, r3
 8009168:	f3bf 8f6f 	isb	sy
 800916c:	f3bf 8f4f 	dsb	sy
 8009170:	e7fe      	b.n	8009170 <xTaskPriorityDisinherit+0x1c>
	BaseType_t xReturn = pdFALSE;
 8009172:	2000      	movs	r0, #0
	}
 8009174:	4770      	bx	lr
			configASSERT( pxTCB->uxMutexesHeld );
 8009176:	6c9b      	ldr	r3, [r3, #72]	; 0x48
 8009178:	b943      	cbnz	r3, 800918c <xTaskPriorityDisinherit+0x38>
 800917a:	f04f 0350 	mov.w	r3, #80	; 0x50
 800917e:	f383 8811 	msr	BASEPRI, r3
 8009182:	f3bf 8f6f 	isb	sy
 8009186:	f3bf 8f4f 	dsb	sy
 800918a:	e7fe      	b.n	800918a <xTaskPriorityDisinherit+0x36>
			if( pxTCB->uxPriority != pxTCB->uxBasePriority )
 800918c:	6ac1      	ldr	r1, [r0, #44]	; 0x2c
 800918e:	6c42      	ldr	r2, [r0, #68]	; 0x44
			( pxTCB->uxMutexesHeld )--;
 8009190:	3b01      	subs	r3, #1
			if( pxTCB->uxPriority != pxTCB->uxBasePriority )
 8009192:	4291      	cmp	r1, r2
			( pxTCB->uxMutexesHeld )--;
 8009194:	6483      	str	r3, [r0, #72]	; 0x48
			if( pxTCB->uxPriority != pxTCB->uxBasePriority )
 8009196:	d000      	beq.n	800919a <xTaskPriorityDisinherit+0x46>
				if( pxTCB->uxMutexesHeld == ( UBaseType_t ) 0 )
 8009198:	b10b      	cbz	r3, 800919e <xTaskPriorityDisinherit+0x4a>
	BaseType_t xReturn = pdFALSE;
 800919a:	2000      	movs	r0, #0
	}
 800919c:	bdf8      	pop	{r3, r4, r5, r6, r7, pc}
					if( uxListRemove( &( pxTCB->xStateListItem ) ) == ( UBaseType_t ) 0 )
 800919e:	1d07      	adds	r7, r0, #4
 80091a0:	4604      	mov	r4, r0
 80091a2:	4638      	mov	r0, r7
 80091a4:	f7fe fd60 	bl	8007c68 <uxListRemove>
 80091a8:	b1b8      	cbz	r0, 80091da <xTaskPriorityDisinherit+0x86>
 80091aa:	4816      	ldr	r0, [pc, #88]	; (8009204 <xTaskPriorityDisinherit+0xb0>)
 80091ac:	4b16      	ldr	r3, [pc, #88]	; (8009208 <xTaskPriorityDisinherit+0xb4>)
					prvAddTaskToReadyList( pxTCB );
 80091ae:	2501      	movs	r5, #1
 80091b0:	f04f 0c14 	mov.w	ip, #20
					pxTCB->uxPriority = pxTCB->uxBasePriority;
 80091b4:	6c62      	ldr	r2, [r4, #68]	; 0x44
					prvAddTaskToReadyList( pxTCB );
 80091b6:	f8d3 e000 	ldr.w	lr, [r3]
 80091ba:	fa05 f602 	lsl.w	r6, r5, r2
 80091be:	4639      	mov	r1, r7
					listSET_LIST_ITEM_VALUE( &( pxTCB->xEventListItem ), ( TickType_t ) configMAX_PRIORITIES - ( TickType_t ) pxTCB->uxPriority ); /*lint !e961 MISRA exception as the casts are only redundant for some ports. */
 80091c0:	f1c2 0707 	rsb	r7, r2, #7
					prvAddTaskToReadyList( pxTCB );
 80091c4:	ea46 060e 	orr.w	r6, r6, lr
 80091c8:	fb0c 0002 	mla	r0, ip, r2, r0
					pxTCB->uxPriority = pxTCB->uxBasePriority;
 80091cc:	62e2      	str	r2, [r4, #44]	; 0x2c
					listSET_LIST_ITEM_VALUE( &( pxTCB->xEventListItem ), ( TickType_t ) configMAX_PRIORITIES - ( TickType_t ) pxTCB->uxPriority ); /*lint !e961 MISRA exception as the casts are only redundant for some ports. */
 80091ce:	61a7      	str	r7, [r4, #24]
					prvAddTaskToReadyList( pxTCB );
 80091d0:	601e      	str	r6, [r3, #0]
 80091d2:	f7fe fd21 	bl	8007c18 <vListInsertEnd>
					xReturn = pdTRUE;
 80091d6:	4628      	mov	r0, r5
	}
 80091d8:	bdf8      	pop	{r3, r4, r5, r6, r7, pc}
						taskRESET_READY_PRIORITY( pxTCB->uxPriority );
 80091da:	2314      	movs	r3, #20
 80091dc:	6ae5      	ldr	r5, [r4, #44]	; 0x2c
 80091de:	4809      	ldr	r0, [pc, #36]	; (8009204 <xTaskPriorityDisinherit+0xb0>)
 80091e0:	fb03 f305 	mul.w	r3, r3, r5
 80091e4:	58c3      	ldr	r3, [r0, r3]
 80091e6:	b10b      	cbz	r3, 80091ec <xTaskPriorityDisinherit+0x98>
 80091e8:	4b07      	ldr	r3, [pc, #28]	; (8009208 <xTaskPriorityDisinherit+0xb4>)
 80091ea:	e7e0      	b.n	80091ae <xTaskPriorityDisinherit+0x5a>
 80091ec:	2201      	movs	r2, #1
 80091ee:	4b06      	ldr	r3, [pc, #24]	; (8009208 <xTaskPriorityDisinherit+0xb4>)
 80091f0:	fa02 f505 	lsl.w	r5, r2, r5
 80091f4:	681a      	ldr	r2, [r3, #0]
 80091f6:	ea22 0205 	bic.w	r2, r2, r5
 80091fa:	601a      	str	r2, [r3, #0]
 80091fc:	e7d7      	b.n	80091ae <xTaskPriorityDisinherit+0x5a>
 80091fe:	bf00      	nop
 8009200:	200000c4 	.word	0x200000c4
 8009204:	200000d0 	.word	0x200000d0
 8009208:	20000170 	.word	0x20000170

0800920c <vTaskPriorityDisinheritAfterTimeout>:
		if( pxMutexHolder != NULL )
 800920c:	b1a8      	cbz	r0, 800923a <vTaskPriorityDisinheritAfterTimeout+0x2e>
	{
 800920e:	b5f8      	push	{r3, r4, r5, r6, r7, lr}
			configASSERT( pxTCB->uxMutexesHeld );
 8009210:	6c84      	ldr	r4, [r0, #72]	; 0x48
 8009212:	b944      	cbnz	r4, 8009226 <vTaskPriorityDisinheritAfterTimeout+0x1a>
 8009214:	f04f 0350 	mov.w	r3, #80	; 0x50
 8009218:	f383 8811 	msr	BASEPRI, r3
 800921c:	f3bf 8f6f 	isb	sy
 8009220:	f3bf 8f4f 	dsb	sy
 8009224:	e7fe      	b.n	8009224 <vTaskPriorityDisinheritAfterTimeout+0x18>
 8009226:	6c43      	ldr	r3, [r0, #68]	; 0x44
			if( pxTCB->uxPriority != uxPriorityToUse )
 8009228:	6ac2      	ldr	r2, [r0, #44]	; 0x2c
 800922a:	428b      	cmp	r3, r1
 800922c:	bf38      	it	cc
 800922e:	460b      	movcc	r3, r1
 8009230:	429a      	cmp	r2, r3
 8009232:	d001      	beq.n	8009238 <vTaskPriorityDisinheritAfterTimeout+0x2c>
				if( pxTCB->uxMutexesHeld == uxOnlyOneMutexHeld )
 8009234:	2c01      	cmp	r4, #1
 8009236:	d001      	beq.n	800923c <vTaskPriorityDisinheritAfterTimeout+0x30>
	}
 8009238:	bdf8      	pop	{r3, r4, r5, r6, r7, pc}
 800923a:	4770      	bx	lr
					configASSERT( pxTCB != pxCurrentTCB );
 800923c:	491f      	ldr	r1, [pc, #124]	; (80092bc <vTaskPriorityDisinheritAfterTimeout+0xb0>)
 800923e:	6809      	ldr	r1, [r1, #0]
 8009240:	4281      	cmp	r1, r0
 8009242:	d022      	beq.n	800928a <vTaskPriorityDisinheritAfterTimeout+0x7e>
					if( listIS_CONTAINED_WITHIN( &( pxReadyTasksLists[ uxPriorityUsedOnEntry ] ), &( pxTCB->xStateListItem ) ) != pdFALSE )
 8009244:	2514      	movs	r5, #20
					if( ( listGET_LIST_ITEM_VALUE( &( pxTCB->xEventListItem ) ) & taskEVENT_LIST_ITEM_VALUE_IN_USE ) == 0UL )
 8009246:	6981      	ldr	r1, [r0, #24]
					if( listIS_CONTAINED_WITHIN( &( pxReadyTasksLists[ uxPriorityUsedOnEntry ] ), &( pxTCB->xStateListItem ) ) != pdFALSE )
 8009248:	4e1d      	ldr	r6, [pc, #116]	; (80092c0 <vTaskPriorityDisinheritAfterTimeout+0xb4>)
					if( ( listGET_LIST_ITEM_VALUE( &( pxTCB->xEventListItem ) ) & taskEVENT_LIST_ITEM_VALUE_IN_USE ) == 0UL )
 800924a:	2900      	cmp	r1, #0
					if( listIS_CONTAINED_WITHIN( &( pxReadyTasksLists[ uxPriorityUsedOnEntry ] ), &( pxTCB->xStateListItem ) ) != pdFALSE )
 800924c:	fb05 6202 	mla	r2, r5, r2, r6
					pxTCB->uxPriority = uxPriorityToUse;
 8009250:	62c3      	str	r3, [r0, #44]	; 0x2c
						listSET_LIST_ITEM_VALUE( &( pxTCB->xEventListItem ), ( TickType_t ) configMAX_PRIORITIES - ( TickType_t ) uxPriorityToUse ); /*lint !e961 MISRA exception as the casts are only redundant for some ports. */
 8009252:	bfa4      	itt	ge
 8009254:	f1c3 0307 	rsbge	r3, r3, #7
 8009258:	6183      	strge	r3, [r0, #24]
					if( listIS_CONTAINED_WITHIN( &( pxReadyTasksLists[ uxPriorityUsedOnEntry ] ), &( pxTCB->xStateListItem ) ) != pdFALSE )
 800925a:	6943      	ldr	r3, [r0, #20]
 800925c:	4293      	cmp	r3, r2
 800925e:	d1eb      	bne.n	8009238 <vTaskPriorityDisinheritAfterTimeout+0x2c>
						if( uxListRemove( &( pxTCB->xStateListItem ) ) == ( UBaseType_t ) 0 )
 8009260:	1d07      	adds	r7, r0, #4
 8009262:	4604      	mov	r4, r0
 8009264:	4638      	mov	r0, r7
 8009266:	f7fe fcff 	bl	8007c68 <uxListRemove>
 800926a:	b1b8      	cbz	r0, 800929c <vTaskPriorityDisinheritAfterTimeout+0x90>
 800926c:	6ae0      	ldr	r0, [r4, #44]	; 0x2c
 800926e:	4b15      	ldr	r3, [pc, #84]	; (80092c4 <vTaskPriorityDisinheritAfterTimeout+0xb8>)
						prvAddTaskToReadyList( pxTCB );
 8009270:	2201      	movs	r2, #1
 8009272:	2414      	movs	r4, #20
 8009274:	681d      	ldr	r5, [r3, #0]
 8009276:	4082      	lsls	r2, r0
 8009278:	432a      	orrs	r2, r5
 800927a:	4639      	mov	r1, r7
 800927c:	fb04 6000 	mla	r0, r4, r0, r6
 8009280:	601a      	str	r2, [r3, #0]
	}
 8009282:	e8bd 40f8 	ldmia.w	sp!, {r3, r4, r5, r6, r7, lr}
						prvAddTaskToReadyList( pxTCB );
 8009286:	f7fe bcc7 	b.w	8007c18 <vListInsertEnd>
 800928a:	f04f 0350 	mov.w	r3, #80	; 0x50
 800928e:	f383 8811 	msr	BASEPRI, r3
 8009292:	f3bf 8f6f 	isb	sy
 8009296:	f3bf 8f4f 	dsb	sy
 800929a:	e7fe      	b.n	800929a <vTaskPriorityDisinheritAfterTimeout+0x8e>
 800929c:	2201      	movs	r2, #1
							taskRESET_READY_PRIORITY( pxTCB->uxPriority );
 800929e:	6ae0      	ldr	r0, [r4, #44]	; 0x2c
 80092a0:	fb05 f500 	mul.w	r5, r5, r0
 80092a4:	5973      	ldr	r3, [r6, r5]
 80092a6:	fa02 f100 	lsl.w	r1, r2, r0
 80092aa:	b10b      	cbz	r3, 80092b0 <vTaskPriorityDisinheritAfterTimeout+0xa4>
 80092ac:	4b05      	ldr	r3, [pc, #20]	; (80092c4 <vTaskPriorityDisinheritAfterTimeout+0xb8>)
 80092ae:	e7df      	b.n	8009270 <vTaskPriorityDisinheritAfterTimeout+0x64>
 80092b0:	4b04      	ldr	r3, [pc, #16]	; (80092c4 <vTaskPriorityDisinheritAfterTimeout+0xb8>)
 80092b2:	681a      	ldr	r2, [r3, #0]
 80092b4:	ea22 0201 	bic.w	r2, r2, r1
 80092b8:	601a      	str	r2, [r3, #0]
 80092ba:	e7d9      	b.n	8009270 <vTaskPriorityDisinheritAfterTimeout+0x64>
 80092bc:	200000c4 	.word	0x200000c4
 80092c0:	200000d0 	.word	0x200000d0
 80092c4:	20000170 	.word	0x20000170

080092c8 <pvTaskIncrementMutexHeldCount>:
		if( pxCurrentTCB != NULL )
 80092c8:	4b04      	ldr	r3, [pc, #16]	; (80092dc <pvTaskIncrementMutexHeldCount+0x14>)
 80092ca:	681a      	ldr	r2, [r3, #0]
 80092cc:	b11a      	cbz	r2, 80092d6 <pvTaskIncrementMutexHeldCount+0xe>
			( pxCurrentTCB->uxMutexesHeld )++;
 80092ce:	6819      	ldr	r1, [r3, #0]
 80092d0:	6c8a      	ldr	r2, [r1, #72]	; 0x48
 80092d2:	3201      	adds	r2, #1
 80092d4:	648a      	str	r2, [r1, #72]	; 0x48
		return pxCurrentTCB;
 80092d6:	6818      	ldr	r0, [r3, #0]
	}
 80092d8:	4770      	bx	lr
 80092da:	bf00      	nop
 80092dc:	200000c4 	.word	0x200000c4

080092e0 <prvTaskExitError>:
}
/*-----------------------------------------------------------*/

static void prvTaskExitError( void )
{
volatile uint32_t ulDummy = 0UL;
 80092e0:	2200      	movs	r2, #0
	its caller as there is nothing to return to.  If a task wants to exit it
	should instead call vTaskDelete( NULL ).

	Artificially force an assert() to be triggered if configASSERT() is
	defined, then stop here so application writers can catch the error. */
	configASSERT( uxCriticalNesting == ~0UL );
 80092e2:	4b0e      	ldr	r3, [pc, #56]	; (800931c <prvTaskExitError+0x3c>)
{
 80092e4:	b082      	sub	sp, #8
	configASSERT( uxCriticalNesting == ~0UL );
 80092e6:	681b      	ldr	r3, [r3, #0]
volatile uint32_t ulDummy = 0UL;
 80092e8:	9201      	str	r2, [sp, #4]
	configASSERT( uxCriticalNesting == ~0UL );
 80092ea:	3301      	adds	r3, #1
 80092ec:	d008      	beq.n	8009300 <prvTaskExitError+0x20>
 80092ee:	f04f 0350 	mov.w	r3, #80	; 0x50
 80092f2:	f383 8811 	msr	BASEPRI, r3
 80092f6:	f3bf 8f6f 	isb	sy
 80092fa:	f3bf 8f4f 	dsb	sy
 80092fe:	e7fe      	b.n	80092fe <prvTaskExitError+0x1e>
 8009300:	f04f 0350 	mov.w	r3, #80	; 0x50
 8009304:	f383 8811 	msr	BASEPRI, r3
 8009308:	f3bf 8f6f 	isb	sy
 800930c:	f3bf 8f4f 	dsb	sy
	portDISABLE_INTERRUPTS();
	while( ulDummy == 0 )
 8009310:	9b01      	ldr	r3, [sp, #4]
 8009312:	2b00      	cmp	r3, #0
 8009314:	d0fc      	beq.n	8009310 <prvTaskExitError+0x30>
		about code appearing after this function is called - making ulDummy
		volatile makes the compiler think the function could return and
		therefore not output an 'unreachable code' warning for code that appears
		after it. */
	}
}
 8009316:	b002      	add	sp, #8
 8009318:	4770      	bx	lr
 800931a:	bf00      	nop
 800931c:	20000010 	.word	0x20000010

08009320 <prvPortStartFirstTask>:
}
/*-----------------------------------------------------------*/

static void prvPortStartFirstTask( void )
{
	__asm volatile(
 8009320:	4806      	ldr	r0, [pc, #24]	; (800933c <prvPortStartFirstTask+0x1c>)
 8009322:	6800      	ldr	r0, [r0, #0]
 8009324:	6800      	ldr	r0, [r0, #0]
 8009326:	f380 8808 	msr	MSP, r0
 800932a:	b662      	cpsie	i
 800932c:	b661      	cpsie	f
 800932e:	f3bf 8f4f 	dsb	sy
 8009332:	f3bf 8f6f 	isb	sy
 8009336:	df00      	svc	0
 8009338:	bf00      	nop
 800933a:	0000      	.short	0x0000
 800933c:	e000ed08 	.word	0xe000ed08

08009340 <pxPortInitialiseStack>:
{
 8009340:	b410      	push	{r4}
	*pxTopOfStack = portINITIAL_XPSR;	/* xPSR */
 8009342:	f04f 7480 	mov.w	r4, #16777216	; 0x1000000
	*pxTopOfStack = ( StackType_t ) portTASK_RETURN_ADDRESS;	/* LR */
 8009346:	4b06      	ldr	r3, [pc, #24]	; (8009360 <pxPortInitialiseStack+0x20>)
	*pxTopOfStack = ( ( StackType_t ) pxCode ) & portSTART_ADDRESS_MASK;	/* PC */
 8009348:	f021 0101 	bic.w	r1, r1, #1
	*pxTopOfStack = ( StackType_t ) pvParameters;	/* R0 */
 800934c:	f840 2c20 	str.w	r2, [r0, #-32]
	*pxTopOfStack = portINITIAL_XPSR;	/* xPSR */
 8009350:	e940 1402 	strd	r1, r4, [r0, #-8]
	*pxTopOfStack = ( StackType_t ) portTASK_RETURN_ADDRESS;	/* LR */
 8009354:	f840 3c0c 	str.w	r3, [r0, #-12]
}
 8009358:	bc10      	pop	{r4}
 800935a:	3840      	subs	r0, #64	; 0x40
 800935c:	4770      	bx	lr
 800935e:	bf00      	nop
 8009360:	080092e1 	.word	0x080092e1
	...

08009370 <SVC_Handler>:
	__asm volatile (
 8009370:	4b07      	ldr	r3, [pc, #28]	; (8009390 <pxCurrentTCBConst2>)
 8009372:	6819      	ldr	r1, [r3, #0]
 8009374:	6808      	ldr	r0, [r1, #0]
 8009376:	e8b0 0ff0 	ldmia.w	r0!, {r4, r5, r6, r7, r8, r9, sl, fp}
 800937a:	f380 8809 	msr	PSP, r0
 800937e:	f3bf 8f6f 	isb	sy
 8009382:	f04f 0000 	mov.w	r0, #0
 8009386:	f380 8811 	msr	BASEPRI, r0
 800938a:	f04e 0e0d 	orr.w	lr, lr, #13
 800938e:	4770      	bx	lr

08009390 <pxCurrentTCBConst2>:
 8009390:	200000c4 	.word	0x200000c4

08009394 <vPortEnterCritical>:
 8009394:	f04f 0350 	mov.w	r3, #80	; 0x50
 8009398:	f383 8811 	msr	BASEPRI, r3
 800939c:	f3bf 8f6f 	isb	sy
 80093a0:	f3bf 8f4f 	dsb	sy
/*-----------------------------------------------------------*/

void vPortEnterCritical( void )
{
	portDISABLE_INTERRUPTS();
	uxCriticalNesting++;
 80093a4:	4a0a      	ldr	r2, [pc, #40]	; (80093d0 <vPortEnterCritical+0x3c>)
 80093a6:	6813      	ldr	r3, [r2, #0]
 80093a8:	3301      	adds	r3, #1
	/* This is not the interrupt safe version of the enter critical function so
	assert() if it is being called from an interrupt context.  Only API
	functions that end in "FromISR" can be used in an interrupt.  Only assert if
	the critical nesting count is 1 to protect against recursive calls if the
	assert function also uses a critical section. */
	if( uxCriticalNesting == 1 )
 80093aa:	2b01      	cmp	r3, #1
	uxCriticalNesting++;
 80093ac:	6013      	str	r3, [r2, #0]
	if( uxCriticalNesting == 1 )
 80093ae:	d000      	beq.n	80093b2 <vPortEnterCritical+0x1e>
	{
		configASSERT( ( portNVIC_INT_CTRL_REG & portVECTACTIVE_MASK ) == 0 );
	}
}
 80093b0:	4770      	bx	lr
		configASSERT( ( portNVIC_INT_CTRL_REG & portVECTACTIVE_MASK ) == 0 );
 80093b2:	4b08      	ldr	r3, [pc, #32]	; (80093d4 <vPortEnterCritical+0x40>)
 80093b4:	681b      	ldr	r3, [r3, #0]
 80093b6:	f013 0fff 	tst.w	r3, #255	; 0xff
 80093ba:	d0f9      	beq.n	80093b0 <vPortEnterCritical+0x1c>
 80093bc:	f04f 0350 	mov.w	r3, #80	; 0x50
 80093c0:	f383 8811 	msr	BASEPRI, r3
 80093c4:	f3bf 8f6f 	isb	sy
 80093c8:	f3bf 8f4f 	dsb	sy
 80093cc:	e7fe      	b.n	80093cc <vPortEnterCritical+0x38>
 80093ce:	bf00      	nop
 80093d0:	20000010 	.word	0x20000010
 80093d4:	e000ed04 	.word	0xe000ed04

080093d8 <vPortExitCritical>:
/*-----------------------------------------------------------*/

void vPortExitCritical( void )
{
	configASSERT( uxCriticalNesting );
 80093d8:	4a08      	ldr	r2, [pc, #32]	; (80093fc <vPortExitCritical+0x24>)
 80093da:	6813      	ldr	r3, [r2, #0]
 80093dc:	b943      	cbnz	r3, 80093f0 <vPortExitCritical+0x18>
 80093de:	f04f 0350 	mov.w	r3, #80	; 0x50
 80093e2:	f383 8811 	msr	BASEPRI, r3
 80093e6:	f3bf 8f6f 	isb	sy
 80093ea:	f3bf 8f4f 	dsb	sy
 80093ee:	e7fe      	b.n	80093ee <vPortExitCritical+0x16>
	uxCriticalNesting--;
 80093f0:	3b01      	subs	r3, #1
 80093f2:	6013      	str	r3, [r2, #0]
	if( uxCriticalNesting == 0 )
 80093f4:	b90b      	cbnz	r3, 80093fa <vPortExitCritical+0x22>
	__asm volatile
 80093f6:	f383 8811 	msr	BASEPRI, r3
	{
		portENABLE_INTERRUPTS();
	}
}
 80093fa:	4770      	bx	lr
 80093fc:	20000010 	.word	0x20000010

08009400 <PendSV_Handler>:

void xPortPendSVHandler( void )
{
	/* This is a naked function. */

	__asm volatile
 8009400:	f3ef 8009 	mrs	r0, PSP
 8009404:	f3bf 8f6f 	isb	sy
 8009408:	4b0d      	ldr	r3, [pc, #52]	; (8009440 <pxCurrentTCBConst>)
 800940a:	681a      	ldr	r2, [r3, #0]
 800940c:	e920 0ff0 	stmdb	r0!, {r4, r5, r6, r7, r8, r9, sl, fp}
 8009410:	6010      	str	r0, [r2, #0]
 8009412:	e92d 4008 	stmdb	sp!, {r3, lr}
 8009416:	f04f 0050 	mov.w	r0, #80	; 0x50
 800941a:	f380 8811 	msr	BASEPRI, r0
 800941e:	f7ff fcf1 	bl	8008e04 <vTaskSwitchContext>
 8009422:	f04f 0000 	mov.w	r0, #0
 8009426:	f380 8811 	msr	BASEPRI, r0
 800942a:	e8bd 4008 	ldmia.w	sp!, {r3, lr}
 800942e:	6819      	ldr	r1, [r3, #0]
 8009430:	6808      	ldr	r0, [r1, #0]
 8009432:	e8b0 0ff0 	ldmia.w	r0!, {r4, r5, r6, r7, r8, r9, sl, fp}
 8009436:	f380 8809 	msr	PSP, r0
 800943a:	f3bf 8f6f 	isb	sy
 800943e:	4770      	bx	lr

08009440 <pxCurrentTCBConst>:
 8009440:	200000c4 	.word	0x200000c4

08009444 <SysTick_Handler>:
	);
}
/*-----------------------------------------------------------*/

void xPortSysTickHandler( void )
{
 8009444:	b508      	push	{r3, lr}
	__asm volatile
 8009446:	f04f 0350 	mov.w	r3, #80	; 0x50
 800944a:	f383 8811 	msr	BASEPRI, r3
 800944e:	f3bf 8f6f 	isb	sy
 8009452:	f3bf 8f4f 	dsb	sy
	save and then restore the interrupt mask value as its value is already
	known. */
	portDISABLE_INTERRUPTS();
	{
		/* Increment the RTOS tick. */
		if( xTaskIncrementTick() != pdFALSE )
 8009456:	f7ff fb7b 	bl	8008b50 <xTaskIncrementTick>
 800945a:	b118      	cbz	r0, 8009464 <SysTick_Handler+0x20>
		{
			/* A context switch is required.  Context switching is performed in
			the PendSV interrupt.  Pend the PendSV interrupt. */
			portNVIC_INT_CTRL_REG = portNVIC_PENDSVSET_BIT;
 800945c:	f04f 5280 	mov.w	r2, #268435456	; 0x10000000
 8009460:	4b02      	ldr	r3, [pc, #8]	; (800946c <SysTick_Handler+0x28>)
 8009462:	601a      	str	r2, [r3, #0]
	__asm volatile
 8009464:	2300      	movs	r3, #0
 8009466:	f383 8811 	msr	BASEPRI, r3
		}
	}
	portENABLE_INTERRUPTS();
}
 800946a:	bd08      	pop	{r3, pc}
 800946c:	e000ed04 	.word	0xe000ed04

08009470 <vPortSetupTimerInterrupt>:
		ulStoppedTimerCompensation = portMISSED_COUNTS_FACTOR / ( configCPU_CLOCK_HZ / configSYSTICK_CLOCK_HZ );
	}
	#endif /* configUSE_TICKLESS_IDLE */

	/* Stop and clear the SysTick. */
	portNVIC_SYSTICK_CTRL_REG = 0UL;
 8009470:	2300      	movs	r3, #0
	portNVIC_SYSTICK_CURRENT_VALUE_REG = 0UL;

	/* Configure SysTick to interrupt at the requested rate. */
	portNVIC_SYSTICK_LOAD_REG = ( configSYSTICK_CLOCK_HZ / configTICK_RATE_HZ ) - 1UL;
	portNVIC_SYSTICK_CTRL_REG = ( portNVIC_SYSTICK_CLK_BIT | portNVIC_SYSTICK_INT_BIT | portNVIC_SYSTICK_ENABLE_BIT );
 8009472:	2107      	movs	r1, #7
{
 8009474:	b410      	push	{r4}
	portNVIC_SYSTICK_CTRL_REG = 0UL;
 8009476:	4a08      	ldr	r2, [pc, #32]	; (8009498 <vPortSetupTimerInterrupt+0x28>)
	portNVIC_SYSTICK_CURRENT_VALUE_REG = 0UL;
 8009478:	4c08      	ldr	r4, [pc, #32]	; (800949c <vPortSetupTimerInterrupt+0x2c>)
	portNVIC_SYSTICK_LOAD_REG = ( configSYSTICK_CLOCK_HZ / configTICK_RATE_HZ ) - 1UL;
 800947a:	4809      	ldr	r0, [pc, #36]	; (80094a0 <vPortSetupTimerInterrupt+0x30>)
	portNVIC_SYSTICK_CTRL_REG = 0UL;
 800947c:	6013      	str	r3, [r2, #0]
	portNVIC_SYSTICK_CURRENT_VALUE_REG = 0UL;
 800947e:	6023      	str	r3, [r4, #0]
	portNVIC_SYSTICK_LOAD_REG = ( configSYSTICK_CLOCK_HZ / configTICK_RATE_HZ ) - 1UL;
 8009480:	6803      	ldr	r3, [r0, #0]
 8009482:	4c08      	ldr	r4, [pc, #32]	; (80094a4 <vPortSetupTimerInterrupt+0x34>)
 8009484:	4808      	ldr	r0, [pc, #32]	; (80094a8 <vPortSetupTimerInterrupt+0x38>)
 8009486:	fba4 4303 	umull	r4, r3, r4, r3
 800948a:	099b      	lsrs	r3, r3, #6
 800948c:	3b01      	subs	r3, #1
 800948e:	6003      	str	r3, [r0, #0]
}
 8009490:	bc10      	pop	{r4}
	portNVIC_SYSTICK_CTRL_REG = ( portNVIC_SYSTICK_CLK_BIT | portNVIC_SYSTICK_INT_BIT | portNVIC_SYSTICK_ENABLE_BIT );
 8009492:	6011      	str	r1, [r2, #0]
}
 8009494:	4770      	bx	lr
 8009496:	bf00      	nop
 8009498:	e000e010 	.word	0xe000e010
 800949c:	e000e018 	.word	0xe000e018
 80094a0:	20000000 	.word	0x20000000
 80094a4:	10624dd3 	.word	0x10624dd3
 80094a8:	e000e014 	.word	0xe000e014

080094ac <xPortStartScheduler>:
{
 80094ac:	b530      	push	{r4, r5, lr}
		*pucFirstUserPriorityRegister = portMAX_8_BIT_VALUE;
 80094ae:	25ff      	movs	r5, #255	; 0xff
		ulMaxPRIGROUPValue = portMAX_PRIGROUP_BITS;
 80094b0:	2407      	movs	r4, #7
		ulOriginalPriority = *pucFirstUserPriorityRegister;
 80094b2:	4b27      	ldr	r3, [pc, #156]	; (8009550 <xPortStartScheduler+0xa4>)
{
 80094b4:	b083      	sub	sp, #12
		ulOriginalPriority = *pucFirstUserPriorityRegister;
 80094b6:	781a      	ldrb	r2, [r3, #0]
		ucMaxSysCallPriority = configMAX_SYSCALL_INTERRUPT_PRIORITY & ucMaxPriorityValue;
 80094b8:	4926      	ldr	r1, [pc, #152]	; (8009554 <xPortStartScheduler+0xa8>)
		ulOriginalPriority = *pucFirstUserPriorityRegister;
 80094ba:	b2d2      	uxtb	r2, r2
 80094bc:	9201      	str	r2, [sp, #4]
		*pucFirstUserPriorityRegister = portMAX_8_BIT_VALUE;
 80094be:	701d      	strb	r5, [r3, #0]
		ucMaxPriorityValue = *pucFirstUserPriorityRegister;
 80094c0:	781b      	ldrb	r3, [r3, #0]
		ulMaxPRIGROUPValue = portMAX_PRIGROUP_BITS;
 80094c2:	4825      	ldr	r0, [pc, #148]	; (8009558 <xPortStartScheduler+0xac>)
		ucMaxPriorityValue = *pucFirstUserPriorityRegister;
 80094c4:	b2db      	uxtb	r3, r3
 80094c6:	f88d 3003 	strb.w	r3, [sp, #3]
		ucMaxSysCallPriority = configMAX_SYSCALL_INTERRUPT_PRIORITY & ucMaxPriorityValue;
 80094ca:	f89d 3003 	ldrb.w	r3, [sp, #3]
		while( ( ucMaxPriorityValue & portTOP_BIT_OF_BYTE ) == portTOP_BIT_OF_BYTE )
 80094ce:	f89d 2003 	ldrb.w	r2, [sp, #3]
		ucMaxSysCallPriority = configMAX_SYSCALL_INTERRUPT_PRIORITY & ucMaxPriorityValue;
 80094d2:	f003 0350 	and.w	r3, r3, #80	; 0x50
 80094d6:	700b      	strb	r3, [r1, #0]
		while( ( ucMaxPriorityValue & portTOP_BIT_OF_BYTE ) == portTOP_BIT_OF_BYTE )
 80094d8:	0611      	lsls	r1, r2, #24
		ulMaxPRIGROUPValue = portMAX_PRIGROUP_BITS;
 80094da:	6004      	str	r4, [r0, #0]
		while( ( ucMaxPriorityValue & portTOP_BIT_OF_BYTE ) == portTOP_BIT_OF_BYTE )
 80094dc:	d510      	bpl.n	8009500 <xPortStartScheduler+0x54>
 80094de:	2306      	movs	r3, #6
 80094e0:	e000      	b.n	80094e4 <xPortStartScheduler+0x38>
 80094e2:	460b      	mov	r3, r1
			ucMaxPriorityValue <<= ( uint8_t ) 0x01;
 80094e4:	f89d 2003 	ldrb.w	r2, [sp, #3]
 80094e8:	1e59      	subs	r1, r3, #1
 80094ea:	0052      	lsls	r2, r2, #1
 80094ec:	b2d2      	uxtb	r2, r2
 80094ee:	f88d 2003 	strb.w	r2, [sp, #3]
		while( ( ucMaxPriorityValue & portTOP_BIT_OF_BYTE ) == portTOP_BIT_OF_BYTE )
 80094f2:	f89d 2003 	ldrb.w	r2, [sp, #3]
 80094f6:	0612      	lsls	r2, r2, #24
 80094f8:	d4f3      	bmi.n	80094e2 <xPortStartScheduler+0x36>
			configASSERT( ( portMAX_PRIGROUP_BITS - ulMaxPRIGROUPValue ) == configPRIO_BITS );
 80094fa:	2b03      	cmp	r3, #3
 80094fc:	6003      	str	r3, [r0, #0]
 80094fe:	d008      	beq.n	8009512 <xPortStartScheduler+0x66>
	__asm volatile
 8009500:	f04f 0350 	mov.w	r3, #80	; 0x50
 8009504:	f383 8811 	msr	BASEPRI, r3
 8009508:	f3bf 8f6f 	isb	sy
 800950c:	f3bf 8f4f 	dsb	sy
 8009510:	e7fe      	b.n	8009510 <xPortStartScheduler+0x64>
	uxCriticalNesting = 0;
 8009512:	2400      	movs	r4, #0
		*pucFirstUserPriorityRegister = ulOriginalPriority;
 8009514:	9901      	ldr	r1, [sp, #4]
 8009516:	4d0e      	ldr	r5, [pc, #56]	; (8009550 <xPortStartScheduler+0xa4>)
		ulMaxPRIGROUPValue <<= portPRIGROUP_SHIFT;
 8009518:	021b      	lsls	r3, r3, #8
	portNVIC_SYSPRI2_REG |= portNVIC_PENDSV_PRI;
 800951a:	4a10      	ldr	r2, [pc, #64]	; (800955c <xPortStartScheduler+0xb0>)
		*pucFirstUserPriorityRegister = ulOriginalPriority;
 800951c:	b2c9      	uxtb	r1, r1
		ulMaxPRIGROUPValue &= portPRIORITY_GROUP_MASK;
 800951e:	f403 63e0 	and.w	r3, r3, #1792	; 0x700
 8009522:	6003      	str	r3, [r0, #0]
		*pucFirstUserPriorityRegister = ulOriginalPriority;
 8009524:	7029      	strb	r1, [r5, #0]
	portNVIC_SYSPRI2_REG |= portNVIC_PENDSV_PRI;
 8009526:	6813      	ldr	r3, [r2, #0]
 8009528:	f443 0370 	orr.w	r3, r3, #15728640	; 0xf00000
 800952c:	6013      	str	r3, [r2, #0]
	portNVIC_SYSPRI2_REG |= portNVIC_SYSTICK_PRI;
 800952e:	6813      	ldr	r3, [r2, #0]
 8009530:	f043 4370 	orr.w	r3, r3, #4026531840	; 0xf0000000
 8009534:	6013      	str	r3, [r2, #0]
	vPortSetupTimerInterrupt();
 8009536:	f7ff ff9b 	bl	8009470 <vPortSetupTimerInterrupt>
	uxCriticalNesting = 0;
 800953a:	4b09      	ldr	r3, [pc, #36]	; (8009560 <xPortStartScheduler+0xb4>)
 800953c:	601c      	str	r4, [r3, #0]
	prvPortStartFirstTask();
 800953e:	f7ff feef 	bl	8009320 <prvPortStartFirstTask>
	vTaskSwitchContext();
 8009542:	f7ff fc5f 	bl	8008e04 <vTaskSwitchContext>
	prvTaskExitError();
 8009546:	f7ff fecb 	bl	80092e0 <prvTaskExitError>
}
 800954a:	4620      	mov	r0, r4
 800954c:	b003      	add	sp, #12
 800954e:	bd30      	pop	{r4, r5, pc}
 8009550:	e000e400 	.word	0xe000e400
 8009554:	200001f0 	.word	0x200001f0
 8009558:	200001f4 	.word	0x200001f4
 800955c:	e000ed20 	.word	0xe000ed20
 8009560:	20000010 	.word	0x20000010

08009564 <vPortValidateInterruptPriority>:
	{
	uint32_t ulCurrentInterrupt;
	uint8_t ucCurrentPriority;

		/* Obtain the number of the currently executing interrupt. */
		__asm volatile( "mrs %0, ipsr" : "=r"( ulCurrentInterrupt ) :: "memory" );
 8009564:	f3ef 8305 	mrs	r3, IPSR

		/* Is the interrupt number a user defined interrupt? */
		if( ulCurrentInterrupt >= portFIRST_USER_INTERRUPT_NUMBER )
 8009568:	2b0f      	cmp	r3, #15
 800956a:	d90e      	bls.n	800958a <vPortValidateInterruptPriority+0x26>
		{
			/* Look up the interrupt's priority. */
			ucCurrentPriority = pcInterruptPriorityRegisters[ ulCurrentInterrupt ];
 800956c:	4910      	ldr	r1, [pc, #64]	; (80095b0 <vPortValidateInterruptPriority+0x4c>)
			interrupt entry is as fast and simple as possible.

			The following links provide detailed information:
			http://www.freertos.org/RTOS-Cortex-M3-M4.html
			http://www.freertos.org/FAQHelp.html */
			configASSERT( ucCurrentPriority >= ucMaxSysCallPriority );
 800956e:	4a11      	ldr	r2, [pc, #68]	; (80095b4 <vPortValidateInterruptPriority+0x50>)
			ucCurrentPriority = pcInterruptPriorityRegisters[ ulCurrentInterrupt ];
 8009570:	5c5b      	ldrb	r3, [r3, r1]
			configASSERT( ucCurrentPriority >= ucMaxSysCallPriority );
 8009572:	7812      	ldrb	r2, [r2, #0]
 8009574:	429a      	cmp	r2, r3
 8009576:	d908      	bls.n	800958a <vPortValidateInterruptPriority+0x26>
 8009578:	f04f 0350 	mov.w	r3, #80	; 0x50
 800957c:	f383 8811 	msr	BASEPRI, r3
 8009580:	f3bf 8f6f 	isb	sy
 8009584:	f3bf 8f4f 	dsb	sy
 8009588:	e7fe      	b.n	8009588 <vPortValidateInterruptPriority+0x24>
		configuration then the correct setting can be achieved on all Cortex-M
		devices by calling NVIC_SetPriorityGrouping( 0 ); before starting the
		scheduler.  Note however that some vendor specific peripheral libraries
		assume a non-zero priority group setting, in which cases using a value
		of zero will result in unpredictable behaviour. */
		configASSERT( ( portAIRCR_REG & portPRIORITY_GROUP_MASK ) <= ulMaxPRIGROUPValue );
 800958a:	4b0b      	ldr	r3, [pc, #44]	; (80095b8 <vPortValidateInterruptPriority+0x54>)
 800958c:	4a0b      	ldr	r2, [pc, #44]	; (80095bc <vPortValidateInterruptPriority+0x58>)
 800958e:	681b      	ldr	r3, [r3, #0]
 8009590:	6812      	ldr	r2, [r2, #0]
 8009592:	f403 63e0 	and.w	r3, r3, #1792	; 0x700
 8009596:	4293      	cmp	r3, r2
 8009598:	d908      	bls.n	80095ac <vPortValidateInterruptPriority+0x48>
 800959a:	f04f 0350 	mov.w	r3, #80	; 0x50
 800959e:	f383 8811 	msr	BASEPRI, r3
 80095a2:	f3bf 8f6f 	isb	sy
 80095a6:	f3bf 8f4f 	dsb	sy
 80095aa:	e7fe      	b.n	80095aa <vPortValidateInterruptPriority+0x46>
	}
 80095ac:	4770      	bx	lr
 80095ae:	bf00      	nop
 80095b0:	e000e3f0 	.word	0xe000e3f0
 80095b4:	200001f0 	.word	0x200001f0
 80095b8:	e000ed0c 	.word	0xe000ed0c
 80095bc:	200001f4 	.word	0x200001f4

080095c0 <prvInsertBlockIntoFreeList>:
	xBlockAllocatedBit = ( ( size_t ) 1 ) << ( ( sizeof( size_t ) * heapBITS_PER_BYTE ) - 1 );
}
/*-----------------------------------------------------------*/

static void prvInsertBlockIntoFreeList( BlockLink_t *pxBlockToInsert )
{
 80095c0:	b430      	push	{r4, r5}
BlockLink_t *pxIterator;
uint8_t *puc;

	/* Iterate through the list until a block is found that has a higher address
	than the block being inserted. */
	for( pxIterator = &xStart; pxIterator->pxNextFreeBlock < pxBlockToInsert; pxIterator = pxIterator->pxNextFreeBlock )
 80095c2:	4b11      	ldr	r3, [pc, #68]	; (8009608 <prvInsertBlockIntoFreeList+0x48>)
 80095c4:	681a      	ldr	r2, [r3, #0]
 80095c6:	4282      	cmp	r2, r0
 80095c8:	d201      	bcs.n	80095ce <prvInsertBlockIntoFreeList+0xe>
 80095ca:	4613      	mov	r3, r2
 80095cc:	e7fa      	b.n	80095c4 <prvInsertBlockIntoFreeList+0x4>
	}

	/* Do the block being inserted, and the block it is being inserted after
	make a contiguous block of memory? */
	puc = ( uint8_t * ) pxIterator;
	if( ( puc + pxIterator->xBlockSize ) == ( uint8_t * ) pxBlockToInsert )
 80095ce:	685c      	ldr	r4, [r3, #4]
 80095d0:	1919      	adds	r1, r3, r4
 80095d2:	4288      	cmp	r0, r1
 80095d4:	d103      	bne.n	80095de <prvInsertBlockIntoFreeList+0x1e>
	{
		pxIterator->xBlockSize += pxBlockToInsert->xBlockSize;
 80095d6:	6841      	ldr	r1, [r0, #4]
 80095d8:	4618      	mov	r0, r3
 80095da:	4421      	add	r1, r4
 80095dc:	6059      	str	r1, [r3, #4]
	}

	/* Do the block being inserted, and the block it is being inserted before
	make a contiguous block of memory? */
	puc = ( uint8_t * ) pxBlockToInsert;
	if( ( puc + pxBlockToInsert->xBlockSize ) == ( uint8_t * ) pxIterator->pxNextFreeBlock )
 80095de:	6844      	ldr	r4, [r0, #4]
 80095e0:	1901      	adds	r1, r0, r4
 80095e2:	428a      	cmp	r2, r1
 80095e4:	d109      	bne.n	80095fa <prvInsertBlockIntoFreeList+0x3a>
	{
		if( pxIterator->pxNextFreeBlock != pxEnd )
 80095e6:	4909      	ldr	r1, [pc, #36]	; (800960c <prvInsertBlockIntoFreeList+0x4c>)
 80095e8:	6809      	ldr	r1, [r1, #0]
 80095ea:	428a      	cmp	r2, r1
 80095ec:	d005      	beq.n	80095fa <prvInsertBlockIntoFreeList+0x3a>
		{
			/* Form one big block from the two blocks. */
			pxBlockToInsert->xBlockSize += pxIterator->pxNextFreeBlock->xBlockSize;
			pxBlockToInsert->pxNextFreeBlock = pxIterator->pxNextFreeBlock->pxNextFreeBlock;
 80095ee:	e9d2 5100 	ldrd	r5, r1, [r2]
			pxBlockToInsert->xBlockSize += pxIterator->pxNextFreeBlock->xBlockSize;
 80095f2:	4421      	add	r1, r4
			pxBlockToInsert->pxNextFreeBlock = pxIterator->pxNextFreeBlock->pxNextFreeBlock;
 80095f4:	e9c0 5100 	strd	r5, r1, [r0]
 80095f8:	e000      	b.n	80095fc <prvInsertBlockIntoFreeList+0x3c>
			pxBlockToInsert->pxNextFreeBlock = pxEnd;
		}
	}
	else
	{
		pxBlockToInsert->pxNextFreeBlock = pxIterator->pxNextFreeBlock;
 80095fa:	6002      	str	r2, [r0, #0]

	/* If the block being inserted plugged a gab, so was merged with the block
	before and the block after, then it's pxNextFreeBlock pointer will have
	already been set, and should not be set here as that would make it point
	to itself. */
	if( pxIterator != pxBlockToInsert )
 80095fc:	4298      	cmp	r0, r3
	{
		pxIterator->pxNextFreeBlock = pxBlockToInsert;
 80095fe:	bf18      	it	ne
 8009600:	6018      	strne	r0, [r3, #0]
	}
	else
	{
		mtCOVERAGE_TEST_MARKER();
	}
}
 8009602:	bc30      	pop	{r4, r5}
 8009604:	4770      	bx	lr
 8009606:	bf00      	nop
 8009608:	20003e08 	.word	0x20003e08
 800960c:	200001f8 	.word	0x200001f8

08009610 <pvPortMalloc>:
{
 8009610:	e92d 41f0 	stmdb	sp!, {r4, r5, r6, r7, r8, lr}
		if( pxEnd == NULL )
 8009614:	4f43      	ldr	r7, [pc, #268]	; (8009724 <pvPortMalloc+0x114>)
{
 8009616:	4604      	mov	r4, r0
	vTaskSuspendAll();
 8009618:	f7ff fa92 	bl	8008b40 <vTaskSuspendAll>
		if( pxEnd == NULL )
 800961c:	683a      	ldr	r2, [r7, #0]
 800961e:	2a00      	cmp	r2, #0
 8009620:	d034      	beq.n	800968c <pvPortMalloc+0x7c>
 8009622:	4b41      	ldr	r3, [pc, #260]	; (8009728 <pvPortMalloc+0x118>)
 8009624:	681e      	ldr	r6, [r3, #0]
		if( ( xWantedSize & xBlockAllocatedBit ) == 0 )
 8009626:	4234      	tst	r4, r6
 8009628:	d152      	bne.n	80096d0 <pvPortMalloc+0xc0>
			if( xWantedSize > 0 )
 800962a:	2c00      	cmp	r4, #0
 800962c:	d050      	beq.n	80096d0 <pvPortMalloc+0xc0>
				xWantedSize += xHeapStructSize;
 800962e:	f104 0308 	add.w	r3, r4, #8
				if( ( xWantedSize & portBYTE_ALIGNMENT_MASK ) != 0x00 )
 8009632:	0758      	lsls	r0, r3, #29
					xWantedSize += ( portBYTE_ALIGNMENT - ( xWantedSize & portBYTE_ALIGNMENT_MASK ) );
 8009634:	bf1c      	itt	ne
 8009636:	f023 0307 	bicne.w	r3, r3, #7
 800963a:	3308      	addne	r3, #8
			if( ( xWantedSize > 0 ) && ( xWantedSize <= xFreeBytesRemaining ) )
 800963c:	2b00      	cmp	r3, #0
 800963e:	d047      	beq.n	80096d0 <pvPortMalloc+0xc0>
 8009640:	f8df 80f8 	ldr.w	r8, [pc, #248]	; 800973c <pvPortMalloc+0x12c>
 8009644:	f8d8 5000 	ldr.w	r5, [r8]
 8009648:	429d      	cmp	r5, r3
 800964a:	d341      	bcc.n	80096d0 <pvPortMalloc+0xc0>
				pxBlock = xStart.pxNextFreeBlock;
 800964c:	4837      	ldr	r0, [pc, #220]	; (800972c <pvPortMalloc+0x11c>)
 800964e:	6804      	ldr	r4, [r0, #0]
				while( ( pxBlock->xBlockSize < xWantedSize ) && ( pxBlock->pxNextFreeBlock != NULL ) )
 8009650:	e006      	b.n	8009660 <pvPortMalloc+0x50>
 8009652:	f8d4 c000 	ldr.w	ip, [r4]
 8009656:	f1bc 0f00 	cmp.w	ip, #0
 800965a:	d004      	beq.n	8009666 <pvPortMalloc+0x56>
 800965c:	4620      	mov	r0, r4
 800965e:	4664      	mov	r4, ip
 8009660:	6861      	ldr	r1, [r4, #4]
 8009662:	4299      	cmp	r1, r3
 8009664:	d3f5      	bcc.n	8009652 <pvPortMalloc+0x42>
				if( pxBlock != pxEnd )
 8009666:	4294      	cmp	r4, r2
 8009668:	d032      	beq.n	80096d0 <pvPortMalloc+0xc0>
					if( ( pxBlock->xBlockSize - xWantedSize ) > heapMINIMUM_BLOCK_SIZE )
 800966a:	1aca      	subs	r2, r1, r3
					pxPreviousBlock->pxNextFreeBlock = pxBlock->pxNextFreeBlock;
 800966c:	6827      	ldr	r7, [r4, #0]
					if( ( pxBlock->xBlockSize - xWantedSize ) > heapMINIMUM_BLOCK_SIZE )
 800966e:	2a10      	cmp	r2, #16
					pxPreviousBlock->pxNextFreeBlock = pxBlock->pxNextFreeBlock;
 8009670:	6007      	str	r7, [r0, #0]
					if( ( pxBlock->xBlockSize - xWantedSize ) > heapMINIMUM_BLOCK_SIZE )
 8009672:	d93a      	bls.n	80096ea <pvPortMalloc+0xda>
						pxNewBlockLink = ( void * ) ( ( ( uint8_t * ) pxBlock ) + xWantedSize );
 8009674:	18e0      	adds	r0, r4, r3
						configASSERT( ( ( ( size_t ) pxNewBlockLink ) & portBYTE_ALIGNMENT_MASK ) == 0 );
 8009676:	0741      	lsls	r1, r0, #29
 8009678:	d032      	beq.n	80096e0 <pvPortMalloc+0xd0>
 800967a:	f04f 0350 	mov.w	r3, #80	; 0x50
 800967e:	f383 8811 	msr	BASEPRI, r3
 8009682:	f3bf 8f6f 	isb	sy
 8009686:	f3bf 8f4f 	dsb	sy
 800968a:	e7fe      	b.n	800968a <pvPortMalloc+0x7a>
	uxAddress = ( size_t ) ucHeap;
 800968c:	4b28      	ldr	r3, [pc, #160]	; (8009730 <pvPortMalloc+0x120>)
	xStart.xBlockSize = ( size_t ) 0;
 800968e:	2000      	movs	r0, #0
	if( ( uxAddress & portBYTE_ALIGNMENT_MASK ) != 0 )
 8009690:	075d      	lsls	r5, r3, #29
	xBlockAllocatedBit = ( ( size_t ) 1 ) << ( ( sizeof( size_t ) * heapBITS_PER_BYTE ) - 1 );
 8009692:	f04f 4500 	mov.w	r5, #2147483648	; 0x80000000
		uxAddress += ( portBYTE_ALIGNMENT - 1 );
 8009696:	bf1c      	itt	ne
 8009698:	3307      	addne	r3, #7
		uxAddress &= ~( ( size_t ) portBYTE_ALIGNMENT_MASK );
 800969a:	f023 0307 	bicne.w	r3, r3, #7
	if( ( uxAddress & portBYTE_ALIGNMENT_MASK ) != 0 )
 800969e:	4619      	mov	r1, r3
	xBlockAllocatedBit = ( ( size_t ) 1 ) << ( ( sizeof( size_t ) * heapBITS_PER_BYTE ) - 1 );
 80096a0:	462e      	mov	r6, r5
	uxAddress -= xHeapStructSize;
 80096a2:	4a24      	ldr	r2, [pc, #144]	; (8009734 <pvPortMalloc+0x124>)
	xStart.pxNextFreeBlock = ( void * ) pucAlignedHeap;
 80096a4:	f8df c084 	ldr.w	ip, [pc, #132]	; 800972c <pvPortMalloc+0x11c>
	uxAddress &= ~( ( size_t ) portBYTE_ALIGNMENT_MASK );
 80096a8:	f022 0207 	bic.w	r2, r2, #7
	pxFirstFreeBlock->xBlockSize = uxAddress - ( size_t ) pxFirstFreeBlock;
 80096ac:	1ad3      	subs	r3, r2, r3
	xStart.xBlockSize = ( size_t ) 0;
 80096ae:	f8cc 0004 	str.w	r0, [ip, #4]
	xStart.pxNextFreeBlock = ( void * ) pucAlignedHeap;
 80096b2:	f8cc 1000 	str.w	r1, [ip]
	pxEnd = ( void * ) uxAddress;
 80096b6:	603a      	str	r2, [r7, #0]
	pxEnd->pxNextFreeBlock = NULL;
 80096b8:	e9c2 0000 	strd	r0, r0, [r2]
	xMinimumEverFreeBytesRemaining = pxFirstFreeBlock->xBlockSize;
 80096bc:	4f1e      	ldr	r7, [pc, #120]	; (8009738 <pvPortMalloc+0x128>)
	pxFirstFreeBlock->pxNextFreeBlock = pxEnd;
 80096be:	e9c1 2300 	strd	r2, r3, [r1]
	xFreeBytesRemaining = pxFirstFreeBlock->xBlockSize;
 80096c2:	481e      	ldr	r0, [pc, #120]	; (800973c <pvPortMalloc+0x12c>)
	xBlockAllocatedBit = ( ( size_t ) 1 ) << ( ( sizeof( size_t ) * heapBITS_PER_BYTE ) - 1 );
 80096c4:	4918      	ldr	r1, [pc, #96]	; (8009728 <pvPortMalloc+0x118>)
		if( ( xWantedSize & xBlockAllocatedBit ) == 0 )
 80096c6:	4234      	tst	r4, r6
	xMinimumEverFreeBytesRemaining = pxFirstFreeBlock->xBlockSize;
 80096c8:	603b      	str	r3, [r7, #0]
	xFreeBytesRemaining = pxFirstFreeBlock->xBlockSize;
 80096ca:	6003      	str	r3, [r0, #0]
	xBlockAllocatedBit = ( ( size_t ) 1 ) << ( ( sizeof( size_t ) * heapBITS_PER_BYTE ) - 1 );
 80096cc:	600d      	str	r5, [r1, #0]
		if( ( xWantedSize & xBlockAllocatedBit ) == 0 )
 80096ce:	d0ac      	beq.n	800962a <pvPortMalloc+0x1a>
	( void ) xTaskResumeAll();
 80096d0:	f7ff faea 	bl	8008ca8 <xTaskResumeAll>
			vApplicationMallocFailedHook();
 80096d4:	f7f6 ff02 	bl	80004dc <vApplicationMallocFailedHook>
 80096d8:	2400      	movs	r4, #0
}
 80096da:	4620      	mov	r0, r4
 80096dc:	e8bd 81f0 	ldmia.w	sp!, {r4, r5, r6, r7, r8, pc}
						pxNewBlockLink->xBlockSize = pxBlock->xBlockSize - xWantedSize;
 80096e0:	6042      	str	r2, [r0, #4]
						pxBlock->xBlockSize = xWantedSize;
 80096e2:	6063      	str	r3, [r4, #4]
						prvInsertBlockIntoFreeList( pxNewBlockLink );
 80096e4:	f7ff ff6c 	bl	80095c0 <prvInsertBlockIntoFreeList>
 80096e8:	6861      	ldr	r1, [r4, #4]
					pxBlock->pxNextFreeBlock = NULL;
 80096ea:	2300      	movs	r3, #0
					if( xFreeBytesRemaining < xMinimumEverFreeBytesRemaining )
 80096ec:	4a12      	ldr	r2, [pc, #72]	; (8009738 <pvPortMalloc+0x128>)
					xFreeBytesRemaining -= pxBlock->xBlockSize;
 80096ee:	1a6d      	subs	r5, r5, r1
					if( xFreeBytesRemaining < xMinimumEverFreeBytesRemaining )
 80096f0:	6810      	ldr	r0, [r2, #0]
					pxBlock->xBlockSize |= xBlockAllocatedBit;
 80096f2:	4331      	orrs	r1, r6
					if( xFreeBytesRemaining < xMinimumEverFreeBytesRemaining )
 80096f4:	4285      	cmp	r5, r0
					pxBlock->pxNextFreeBlock = NULL;
 80096f6:	e9c4 3100 	strd	r3, r1, [r4]
					pvReturn = ( void * ) ( ( ( uint8_t * ) pxPreviousBlock->pxNextFreeBlock ) + xHeapStructSize );
 80096fa:	f104 0408 	add.w	r4, r4, #8
						xMinimumEverFreeBytesRemaining = xFreeBytesRemaining;
 80096fe:	bf38      	it	cc
 8009700:	6015      	strcc	r5, [r2, #0]
					xFreeBytesRemaining -= pxBlock->xBlockSize;
 8009702:	f8c8 5000 	str.w	r5, [r8]
	( void ) xTaskResumeAll();
 8009706:	f7ff facf 	bl	8008ca8 <xTaskResumeAll>
		if( pvReturn == NULL )
 800970a:	2c00      	cmp	r4, #0
 800970c:	d0e2      	beq.n	80096d4 <pvPortMalloc+0xc4>
	configASSERT( ( ( ( size_t ) pvReturn ) & ( size_t ) portBYTE_ALIGNMENT_MASK ) == 0 );
 800970e:	0763      	lsls	r3, r4, #29
 8009710:	d0e3      	beq.n	80096da <pvPortMalloc+0xca>
 8009712:	f04f 0350 	mov.w	r3, #80	; 0x50
 8009716:	f383 8811 	msr	BASEPRI, r3
 800971a:	f3bf 8f6f 	isb	sy
 800971e:	f3bf 8f4f 	dsb	sy
 8009722:	e7fe      	b.n	8009722 <pvPortMalloc+0x112>
 8009724:	200001f8 	.word	0x200001f8
 8009728:	20003dfc 	.word	0x20003dfc
 800972c:	20003e08 	.word	0x20003e08
 8009730:	200001fc 	.word	0x200001fc
 8009734:	20003df4 	.word	0x20003df4
 8009738:	20003e04 	.word	0x20003e04
 800973c:	20003e00 	.word	0x20003e00

08009740 <vPortFree>:
	if( pv != NULL )
 8009740:	b1d0      	cbz	r0, 8009778 <vPortFree+0x38>
		configASSERT( ( pxLink->xBlockSize & xBlockAllocatedBit ) != 0 );
 8009742:	4a19      	ldr	r2, [pc, #100]	; (80097a8 <vPortFree+0x68>)
 8009744:	f850 3c04 	ldr.w	r3, [r0, #-4]
 8009748:	6812      	ldr	r2, [r2, #0]
 800974a:	4213      	tst	r3, r2
 800974c:	d108      	bne.n	8009760 <vPortFree+0x20>
 800974e:	f04f 0350 	mov.w	r3, #80	; 0x50
 8009752:	f383 8811 	msr	BASEPRI, r3
 8009756:	f3bf 8f6f 	isb	sy
 800975a:	f3bf 8f4f 	dsb	sy
 800975e:	e7fe      	b.n	800975e <vPortFree+0x1e>
		configASSERT( pxLink->pxNextFreeBlock == NULL );
 8009760:	f850 1c08 	ldr.w	r1, [r0, #-8]
 8009764:	b149      	cbz	r1, 800977a <vPortFree+0x3a>
 8009766:	f04f 0350 	mov.w	r3, #80	; 0x50
 800976a:	f383 8811 	msr	BASEPRI, r3
 800976e:	f3bf 8f6f 	isb	sy
 8009772:	f3bf 8f4f 	dsb	sy
 8009776:	e7fe      	b.n	8009776 <vPortFree+0x36>
 8009778:	4770      	bx	lr
{
 800977a:	b510      	push	{r4, lr}
 800977c:	4604      	mov	r4, r0
				pxLink->xBlockSize &= ~xBlockAllocatedBit;
 800977e:	ea23 0302 	bic.w	r3, r3, r2
 8009782:	f840 3c04 	str.w	r3, [r0, #-4]
				vTaskSuspendAll();
 8009786:	f7ff f9db 	bl	8008b40 <vTaskSuspendAll>
					xFreeBytesRemaining += pxLink->xBlockSize;
 800978a:	4a08      	ldr	r2, [pc, #32]	; (80097ac <vPortFree+0x6c>)
 800978c:	f854 3c04 	ldr.w	r3, [r4, #-4]
 8009790:	6811      	ldr	r1, [r2, #0]
					prvInsertBlockIntoFreeList( ( ( BlockLink_t * ) pxLink ) );
 8009792:	f1a4 0008 	sub.w	r0, r4, #8
					xFreeBytesRemaining += pxLink->xBlockSize;
 8009796:	440b      	add	r3, r1
 8009798:	6013      	str	r3, [r2, #0]
					prvInsertBlockIntoFreeList( ( ( BlockLink_t * ) pxLink ) );
 800979a:	f7ff ff11 	bl	80095c0 <prvInsertBlockIntoFreeList>
}
 800979e:	e8bd 4010 	ldmia.w	sp!, {r4, lr}
				( void ) xTaskResumeAll();
 80097a2:	f7ff ba81 	b.w	8008ca8 <xTaskResumeAll>
 80097a6:	bf00      	nop
 80097a8:	20003dfc 	.word	0x20003dfc
 80097ac:	20003e00 	.word	0x20003e00

080097b0 <__errno>:
 80097b0:	4b01      	ldr	r3, [pc, #4]	; (80097b8 <__errno+0x8>)
 80097b2:	6818      	ldr	r0, [r3, #0]
 80097b4:	4770      	bx	lr
 80097b6:	bf00      	nop
 80097b8:	20000014 	.word	0x20000014

080097bc <__libc_init_array>:
 80097bc:	b570      	push	{r4, r5, r6, lr}
 80097be:	2500      	movs	r5, #0
 80097c0:	4e0c      	ldr	r6, [pc, #48]	; (80097f4 <__libc_init_array+0x38>)
 80097c2:	4c0d      	ldr	r4, [pc, #52]	; (80097f8 <__libc_init_array+0x3c>)
 80097c4:	1ba4      	subs	r4, r4, r6
 80097c6:	10a4      	asrs	r4, r4, #2
 80097c8:	42a5      	cmp	r5, r4
 80097ca:	d109      	bne.n	80097e0 <__libc_init_array+0x24>
 80097cc:	f000 f92e 	bl	8009a2c <_init>
 80097d0:	2500      	movs	r5, #0
 80097d2:	4e0a      	ldr	r6, [pc, #40]	; (80097fc <__libc_init_array+0x40>)
 80097d4:	4c0a      	ldr	r4, [pc, #40]	; (8009800 <__libc_init_array+0x44>)
 80097d6:	1ba4      	subs	r4, r4, r6
 80097d8:	10a4      	asrs	r4, r4, #2
 80097da:	42a5      	cmp	r5, r4
 80097dc:	d105      	bne.n	80097ea <__libc_init_array+0x2e>
 80097de:	bd70      	pop	{r4, r5, r6, pc}
 80097e0:	f856 3025 	ldr.w	r3, [r6, r5, lsl #2]
 80097e4:	4798      	blx	r3
 80097e6:	3501      	adds	r5, #1
 80097e8:	e7ee      	b.n	80097c8 <__libc_init_array+0xc>
 80097ea:	f856 3025 	ldr.w	r3, [r6, r5, lsl #2]
 80097ee:	4798      	blx	r3
 80097f0:	3501      	adds	r5, #1
 80097f2:	e7f2      	b.n	80097da <__libc_init_array+0x1e>
 80097f4:	0802b39c 	.word	0x0802b39c
 80097f8:	0802b39c 	.word	0x0802b39c
 80097fc:	0802b39c 	.word	0x0802b39c
 8009800:	0802b3a0 	.word	0x0802b3a0

08009804 <malloc>:
 8009804:	4b02      	ldr	r3, [pc, #8]	; (8009810 <malloc+0xc>)
 8009806:	4601      	mov	r1, r0
 8009808:	6818      	ldr	r0, [r3, #0]
 800980a:	f000 b86b 	b.w	80098e4 <_malloc_r>
 800980e:	bf00      	nop
 8009810:	20000014 	.word	0x20000014

08009814 <free>:
 8009814:	4b02      	ldr	r3, [pc, #8]	; (8009820 <free+0xc>)
 8009816:	4601      	mov	r1, r0
 8009818:	6818      	ldr	r0, [r3, #0]
 800981a:	f000 b817 	b.w	800984c <_free_r>
 800981e:	bf00      	nop
 8009820:	20000014 	.word	0x20000014

08009824 <memcpy>:
 8009824:	b510      	push	{r4, lr}
 8009826:	1e43      	subs	r3, r0, #1
 8009828:	440a      	add	r2, r1
 800982a:	4291      	cmp	r1, r2
 800982c:	d100      	bne.n	8009830 <memcpy+0xc>
 800982e:	bd10      	pop	{r4, pc}
 8009830:	f811 4b01 	ldrb.w	r4, [r1], #1
 8009834:	f803 4f01 	strb.w	r4, [r3, #1]!
 8009838:	e7f7      	b.n	800982a <memcpy+0x6>

0800983a <memset>:
 800983a:	4603      	mov	r3, r0
 800983c:	4402      	add	r2, r0
 800983e:	4293      	cmp	r3, r2
 8009840:	d100      	bne.n	8009844 <memset+0xa>
 8009842:	4770      	bx	lr
 8009844:	f803 1b01 	strb.w	r1, [r3], #1
 8009848:	e7f9      	b.n	800983e <memset+0x4>
	...

0800984c <_free_r>:
 800984c:	b538      	push	{r3, r4, r5, lr}
 800984e:	4605      	mov	r5, r0
 8009850:	2900      	cmp	r1, #0
 8009852:	d043      	beq.n	80098dc <_free_r+0x90>
 8009854:	f851 3c04 	ldr.w	r3, [r1, #-4]
 8009858:	1f0c      	subs	r4, r1, #4
 800985a:	2b00      	cmp	r3, #0
 800985c:	bfb8      	it	lt
 800985e:	18e4      	addlt	r4, r4, r3
 8009860:	f000 f8e1 	bl	8009a26 <__malloc_lock>
 8009864:	4a1e      	ldr	r2, [pc, #120]	; (80098e0 <_free_r+0x94>)
 8009866:	6813      	ldr	r3, [r2, #0]
 8009868:	4610      	mov	r0, r2
 800986a:	b933      	cbnz	r3, 800987a <_free_r+0x2e>
 800986c:	6063      	str	r3, [r4, #4]
 800986e:	6014      	str	r4, [r2, #0]
 8009870:	4628      	mov	r0, r5
 8009872:	e8bd 4038 	ldmia.w	sp!, {r3, r4, r5, lr}
 8009876:	f000 b8d7 	b.w	8009a28 <__malloc_unlock>
 800987a:	42a3      	cmp	r3, r4
 800987c:	d90b      	bls.n	8009896 <_free_r+0x4a>
 800987e:	6821      	ldr	r1, [r4, #0]
 8009880:	1862      	adds	r2, r4, r1
 8009882:	4293      	cmp	r3, r2
 8009884:	bf01      	itttt	eq
 8009886:	681a      	ldreq	r2, [r3, #0]
 8009888:	685b      	ldreq	r3, [r3, #4]
 800988a:	1852      	addeq	r2, r2, r1
 800988c:	6022      	streq	r2, [r4, #0]
 800988e:	6063      	str	r3, [r4, #4]
 8009890:	6004      	str	r4, [r0, #0]
 8009892:	e7ed      	b.n	8009870 <_free_r+0x24>
 8009894:	4613      	mov	r3, r2
 8009896:	685a      	ldr	r2, [r3, #4]
 8009898:	b10a      	cbz	r2, 800989e <_free_r+0x52>
 800989a:	42a2      	cmp	r2, r4
 800989c:	d9fa      	bls.n	8009894 <_free_r+0x48>
 800989e:	6819      	ldr	r1, [r3, #0]
 80098a0:	1858      	adds	r0, r3, r1
 80098a2:	42a0      	cmp	r0, r4
 80098a4:	d10b      	bne.n	80098be <_free_r+0x72>
 80098a6:	6820      	ldr	r0, [r4, #0]
 80098a8:	4401      	add	r1, r0
 80098aa:	1858      	adds	r0, r3, r1
 80098ac:	4282      	cmp	r2, r0
 80098ae:	6019      	str	r1, [r3, #0]
 80098b0:	d1de      	bne.n	8009870 <_free_r+0x24>
 80098b2:	6810      	ldr	r0, [r2, #0]
 80098b4:	6852      	ldr	r2, [r2, #4]
 80098b6:	4401      	add	r1, r0
 80098b8:	6019      	str	r1, [r3, #0]
 80098ba:	605a      	str	r2, [r3, #4]
 80098bc:	e7d8      	b.n	8009870 <_free_r+0x24>
 80098be:	d902      	bls.n	80098c6 <_free_r+0x7a>
 80098c0:	230c      	movs	r3, #12
 80098c2:	602b      	str	r3, [r5, #0]
 80098c4:	e7d4      	b.n	8009870 <_free_r+0x24>
 80098c6:	6820      	ldr	r0, [r4, #0]
 80098c8:	1821      	adds	r1, r4, r0
 80098ca:	428a      	cmp	r2, r1
 80098cc:	bf01      	itttt	eq
 80098ce:	6811      	ldreq	r1, [r2, #0]
 80098d0:	6852      	ldreq	r2, [r2, #4]
 80098d2:	1809      	addeq	r1, r1, r0
 80098d4:	6021      	streq	r1, [r4, #0]
 80098d6:	6062      	str	r2, [r4, #4]
 80098d8:	605c      	str	r4, [r3, #4]
 80098da:	e7c9      	b.n	8009870 <_free_r+0x24>
 80098dc:	bd38      	pop	{r3, r4, r5, pc}
 80098de:	bf00      	nop
 80098e0:	20003e10 	.word	0x20003e10

080098e4 <_malloc_r>:
 80098e4:	b570      	push	{r4, r5, r6, lr}
 80098e6:	1ccd      	adds	r5, r1, #3
 80098e8:	f025 0503 	bic.w	r5, r5, #3
 80098ec:	3508      	adds	r5, #8
 80098ee:	2d0c      	cmp	r5, #12
 80098f0:	bf38      	it	cc
 80098f2:	250c      	movcc	r5, #12
 80098f4:	2d00      	cmp	r5, #0
 80098f6:	4606      	mov	r6, r0
 80098f8:	db01      	blt.n	80098fe <_malloc_r+0x1a>
 80098fa:	42a9      	cmp	r1, r5
 80098fc:	d903      	bls.n	8009906 <_malloc_r+0x22>
 80098fe:	230c      	movs	r3, #12
 8009900:	6033      	str	r3, [r6, #0]
 8009902:	2000      	movs	r0, #0
 8009904:	bd70      	pop	{r4, r5, r6, pc}
 8009906:	f000 f88e 	bl	8009a26 <__malloc_lock>
 800990a:	4a21      	ldr	r2, [pc, #132]	; (8009990 <_malloc_r+0xac>)
 800990c:	6814      	ldr	r4, [r2, #0]
 800990e:	4621      	mov	r1, r4
 8009910:	b991      	cbnz	r1, 8009938 <_malloc_r+0x54>
 8009912:	4c20      	ldr	r4, [pc, #128]	; (8009994 <_malloc_r+0xb0>)
 8009914:	6823      	ldr	r3, [r4, #0]
 8009916:	b91b      	cbnz	r3, 8009920 <_malloc_r+0x3c>
 8009918:	4630      	mov	r0, r6
 800991a:	f000 f83d 	bl	8009998 <_sbrk_r>
 800991e:	6020      	str	r0, [r4, #0]
 8009920:	4629      	mov	r1, r5
 8009922:	4630      	mov	r0, r6
 8009924:	f000 f838 	bl	8009998 <_sbrk_r>
 8009928:	1c43      	adds	r3, r0, #1
 800992a:	d124      	bne.n	8009976 <_malloc_r+0x92>
 800992c:	230c      	movs	r3, #12
 800992e:	4630      	mov	r0, r6
 8009930:	6033      	str	r3, [r6, #0]
 8009932:	f000 f879 	bl	8009a28 <__malloc_unlock>
 8009936:	e7e4      	b.n	8009902 <_malloc_r+0x1e>
 8009938:	680b      	ldr	r3, [r1, #0]
 800993a:	1b5b      	subs	r3, r3, r5
 800993c:	d418      	bmi.n	8009970 <_malloc_r+0x8c>
 800993e:	2b0b      	cmp	r3, #11
 8009940:	d90f      	bls.n	8009962 <_malloc_r+0x7e>
 8009942:	600b      	str	r3, [r1, #0]
 8009944:	18cc      	adds	r4, r1, r3
 8009946:	50cd      	str	r5, [r1, r3]
 8009948:	4630      	mov	r0, r6
 800994a:	f000 f86d 	bl	8009a28 <__malloc_unlock>
 800994e:	f104 000b 	add.w	r0, r4, #11
 8009952:	1d23      	adds	r3, r4, #4
 8009954:	f020 0007 	bic.w	r0, r0, #7
 8009958:	1ac3      	subs	r3, r0, r3
 800995a:	d0d3      	beq.n	8009904 <_malloc_r+0x20>
 800995c:	425a      	negs	r2, r3
 800995e:	50e2      	str	r2, [r4, r3]
 8009960:	e7d0      	b.n	8009904 <_malloc_r+0x20>
 8009962:	684b      	ldr	r3, [r1, #4]
 8009964:	428c      	cmp	r4, r1
 8009966:	bf16      	itet	ne
 8009968:	6063      	strne	r3, [r4, #4]
 800996a:	6013      	streq	r3, [r2, #0]
 800996c:	460c      	movne	r4, r1
 800996e:	e7eb      	b.n	8009948 <_malloc_r+0x64>
 8009970:	460c      	mov	r4, r1
 8009972:	6849      	ldr	r1, [r1, #4]
 8009974:	e7cc      	b.n	8009910 <_malloc_r+0x2c>
 8009976:	1cc4      	adds	r4, r0, #3
 8009978:	f024 0403 	bic.w	r4, r4, #3
 800997c:	42a0      	cmp	r0, r4
 800997e:	d005      	beq.n	800998c <_malloc_r+0xa8>
 8009980:	1a21      	subs	r1, r4, r0
 8009982:	4630      	mov	r0, r6
 8009984:	f000 f808 	bl	8009998 <_sbrk_r>
 8009988:	3001      	adds	r0, #1
 800998a:	d0cf      	beq.n	800992c <_malloc_r+0x48>
 800998c:	6025      	str	r5, [r4, #0]
 800998e:	e7db      	b.n	8009948 <_malloc_r+0x64>
 8009990:	20003e10 	.word	0x20003e10
 8009994:	20003e14 	.word	0x20003e14

08009998 <_sbrk_r>:
 8009998:	b538      	push	{r3, r4, r5, lr}
 800999a:	2300      	movs	r3, #0
 800999c:	4c05      	ldr	r4, [pc, #20]	; (80099b4 <_sbrk_r+0x1c>)
 800999e:	4605      	mov	r5, r0
 80099a0:	4608      	mov	r0, r1
 80099a2:	6023      	str	r3, [r4, #0]
 80099a4:	f7f7 fa90 	bl	8000ec8 <_sbrk>
 80099a8:	1c43      	adds	r3, r0, #1
 80099aa:	d102      	bne.n	80099b2 <_sbrk_r+0x1a>
 80099ac:	6823      	ldr	r3, [r4, #0]
 80099ae:	b103      	cbz	r3, 80099b2 <_sbrk_r+0x1a>
 80099b0:	602b      	str	r3, [r5, #0]
 80099b2:	bd38      	pop	{r3, r4, r5, pc}
 80099b4:	20004d50 	.word	0x20004d50

080099b8 <strcpy>:
 80099b8:	4603      	mov	r3, r0
 80099ba:	f811 2b01 	ldrb.w	r2, [r1], #1
 80099be:	f803 2b01 	strb.w	r2, [r3], #1
 80099c2:	2a00      	cmp	r2, #0
 80099c4:	d1f9      	bne.n	80099ba <strcpy+0x2>
 80099c6:	4770      	bx	lr

080099c8 <strncpy>:
 80099c8:	b570      	push	{r4, r5, r6, lr}
 80099ca:	4604      	mov	r4, r0
 80099cc:	3901      	subs	r1, #1
 80099ce:	b902      	cbnz	r2, 80099d2 <strncpy+0xa>
 80099d0:	bd70      	pop	{r4, r5, r6, pc}
 80099d2:	4623      	mov	r3, r4
 80099d4:	f811 5f01 	ldrb.w	r5, [r1, #1]!
 80099d8:	1e56      	subs	r6, r2, #1
 80099da:	f803 5b01 	strb.w	r5, [r3], #1
 80099de:	b92d      	cbnz	r5, 80099ec <strncpy+0x24>
 80099e0:	4414      	add	r4, r2
 80099e2:	42a3      	cmp	r3, r4
 80099e4:	d0f4      	beq.n	80099d0 <strncpy+0x8>
 80099e6:	f803 5b01 	strb.w	r5, [r3], #1
 80099ea:	e7fa      	b.n	80099e2 <strncpy+0x1a>
 80099ec:	461c      	mov	r4, r3
 80099ee:	4632      	mov	r2, r6
 80099f0:	e7ed      	b.n	80099ce <strncpy+0x6>

080099f2 <strstr>:
 80099f2:	b5f0      	push	{r4, r5, r6, r7, lr}
 80099f4:	7803      	ldrb	r3, [r0, #0]
 80099f6:	b17b      	cbz	r3, 8009a18 <strstr+0x26>
 80099f8:	4604      	mov	r4, r0
 80099fa:	7823      	ldrb	r3, [r4, #0]
 80099fc:	4620      	mov	r0, r4
 80099fe:	1c66      	adds	r6, r4, #1
 8009a00:	b17b      	cbz	r3, 8009a22 <strstr+0x30>
 8009a02:	1e4a      	subs	r2, r1, #1
 8009a04:	1e63      	subs	r3, r4, #1
 8009a06:	f812 5f01 	ldrb.w	r5, [r2, #1]!
 8009a0a:	b14d      	cbz	r5, 8009a20 <strstr+0x2e>
 8009a0c:	f813 7f01 	ldrb.w	r7, [r3, #1]!
 8009a10:	4634      	mov	r4, r6
 8009a12:	42af      	cmp	r7, r5
 8009a14:	d0f7      	beq.n	8009a06 <strstr+0x14>
 8009a16:	e7f0      	b.n	80099fa <strstr+0x8>
 8009a18:	780b      	ldrb	r3, [r1, #0]
 8009a1a:	2b00      	cmp	r3, #0
 8009a1c:	bf18      	it	ne
 8009a1e:	2000      	movne	r0, #0
 8009a20:	bdf0      	pop	{r4, r5, r6, r7, pc}
 8009a22:	4618      	mov	r0, r3
 8009a24:	e7fc      	b.n	8009a20 <strstr+0x2e>

08009a26 <__malloc_lock>:
 8009a26:	4770      	bx	lr

08009a28 <__malloc_unlock>:
 8009a28:	4770      	bx	lr
	...

08009a2c <_init>:
 8009a2c:	b5f8      	push	{r3, r4, r5, r6, r7, lr}
 8009a2e:	bf00      	nop
 8009a30:	bcf8      	pop	{r3, r4, r5, r6, r7}
 8009a32:	bc08      	pop	{r3}
 8009a34:	469e      	mov	lr, r3
 8009a36:	4770      	bx	lr

08009a38 <_fini>:
 8009a38:	b5f8      	push	{r3, r4, r5, r6, r7, lr}
 8009a3a:	bf00      	nop
 8009a3c:	bcf8      	pop	{r3, r4, r5, r6, r7}
 8009a3e:	bc08      	pop	{r3}
 8009a40:	469e      	mov	lr, r3
 8009a42:	4770      	bx	lr
