
RTOS_SDIO_DMA_TEST_F207ZG.elf:     file format elf32-littlearm

Sections:
Idx Name          Size      VMA       LMA       File off  Algn
  0 .isr_vector   00000184  08000000  08000000  00010000  2**0
                  CONTENTS, ALLOC, LOAD, READONLY, DATA
  1 .text         0000a5e0  08000190  08000190  00010190  2**4
                  CONTENTS, ALLOC, LOAD, READONLY, CODE
  2 .rodata       00000580  0800a770  0800a770  0001a770  2**2
                  CONTENTS, ALLOC, LOAD, READONLY, DATA
  3 .ARM.extab    00000000  0800acf0  0800acf0  00020014  2**0
                  CONTENTS
  4 .ARM          00000008  0800acf0  0800acf0  0001acf0  2**2
                  CONTENTS, ALLOC, LOAD, READONLY, DATA
  5 .preinit_array 00000000  0800acf8  0800acf8  00020014  2**0
                  CONTENTS, ALLOC, LOAD, DATA
  6 .init_array   00000004  0800acf8  0800acf8  0001acf8  2**2
                  CONTENTS, ALLOC, LOAD, DATA
  7 .fini_array   00000004  0800acfc  0800acfc  0001acfc  2**2
                  CONTENTS, ALLOC, LOAD, DATA
  8 .data         00000014  20000000  0800ad00  00020000  2**2
                  CONTENTS, ALLOC, LOAD, DATA
  9 .bss          0000a2ec  20000014  0800ad14  00020014  2**2
                  ALLOC
 10 ._user_heap_stack 00006000  2000a300  0800ad14  0002a300  2**0
                  ALLOC
 11 .ARM.attributes 00000029  00000000  00000000  00020014  2**0
                  CONTENTS, READONLY
 12 .debug_info   000334cd  00000000  00000000  0002003d  2**0
                  CONTENTS, READONLY, DEBUGGING
 13 .debug_abbrev 0000525d  00000000  00000000  0005350a  2**0
                  CONTENTS, READONLY, DEBUGGING
 14 .debug_aranges 000013b0  00000000  00000000  00058768  2**3
                  CONTENTS, READONLY, DEBUGGING
 15 .debug_ranges 000074c0  00000000  00000000  00059b18  2**3
                  CONTENTS, READONLY, DEBUGGING
 16 .debug_macro  00024004  00000000  00000000  00060fd8  2**0
                  CONTENTS, READONLY, DEBUGGING
 17 .debug_line   0001aefd  00000000  00000000  00084fdc  2**0
                  CONTENTS, READONLY, DEBUGGING
 18 .debug_str    000d21d6  00000000  00000000  0009fed9  2**0
                  CONTENTS, READONLY, DEBUGGING
 19 .comment      0000007b  00000000  00000000  001720af  2**0
                  CONTENTS, READONLY
 20 .debug_frame  000048ac  00000000  00000000  0017212c  2**2
                  CONTENTS, READONLY, DEBUGGING
 21 .debug_loc    00032086  00000000  00000000  001769d8  2**0
                  CONTENTS, READONLY, DEBUGGING

Disassembly of section .text:

08000190 <__do_global_dtors_aux>:
 8000190:	b510      	push	{r4, lr}
 8000192:	4c05      	ldr	r4, [pc, #20]	; (80001a8 <__do_global_dtors_aux+0x18>)
 8000194:	7823      	ldrb	r3, [r4, #0]
 8000196:	b933      	cbnz	r3, 80001a6 <__do_global_dtors_aux+0x16>
 8000198:	4b04      	ldr	r3, [pc, #16]	; (80001ac <__do_global_dtors_aux+0x1c>)
 800019a:	b113      	cbz	r3, 80001a2 <__do_global_dtors_aux+0x12>
 800019c:	4804      	ldr	r0, [pc, #16]	; (80001b0 <__do_global_dtors_aux+0x20>)
 800019e:	f3af 8000 	nop.w
 80001a2:	2301      	movs	r3, #1
 80001a4:	7023      	strb	r3, [r4, #0]
 80001a6:	bd10      	pop	{r4, pc}
 80001a8:	20000014 	.word	0x20000014
 80001ac:	00000000 	.word	0x00000000
 80001b0:	0800a758 	.word	0x0800a758

080001b4 <frame_dummy>:
 80001b4:	b508      	push	{r3, lr}
 80001b6:	4b03      	ldr	r3, [pc, #12]	; (80001c4 <frame_dummy+0x10>)
 80001b8:	b11b      	cbz	r3, 80001c2 <frame_dummy+0xe>
 80001ba:	4903      	ldr	r1, [pc, #12]	; (80001c8 <frame_dummy+0x14>)
 80001bc:	4803      	ldr	r0, [pc, #12]	; (80001cc <frame_dummy+0x18>)
 80001be:	f3af 8000 	nop.w
 80001c2:	bd08      	pop	{r3, pc}
 80001c4:	00000000 	.word	0x00000000
 80001c8:	20000018 	.word	0x20000018
 80001cc:	0800a758 	.word	0x0800a758

080001d0 <__aeabi_uldivmod>:
 80001d0:	b953      	cbnz	r3, 80001e8 <__aeabi_uldivmod+0x18>
 80001d2:	b94a      	cbnz	r2, 80001e8 <__aeabi_uldivmod+0x18>
 80001d4:	2900      	cmp	r1, #0
 80001d6:	bf08      	it	eq
 80001d8:	2800      	cmpeq	r0, #0
 80001da:	bf1c      	itt	ne
 80001dc:	f04f 31ff 	movne.w	r1, #4294967295
 80001e0:	f04f 30ff 	movne.w	r0, #4294967295
 80001e4:	f000 b974 	b.w	80004d0 <__aeabi_idiv0>
 80001e8:	f1ad 0c08 	sub.w	ip, sp, #8
 80001ec:	e96d ce04 	strd	ip, lr, [sp, #-16]!
 80001f0:	f000 f806 	bl	8000200 <__udivmoddi4>
 80001f4:	f8dd e004 	ldr.w	lr, [sp, #4]
 80001f8:	e9dd 2302 	ldrd	r2, r3, [sp, #8]
 80001fc:	b004      	add	sp, #16
 80001fe:	4770      	bx	lr

08000200 <__udivmoddi4>:
 8000200:	e92d 47f0 	stmdb	sp!, {r4, r5, r6, r7, r8, r9, sl, lr}
 8000204:	468c      	mov	ip, r1
 8000206:	4604      	mov	r4, r0
 8000208:	9e08      	ldr	r6, [sp, #32]
 800020a:	2b00      	cmp	r3, #0
 800020c:	d14b      	bne.n	80002a6 <__udivmoddi4+0xa6>
 800020e:	428a      	cmp	r2, r1
 8000210:	4615      	mov	r5, r2
 8000212:	d967      	bls.n	80002e4 <__udivmoddi4+0xe4>
 8000214:	fab2 f282 	clz	r2, r2
 8000218:	b14a      	cbz	r2, 800022e <__udivmoddi4+0x2e>
 800021a:	f1c2 0720 	rsb	r7, r2, #32
 800021e:	fa01 f302 	lsl.w	r3, r1, r2
 8000222:	fa20 f707 	lsr.w	r7, r0, r7
 8000226:	4095      	lsls	r5, r2
 8000228:	ea47 0c03 	orr.w	ip, r7, r3
 800022c:	4094      	lsls	r4, r2
 800022e:	ea4f 4e15 	mov.w	lr, r5, lsr #16
 8000232:	fbbc f7fe 	udiv	r7, ip, lr
 8000236:	fa1f f885 	uxth.w	r8, r5
 800023a:	fb0e c317 	mls	r3, lr, r7, ip
 800023e:	fb07 f908 	mul.w	r9, r7, r8
 8000242:	0c21      	lsrs	r1, r4, #16
 8000244:	ea41 4303 	orr.w	r3, r1, r3, lsl #16
 8000248:	4599      	cmp	r9, r3
 800024a:	d909      	bls.n	8000260 <__udivmoddi4+0x60>
 800024c:	18eb      	adds	r3, r5, r3
 800024e:	f107 31ff 	add.w	r1, r7, #4294967295
 8000252:	f080 811c 	bcs.w	800048e <__udivmoddi4+0x28e>
 8000256:	4599      	cmp	r9, r3
 8000258:	f240 8119 	bls.w	800048e <__udivmoddi4+0x28e>
 800025c:	3f02      	subs	r7, #2
 800025e:	442b      	add	r3, r5
 8000260:	eba3 0309 	sub.w	r3, r3, r9
 8000264:	fbb3 f0fe 	udiv	r0, r3, lr
 8000268:	fb0e 3310 	mls	r3, lr, r0, r3
 800026c:	fb00 f108 	mul.w	r1, r0, r8
 8000270:	b2a4      	uxth	r4, r4
 8000272:	ea44 4403 	orr.w	r4, r4, r3, lsl #16
 8000276:	42a1      	cmp	r1, r4
 8000278:	d909      	bls.n	800028e <__udivmoddi4+0x8e>
 800027a:	192c      	adds	r4, r5, r4
 800027c:	f100 33ff 	add.w	r3, r0, #4294967295
 8000280:	f080 8107 	bcs.w	8000492 <__udivmoddi4+0x292>
 8000284:	42a1      	cmp	r1, r4
 8000286:	f240 8104 	bls.w	8000492 <__udivmoddi4+0x292>
 800028a:	3802      	subs	r0, #2
 800028c:	442c      	add	r4, r5
 800028e:	ea40 4007 	orr.w	r0, r0, r7, lsl #16
 8000292:	2700      	movs	r7, #0
 8000294:	1a64      	subs	r4, r4, r1
 8000296:	b11e      	cbz	r6, 80002a0 <__udivmoddi4+0xa0>
 8000298:	2300      	movs	r3, #0
 800029a:	40d4      	lsrs	r4, r2
 800029c:	e9c6 4300 	strd	r4, r3, [r6]
 80002a0:	4639      	mov	r1, r7
 80002a2:	e8bd 87f0 	ldmia.w	sp!, {r4, r5, r6, r7, r8, r9, sl, pc}
 80002a6:	428b      	cmp	r3, r1
 80002a8:	d909      	bls.n	80002be <__udivmoddi4+0xbe>
 80002aa:	2e00      	cmp	r6, #0
 80002ac:	f000 80ec 	beq.w	8000488 <__udivmoddi4+0x288>
 80002b0:	2700      	movs	r7, #0
 80002b2:	e9c6 0100 	strd	r0, r1, [r6]
 80002b6:	4638      	mov	r0, r7
 80002b8:	4639      	mov	r1, r7
 80002ba:	e8bd 87f0 	ldmia.w	sp!, {r4, r5, r6, r7, r8, r9, sl, pc}
 80002be:	fab3 f783 	clz	r7, r3
 80002c2:	2f00      	cmp	r7, #0
 80002c4:	d148      	bne.n	8000358 <__udivmoddi4+0x158>
 80002c6:	428b      	cmp	r3, r1
 80002c8:	d302      	bcc.n	80002d0 <__udivmoddi4+0xd0>
 80002ca:	4282      	cmp	r2, r0
 80002cc:	f200 80fb 	bhi.w	80004c6 <__udivmoddi4+0x2c6>
 80002d0:	1a84      	subs	r4, r0, r2
 80002d2:	eb61 0303 	sbc.w	r3, r1, r3
 80002d6:	2001      	movs	r0, #1
 80002d8:	469c      	mov	ip, r3
 80002da:	2e00      	cmp	r6, #0
 80002dc:	d0e0      	beq.n	80002a0 <__udivmoddi4+0xa0>
 80002de:	e9c6 4c00 	strd	r4, ip, [r6]
 80002e2:	e7dd      	b.n	80002a0 <__udivmoddi4+0xa0>
 80002e4:	b902      	cbnz	r2, 80002e8 <__udivmoddi4+0xe8>
 80002e6:	deff      	udf	#255	; 0xff
 80002e8:	fab2 f282 	clz	r2, r2
 80002ec:	2a00      	cmp	r2, #0
 80002ee:	f040 808f 	bne.w	8000410 <__udivmoddi4+0x210>
 80002f2:	2701      	movs	r7, #1
 80002f4:	1b49      	subs	r1, r1, r5
 80002f6:	ea4f 4815 	mov.w	r8, r5, lsr #16
 80002fa:	fa1f f985 	uxth.w	r9, r5
 80002fe:	fbb1 fef8 	udiv	lr, r1, r8
 8000302:	fb08 111e 	mls	r1, r8, lr, r1
 8000306:	fb09 f00e 	mul.w	r0, r9, lr
 800030a:	ea4f 4c14 	mov.w	ip, r4, lsr #16
 800030e:	ea4c 4301 	orr.w	r3, ip, r1, lsl #16
 8000312:	4298      	cmp	r0, r3
 8000314:	d907      	bls.n	8000326 <__udivmoddi4+0x126>
 8000316:	18eb      	adds	r3, r5, r3
 8000318:	f10e 31ff 	add.w	r1, lr, #4294967295
 800031c:	d202      	bcs.n	8000324 <__udivmoddi4+0x124>
 800031e:	4298      	cmp	r0, r3
 8000320:	f200 80cd 	bhi.w	80004be <__udivmoddi4+0x2be>
 8000324:	468e      	mov	lr, r1
 8000326:	1a1b      	subs	r3, r3, r0
 8000328:	fbb3 f0f8 	udiv	r0, r3, r8
 800032c:	fb08 3310 	mls	r3, r8, r0, r3
 8000330:	fb09 f900 	mul.w	r9, r9, r0
 8000334:	b2a4      	uxth	r4, r4
 8000336:	ea44 4403 	orr.w	r4, r4, r3, lsl #16
 800033a:	45a1      	cmp	r9, r4
 800033c:	d907      	bls.n	800034e <__udivmoddi4+0x14e>
 800033e:	192c      	adds	r4, r5, r4
 8000340:	f100 33ff 	add.w	r3, r0, #4294967295
 8000344:	d202      	bcs.n	800034c <__udivmoddi4+0x14c>
 8000346:	45a1      	cmp	r9, r4
 8000348:	f200 80b6 	bhi.w	80004b8 <__udivmoddi4+0x2b8>
 800034c:	4618      	mov	r0, r3
 800034e:	eba4 0409 	sub.w	r4, r4, r9
 8000352:	ea40 400e 	orr.w	r0, r0, lr, lsl #16
 8000356:	e79e      	b.n	8000296 <__udivmoddi4+0x96>
 8000358:	f1c7 0520 	rsb	r5, r7, #32
 800035c:	40bb      	lsls	r3, r7
 800035e:	fa22 fc05 	lsr.w	ip, r2, r5
 8000362:	ea4c 0c03 	orr.w	ip, ip, r3
 8000366:	fa21 f405 	lsr.w	r4, r1, r5
 800036a:	ea4f 4e1c 	mov.w	lr, ip, lsr #16
 800036e:	fbb4 f9fe 	udiv	r9, r4, lr
 8000372:	fa1f f88c 	uxth.w	r8, ip
 8000376:	fb0e 4419 	mls	r4, lr, r9, r4
 800037a:	fa20 f305 	lsr.w	r3, r0, r5
 800037e:	40b9      	lsls	r1, r7
 8000380:	fb09 fa08 	mul.w	sl, r9, r8
 8000384:	4319      	orrs	r1, r3
 8000386:	0c0b      	lsrs	r3, r1, #16
 8000388:	ea43 4404 	orr.w	r4, r3, r4, lsl #16
 800038c:	45a2      	cmp	sl, r4
 800038e:	fa02 f207 	lsl.w	r2, r2, r7
 8000392:	fa00 f307 	lsl.w	r3, r0, r7
 8000396:	d90b      	bls.n	80003b0 <__udivmoddi4+0x1b0>
 8000398:	eb1c 0404 	adds.w	r4, ip, r4
 800039c:	f109 30ff 	add.w	r0, r9, #4294967295
 80003a0:	f080 8088 	bcs.w	80004b4 <__udivmoddi4+0x2b4>
 80003a4:	45a2      	cmp	sl, r4
 80003a6:	f240 8085 	bls.w	80004b4 <__udivmoddi4+0x2b4>
 80003aa:	f1a9 0902 	sub.w	r9, r9, #2
 80003ae:	4464      	add	r4, ip
 80003b0:	eba4 040a 	sub.w	r4, r4, sl
 80003b4:	fbb4 f0fe 	udiv	r0, r4, lr
 80003b8:	fb0e 4410 	mls	r4, lr, r0, r4
 80003bc:	fb00 fa08 	mul.w	sl, r0, r8
 80003c0:	b289      	uxth	r1, r1
 80003c2:	ea41 4404 	orr.w	r4, r1, r4, lsl #16
 80003c6:	45a2      	cmp	sl, r4
 80003c8:	d908      	bls.n	80003dc <__udivmoddi4+0x1dc>
 80003ca:	eb1c 0404 	adds.w	r4, ip, r4
 80003ce:	f100 31ff 	add.w	r1, r0, #4294967295
 80003d2:	d26b      	bcs.n	80004ac <__udivmoddi4+0x2ac>
 80003d4:	45a2      	cmp	sl, r4
 80003d6:	d969      	bls.n	80004ac <__udivmoddi4+0x2ac>
 80003d8:	3802      	subs	r0, #2
 80003da:	4464      	add	r4, ip
 80003dc:	ea40 4009 	orr.w	r0, r0, r9, lsl #16
 80003e0:	fba0 8902 	umull	r8, r9, r0, r2
 80003e4:	eba4 040a 	sub.w	r4, r4, sl
 80003e8:	454c      	cmp	r4, r9
 80003ea:	4641      	mov	r1, r8
 80003ec:	46ce      	mov	lr, r9
 80003ee:	d354      	bcc.n	800049a <__udivmoddi4+0x29a>
 80003f0:	d051      	beq.n	8000496 <__udivmoddi4+0x296>
 80003f2:	2e00      	cmp	r6, #0
 80003f4:	d069      	beq.n	80004ca <__udivmoddi4+0x2ca>
 80003f6:	1a5a      	subs	r2, r3, r1
 80003f8:	eb64 040e 	sbc.w	r4, r4, lr
 80003fc:	fa04 f505 	lsl.w	r5, r4, r5
 8000400:	fa22 f307 	lsr.w	r3, r2, r7
 8000404:	40fc      	lsrs	r4, r7
 8000406:	431d      	orrs	r5, r3
 8000408:	e9c6 5400 	strd	r5, r4, [r6]
 800040c:	2700      	movs	r7, #0
 800040e:	e747      	b.n	80002a0 <__udivmoddi4+0xa0>
 8000410:	4095      	lsls	r5, r2
 8000412:	f1c2 0320 	rsb	r3, r2, #32
 8000416:	fa21 f003 	lsr.w	r0, r1, r3
 800041a:	ea4f 4815 	mov.w	r8, r5, lsr #16
 800041e:	fbb0 f7f8 	udiv	r7, r0, r8
 8000422:	fa1f f985 	uxth.w	r9, r5
 8000426:	fb08 0017 	mls	r0, r8, r7, r0
 800042a:	fa24 f303 	lsr.w	r3, r4, r3
 800042e:	4091      	lsls	r1, r2
 8000430:	fb07 fc09 	mul.w	ip, r7, r9
 8000434:	430b      	orrs	r3, r1
 8000436:	0c19      	lsrs	r1, r3, #16
 8000438:	ea41 4100 	orr.w	r1, r1, r0, lsl #16
 800043c:	458c      	cmp	ip, r1
 800043e:	fa04 f402 	lsl.w	r4, r4, r2
 8000442:	d907      	bls.n	8000454 <__udivmoddi4+0x254>
 8000444:	1869      	adds	r1, r5, r1
 8000446:	f107 30ff 	add.w	r0, r7, #4294967295
 800044a:	d231      	bcs.n	80004b0 <__udivmoddi4+0x2b0>
 800044c:	458c      	cmp	ip, r1
 800044e:	d92f      	bls.n	80004b0 <__udivmoddi4+0x2b0>
 8000450:	3f02      	subs	r7, #2
 8000452:	4429      	add	r1, r5
 8000454:	eba1 010c 	sub.w	r1, r1, ip
 8000458:	fbb1 f0f8 	udiv	r0, r1, r8
 800045c:	fb08 1c10 	mls	ip, r8, r0, r1
 8000460:	fb00 fe09 	mul.w	lr, r0, r9
 8000464:	b299      	uxth	r1, r3
 8000466:	ea41 410c 	orr.w	r1, r1, ip, lsl #16
 800046a:	458e      	cmp	lr, r1
 800046c:	d907      	bls.n	800047e <__udivmoddi4+0x27e>
 800046e:	1869      	adds	r1, r5, r1
 8000470:	f100 33ff 	add.w	r3, r0, #4294967295
 8000474:	d218      	bcs.n	80004a8 <__udivmoddi4+0x2a8>
 8000476:	458e      	cmp	lr, r1
 8000478:	d916      	bls.n	80004a8 <__udivmoddi4+0x2a8>
 800047a:	3802      	subs	r0, #2
 800047c:	4429      	add	r1, r5
 800047e:	eba1 010e 	sub.w	r1, r1, lr
 8000482:	ea40 4707 	orr.w	r7, r0, r7, lsl #16
 8000486:	e73a      	b.n	80002fe <__udivmoddi4+0xfe>
 8000488:	4637      	mov	r7, r6
 800048a:	4630      	mov	r0, r6
 800048c:	e708      	b.n	80002a0 <__udivmoddi4+0xa0>
 800048e:	460f      	mov	r7, r1
 8000490:	e6e6      	b.n	8000260 <__udivmoddi4+0x60>
 8000492:	4618      	mov	r0, r3
 8000494:	e6fb      	b.n	800028e <__udivmoddi4+0x8e>
 8000496:	4543      	cmp	r3, r8
 8000498:	d2ab      	bcs.n	80003f2 <__udivmoddi4+0x1f2>
 800049a:	ebb8 0102 	subs.w	r1, r8, r2
 800049e:	eb69 020c 	sbc.w	r2, r9, ip
 80004a2:	3801      	subs	r0, #1
 80004a4:	4696      	mov	lr, r2
 80004a6:	e7a4      	b.n	80003f2 <__udivmoddi4+0x1f2>
 80004a8:	4618      	mov	r0, r3
 80004aa:	e7e8      	b.n	800047e <__udivmoddi4+0x27e>
 80004ac:	4608      	mov	r0, r1
 80004ae:	e795      	b.n	80003dc <__udivmoddi4+0x1dc>
 80004b0:	4607      	mov	r7, r0
 80004b2:	e7cf      	b.n	8000454 <__udivmoddi4+0x254>
 80004b4:	4681      	mov	r9, r0
 80004b6:	e77b      	b.n	80003b0 <__udivmoddi4+0x1b0>
 80004b8:	3802      	subs	r0, #2
 80004ba:	442c      	add	r4, r5
 80004bc:	e747      	b.n	800034e <__udivmoddi4+0x14e>
 80004be:	f1ae 0e02 	sub.w	lr, lr, #2
 80004c2:	442b      	add	r3, r5
 80004c4:	e72f      	b.n	8000326 <__udivmoddi4+0x126>
 80004c6:	4638      	mov	r0, r7
 80004c8:	e707      	b.n	80002da <__udivmoddi4+0xda>
 80004ca:	4637      	mov	r7, r6
 80004cc:	e6e8      	b.n	80002a0 <__udivmoddi4+0xa0>
 80004ce:	bf00      	nop

080004d0 <__aeabi_idiv0>:
 80004d0:	4770      	bx	lr
 80004d2:	bf00      	nop

080004d4 <vApplicationGetIdleTaskMemory>:
 80004d4:	2380      	movs	r3, #128	; 0x80
 80004d6:	b430      	push	{r4, r5}
 80004d8:	4d03      	ldr	r5, [pc, #12]	; (80004e8 <vApplicationGetIdleTaskMemory+0x14>)
 80004da:	4c04      	ldr	r4, [pc, #16]	; (80004ec <vApplicationGetIdleTaskMemory+0x18>)
 80004dc:	6005      	str	r5, [r0, #0]
 80004de:	600c      	str	r4, [r1, #0]
 80004e0:	6013      	str	r3, [r2, #0]
 80004e2:	bc30      	pop	{r4, r5}
 80004e4:	4770      	bx	lr
 80004e6:	bf00      	nop
 80004e8:	20000230 	.word	0x20000230
 80004ec:	20000030 	.word	0x20000030

080004f0 <LEDTaskFunc>:
 * @param argument: Not used
 * @retval None
 */
/* USER CODE END Header_LEDTaskFunc */
void LEDTaskFunc(void const *argument)
{
 80004f0:	b508      	push	{r3, lr}
	/* USER CODE BEGIN LEDTaskFunc */
	/* Infinite loop */
	for (;;)
	{
		osDelay(1);
 80004f2:	2001      	movs	r0, #1
 80004f4:	f007 ff46 	bl	8008384 <osDelay>
 80004f8:	e7fb      	b.n	80004f2 <LEDTaskFunc+0x2>
 80004fa:	bf00      	nop

080004fc <SDcardTaskFunc>:
{
 80004fc:	b500      	push	{lr}
	if (isInitialized == 0)
 80004fe:	4c3e      	ldr	r4, [pc, #248]	; (80005f8 <SDcardTaskFunc+0xfc>)
{
 8000500:	b0b3      	sub	sp, #204	; 0xcc
	if (isInitialized == 0)
 8000502:	7823      	ldrb	r3, [r4, #0]
 8000504:	2b00      	cmp	r3, #0
 8000506:	d065      	beq.n	80005d4 <SDcardTaskFunc+0xd8>
	MX_FATFS_Init();
 8000508:	f002 ffb4 	bl	8003474 <MX_FATFS_Init>
	uint8_t wtext[] =
 800050c:	2253      	movs	r2, #83	; 0x53
 800050e:	493b      	ldr	r1, [pc, #236]	; (80005fc <SDcardTaskFunc+0x100>)
 8000510:	a804      	add	r0, sp, #16
 8000512:	f00a f90d 	bl	800a730 <memcpy>
	if (f_mount(&SDFatFs, (TCHAR const*) SDPath, 0) == FR_OK)
 8000516:	2200      	movs	r2, #0
 8000518:	4939      	ldr	r1, [pc, #228]	; (8000600 <SDcardTaskFunc+0x104>)
 800051a:	483a      	ldr	r0, [pc, #232]	; (8000604 <SDcardTaskFunc+0x108>)
 800051c:	f005 fb50 	bl	8005bc0 <f_mount>
 8000520:	b9a0      	cbnz	r0, 800054c <SDcardTaskFunc+0x50>
		if (isFsCreated == 0)
 8000522:	4c39      	ldr	r4, [pc, #228]	; (8000608 <SDcardTaskFunc+0x10c>)
 8000524:	7822      	ldrb	r2, [r4, #0]
 8000526:	b95a      	cbnz	r2, 8000540 <SDcardTaskFunc+0x44>
			if (f_mkfs(SDPath, FM_ANY, 0, workBuffer, sizeof(workBuffer))
 8000528:	f44f 5300 	mov.w	r3, #8192	; 0x2000
 800052c:	2107      	movs	r1, #7
 800052e:	9300      	str	r3, [sp, #0]
 8000530:	4833      	ldr	r0, [pc, #204]	; (8000600 <SDcardTaskFunc+0x104>)
 8000532:	4b36      	ldr	r3, [pc, #216]	; (800060c <SDcardTaskFunc+0x110>)
 8000534:	f007 f9ce 	bl	80078d4 <f_mkfs>
 8000538:	2800      	cmp	r0, #0
 800053a:	d156      	bne.n	80005ea <SDcardTaskFunc+0xee>
			isFsCreated = 1;
 800053c:	2301      	movs	r3, #1
 800053e:	7023      	strb	r3, [r4, #0]
		if (f_mount(&SDFatFs, (TCHAR const*) SDPath, 0) == FR_OK)
 8000540:	2200      	movs	r2, #0
 8000542:	492f      	ldr	r1, [pc, #188]	; (8000600 <SDcardTaskFunc+0x104>)
 8000544:	482f      	ldr	r0, [pc, #188]	; (8000604 <SDcardTaskFunc+0x108>)
 8000546:	f005 fb3b 	bl	8005bc0 <f_mount>
 800054a:	b170      	cbz	r0, 800056a <SDcardTaskFunc+0x6e>
	HAL_GPIO_WritePin(LD3_GPIO_Port, LD3_Pin, GPIO_PIN_RESET);
 800054c:	2200      	movs	r2, #0
 800054e:	f44f 4180 	mov.w	r1, #16384	; 0x4000
 8000552:	482f      	ldr	r0, [pc, #188]	; (8000610 <SDcardTaskFunc+0x114>)
 8000554:	f000 ff50 	bl	80013f8 <HAL_GPIO_WritePin>
		HAL_GPIO_TogglePin(LD1_GPIO_Port, LD1_Pin);
 8000558:	4c2d      	ldr	r4, [pc, #180]	; (8000610 <SDcardTaskFunc+0x114>)
 800055a:	4620      	mov	r0, r4
 800055c:	2101      	movs	r1, #1
 800055e:	f000 ff4f 	bl	8001400 <HAL_GPIO_TogglePin>
		osDelay(100);
 8000562:	2064      	movs	r0, #100	; 0x64
 8000564:	f007 ff0e 	bl	8008384 <osDelay>
 8000568:	e7f7      	b.n	800055a <SDcardTaskFunc+0x5e>
			if (f_open(&MyFile, "STM321.TXT", FA_CREATE_ALWAYS | FA_WRITE)
 800056a:	220a      	movs	r2, #10
 800056c:	4929      	ldr	r1, [pc, #164]	; (8000614 <SDcardTaskFunc+0x118>)
 800056e:	482a      	ldr	r0, [pc, #168]	; (8000618 <SDcardTaskFunc+0x11c>)
 8000570:	f005 feb8 	bl	80062e4 <f_open>
 8000574:	2800      	cmp	r0, #0
 8000576:	d1e9      	bne.n	800054c <SDcardTaskFunc+0x50>
				res = f_write(&MyFile, wtext, sizeof(wtext),
 8000578:	ab02      	add	r3, sp, #8
 800057a:	a904      	add	r1, sp, #16
 800057c:	2253      	movs	r2, #83	; 0x53
 800057e:	4826      	ldr	r0, [pc, #152]	; (8000618 <SDcardTaskFunc+0x11c>)
 8000580:	f006 fe64 	bl	800724c <f_write>
				if ((byteswritten > 0) && (res == FR_OK))
 8000584:	9b02      	ldr	r3, [sp, #8]
 8000586:	2b00      	cmp	r3, #0
 8000588:	d0e0      	beq.n	800054c <SDcardTaskFunc+0x50>
 800058a:	2800      	cmp	r0, #0
 800058c:	d1de      	bne.n	800054c <SDcardTaskFunc+0x50>
					f_close(&MyFile);
 800058e:	4822      	ldr	r0, [pc, #136]	; (8000618 <SDcardTaskFunc+0x11c>)
 8000590:	f007 f89a 	bl	80076c8 <f_close>
					if (f_open(&MyFile, "STM321.TXT", FA_READ) == FR_OK)
 8000594:	2201      	movs	r2, #1
 8000596:	491f      	ldr	r1, [pc, #124]	; (8000614 <SDcardTaskFunc+0x118>)
 8000598:	481f      	ldr	r0, [pc, #124]	; (8000618 <SDcardTaskFunc+0x11c>)
 800059a:	f005 fea3 	bl	80062e4 <f_open>
 800059e:	2800      	cmp	r0, #0
 80005a0:	d1d4      	bne.n	800054c <SDcardTaskFunc+0x50>
						res = f_read(&MyFile, rtext, sizeof(rtext),
 80005a2:	2264      	movs	r2, #100	; 0x64
 80005a4:	ab03      	add	r3, sp, #12
 80005a6:	eb0d 0102 	add.w	r1, sp, r2
 80005aa:	481b      	ldr	r0, [pc, #108]	; (8000618 <SDcardTaskFunc+0x11c>)
 80005ac:	f006 fc28 	bl	8006e00 <f_read>
						if ((bytesread > 0) && (res == FR_OK))
 80005b0:	9b03      	ldr	r3, [sp, #12]
 80005b2:	2b00      	cmp	r3, #0
 80005b4:	d0ca      	beq.n	800054c <SDcardTaskFunc+0x50>
 80005b6:	2800      	cmp	r0, #0
 80005b8:	d1c8      	bne.n	800054c <SDcardTaskFunc+0x50>
							f_close(&MyFile);
 80005ba:	4817      	ldr	r0, [pc, #92]	; (8000618 <SDcardTaskFunc+0x11c>)
 80005bc:	f007 f884 	bl	80076c8 <f_close>
							if ((bytesread == byteswritten))
 80005c0:	e9dd 3202 	ldrd	r3, r2, [sp, #8]
 80005c4:	429a      	cmp	r2, r3
 80005c6:	d1c1      	bne.n	800054c <SDcardTaskFunc+0x50>
								HAL_GPIO_WritePin(LD2_GPIO_Port, LD2_Pin,
 80005c8:	2201      	movs	r2, #1
 80005ca:	2180      	movs	r1, #128	; 0x80
 80005cc:	4810      	ldr	r0, [pc, #64]	; (8000610 <SDcardTaskFunc+0x114>)
 80005ce:	f000 ff13 	bl	80013f8 <HAL_GPIO_WritePin>
 80005d2:	e7c1      	b.n	8000558 <SDcardTaskFunc+0x5c>
		BSP_SD_Init();
 80005d4:	f002 ffaa 	bl	800352c <BSP_SD_Init>
		BSP_SD_ITConfig();
 80005d8:	f002 ff5c 	bl	8003494 <BSP_SD_ITConfig>
		if (BSP_SD_IsDetected())
 80005dc:	f002 ff96 	bl	800350c <BSP_SD_IsDetected>
 80005e0:	2800      	cmp	r0, #0
 80005e2:	d091      	beq.n	8000508 <SDcardTaskFunc+0xc>
			isInitialized = 1;
 80005e4:	2301      	movs	r3, #1
 80005e6:	7023      	strb	r3, [r4, #0]
 80005e8:	e78e      	b.n	8000508 <SDcardTaskFunc+0xc>
				HAL_GPIO_WritePin(LD3_GPIO_Port, LD3_Pin, GPIO_PIN_SET);
 80005ea:	2201      	movs	r2, #1
 80005ec:	f44f 4180 	mov.w	r1, #16384	; 0x4000
 80005f0:	4807      	ldr	r0, [pc, #28]	; (8000610 <SDcardTaskFunc+0x114>)
 80005f2:	f000 ff01 	bl	80013f8 <HAL_GPIO_WritePin>
 80005f6:	e7af      	b.n	8000558 <SDcardTaskFunc+0x5c>
 80005f8:	20000285 	.word	0x20000285
 80005fc:	0800a7c4 	.word	0x0800a7c4
 8000600:	200060b0 	.word	0x200060b0
 8000604:	200060b4 	.word	0x200060b4
 8000608:	20000284 	.word	0x20000284
 800060c:	200040b0 	.word	0x200040b0
 8000610:	40020400 	.word	0x40020400
 8000614:	0800a7b8 	.word	0x0800a7b8
 8000618:	200071d4 	.word	0x200071d4

0800061c <HAL_GPIO_EXTI_Callback>:
}
 800061c:	4770      	bx	lr
 800061e:	bf00      	nop

08000620 <SystemClock_Config>:
{
 8000620:	b570      	push	{r4, r5, r6, lr}
	RCC_OscInitStruct.HSICalibrationValue = RCC_HSICALIBRATION_DEFAULT;
 8000622:	2010      	movs	r0, #16
	RCC_OscInitStruct.HSIState = RCC_HSI_ON;
 8000624:	2601      	movs	r6, #1
	RCC_OscInitTypeDef RCC_OscInitStruct =
 8000626:	2400      	movs	r4, #0
	RCC_OscInitStruct.OscillatorType = RCC_OSCILLATORTYPE_HSI;
 8000628:	2502      	movs	r5, #2
	RCC_OscInitStruct.PLL.PLLM = 13;
 800062a:	210d      	movs	r1, #13
	RCC_OscInitStruct.PLL.PLLN = 195;
 800062c:	22c3      	movs	r2, #195	; 0xc3
	RCC_OscInitStruct.PLL.PLLQ = 5;
 800062e:	2305      	movs	r3, #5
{
 8000630:	b092      	sub	sp, #72	; 0x48
	RCC_OscInitStruct.HSICalibrationValue = RCC_HSICALIBRATION_DEFAULT;
 8000632:	e9cd 6009 	strd	r6, r0, [sp, #36]	; 0x24
	if (HAL_RCC_OscConfig(&RCC_OscInitStruct) != HAL_OK)
 8000636:	a806      	add	r0, sp, #24
	RCC_OscInitStruct.PLL.PLLM = 13;
 8000638:	910e      	str	r1, [sp, #56]	; 0x38
	RCC_OscInitStruct.PLL.PLLN = 195;
 800063a:	920f      	str	r2, [sp, #60]	; 0x3c
	RCC_OscInitStruct.PLL.PLLQ = 5;
 800063c:	9311      	str	r3, [sp, #68]	; 0x44
	RCC_OscInitTypeDef RCC_OscInitStruct =
 800063e:	9407      	str	r4, [sp, #28]
	RCC_ClkInitTypeDef RCC_ClkInitStruct =
 8000640:	9401      	str	r4, [sp, #4]
	RCC_OscInitTypeDef RCC_OscInitStruct =
 8000642:	9408      	str	r4, [sp, #32]
 8000644:	940b      	str	r4, [sp, #44]	; 0x2c
 8000646:	940d      	str	r4, [sp, #52]	; 0x34
	RCC_ClkInitTypeDef RCC_ClkInitStruct =
 8000648:	e9cd 4402 	strd	r4, r4, [sp, #8]
 800064c:	e9cd 4404 	strd	r4, r4, [sp, #16]
	RCC_OscInitStruct.OscillatorType = RCC_OSCILLATORTYPE_HSI;
 8000650:	9506      	str	r5, [sp, #24]
	RCC_OscInitStruct.PLL.PLLState = RCC_PLL_ON;
 8000652:	950c      	str	r5, [sp, #48]	; 0x30
	RCC_OscInitStruct.PLL.PLLP = RCC_PLLP_DIV2;
 8000654:	9510      	str	r5, [sp, #64]	; 0x40
	RCC_ClkInitStruct.ClockType = RCC_CLOCKTYPE_HCLK | RCC_CLOCKTYPE_SYSCLK
 8000656:	260f      	movs	r6, #15
	if (HAL_RCC_OscConfig(&RCC_OscInitStruct) != HAL_OK)
 8000658:	f000 fee8 	bl	800142c <HAL_RCC_OscConfig>
	RCC_ClkInitStruct.APB1CLKDivider = RCC_HCLK_DIV4;
 800065c:	f44f 52a0 	mov.w	r2, #5120	; 0x1400
	RCC_ClkInitStruct.APB2CLKDivider = RCC_HCLK_DIV2;
 8000660:	f44f 5380 	mov.w	r3, #4096	; 0x1000
	if (HAL_RCC_ClockConfig(&RCC_ClkInitStruct, FLASH_LATENCY_3) != HAL_OK)
 8000664:	a801      	add	r0, sp, #4
 8000666:	2103      	movs	r1, #3
	RCC_ClkInitStruct.AHBCLKDivider = RCC_SYSCLK_DIV1;
 8000668:	9403      	str	r4, [sp, #12]
	RCC_ClkInitStruct.ClockType = RCC_CLOCKTYPE_HCLK | RCC_CLOCKTYPE_SYSCLK
 800066a:	e9cd 6501 	strd	r6, r5, [sp, #4]
	RCC_ClkInitStruct.APB2CLKDivider = RCC_HCLK_DIV2;
 800066e:	e9cd 2304 	strd	r2, r3, [sp, #16]
	if (HAL_RCC_ClockConfig(&RCC_ClkInitStruct, FLASH_LATENCY_3) != HAL_OK)
 8000672:	f001 f89d 	bl	80017b0 <HAL_RCC_ClockConfig>
}
 8000676:	b012      	add	sp, #72	; 0x48
 8000678:	bd70      	pop	{r4, r5, r6, pc}
 800067a:	bf00      	nop

0800067c <main>:
	GPIO_InitTypeDef GPIO_InitStruct =
 800067c:	2400      	movs	r4, #0
{
 800067e:	e92d 4880 	stmdb	sp!, {r7, fp, lr}
 8000682:	b097      	sub	sp, #92	; 0x5c
	GPIO_InitStruct.Mode = GPIO_MODE_AF_PP;
 8000684:	2702      	movs	r7, #2
	HAL_Init();
 8000686:	f000 fb47 	bl	8000d18 <HAL_Init>
	SystemClock_Config();
 800068a:	f7ff ffc9 	bl	8000620 <SystemClock_Config>
	GPIO_InitTypeDef GPIO_InitStruct =
 800068e:	e9cd 4410 	strd	r4, r4, [sp, #64]	; 0x40
 8000692:	e9cd 4412 	strd	r4, r4, [sp, #72]	; 0x48
	__HAL_RCC_GPIOC_CLK_ENABLE();
 8000696:	4d9b      	ldr	r5, [pc, #620]	; (8000904 <main+0x288>)
 8000698:	9401      	str	r4, [sp, #4]
	GPIO_InitTypeDef GPIO_InitStruct =
 800069a:	940f      	str	r4, [sp, #60]	; 0x3c
	__HAL_RCC_GPIOC_CLK_ENABLE();
 800069c:	6b2b      	ldr	r3, [r5, #48]	; 0x30
	HAL_GPIO_WritePin(GPIOB, LD1_Pin | LD3_Pin | LD2_Pin, GPIO_PIN_RESET);
 800069e:	4622      	mov	r2, r4
	__HAL_RCC_GPIOC_CLK_ENABLE();
 80006a0:	f043 0304 	orr.w	r3, r3, #4
 80006a4:	632b      	str	r3, [r5, #48]	; 0x30
 80006a6:	6b2b      	ldr	r3, [r5, #48]	; 0x30
	HAL_GPIO_WritePin(GPIOB, LD1_Pin | LD3_Pin | LD2_Pin, GPIO_PIN_RESET);
 80006a8:	f244 0181 	movw	r1, #16513	; 0x4081
	__HAL_RCC_GPIOC_CLK_ENABLE();
 80006ac:	f003 0304 	and.w	r3, r3, #4
 80006b0:	9301      	str	r3, [sp, #4]
 80006b2:	9b01      	ldr	r3, [sp, #4]
	__HAL_RCC_GPIOH_CLK_ENABLE();
 80006b4:	9402      	str	r4, [sp, #8]
 80006b6:	6b2b      	ldr	r3, [r5, #48]	; 0x30
	HAL_GPIO_WritePin(GPIOB, LD1_Pin | LD3_Pin | LD2_Pin, GPIO_PIN_RESET);
 80006b8:	4893      	ldr	r0, [pc, #588]	; (8000908 <main+0x28c>)
	__HAL_RCC_GPIOH_CLK_ENABLE();
 80006ba:	f043 0380 	orr.w	r3, r3, #128	; 0x80
 80006be:	632b      	str	r3, [r5, #48]	; 0x30
 80006c0:	6b2b      	ldr	r3, [r5, #48]	; 0x30
	GPIO_InitStruct.Mode = GPIO_MODE_IT_RISING;
 80006c2:	f8df b270 	ldr.w	fp, [pc, #624]	; 8000934 <main+0x2b8>
	__HAL_RCC_GPIOH_CLK_ENABLE();
 80006c6:	f003 0380 	and.w	r3, r3, #128	; 0x80
 80006ca:	9302      	str	r3, [sp, #8]
 80006cc:	9b02      	ldr	r3, [sp, #8]
	__HAL_RCC_GPIOA_CLK_ENABLE();
 80006ce:	9403      	str	r4, [sp, #12]
 80006d0:	6b2b      	ldr	r3, [r5, #48]	; 0x30
	GPIO_InitStruct.Speed = GPIO_SPEED_FREQ_VERY_HIGH;
 80006d2:	2603      	movs	r6, #3
	__HAL_RCC_GPIOA_CLK_ENABLE();
 80006d4:	f043 0301 	orr.w	r3, r3, #1
 80006d8:	632b      	str	r3, [r5, #48]	; 0x30
 80006da:	6b2b      	ldr	r3, [r5, #48]	; 0x30
	GPIO_InitStruct.Alternate = GPIO_AF11_ETH;
 80006dc:	f04f 090b 	mov.w	r9, #11
	__HAL_RCC_GPIOA_CLK_ENABLE();
 80006e0:	f003 0301 	and.w	r3, r3, #1
 80006e4:	9303      	str	r3, [sp, #12]
 80006e6:	9b03      	ldr	r3, [sp, #12]
	__HAL_RCC_GPIOB_CLK_ENABLE();
 80006e8:	9404      	str	r4, [sp, #16]
 80006ea:	6b2b      	ldr	r3, [r5, #48]	; 0x30
	GPIO_InitStruct.Pin = RMII_REF_CLK_Pin | RMII_MDIO_Pin;
 80006ec:	f04f 0a06 	mov.w	sl, #6
	__HAL_RCC_GPIOB_CLK_ENABLE();
 80006f0:	433b      	orrs	r3, r7
 80006f2:	632b      	str	r3, [r5, #48]	; 0x30
 80006f4:	6b2b      	ldr	r3, [r5, #48]	; 0x30
	GPIO_InitStruct.Mode = GPIO_MODE_OUTPUT_PP;
 80006f6:	f04f 0801 	mov.w	r8, #1
	__HAL_RCC_GPIOB_CLK_ENABLE();
 80006fa:	403b      	ands	r3, r7
 80006fc:	9304      	str	r3, [sp, #16]
 80006fe:	9b04      	ldr	r3, [sp, #16]
	__HAL_RCC_GPIOE_CLK_ENABLE();
 8000700:	9405      	str	r4, [sp, #20]
 8000702:	6b2b      	ldr	r3, [r5, #48]	; 0x30
 8000704:	f043 0310 	orr.w	r3, r3, #16
 8000708:	632b      	str	r3, [r5, #48]	; 0x30
 800070a:	6b2b      	ldr	r3, [r5, #48]	; 0x30
 800070c:	f003 0310 	and.w	r3, r3, #16
 8000710:	9305      	str	r3, [sp, #20]
 8000712:	9b05      	ldr	r3, [sp, #20]
	__HAL_RCC_GPIOD_CLK_ENABLE();
 8000714:	9406      	str	r4, [sp, #24]
 8000716:	6b2b      	ldr	r3, [r5, #48]	; 0x30
 8000718:	f043 0308 	orr.w	r3, r3, #8
 800071c:	632b      	str	r3, [r5, #48]	; 0x30
 800071e:	6b2b      	ldr	r3, [r5, #48]	; 0x30
 8000720:	f003 0308 	and.w	r3, r3, #8
 8000724:	9306      	str	r3, [sp, #24]
 8000726:	9b06      	ldr	r3, [sp, #24]
	__HAL_RCC_GPIOG_CLK_ENABLE();
 8000728:	9407      	str	r4, [sp, #28]
 800072a:	6b2b      	ldr	r3, [r5, #48]	; 0x30
 800072c:	f043 0340 	orr.w	r3, r3, #64	; 0x40
 8000730:	632b      	str	r3, [r5, #48]	; 0x30
 8000732:	6b2b      	ldr	r3, [r5, #48]	; 0x30
 8000734:	f003 0340 	and.w	r3, r3, #64	; 0x40
 8000738:	9307      	str	r3, [sp, #28]
 800073a:	9b07      	ldr	r3, [sp, #28]
	HAL_GPIO_WritePin(GPIOB, LD1_Pin | LD3_Pin | LD2_Pin, GPIO_PIN_RESET);
 800073c:	f000 fe5c 	bl	80013f8 <HAL_GPIO_WritePin>
	HAL_GPIO_WritePin(USB_PowerSwitchOn_GPIO_Port, USB_PowerSwitchOn_Pin,
 8000740:	4622      	mov	r2, r4
 8000742:	2140      	movs	r1, #64	; 0x40
 8000744:	4871      	ldr	r0, [pc, #452]	; (800090c <main+0x290>)
 8000746:	f000 fe57 	bl	80013f8 <HAL_GPIO_WritePin>
	GPIO_InitStruct.Pin = USER_Btn_Pin | GPIO_PIN_6 | GPIO_PIN_7;
 800074a:	f44f 5303 	mov.w	r3, #8384	; 0x20c0
	HAL_GPIO_Init(GPIOC, &GPIO_InitStruct);
 800074e:	a90f      	add	r1, sp, #60	; 0x3c
 8000750:	486f      	ldr	r0, [pc, #444]	; (8000910 <main+0x294>)
	GPIO_InitStruct.Mode = GPIO_MODE_IT_RISING;
 8000752:	e9cd 3b0f 	strd	r3, fp, [sp, #60]	; 0x3c
	GPIO_InitStruct.Pull = GPIO_NOPULL;
 8000756:	9411      	str	r4, [sp, #68]	; 0x44
	HAL_GPIO_Init(GPIOC, &GPIO_InitStruct);
 8000758:	f000 fd40 	bl	80011dc <HAL_GPIO_Init>
	GPIO_InitStruct.Pin = RMII_MDC_Pin | RMII_RXD0_Pin | RMII_RXD1_Pin;
 800075c:	2332      	movs	r3, #50	; 0x32
	HAL_GPIO_Init(GPIOC, &GPIO_InitStruct);
 800075e:	a90f      	add	r1, sp, #60	; 0x3c
 8000760:	486b      	ldr	r0, [pc, #428]	; (8000910 <main+0x294>)
	GPIO_InitStruct.Mode = GPIO_MODE_AF_PP;
 8000762:	e9cd 370f 	strd	r3, r7, [sp, #60]	; 0x3c
	GPIO_InitStruct.Alternate = GPIO_AF11_ETH;
 8000766:	e9cd 6912 	strd	r6, r9, [sp, #72]	; 0x48
	GPIO_InitStruct.Pull = GPIO_NOPULL;
 800076a:	9411      	str	r4, [sp, #68]	; 0x44
	HAL_GPIO_Init(GPIOC, &GPIO_InitStruct);
 800076c:	f000 fd36 	bl	80011dc <HAL_GPIO_Init>
	HAL_GPIO_Init(GPIOA, &GPIO_InitStruct);
 8000770:	a90f      	add	r1, sp, #60	; 0x3c
 8000772:	4868      	ldr	r0, [pc, #416]	; (8000914 <main+0x298>)
	GPIO_InitStruct.Alternate = GPIO_AF11_ETH;
 8000774:	e9cd 6912 	strd	r6, r9, [sp, #72]	; 0x48
	GPIO_InitStruct.Pull = GPIO_NOPULL;
 8000778:	e9cd 7410 	strd	r7, r4, [sp, #64]	; 0x40
	GPIO_InitStruct.Pin = RMII_REF_CLK_Pin | RMII_MDIO_Pin;
 800077c:	f8cd a03c 	str.w	sl, [sp, #60]	; 0x3c
	HAL_GPIO_Init(GPIOA, &GPIO_InitStruct);
 8000780:	f000 fd2c 	bl	80011dc <HAL_GPIO_Init>
	GPIO_InitStruct.Pin = LD1_Pin | LD3_Pin | LD2_Pin;
 8000784:	f244 0381 	movw	r3, #16513	; 0x4081
	HAL_GPIO_Init(GPIOB, &GPIO_InitStruct);
 8000788:	a90f      	add	r1, sp, #60	; 0x3c
 800078a:	485f      	ldr	r0, [pc, #380]	; (8000908 <main+0x28c>)
	GPIO_InitStruct.Mode = GPIO_MODE_OUTPUT_PP;
 800078c:	e9cd 380f 	strd	r3, r8, [sp, #60]	; 0x3c
	GPIO_InitStruct.Speed = GPIO_SPEED_FREQ_LOW;
 8000790:	e9cd 4411 	strd	r4, r4, [sp, #68]	; 0x44
	HAL_GPIO_Init(GPIOB, &GPIO_InitStruct);
 8000794:	f000 fd22 	bl	80011dc <HAL_GPIO_Init>
	GPIO_InitStruct.Pin = GPIO_PIN_10 | GPIO_PIN_11 | GPIO_PIN_14;
 8000798:	f44f 4398 	mov.w	r3, #19456	; 0x4c00
	HAL_GPIO_Init(GPIOE, &GPIO_InitStruct);
 800079c:	a90f      	add	r1, sp, #60	; 0x3c
 800079e:	485e      	ldr	r0, [pc, #376]	; (8000918 <main+0x29c>)
	GPIO_InitStruct.Pin = GPIO_PIN_10 | GPIO_PIN_11 | GPIO_PIN_14;
 80007a0:	930f      	str	r3, [sp, #60]	; 0x3c
	GPIO_InitStruct.Pull = GPIO_NOPULL;
 80007a2:	e9cd b410 	strd	fp, r4, [sp, #64]	; 0x40
	HAL_GPIO_Init(GPIOE, &GPIO_InitStruct);
 80007a6:	f000 fd19 	bl	80011dc <HAL_GPIO_Init>
	GPIO_InitStruct.Pin = RMII_TXD1_Pin;
 80007aa:	f44f 5300 	mov.w	r3, #8192	; 0x2000
	HAL_GPIO_Init(RMII_TXD1_GPIO_Port, &GPIO_InitStruct);
 80007ae:	a90f      	add	r1, sp, #60	; 0x3c
 80007b0:	4855      	ldr	r0, [pc, #340]	; (8000908 <main+0x28c>)
	GPIO_InitStruct.Alternate = GPIO_AF11_ETH;
 80007b2:	e9cd 6912 	strd	r6, r9, [sp, #72]	; 0x48
	GPIO_InitStruct.Pin = RMII_TXD1_Pin;
 80007b6:	930f      	str	r3, [sp, #60]	; 0x3c
	GPIO_InitStruct.Pull = GPIO_NOPULL;
 80007b8:	e9cd 7410 	strd	r7, r4, [sp, #64]	; 0x40
	HAL_GPIO_Init(RMII_TXD1_GPIO_Port, &GPIO_InitStruct);
 80007bc:	f000 fd0e 	bl	80011dc <HAL_GPIO_Init>
	GPIO_InitStruct.Pin = GPIO_PIN_2;
 80007c0:	2304      	movs	r3, #4
	HAL_GPIO_Init(GPIOG, &GPIO_InitStruct);
 80007c2:	a90f      	add	r1, sp, #60	; 0x3c
 80007c4:	4851      	ldr	r0, [pc, #324]	; (800090c <main+0x290>)
	GPIO_InitStruct.Pull = GPIO_PULLUP;
 80007c6:	e9cd 4810 	strd	r4, r8, [sp, #64]	; 0x40
	GPIO_InitStruct.Pin = GPIO_PIN_2;
 80007ca:	930f      	str	r3, [sp, #60]	; 0x3c
	HAL_GPIO_Init(GPIOG, &GPIO_InitStruct);
 80007cc:	f000 fd06 	bl	80011dc <HAL_GPIO_Init>
	GPIO_InitStruct.Pin = USB_PowerSwitchOn_Pin;
 80007d0:	2340      	movs	r3, #64	; 0x40
	HAL_GPIO_Init(USB_PowerSwitchOn_GPIO_Port, &GPIO_InitStruct);
 80007d2:	a90f      	add	r1, sp, #60	; 0x3c
 80007d4:	484d      	ldr	r0, [pc, #308]	; (800090c <main+0x290>)
	GPIO_InitStruct.Pull = GPIO_NOPULL;
 80007d6:	e9cd 8410 	strd	r8, r4, [sp, #64]	; 0x40
	GPIO_InitStruct.Pin = USB_PowerSwitchOn_Pin;
 80007da:	930f      	str	r3, [sp, #60]	; 0x3c
	GPIO_InitStruct.Speed = GPIO_SPEED_FREQ_LOW;
 80007dc:	9412      	str	r4, [sp, #72]	; 0x48
	HAL_GPIO_Init(USB_PowerSwitchOn_GPIO_Port, &GPIO_InitStruct);
 80007de:	f000 fcfd 	bl	80011dc <HAL_GPIO_Init>
	GPIO_InitStruct.Pin = USB_OverCurrent_Pin;
 80007e2:	2380      	movs	r3, #128	; 0x80
	HAL_GPIO_Init(USB_OverCurrent_GPIO_Port, &GPIO_InitStruct);
 80007e4:	a90f      	add	r1, sp, #60	; 0x3c
 80007e6:	4849      	ldr	r0, [pc, #292]	; (800090c <main+0x290>)
	GPIO_InitStruct.Pin = USB_OverCurrent_Pin;
 80007e8:	930f      	str	r3, [sp, #60]	; 0x3c
	GPIO_InitStruct.Alternate = GPIO_AF10_OTG_FS;
 80007ea:	f04f 080a 	mov.w	r8, #10
	GPIO_InitStruct.Pull = GPIO_NOPULL;
 80007ee:	e9cd 4410 	strd	r4, r4, [sp, #64]	; 0x40
	HAL_GPIO_Init(USB_OverCurrent_GPIO_Port, &GPIO_InitStruct);
 80007f2:	f000 fcf3 	bl	80011dc <HAL_GPIO_Init>
	GPIO_InitStruct.Pin = USB_SOF_Pin | USB_ID_Pin | USB_DM_Pin | USB_DP_Pin;
 80007f6:	f44f 53e8 	mov.w	r3, #7424	; 0x1d00
	HAL_GPIO_Init(GPIOA, &GPIO_InitStruct);
 80007fa:	a90f      	add	r1, sp, #60	; 0x3c
 80007fc:	4845      	ldr	r0, [pc, #276]	; (8000914 <main+0x298>)
	GPIO_InitStruct.Speed = GPIO_SPEED_FREQ_VERY_HIGH;
 80007fe:	9612      	str	r6, [sp, #72]	; 0x48
	GPIO_InitStruct.Pin = USB_SOF_Pin | USB_ID_Pin | USB_DM_Pin | USB_DP_Pin;
 8000800:	930f      	str	r3, [sp, #60]	; 0x3c
	GPIO_InitStruct.Pull = GPIO_NOPULL;
 8000802:	e9cd 7410 	strd	r7, r4, [sp, #64]	; 0x40
	GPIO_InitStruct.Alternate = GPIO_AF10_OTG_FS;
 8000806:	f8cd 804c 	str.w	r8, [sp, #76]	; 0x4c
	HAL_GPIO_Init(GPIOA, &GPIO_InitStruct);
 800080a:	f000 fce7 	bl	80011dc <HAL_GPIO_Init>
	GPIO_InitStruct.Pin = USB_VBUS_Pin;
 800080e:	f44f 7300 	mov.w	r3, #512	; 0x200
	HAL_GPIO_Init(USB_VBUS_GPIO_Port, &GPIO_InitStruct);
 8000812:	a90f      	add	r1, sp, #60	; 0x3c
 8000814:	483f      	ldr	r0, [pc, #252]	; (8000914 <main+0x298>)
	GPIO_InitStruct.Pin = USB_VBUS_Pin;
 8000816:	930f      	str	r3, [sp, #60]	; 0x3c
	GPIO_InitStruct.Pull = GPIO_NOPULL;
 8000818:	e9cd 4410 	strd	r4, r4, [sp, #64]	; 0x40
	HAL_GPIO_Init(USB_VBUS_GPIO_Port, &GPIO_InitStruct);
 800081c:	f000 fcde 	bl	80011dc <HAL_GPIO_Init>
	GPIO_InitStruct.Pin = RMII_TX_EN_Pin | RMII_TXD0_Pin;
 8000820:	f44f 5320 	mov.w	r3, #10240	; 0x2800
	HAL_GPIO_Init(GPIOG, &GPIO_InitStruct);
 8000824:	a90f      	add	r1, sp, #60	; 0x3c
 8000826:	4839      	ldr	r0, [pc, #228]	; (800090c <main+0x290>)
	GPIO_InitStruct.Pin = RMII_TX_EN_Pin | RMII_TXD0_Pin;
 8000828:	930f      	str	r3, [sp, #60]	; 0x3c
	GPIO_InitStruct.Speed = GPIO_SPEED_FREQ_VERY_HIGH;
 800082a:	9612      	str	r6, [sp, #72]	; 0x48
	GPIO_InitStruct.Alternate = GPIO_AF11_ETH;
 800082c:	f8cd 904c 	str.w	r9, [sp, #76]	; 0x4c
	GPIO_InitStruct.Pull = GPIO_NOPULL;
 8000830:	e9cd 7410 	strd	r7, r4, [sp, #64]	; 0x40
	HAL_GPIO_Init(GPIOG, &GPIO_InitStruct);
 8000834:	f000 fcd2 	bl	80011dc <HAL_GPIO_Init>
	HAL_NVIC_SetPriority(EXTI9_5_IRQn, 5, 0);
 8000838:	4622      	mov	r2, r4
 800083a:	2105      	movs	r1, #5
 800083c:	2017      	movs	r0, #23
 800083e:	f000 fabf 	bl	8000dc0 <HAL_NVIC_SetPriority>
	HAL_NVIC_EnableIRQ(EXTI9_5_IRQn);
 8000842:	2017      	movs	r0, #23
 8000844:	f000 faf2 	bl	8000e2c <HAL_NVIC_EnableIRQ>
	HAL_NVIC_SetPriority(EXTI15_10_IRQn, 5, 0);
 8000848:	4622      	mov	r2, r4
 800084a:	2105      	movs	r1, #5
 800084c:	2028      	movs	r0, #40	; 0x28
 800084e:	f000 fab7 	bl	8000dc0 <HAL_NVIC_SetPriority>
	HAL_NVIC_EnableIRQ(EXTI15_10_IRQn);
 8000852:	2028      	movs	r0, #40	; 0x28
 8000854:	f000 faea 	bl	8000e2c <HAL_NVIC_EnableIRQ>
	__HAL_RCC_DMA2_CLK_ENABLE();
 8000858:	9400      	str	r4, [sp, #0]
 800085a:	6b2b      	ldr	r3, [r5, #48]	; 0x30
	HAL_NVIC_SetPriority(DMA2_Stream3_IRQn, 6, 0);
 800085c:	4622      	mov	r2, r4
	__HAL_RCC_DMA2_CLK_ENABLE();
 800085e:	f443 0380 	orr.w	r3, r3, #4194304	; 0x400000
 8000862:	632b      	str	r3, [r5, #48]	; 0x30
 8000864:	6b2b      	ldr	r3, [r5, #48]	; 0x30
	HAL_NVIC_SetPriority(DMA2_Stream3_IRQn, 6, 0);
 8000866:	4651      	mov	r1, sl
	__HAL_RCC_DMA2_CLK_ENABLE();
 8000868:	f403 0380 	and.w	r3, r3, #4194304	; 0x400000
 800086c:	9300      	str	r3, [sp, #0]
	HAL_NVIC_SetPriority(DMA2_Stream3_IRQn, 6, 0);
 800086e:	203b      	movs	r0, #59	; 0x3b
	__HAL_RCC_DMA2_CLK_ENABLE();
 8000870:	9b00      	ldr	r3, [sp, #0]
	HAL_NVIC_SetPriority(DMA2_Stream3_IRQn, 6, 0);
 8000872:	f000 faa5 	bl	8000dc0 <HAL_NVIC_SetPriority>
	HAL_NVIC_EnableIRQ(DMA2_Stream3_IRQn);
 8000876:	203b      	movs	r0, #59	; 0x3b
 8000878:	f000 fad8 	bl	8000e2c <HAL_NVIC_EnableIRQ>
	HAL_NVIC_SetPriority(DMA2_Stream6_IRQn, 6, 0);
 800087c:	4622      	mov	r2, r4
 800087e:	4651      	mov	r1, sl
 8000880:	2045      	movs	r0, #69	; 0x45
 8000882:	f000 fa9d 	bl	8000dc0 <HAL_NVIC_SetPriority>
	HAL_NVIC_EnableIRQ(DMA2_Stream6_IRQn);
 8000886:	2045      	movs	r0, #69	; 0x45
 8000888:	f000 fad0 	bl	8000e2c <HAL_NVIC_EnableIRQ>
	huart3.Init.BaudRate = 115200;
 800088c:	f44f 31e1 	mov.w	r1, #115200	; 0x1c200
	huart3.Init.Mode = UART_MODE_TX_RX;
 8000890:	220c      	movs	r2, #12
	huart3.Instance = USART3;
 8000892:	4b22      	ldr	r3, [pc, #136]	; (800091c <main+0x2a0>)
 8000894:	f5a5 35f8 	sub.w	r5, r5, #126976	; 0x1f000
	if (HAL_UART_Init(&huart3) != HAL_OK)
 8000898:	4618      	mov	r0, r3
	huart3.Init.BaudRate = 115200;
 800089a:	e9c3 5100 	strd	r5, r1, [r3]
	huart3.Init.Mode = UART_MODE_TX_RX;
 800089e:	615a      	str	r2, [r3, #20]
	huart3.Init.StopBits = UART_STOPBITS_1;
 80008a0:	e9c3 4402 	strd	r4, r4, [r3, #8]
	huart3.Init.Parity = UART_PARITY_NONE;
 80008a4:	611c      	str	r4, [r3, #16]
	huart3.Init.OverSampling = UART_OVERSAMPLING_16;
 80008a6:	e9c3 4406 	strd	r4, r4, [r3, #24]
	osThreadDef(SDcardTask, SDcardTaskFunc, osPriorityBelowNormal, 0, 2048);
 80008aa:	4d1d      	ldr	r5, [pc, #116]	; (8000920 <main+0x2a4>)
	if (HAL_UART_Init(&huart3) != HAL_OK)
 80008ac:	f002 f870 	bl	8002990 <HAL_UART_Init>
	hsd.Instance = SDIO;
 80008b0:	4b1c      	ldr	r3, [pc, #112]	; (8000924 <main+0x2a8>)
 80008b2:	4a1d      	ldr	r2, [pc, #116]	; (8000928 <main+0x2ac>)
	osThreadDef(SDcardTask, SDcardTaskFunc, osPriorityBelowNormal, 0, 2048);
 80008b4:	ae08      	add	r6, sp, #32
	hsd.Init.ClockDiv = 10;
 80008b6:	f8c3 8018 	str.w	r8, [r3, #24]
	hsd.Init.ClockBypass = SDIO_CLOCK_BYPASS_DISABLE;
 80008ba:	e9c3 4401 	strd	r4, r4, [r3, #4]
	hsd.Init.BusWide = SDIO_BUS_WIDE_1B;
 80008be:	e9c3 4403 	strd	r4, r4, [r3, #12]
	hsd.Init.HardwareFlowControl = SDIO_HARDWARE_FLOW_CONTROL_DISABLE;
 80008c2:	615c      	str	r4, [r3, #20]
	hsd.Instance = SDIO;
 80008c4:	601a      	str	r2, [r3, #0]
	MX_FATFS_Init();
 80008c6:	f002 fdd5 	bl	8003474 <MX_FATFS_Init>
	osThreadDef(SDcardTask, SDcardTaskFunc, osPriorityBelowNormal, 0, 2048);
 80008ca:	cd0f      	ldmia	r5!, {r0, r1, r2, r3}
 80008cc:	c60f      	stmia	r6!, {r0, r1, r2, r3}
 80008ce:	e895 0007 	ldmia.w	r5, {r0, r1, r2}
 80008d2:	e886 0007 	stmia.w	r6, {r0, r1, r2}
	SDcardTaskHandle = osThreadCreate(osThread(SDcardTask), NULL);
 80008d6:	4621      	mov	r1, r4
 80008d8:	a808      	add	r0, sp, #32
 80008da:	f007 fd29 	bl	8008330 <osThreadCreate>
 80008de:	4b13      	ldr	r3, [pc, #76]	; (800092c <main+0x2b0>)
	osThreadDef(LEDTask, LEDTaskFunc, osPriorityIdle, 0, 256);
 80008e0:	ae0f      	add	r6, sp, #60	; 0x3c
 80008e2:	350c      	adds	r5, #12
	SDcardTaskHandle = osThreadCreate(osThread(SDcardTask), NULL);
 80008e4:	6018      	str	r0, [r3, #0]
	osThreadDef(LEDTask, LEDTaskFunc, osPriorityIdle, 0, 256);
 80008e6:	cd0f      	ldmia	r5!, {r0, r1, r2, r3}
 80008e8:	c60f      	stmia	r6!, {r0, r1, r2, r3}
 80008ea:	e895 0007 	ldmia.w	r5, {r0, r1, r2}
 80008ee:	e886 0007 	stmia.w	r6, {r0, r1, r2}
	LEDTaskHandle = osThreadCreate(osThread(LEDTask), NULL);
 80008f2:	4621      	mov	r1, r4
 80008f4:	a80f      	add	r0, sp, #60	; 0x3c
 80008f6:	f007 fd1b 	bl	8008330 <osThreadCreate>
 80008fa:	4b0d      	ldr	r3, [pc, #52]	; (8000930 <main+0x2b4>)
 80008fc:	6018      	str	r0, [r3, #0]
	osKernelStart();
 80008fe:	f007 fd01 	bl	8008304 <osKernelStart>
 8000902:	e7fe      	b.n	8000902 <main+0x286>
 8000904:	40023800 	.word	0x40023800
 8000908:	40020400 	.word	0x40020400
 800090c:	40021800 	.word	0x40021800
 8000910:	40020800 	.word	0x40020800
 8000914:	40020000 	.word	0x40020000
 8000918:	40021000 	.word	0x40021000
 800091c:	20004070 	.word	0x20004070
 8000920:	0800a770 	.word	0x0800a770
 8000924:	20007150 	.word	0x20007150
 8000928:	40012c00 	.word	0x40012c00
 800092c:	2000406c 	.word	0x2000406c
 8000930:	20004068 	.word	0x20004068
 8000934:	10110000 	.word	0x10110000

08000938 <HAL_TIM_PeriodElapsedCallback>:
void HAL_TIM_PeriodElapsedCallback(TIM_HandleTypeDef *htim)
{
	/* USER CODE BEGIN Callback 0 */

	/* USER CODE END Callback 0 */
	if (htim->Instance == TIM9)
 8000938:	6802      	ldr	r2, [r0, #0]
 800093a:	4b03      	ldr	r3, [pc, #12]	; (8000948 <HAL_TIM_PeriodElapsedCallback+0x10>)
 800093c:	429a      	cmp	r2, r3
 800093e:	d000      	beq.n	8000942 <HAL_TIM_PeriodElapsedCallback+0xa>
		HAL_IncTick();
	}
	/* USER CODE BEGIN Callback 1 */

	/* USER CODE END Callback 1 */
}
 8000940:	4770      	bx	lr
		HAL_IncTick();
 8000942:	f000 ba03 	b.w	8000d4c <HAL_IncTick>
 8000946:	bf00      	nop
 8000948:	40014000 	.word	0x40014000

0800094c <Error_Handler>:
{
	/* USER CODE BEGIN Error_Handler_Debug */
	/* User can add his own implementation to report the HAL error return state */

	/* USER CODE END Error_Handler_Debug */
}
 800094c:	4770      	bx	lr
 800094e:	bf00      	nop

08000950 <HAL_MspInit>:
 8000950:	2000      	movs	r0, #0
 8000952:	b410      	push	{r4}
 8000954:	4b0e      	ldr	r3, [pc, #56]	; (8000990 <HAL_MspInit+0x40>)
 8000956:	b083      	sub	sp, #12
 8000958:	9000      	str	r0, [sp, #0]
 800095a:	6c59      	ldr	r1, [r3, #68]	; 0x44
 800095c:	4602      	mov	r2, r0
 800095e:	f441 4180 	orr.w	r1, r1, #16384	; 0x4000
 8000962:	6459      	str	r1, [r3, #68]	; 0x44
 8000964:	6c5c      	ldr	r4, [r3, #68]	; 0x44
 8000966:	210f      	movs	r1, #15
 8000968:	f404 4480 	and.w	r4, r4, #16384	; 0x4000
 800096c:	9400      	str	r4, [sp, #0]
 800096e:	9c00      	ldr	r4, [sp, #0]
 8000970:	9001      	str	r0, [sp, #4]
 8000972:	f06f 0001 	mvn.w	r0, #1
 8000976:	6c1c      	ldr	r4, [r3, #64]	; 0x40
 8000978:	f044 5480 	orr.w	r4, r4, #268435456	; 0x10000000
 800097c:	641c      	str	r4, [r3, #64]	; 0x40
 800097e:	6c1b      	ldr	r3, [r3, #64]	; 0x40
 8000980:	f003 5380 	and.w	r3, r3, #268435456	; 0x10000000
 8000984:	9301      	str	r3, [sp, #4]
 8000986:	9b01      	ldr	r3, [sp, #4]
 8000988:	b003      	add	sp, #12
 800098a:	bc10      	pop	{r4}
 800098c:	f000 ba18 	b.w	8000dc0 <HAL_NVIC_SetPriority>
 8000990:	40023800 	.word	0x40023800

08000994 <HAL_SD_MspInit>:
 8000994:	e92d 47f0 	stmdb	sp!, {r4, r5, r6, r7, r8, r9, sl, lr}
 8000998:	2400      	movs	r4, #0
 800099a:	6802      	ldr	r2, [r0, #0]
 800099c:	4b54      	ldr	r3, [pc, #336]	; (8000af0 <HAL_SD_MspInit+0x15c>)
 800099e:	b088      	sub	sp, #32
 80009a0:	429a      	cmp	r2, r3
 80009a2:	e9cd 4403 	strd	r4, r4, [sp, #12]
 80009a6:	e9cd 4405 	strd	r4, r4, [sp, #20]
 80009aa:	9407      	str	r4, [sp, #28]
 80009ac:	d002      	beq.n	80009b4 <HAL_SD_MspInit+0x20>
 80009ae:	b008      	add	sp, #32
 80009b0:	e8bd 87f0 	ldmia.w	sp!, {r4, r5, r6, r7, r8, r9, sl, pc}
 80009b4:	f04f 0804 	mov.w	r8, #4
 80009b8:	250c      	movs	r5, #12
 80009ba:	f44f 51f8 	mov.w	r1, #7936	; 0x1f00
 80009be:	f04f 0902 	mov.w	r9, #2
 80009c2:	2703      	movs	r7, #3
 80009c4:	9400      	str	r4, [sp, #0]
 80009c6:	f503 3386 	add.w	r3, r3, #68608	; 0x10c00
 80009ca:	6c5a      	ldr	r2, [r3, #68]	; 0x44
 80009cc:	4606      	mov	r6, r0
 80009ce:	f442 6200 	orr.w	r2, r2, #2048	; 0x800
 80009d2:	645a      	str	r2, [r3, #68]	; 0x44
 80009d4:	6c5a      	ldr	r2, [r3, #68]	; 0x44
 80009d6:	4847      	ldr	r0, [pc, #284]	; (8000af4 <HAL_SD_MspInit+0x160>)
 80009d8:	f402 6200 	and.w	r2, r2, #2048	; 0x800
 80009dc:	9200      	str	r2, [sp, #0]
 80009de:	9a00      	ldr	r2, [sp, #0]
 80009e0:	9401      	str	r4, [sp, #4]
 80009e2:	6b1a      	ldr	r2, [r3, #48]	; 0x30
 80009e4:	f04f 6a00 	mov.w	sl, #134217728	; 0x8000000
 80009e8:	ea42 0208 	orr.w	r2, r2, r8
 80009ec:	631a      	str	r2, [r3, #48]	; 0x30
 80009ee:	6b1a      	ldr	r2, [r3, #48]	; 0x30
 80009f0:	ea02 0208 	and.w	r2, r2, r8
 80009f4:	9201      	str	r2, [sp, #4]
 80009f6:	9a01      	ldr	r2, [sp, #4]
 80009f8:	9402      	str	r4, [sp, #8]
 80009fa:	6b1a      	ldr	r2, [r3, #48]	; 0x30
 80009fc:	f042 0208 	orr.w	r2, r2, #8
 8000a00:	631a      	str	r2, [r3, #48]	; 0x30
 8000a02:	6b1b      	ldr	r3, [r3, #48]	; 0x30
 8000a04:	9103      	str	r1, [sp, #12]
 8000a06:	f003 0308 	and.w	r3, r3, #8
 8000a0a:	eb0d 0105 	add.w	r1, sp, r5
 8000a0e:	9302      	str	r3, [sp, #8]
 8000a10:	9b02      	ldr	r3, [sp, #8]
 8000a12:	f8cd 9010 	str.w	r9, [sp, #16]
 8000a16:	e9cd 7506 	strd	r7, r5, [sp, #24]
 8000a1a:	f000 fbdf 	bl	80011dc <HAL_GPIO_Init>
 8000a1e:	eb0d 0105 	add.w	r1, sp, r5
 8000a22:	4835      	ldr	r0, [pc, #212]	; (8000af8 <HAL_SD_MspInit+0x164>)
 8000a24:	f8cd 9010 	str.w	r9, [sp, #16]
 8000a28:	e9cd 7506 	strd	r7, r5, [sp, #24]
 8000a2c:	9405      	str	r4, [sp, #20]
 8000a2e:	f8cd 800c 	str.w	r8, [sp, #12]
 8000a32:	f000 fbd3 	bl	80011dc <HAL_GPIO_Init>
 8000a36:	2040      	movs	r0, #64	; 0x40
 8000a38:	f44f 6980 	mov.w	r9, #1024	; 0x400
 8000a3c:	f44f 5e80 	mov.w	lr, #4096	; 0x1000
 8000a40:	f44f 4c80 	mov.w	ip, #16384	; 0x4000
 8000a44:	2120      	movs	r1, #32
 8000a46:	f44f 0200 	mov.w	r2, #8388608	; 0x800000
 8000a4a:	f44f 1300 	mov.w	r3, #2097152	; 0x200000
 8000a4e:	4d2b      	ldr	r5, [pc, #172]	; (8000afc <HAL_SD_MspInit+0x168>)
 8000a50:	60ec      	str	r4, [r5, #12]
 8000a52:	622c      	str	r4, [r5, #32]
 8000a54:	4c2a      	ldr	r4, [pc, #168]	; (8000b00 <HAL_SD_MspInit+0x16c>)
 8000a56:	60a8      	str	r0, [r5, #8]
 8000a58:	4628      	mov	r0, r5
 8000a5a:	f8c5 8024 	str.w	r8, [r5, #36]	; 0x24
 8000a5e:	62af      	str	r7, [r5, #40]	; 0x28
 8000a60:	e9c5 4a00 	strd	r4, sl, [r5]
 8000a64:	e9c5 9e04 	strd	r9, lr, [r5, #16]
 8000a68:	e9c5 c106 	strd	ip, r1, [r5, #24]
 8000a6c:	e9c5 230b 	strd	r2, r3, [r5, #44]	; 0x2c
 8000a70:	f000 f9ea 	bl	8000e48 <HAL_DMA_Init>
 8000a74:	bba8      	cbnz	r0, 8000ae2 <HAL_SD_MspInit+0x14e>
 8000a76:	2003      	movs	r0, #3
 8000a78:	2704      	movs	r7, #4
 8000a7a:	2300      	movs	r3, #0
 8000a7c:	f04f 6a00 	mov.w	sl, #134217728	; 0x8000000
 8000a80:	f44f 6980 	mov.w	r9, #1024	; 0x400
 8000a84:	f44f 5880 	mov.w	r8, #4096	; 0x1000
 8000a88:	f44f 4e80 	mov.w	lr, #16384	; 0x4000
 8000a8c:	f04f 0c20 	mov.w	ip, #32
 8000a90:	f44f 0100 	mov.w	r1, #8388608	; 0x800000
 8000a94:	f44f 1200 	mov.w	r2, #2097152	; 0x200000
 8000a98:	4c1a      	ldr	r4, [pc, #104]	; (8000b04 <HAL_SD_MspInit+0x170>)
 8000a9a:	63f5      	str	r5, [r6, #60]	; 0x3c
 8000a9c:	63ae      	str	r6, [r5, #56]	; 0x38
 8000a9e:	4d1a      	ldr	r5, [pc, #104]	; (8000b08 <HAL_SD_MspInit+0x174>)
 8000aa0:	e9c4 7009 	strd	r7, r0, [r4, #36]	; 0x24
 8000aa4:	4620      	mov	r0, r4
 8000aa6:	f8c4 a004 	str.w	sl, [r4, #4]
 8000aaa:	f8c4 9010 	str.w	r9, [r4, #16]
 8000aae:	6025      	str	r5, [r4, #0]
 8000ab0:	e9c4 8e05 	strd	r8, lr, [r4, #20]
 8000ab4:	f8c4 c01c 	str.w	ip, [r4, #28]
 8000ab8:	e9c4 120b 	strd	r1, r2, [r4, #44]	; 0x2c
 8000abc:	e9c4 3302 	strd	r3, r3, [r4, #8]
 8000ac0:	6223      	str	r3, [r4, #32]
 8000ac2:	f000 f9c1 	bl	8000e48 <HAL_DMA_Init>
 8000ac6:	b978      	cbnz	r0, 8000ae8 <HAL_SD_MspInit+0x154>
 8000ac8:	2200      	movs	r2, #0
 8000aca:	2105      	movs	r1, #5
 8000acc:	6434      	str	r4, [r6, #64]	; 0x40
 8000ace:	2031      	movs	r0, #49	; 0x31
 8000ad0:	63a6      	str	r6, [r4, #56]	; 0x38
 8000ad2:	f000 f975 	bl	8000dc0 <HAL_NVIC_SetPriority>
 8000ad6:	2031      	movs	r0, #49	; 0x31
 8000ad8:	f000 f9a8 	bl	8000e2c <HAL_NVIC_EnableIRQ>
 8000adc:	b008      	add	sp, #32
 8000ade:	e8bd 87f0 	ldmia.w	sp!, {r4, r5, r6, r7, r8, r9, sl, pc}
 8000ae2:	f7ff ff33 	bl	800094c <Error_Handler>
 8000ae6:	e7c6      	b.n	8000a76 <HAL_SD_MspInit+0xe2>
 8000ae8:	f7ff ff30 	bl	800094c <Error_Handler>
 8000aec:	e7ec      	b.n	8000ac8 <HAL_SD_MspInit+0x134>
 8000aee:	bf00      	nop
 8000af0:	40012c00 	.word	0x40012c00
 8000af4:	40020800 	.word	0x40020800
 8000af8:	40020c00 	.word	0x40020c00
 8000afc:	200070f0 	.word	0x200070f0
 8000b00:	400264a0 	.word	0x400264a0
 8000b04:	20004008 	.word	0x20004008
 8000b08:	40026458 	.word	0x40026458

08000b0c <HAL_UART_MspInit>:
 8000b0c:	2300      	movs	r3, #0
 8000b0e:	b5f0      	push	{r4, r5, r6, r7, lr}
 8000b10:	6801      	ldr	r1, [r0, #0]
 8000b12:	4a18      	ldr	r2, [pc, #96]	; (8000b74 <HAL_UART_MspInit+0x68>)
 8000b14:	b089      	sub	sp, #36	; 0x24
 8000b16:	4291      	cmp	r1, r2
 8000b18:	e9cd 3303 	strd	r3, r3, [sp, #12]
 8000b1c:	e9cd 3305 	strd	r3, r3, [sp, #20]
 8000b20:	9307      	str	r3, [sp, #28]
 8000b22:	d001      	beq.n	8000b28 <HAL_UART_MspInit+0x1c>
 8000b24:	b009      	add	sp, #36	; 0x24
 8000b26:	bdf0      	pop	{r4, r5, r6, r7, pc}
 8000b28:	f44f 7740 	mov.w	r7, #768	; 0x300
 8000b2c:	2602      	movs	r6, #2
 8000b2e:	2503      	movs	r5, #3
 8000b30:	2407      	movs	r4, #7
 8000b32:	9301      	str	r3, [sp, #4]
 8000b34:	f502 32f8 	add.w	r2, r2, #126976	; 0x1f000
 8000b38:	6c10      	ldr	r0, [r2, #64]	; 0x40
 8000b3a:	a903      	add	r1, sp, #12
 8000b3c:	f440 2080 	orr.w	r0, r0, #262144	; 0x40000
 8000b40:	6410      	str	r0, [r2, #64]	; 0x40
 8000b42:	6c10      	ldr	r0, [r2, #64]	; 0x40
 8000b44:	f400 2080 	and.w	r0, r0, #262144	; 0x40000
 8000b48:	9001      	str	r0, [sp, #4]
 8000b4a:	9801      	ldr	r0, [sp, #4]
 8000b4c:	9302      	str	r3, [sp, #8]
 8000b4e:	6b13      	ldr	r3, [r2, #48]	; 0x30
 8000b50:	4809      	ldr	r0, [pc, #36]	; (8000b78 <HAL_UART_MspInit+0x6c>)
 8000b52:	f043 0308 	orr.w	r3, r3, #8
 8000b56:	6313      	str	r3, [r2, #48]	; 0x30
 8000b58:	6b13      	ldr	r3, [r2, #48]	; 0x30
 8000b5a:	9703      	str	r7, [sp, #12]
 8000b5c:	f003 0308 	and.w	r3, r3, #8
 8000b60:	9302      	str	r3, [sp, #8]
 8000b62:	9b02      	ldr	r3, [sp, #8]
 8000b64:	9604      	str	r6, [sp, #16]
 8000b66:	e9cd 5406 	strd	r5, r4, [sp, #24]
 8000b6a:	f000 fb37 	bl	80011dc <HAL_GPIO_Init>
 8000b6e:	b009      	add	sp, #36	; 0x24
 8000b70:	bdf0      	pop	{r4, r5, r6, r7, pc}
 8000b72:	bf00      	nop
 8000b74:	40004800 	.word	0x40004800
 8000b78:	40020c00 	.word	0x40020c00

08000b7c <HAL_InitTick>:
 8000b7c:	b530      	push	{r4, r5, lr}
 8000b7e:	2500      	movs	r5, #0
 8000b80:	b089      	sub	sp, #36	; 0x24
 8000b82:	4601      	mov	r1, r0
 8000b84:	462a      	mov	r2, r5
 8000b86:	2018      	movs	r0, #24
 8000b88:	f000 f91a 	bl	8000dc0 <HAL_NVIC_SetPriority>
 8000b8c:	2018      	movs	r0, #24
 8000b8e:	f000 f94d 	bl	8000e2c <HAL_NVIC_EnableIRQ>
 8000b92:	4b16      	ldr	r3, [pc, #88]	; (8000bec <HAL_InitTick+0x70>)
 8000b94:	9502      	str	r5, [sp, #8]
 8000b96:	6c5a      	ldr	r2, [r3, #68]	; 0x44
 8000b98:	a901      	add	r1, sp, #4
 8000b9a:	f442 3280 	orr.w	r2, r2, #65536	; 0x10000
 8000b9e:	645a      	str	r2, [r3, #68]	; 0x44
 8000ba0:	6c5b      	ldr	r3, [r3, #68]	; 0x44
 8000ba2:	a803      	add	r0, sp, #12
 8000ba4:	f403 3380 	and.w	r3, r3, #65536	; 0x10000
 8000ba8:	9302      	str	r3, [sp, #8]
 8000baa:	9b02      	ldr	r3, [sp, #8]
 8000bac:	f000 fefe 	bl	80019ac <HAL_RCC_GetClockConfig>
 8000bb0:	f000 fee4 	bl	800197c <HAL_RCC_GetPCLK2Freq>
 8000bb4:	f240 32e7 	movw	r2, #999	; 0x3e7
 8000bb8:	490d      	ldr	r1, [pc, #52]	; (8000bf0 <HAL_InitTick+0x74>)
 8000bba:	0043      	lsls	r3, r0, #1
 8000bbc:	fba1 1303 	umull	r1, r3, r1, r3
 8000bc0:	4c0c      	ldr	r4, [pc, #48]	; (8000bf4 <HAL_InitTick+0x78>)
 8000bc2:	0c9b      	lsrs	r3, r3, #18
 8000bc4:	490c      	ldr	r1, [pc, #48]	; (8000bf8 <HAL_InitTick+0x7c>)
 8000bc6:	3b01      	subs	r3, #1
 8000bc8:	4620      	mov	r0, r4
 8000bca:	6063      	str	r3, [r4, #4]
 8000bcc:	6125      	str	r5, [r4, #16]
 8000bce:	60a5      	str	r5, [r4, #8]
 8000bd0:	6021      	str	r1, [r4, #0]
 8000bd2:	60e2      	str	r2, [r4, #12]
 8000bd4:	f001 fd56 	bl	8002684 <HAL_TIM_Base_Init>
 8000bd8:	b110      	cbz	r0, 8000be0 <HAL_InitTick+0x64>
 8000bda:	2001      	movs	r0, #1
 8000bdc:	b009      	add	sp, #36	; 0x24
 8000bde:	bd30      	pop	{r4, r5, pc}
 8000be0:	4620      	mov	r0, r4
 8000be2:	f001 fde3 	bl	80027ac <HAL_TIM_Base_Start_IT>
 8000be6:	b009      	add	sp, #36	; 0x24
 8000be8:	bd30      	pop	{r4, r5, pc}
 8000bea:	bf00      	nop
 8000bec:	40023800 	.word	0x40023800
 8000bf0:	431bde83 	.word	0x431bde83
 8000bf4:	20008204 	.word	0x20008204
 8000bf8:	40014000 	.word	0x40014000

08000bfc <NMI_Handler>:
 8000bfc:	4770      	bx	lr
 8000bfe:	bf00      	nop

08000c00 <HardFault_Handler>:
 8000c00:	e7fe      	b.n	8000c00 <HardFault_Handler>
 8000c02:	bf00      	nop

08000c04 <MemManage_Handler>:
 8000c04:	e7fe      	b.n	8000c04 <MemManage_Handler>
 8000c06:	bf00      	nop

08000c08 <BusFault_Handler>:
 8000c08:	e7fe      	b.n	8000c08 <BusFault_Handler>
 8000c0a:	bf00      	nop

08000c0c <UsageFault_Handler>:
 8000c0c:	e7fe      	b.n	8000c0c <UsageFault_Handler>
 8000c0e:	bf00      	nop

08000c10 <DebugMon_Handler>:
 8000c10:	4770      	bx	lr
 8000c12:	bf00      	nop

08000c14 <EXTI9_5_IRQHandler>:
 8000c14:	b508      	push	{r3, lr}
 8000c16:	2040      	movs	r0, #64	; 0x40
 8000c18:	f000 fbfc 	bl	8001414 <HAL_GPIO_EXTI_IRQHandler>
 8000c1c:	e8bd 4008 	ldmia.w	sp!, {r3, lr}
 8000c20:	2080      	movs	r0, #128	; 0x80
 8000c22:	f000 bbf7 	b.w	8001414 <HAL_GPIO_EXTI_IRQHandler>
 8000c26:	bf00      	nop

08000c28 <TIM1_BRK_TIM9_IRQHandler>:
 8000c28:	4801      	ldr	r0, [pc, #4]	; (8000c30 <TIM1_BRK_TIM9_IRQHandler+0x8>)
 8000c2a:	f001 be03 	b.w	8002834 <HAL_TIM_IRQHandler>
 8000c2e:	bf00      	nop
 8000c30:	20008204 	.word	0x20008204

08000c34 <EXTI15_10_IRQHandler>:
 8000c34:	b508      	push	{r3, lr}
 8000c36:	f44f 6080 	mov.w	r0, #1024	; 0x400
 8000c3a:	f000 fbeb 	bl	8001414 <HAL_GPIO_EXTI_IRQHandler>
 8000c3e:	f44f 6000 	mov.w	r0, #2048	; 0x800
 8000c42:	f000 fbe7 	bl	8001414 <HAL_GPIO_EXTI_IRQHandler>
 8000c46:	f44f 5000 	mov.w	r0, #8192	; 0x2000
 8000c4a:	f000 fbe3 	bl	8001414 <HAL_GPIO_EXTI_IRQHandler>
 8000c4e:	e8bd 4008 	ldmia.w	sp!, {r3, lr}
 8000c52:	f44f 4080 	mov.w	r0, #16384	; 0x4000
 8000c56:	f000 bbdd 	b.w	8001414 <HAL_GPIO_EXTI_IRQHandler>
 8000c5a:	bf00      	nop

08000c5c <SDIO_IRQHandler>:
 8000c5c:	4801      	ldr	r0, [pc, #4]	; (8000c64 <SDIO_IRQHandler+0x8>)
 8000c5e:	f001 b923 	b.w	8001ea8 <HAL_SD_IRQHandler>
 8000c62:	bf00      	nop
 8000c64:	20007150 	.word	0x20007150

08000c68 <DMA2_Stream3_IRQHandler>:
 8000c68:	4801      	ldr	r0, [pc, #4]	; (8000c70 <DMA2_Stream3_IRQHandler+0x8>)
 8000c6a:	f000 b9df 	b.w	800102c <HAL_DMA_IRQHandler>
 8000c6e:	bf00      	nop
 8000c70:	20004008 	.word	0x20004008

08000c74 <DMA2_Stream6_IRQHandler>:
 8000c74:	4801      	ldr	r0, [pc, #4]	; (8000c7c <DMA2_Stream6_IRQHandler+0x8>)
 8000c76:	f000 b9d9 	b.w	800102c <HAL_DMA_IRQHandler>
 8000c7a:	bf00      	nop
 8000c7c:	200070f0 	.word	0x200070f0

08000c80 <SystemInit>:
 8000c80:	2100      	movs	r1, #0
 8000c82:	b430      	push	{r4, r5}
 8000c84:	f04f 6400 	mov.w	r4, #134217728	; 0x8000000
 8000c88:	4b0b      	ldr	r3, [pc, #44]	; (8000cb8 <SystemInit+0x38>)
 8000c8a:	4d0c      	ldr	r5, [pc, #48]	; (8000cbc <SystemInit+0x3c>)
 8000c8c:	681a      	ldr	r2, [r3, #0]
 8000c8e:	480c      	ldr	r0, [pc, #48]	; (8000cc0 <SystemInit+0x40>)
 8000c90:	f042 0201 	orr.w	r2, r2, #1
 8000c94:	601a      	str	r2, [r3, #0]
 8000c96:	6099      	str	r1, [r3, #8]
 8000c98:	681a      	ldr	r2, [r3, #0]
 8000c9a:	f022 7284 	bic.w	r2, r2, #17301504	; 0x1080000
 8000c9e:	f422 3280 	bic.w	r2, r2, #65536	; 0x10000
 8000ca2:	601a      	str	r2, [r3, #0]
 8000ca4:	605d      	str	r5, [r3, #4]
 8000ca6:	681a      	ldr	r2, [r3, #0]
 8000ca8:	f422 2280 	bic.w	r2, r2, #262144	; 0x40000
 8000cac:	601a      	str	r2, [r3, #0]
 8000cae:	60d9      	str	r1, [r3, #12]
 8000cb0:	6084      	str	r4, [r0, #8]
 8000cb2:	bc30      	pop	{r4, r5}
 8000cb4:	4770      	bx	lr
 8000cb6:	bf00      	nop
 8000cb8:	40023800 	.word	0x40023800
 8000cbc:	24003010 	.word	0x24003010
 8000cc0:	e000ed00 	.word	0xe000ed00

08000cc4 <Reset_Handler>:
 8000cc4:	f8df d034 	ldr.w	sp, [pc, #52]	; 8000cfc <LoopFillZerobss+0x14>
 8000cc8:	2100      	movs	r1, #0
 8000cca:	e003      	b.n	8000cd4 <LoopCopyDataInit>

08000ccc <CopyDataInit>:
 8000ccc:	4b0c      	ldr	r3, [pc, #48]	; (8000d00 <LoopFillZerobss+0x18>)
 8000cce:	585b      	ldr	r3, [r3, r1]
 8000cd0:	5043      	str	r3, [r0, r1]
 8000cd2:	3104      	adds	r1, #4

08000cd4 <LoopCopyDataInit>:
 8000cd4:	480b      	ldr	r0, [pc, #44]	; (8000d04 <LoopFillZerobss+0x1c>)
 8000cd6:	4b0c      	ldr	r3, [pc, #48]	; (8000d08 <LoopFillZerobss+0x20>)
 8000cd8:	1842      	adds	r2, r0, r1
 8000cda:	429a      	cmp	r2, r3
 8000cdc:	d3f6      	bcc.n	8000ccc <CopyDataInit>
 8000cde:	4a0b      	ldr	r2, [pc, #44]	; (8000d0c <LoopFillZerobss+0x24>)
 8000ce0:	e002      	b.n	8000ce8 <LoopFillZerobss>

08000ce2 <FillZerobss>:
 8000ce2:	2300      	movs	r3, #0
 8000ce4:	f842 3b04 	str.w	r3, [r2], #4

08000ce8 <LoopFillZerobss>:
 8000ce8:	4b09      	ldr	r3, [pc, #36]	; (8000d10 <LoopFillZerobss+0x28>)
 8000cea:	429a      	cmp	r2, r3
 8000cec:	d3f9      	bcc.n	8000ce2 <FillZerobss>
 8000cee:	f7ff ffc7 	bl	8000c80 <SystemInit>
 8000cf2:	f009 fcf9 	bl	800a6e8 <__libc_init_array>
 8000cf6:	f7ff fcc1 	bl	800067c <main>
 8000cfa:	4770      	bx	lr
 8000cfc:	20020000 	.word	0x20020000
 8000d00:	0800ad00 	.word	0x0800ad00
 8000d04:	20000000 	.word	0x20000000
 8000d08:	20000014 	.word	0x20000014
 8000d0c:	20000014 	.word	0x20000014
 8000d10:	2000a300 	.word	0x2000a300

08000d14 <ADC_IRQHandler>:
 8000d14:	e7fe      	b.n	8000d14 <ADC_IRQHandler>
	...

08000d18 <HAL_Init>:
 8000d18:	b508      	push	{r3, lr}
 8000d1a:	4b0b      	ldr	r3, [pc, #44]	; (8000d48 <HAL_Init+0x30>)
 8000d1c:	2003      	movs	r0, #3
 8000d1e:	681a      	ldr	r2, [r3, #0]
 8000d20:	f442 7200 	orr.w	r2, r2, #512	; 0x200
 8000d24:	601a      	str	r2, [r3, #0]
 8000d26:	681a      	ldr	r2, [r3, #0]
 8000d28:	f442 6280 	orr.w	r2, r2, #1024	; 0x400
 8000d2c:	601a      	str	r2, [r3, #0]
 8000d2e:	681a      	ldr	r2, [r3, #0]
 8000d30:	f442 7280 	orr.w	r2, r2, #256	; 0x100
 8000d34:	601a      	str	r2, [r3, #0]
 8000d36:	f000 f831 	bl	8000d9c <HAL_NVIC_SetPriorityGrouping>
 8000d3a:	2000      	movs	r0, #0
 8000d3c:	f7ff ff1e 	bl	8000b7c <HAL_InitTick>
 8000d40:	f7ff fe06 	bl	8000950 <HAL_MspInit>
 8000d44:	2000      	movs	r0, #0
 8000d46:	bd08      	pop	{r3, pc}
 8000d48:	40023c00 	.word	0x40023c00

08000d4c <HAL_IncTick>:
 8000d4c:	4a03      	ldr	r2, [pc, #12]	; (8000d5c <HAL_IncTick+0x10>)
 8000d4e:	4b04      	ldr	r3, [pc, #16]	; (8000d60 <HAL_IncTick+0x14>)
 8000d50:	6811      	ldr	r1, [r2, #0]
 8000d52:	781b      	ldrb	r3, [r3, #0]
 8000d54:	440b      	add	r3, r1
 8000d56:	6013      	str	r3, [r2, #0]
 8000d58:	4770      	bx	lr
 8000d5a:	bf00      	nop
 8000d5c:	2000824c 	.word	0x2000824c
 8000d60:	20000004 	.word	0x20000004

08000d64 <HAL_GetTick>:
 8000d64:	4b01      	ldr	r3, [pc, #4]	; (8000d6c <HAL_GetTick+0x8>)
 8000d66:	6818      	ldr	r0, [r3, #0]
 8000d68:	4770      	bx	lr
 8000d6a:	bf00      	nop
 8000d6c:	2000824c 	.word	0x2000824c

08000d70 <HAL_Delay>:
 8000d70:	b530      	push	{r4, r5, lr}
 8000d72:	b083      	sub	sp, #12
 8000d74:	9001      	str	r0, [sp, #4]
 8000d76:	f7ff fff5 	bl	8000d64 <HAL_GetTick>
 8000d7a:	9c01      	ldr	r4, [sp, #4]
 8000d7c:	4605      	mov	r5, r0
 8000d7e:	1c63      	adds	r3, r4, #1
 8000d80:	d002      	beq.n	8000d88 <HAL_Delay+0x18>
 8000d82:	4b05      	ldr	r3, [pc, #20]	; (8000d98 <HAL_Delay+0x28>)
 8000d84:	781b      	ldrb	r3, [r3, #0]
 8000d86:	441c      	add	r4, r3
 8000d88:	f7ff ffec 	bl	8000d64 <HAL_GetTick>
 8000d8c:	1b40      	subs	r0, r0, r5
 8000d8e:	42a0      	cmp	r0, r4
 8000d90:	d3fa      	bcc.n	8000d88 <HAL_Delay+0x18>
 8000d92:	b003      	add	sp, #12
 8000d94:	bd30      	pop	{r4, r5, pc}
 8000d96:	bf00      	nop
 8000d98:	20000004 	.word	0x20000004

08000d9c <HAL_NVIC_SetPriorityGrouping>:
 8000d9c:	f64f 01ff 	movw	r1, #63743	; 0xf8ff
 8000da0:	4a06      	ldr	r2, [pc, #24]	; (8000dbc <HAL_NVIC_SetPriorityGrouping+0x20>)
 8000da2:	0200      	lsls	r0, r0, #8
 8000da4:	68d3      	ldr	r3, [r2, #12]
 8000da6:	f400 60e0 	and.w	r0, r0, #1792	; 0x700
 8000daa:	400b      	ands	r3, r1
 8000dac:	f043 63bf 	orr.w	r3, r3, #100139008	; 0x5f80000
 8000db0:	f443 3300 	orr.w	r3, r3, #131072	; 0x20000
 8000db4:	4303      	orrs	r3, r0
 8000db6:	60d3      	str	r3, [r2, #12]
 8000db8:	4770      	bx	lr
 8000dba:	bf00      	nop
 8000dbc:	e000ed00 	.word	0xe000ed00

08000dc0 <HAL_NVIC_SetPriority>:
 8000dc0:	4b18      	ldr	r3, [pc, #96]	; (8000e24 <HAL_NVIC_SetPriority+0x64>)
 8000dc2:	b430      	push	{r4, r5}
 8000dc4:	68db      	ldr	r3, [r3, #12]
 8000dc6:	f3c3 2302 	ubfx	r3, r3, #8, #3
 8000dca:	f1c3 0507 	rsb	r5, r3, #7
 8000dce:	2d04      	cmp	r5, #4
 8000dd0:	f103 0404 	add.w	r4, r3, #4
 8000dd4:	bf28      	it	cs
 8000dd6:	2504      	movcs	r5, #4
 8000dd8:	2c06      	cmp	r4, #6
 8000dda:	d919      	bls.n	8000e10 <HAL_NVIC_SetPriority+0x50>
 8000ddc:	f04f 34ff 	mov.w	r4, #4294967295
 8000de0:	3b03      	subs	r3, #3
 8000de2:	409c      	lsls	r4, r3
 8000de4:	ea22 0404 	bic.w	r4, r2, r4
 8000de8:	f04f 32ff 	mov.w	r2, #4294967295
 8000dec:	40aa      	lsls	r2, r5
 8000dee:	ea21 0102 	bic.w	r1, r1, r2
 8000df2:	fa01 f203 	lsl.w	r2, r1, r3
 8000df6:	4322      	orrs	r2, r4
 8000df8:	0112      	lsls	r2, r2, #4
 8000dfa:	2800      	cmp	r0, #0
 8000dfc:	b2d2      	uxtb	r2, r2
 8000dfe:	db0a      	blt.n	8000e16 <HAL_NVIC_SetPriority+0x56>
 8000e00:	f100 4060 	add.w	r0, r0, #3758096384	; 0xe0000000
 8000e04:	f500 4061 	add.w	r0, r0, #57600	; 0xe100
 8000e08:	f880 2300 	strb.w	r2, [r0, #768]	; 0x300
 8000e0c:	bc30      	pop	{r4, r5}
 8000e0e:	4770      	bx	lr
 8000e10:	2400      	movs	r4, #0
 8000e12:	4623      	mov	r3, r4
 8000e14:	e7e8      	b.n	8000de8 <HAL_NVIC_SetPriority+0x28>
 8000e16:	4b04      	ldr	r3, [pc, #16]	; (8000e28 <HAL_NVIC_SetPriority+0x68>)
 8000e18:	f000 000f 	and.w	r0, r0, #15
 8000e1c:	4403      	add	r3, r0
 8000e1e:	761a      	strb	r2, [r3, #24]
 8000e20:	bc30      	pop	{r4, r5}
 8000e22:	4770      	bx	lr
 8000e24:	e000ed00 	.word	0xe000ed00
 8000e28:	e000ecfc 	.word	0xe000ecfc

08000e2c <HAL_NVIC_EnableIRQ>:
 8000e2c:	2800      	cmp	r0, #0
 8000e2e:	db07      	blt.n	8000e40 <HAL_NVIC_EnableIRQ+0x14>
 8000e30:	2301      	movs	r3, #1
 8000e32:	f000 011f 	and.w	r1, r0, #31
 8000e36:	4a03      	ldr	r2, [pc, #12]	; (8000e44 <HAL_NVIC_EnableIRQ+0x18>)
 8000e38:	408b      	lsls	r3, r1
 8000e3a:	0940      	lsrs	r0, r0, #5
 8000e3c:	f842 3020 	str.w	r3, [r2, r0, lsl #2]
 8000e40:	4770      	bx	lr
 8000e42:	bf00      	nop
 8000e44:	e000e100 	.word	0xe000e100

08000e48 <HAL_DMA_Init>:
 8000e48:	b5f8      	push	{r3, r4, r5, r6, r7, lr}
 8000e4a:	4604      	mov	r4, r0
 8000e4c:	f7ff ff8a 	bl	8000d64 <HAL_GetTick>
 8000e50:	2c00      	cmp	r4, #0
 8000e52:	d056      	beq.n	8000f02 <HAL_DMA_Init+0xba>
 8000e54:	2202      	movs	r2, #2
 8000e56:	2100      	movs	r1, #0
 8000e58:	6823      	ldr	r3, [r4, #0]
 8000e5a:	f884 2035 	strb.w	r2, [r4, #53]	; 0x35
 8000e5e:	681a      	ldr	r2, [r3, #0]
 8000e60:	4605      	mov	r5, r0
 8000e62:	f022 0201 	bic.w	r2, r2, #1
 8000e66:	f884 1034 	strb.w	r1, [r4, #52]	; 0x34
 8000e6a:	601a      	str	r2, [r3, #0]
 8000e6c:	e005      	b.n	8000e7a <HAL_DMA_Init+0x32>
 8000e6e:	f7ff ff79 	bl	8000d64 <HAL_GetTick>
 8000e72:	1b40      	subs	r0, r0, r5
 8000e74:	2805      	cmp	r0, #5
 8000e76:	d83d      	bhi.n	8000ef4 <HAL_DMA_Init+0xac>
 8000e78:	6823      	ldr	r3, [r4, #0]
 8000e7a:	681a      	ldr	r2, [r3, #0]
 8000e7c:	07d1      	lsls	r1, r2, #31
 8000e7e:	d4f6      	bmi.n	8000e6e <HAL_DMA_Init+0x26>
 8000e80:	68e1      	ldr	r1, [r4, #12]
 8000e82:	e9d4 2001 	ldrd	r2, r0, [r4, #4]
 8000e86:	4302      	orrs	r2, r0
 8000e88:	6920      	ldr	r0, [r4, #16]
 8000e8a:	430a      	orrs	r2, r1
 8000e8c:	6961      	ldr	r1, [r4, #20]
 8000e8e:	4302      	orrs	r2, r0
 8000e90:	69a5      	ldr	r5, [r4, #24]
 8000e92:	430a      	orrs	r2, r1
 8000e94:	69e0      	ldr	r0, [r4, #28]
 8000e96:	6a21      	ldr	r1, [r4, #32]
 8000e98:	432a      	orrs	r2, r5
 8000e9a:	4302      	orrs	r2, r0
 8000e9c:	430a      	orrs	r2, r1
 8000e9e:	681e      	ldr	r6, [r3, #0]
 8000ea0:	4834      	ldr	r0, [pc, #208]	; (8000f74 <HAL_DMA_Init+0x12c>)
 8000ea2:	6a61      	ldr	r1, [r4, #36]	; 0x24
 8000ea4:	4030      	ands	r0, r6
 8000ea6:	2904      	cmp	r1, #4
 8000ea8:	ea42 0200 	orr.w	r2, r2, r0
 8000eac:	d02b      	beq.n	8000f06 <HAL_DMA_Init+0xbe>
 8000eae:	601a      	str	r2, [r3, #0]
 8000eb0:	6958      	ldr	r0, [r3, #20]
 8000eb2:	f020 0007 	bic.w	r0, r0, #7
 8000eb6:	4308      	orrs	r0, r1
 8000eb8:	b2da      	uxtb	r2, r3
 8000eba:	492f      	ldr	r1, [pc, #188]	; (8000f78 <HAL_DMA_Init+0x130>)
 8000ebc:	3a10      	subs	r2, #16
 8000ebe:	fba1 1202 	umull	r1, r2, r1, r2
 8000ec2:	492e      	ldr	r1, [pc, #184]	; (8000f7c <HAL_DMA_Init+0x134>)
 8000ec4:	0912      	lsrs	r2, r2, #4
 8000ec6:	6158      	str	r0, [r3, #20]
 8000ec8:	5c8d      	ldrb	r5, [r1, r2]
 8000eca:	f423 717f 	bic.w	r1, r3, #1020	; 0x3fc
 8000ece:	233f      	movs	r3, #63	; 0x3f
 8000ed0:	2a03      	cmp	r2, #3
 8000ed2:	f04f 0601 	mov.w	r6, #1
 8000ed6:	f04f 0200 	mov.w	r2, #0
 8000eda:	f021 0103 	bic.w	r1, r1, #3
 8000ede:	bf88      	it	hi
 8000ee0:	3104      	addhi	r1, #4
 8000ee2:	40ab      	lsls	r3, r5
 8000ee4:	65e5      	str	r5, [r4, #92]	; 0x5c
 8000ee6:	65a1      	str	r1, [r4, #88]	; 0x58
 8000ee8:	4610      	mov	r0, r2
 8000eea:	608b      	str	r3, [r1, #8]
 8000eec:	6562      	str	r2, [r4, #84]	; 0x54
 8000eee:	f884 6035 	strb.w	r6, [r4, #53]	; 0x35
 8000ef2:	bdf8      	pop	{r3, r4, r5, r6, r7, pc}
 8000ef4:	2303      	movs	r3, #3
 8000ef6:	2220      	movs	r2, #32
 8000ef8:	4618      	mov	r0, r3
 8000efa:	6562      	str	r2, [r4, #84]	; 0x54
 8000efc:	f884 3035 	strb.w	r3, [r4, #53]	; 0x35
 8000f00:	bdf8      	pop	{r3, r4, r5, r6, r7, pc}
 8000f02:	2001      	movs	r0, #1
 8000f04:	bdf8      	pop	{r3, r4, r5, r6, r7, pc}
 8000f06:	e9d4 610b 	ldrd	r6, r1, [r4, #44]	; 0x2c
 8000f0a:	4331      	orrs	r1, r6
 8000f0c:	430a      	orrs	r2, r1
 8000f0e:	6aa7      	ldr	r7, [r4, #40]	; 0x28
 8000f10:	601a      	str	r2, [r3, #0]
 8000f12:	6958      	ldr	r0, [r3, #20]
 8000f14:	f047 0104 	orr.w	r1, r7, #4
 8000f18:	f020 0007 	bic.w	r0, r0, #7
 8000f1c:	4308      	orrs	r0, r1
 8000f1e:	2e00      	cmp	r6, #0
 8000f20:	d0ca      	beq.n	8000eb8 <HAL_DMA_Init+0x70>
 8000f22:	b17d      	cbz	r5, 8000f44 <HAL_DMA_Init+0xfc>
 8000f24:	f5b5 5f00 	cmp.w	r5, #8192	; 0x2000
 8000f28:	d016      	beq.n	8000f58 <HAL_DMA_Init+0x110>
 8000f2a:	2f02      	cmp	r7, #2
 8000f2c:	d903      	bls.n	8000f36 <HAL_DMA_Init+0xee>
 8000f2e:	2f03      	cmp	r7, #3
 8000f30:	d1c2      	bne.n	8000eb8 <HAL_DMA_Init+0x70>
 8000f32:	01f2      	lsls	r2, r6, #7
 8000f34:	d5c0      	bpl.n	8000eb8 <HAL_DMA_Init+0x70>
 8000f36:	2301      	movs	r3, #1
 8000f38:	2240      	movs	r2, #64	; 0x40
 8000f3a:	4618      	mov	r0, r3
 8000f3c:	6562      	str	r2, [r4, #84]	; 0x54
 8000f3e:	f884 3035 	strb.w	r3, [r4, #53]	; 0x35
 8000f42:	bdf8      	pop	{r3, r4, r5, r6, r7, pc}
 8000f44:	2f01      	cmp	r7, #1
 8000f46:	d003      	beq.n	8000f50 <HAL_DMA_Init+0x108>
 8000f48:	d3f3      	bcc.n	8000f32 <HAL_DMA_Init+0xea>
 8000f4a:	2f02      	cmp	r7, #2
 8000f4c:	d1b4      	bne.n	8000eb8 <HAL_DMA_Init+0x70>
 8000f4e:	e7f0      	b.n	8000f32 <HAL_DMA_Init+0xea>
 8000f50:	f1b6 7fc0 	cmp.w	r6, #25165824	; 0x1800000
 8000f54:	d1b0      	bne.n	8000eb8 <HAL_DMA_Init+0x70>
 8000f56:	e7ee      	b.n	8000f36 <HAL_DMA_Init+0xee>
 8000f58:	2f03      	cmp	r7, #3
 8000f5a:	d8ad      	bhi.n	8000eb8 <HAL_DMA_Init+0x70>
 8000f5c:	a201      	add	r2, pc, #4	; (adr r2, 8000f64 <HAL_DMA_Init+0x11c>)
 8000f5e:	f852 f027 	ldr.w	pc, [r2, r7, lsl #2]
 8000f62:	bf00      	nop
 8000f64:	08000f37 	.word	0x08000f37
 8000f68:	08000f33 	.word	0x08000f33
 8000f6c:	08000f37 	.word	0x08000f37
 8000f70:	08000f51 	.word	0x08000f51
 8000f74:	f010803f 	.word	0xf010803f
 8000f78:	aaaaaaab 	.word	0xaaaaaaab
 8000f7c:	0800a844 	.word	0x0800a844

08000f80 <HAL_DMA_Start_IT>:
 8000f80:	b4f0      	push	{r4, r5, r6, r7}
 8000f82:	f890 4034 	ldrb.w	r4, [r0, #52]	; 0x34
 8000f86:	2c01      	cmp	r4, #1
 8000f88:	d037      	beq.n	8000ffa <HAL_DMA_Start_IT+0x7a>
 8000f8a:	2501      	movs	r5, #1
 8000f8c:	f890 4035 	ldrb.w	r4, [r0, #53]	; 0x35
 8000f90:	f880 5034 	strb.w	r5, [r0, #52]	; 0x34
 8000f94:	42ac      	cmp	r4, r5
 8000f96:	6d86      	ldr	r6, [r0, #88]	; 0x58
 8000f98:	d128      	bne.n	8000fec <HAL_DMA_Start_IT+0x6c>
 8000f9a:	2702      	movs	r7, #2
 8000f9c:	2500      	movs	r5, #0
 8000f9e:	6804      	ldr	r4, [r0, #0]
 8000fa0:	f880 7035 	strb.w	r7, [r0, #53]	; 0x35
 8000fa4:	6545      	str	r5, [r0, #84]	; 0x54
 8000fa6:	6825      	ldr	r5, [r4, #0]
 8000fa8:	6887      	ldr	r7, [r0, #8]
 8000faa:	f425 2580 	bic.w	r5, r5, #262144	; 0x40000
 8000fae:	6025      	str	r5, [r4, #0]
 8000fb0:	6063      	str	r3, [r4, #4]
 8000fb2:	233f      	movs	r3, #63	; 0x3f
 8000fb4:	2f40      	cmp	r7, #64	; 0x40
 8000fb6:	bf0a      	itet	eq
 8000fb8:	60a2      	streq	r2, [r4, #8]
 8000fba:	60a1      	strne	r1, [r4, #8]
 8000fbc:	60e1      	streq	r1, [r4, #12]
 8000fbe:	6dc1      	ldr	r1, [r0, #92]	; 0x5c
 8000fc0:	bf18      	it	ne
 8000fc2:	60e2      	strne	r2, [r4, #12]
 8000fc4:	408b      	lsls	r3, r1
 8000fc6:	6c02      	ldr	r2, [r0, #64]	; 0x40
 8000fc8:	60b3      	str	r3, [r6, #8]
 8000fca:	6823      	ldr	r3, [r4, #0]
 8000fcc:	f043 0316 	orr.w	r3, r3, #22
 8000fd0:	6023      	str	r3, [r4, #0]
 8000fd2:	b11a      	cbz	r2, 8000fdc <HAL_DMA_Start_IT+0x5c>
 8000fd4:	6823      	ldr	r3, [r4, #0]
 8000fd6:	f043 0308 	orr.w	r3, r3, #8
 8000fda:	6023      	str	r3, [r4, #0]
 8000fdc:	2300      	movs	r3, #0
 8000fde:	6822      	ldr	r2, [r4, #0]
 8000fe0:	4618      	mov	r0, r3
 8000fe2:	f042 0201 	orr.w	r2, r2, #1
 8000fe6:	6022      	str	r2, [r4, #0]
 8000fe8:	bcf0      	pop	{r4, r5, r6, r7}
 8000fea:	4770      	bx	lr
 8000fec:	2200      	movs	r2, #0
 8000fee:	bcf0      	pop	{r4, r5, r6, r7}
 8000ff0:	2302      	movs	r3, #2
 8000ff2:	f880 2034 	strb.w	r2, [r0, #52]	; 0x34
 8000ff6:	4618      	mov	r0, r3
 8000ff8:	4770      	bx	lr
 8000ffa:	2302      	movs	r3, #2
 8000ffc:	bcf0      	pop	{r4, r5, r6, r7}
 8000ffe:	4618      	mov	r0, r3
 8001000:	4770      	bx	lr
 8001002:	bf00      	nop

08001004 <HAL_DMA_Abort_IT>:
 8001004:	f890 2035 	ldrb.w	r2, [r0, #53]	; 0x35
 8001008:	4603      	mov	r3, r0
 800100a:	2a02      	cmp	r2, #2
 800100c:	d003      	beq.n	8001016 <HAL_DMA_Abort_IT+0x12>
 800100e:	2280      	movs	r2, #128	; 0x80
 8001010:	2001      	movs	r0, #1
 8001012:	655a      	str	r2, [r3, #84]	; 0x54
 8001014:	4770      	bx	lr
 8001016:	2105      	movs	r1, #5
 8001018:	681a      	ldr	r2, [r3, #0]
 800101a:	f883 1035 	strb.w	r1, [r3, #53]	; 0x35
 800101e:	6813      	ldr	r3, [r2, #0]
 8001020:	2000      	movs	r0, #0
 8001022:	f023 0301 	bic.w	r3, r3, #1
 8001026:	6013      	str	r3, [r2, #0]
 8001028:	4770      	bx	lr
 800102a:	bf00      	nop

0800102c <HAL_DMA_IRQHandler>:
 800102c:	2300      	movs	r3, #0
 800102e:	2208      	movs	r2, #8
 8001030:	b5f0      	push	{r4, r5, r6, r7, lr}
 8001032:	6d87      	ldr	r7, [r0, #88]	; 0x58
 8001034:	b083      	sub	sp, #12
 8001036:	9301      	str	r3, [sp, #4]
 8001038:	6dc3      	ldr	r3, [r0, #92]	; 0x5c
 800103a:	683d      	ldr	r5, [r7, #0]
 800103c:	4964      	ldr	r1, [pc, #400]	; (80011d0 <HAL_DMA_IRQHandler+0x1a4>)
 800103e:	409a      	lsls	r2, r3
 8001040:	422a      	tst	r2, r5
 8001042:	4604      	mov	r4, r0
 8001044:	680e      	ldr	r6, [r1, #0]
 8001046:	d003      	beq.n	8001050 <HAL_DMA_IRQHandler+0x24>
 8001048:	6801      	ldr	r1, [r0, #0]
 800104a:	6808      	ldr	r0, [r1, #0]
 800104c:	0740      	lsls	r0, r0, #29
 800104e:	d459      	bmi.n	8001104 <HAL_DMA_IRQHandler+0xd8>
 8001050:	2201      	movs	r2, #1
 8001052:	409a      	lsls	r2, r3
 8001054:	422a      	tst	r2, r5
 8001056:	d003      	beq.n	8001060 <HAL_DMA_IRQHandler+0x34>
 8001058:	6821      	ldr	r1, [r4, #0]
 800105a:	6949      	ldr	r1, [r1, #20]
 800105c:	0608      	lsls	r0, r1, #24
 800105e:	d474      	bmi.n	800114a <HAL_DMA_IRQHandler+0x11e>
 8001060:	2204      	movs	r2, #4
 8001062:	409a      	lsls	r2, r3
 8001064:	422a      	tst	r2, r5
 8001066:	d003      	beq.n	8001070 <HAL_DMA_IRQHandler+0x44>
 8001068:	6821      	ldr	r1, [r4, #0]
 800106a:	6809      	ldr	r1, [r1, #0]
 800106c:	0789      	lsls	r1, r1, #30
 800106e:	d466      	bmi.n	800113e <HAL_DMA_IRQHandler+0x112>
 8001070:	2210      	movs	r2, #16
 8001072:	409a      	lsls	r2, r3
 8001074:	422a      	tst	r2, r5
 8001076:	d003      	beq.n	8001080 <HAL_DMA_IRQHandler+0x54>
 8001078:	6821      	ldr	r1, [r4, #0]
 800107a:	6808      	ldr	r0, [r1, #0]
 800107c:	0700      	lsls	r0, r0, #28
 800107e:	d44b      	bmi.n	8001118 <HAL_DMA_IRQHandler+0xec>
 8001080:	2220      	movs	r2, #32
 8001082:	409a      	lsls	r2, r3
 8001084:	422a      	tst	r2, r5
 8001086:	d014      	beq.n	80010b2 <HAL_DMA_IRQHandler+0x86>
 8001088:	6821      	ldr	r1, [r4, #0]
 800108a:	6808      	ldr	r0, [r1, #0]
 800108c:	06c0      	lsls	r0, r0, #27
 800108e:	d510      	bpl.n	80010b2 <HAL_DMA_IRQHandler+0x86>
 8001090:	60ba      	str	r2, [r7, #8]
 8001092:	f894 2035 	ldrb.w	r2, [r4, #53]	; 0x35
 8001096:	2a05      	cmp	r2, #5
 8001098:	d063      	beq.n	8001162 <HAL_DMA_IRQHandler+0x136>
 800109a:	680b      	ldr	r3, [r1, #0]
 800109c:	f413 2f80 	tst.w	r3, #262144	; 0x40000
 80010a0:	680b      	ldr	r3, [r1, #0]
 80010a2:	d07e      	beq.n	80011a2 <HAL_DMA_IRQHandler+0x176>
 80010a4:	0319      	lsls	r1, r3, #12
 80010a6:	f140 8089 	bpl.w	80011bc <HAL_DMA_IRQHandler+0x190>
 80010aa:	6be3      	ldr	r3, [r4, #60]	; 0x3c
 80010ac:	b10b      	cbz	r3, 80010b2 <HAL_DMA_IRQHandler+0x86>
 80010ae:	4620      	mov	r0, r4
 80010b0:	4798      	blx	r3
 80010b2:	6d63      	ldr	r3, [r4, #84]	; 0x54
 80010b4:	b323      	cbz	r3, 8001100 <HAL_DMA_IRQHandler+0xd4>
 80010b6:	6d63      	ldr	r3, [r4, #84]	; 0x54
 80010b8:	07da      	lsls	r2, r3, #31
 80010ba:	d51a      	bpl.n	80010f2 <HAL_DMA_IRQHandler+0xc6>
 80010bc:	2105      	movs	r1, #5
 80010be:	4b45      	ldr	r3, [pc, #276]	; (80011d4 <HAL_DMA_IRQHandler+0x1a8>)
 80010c0:	6822      	ldr	r2, [r4, #0]
 80010c2:	f884 1035 	strb.w	r1, [r4, #53]	; 0x35
 80010c6:	fba3 3606 	umull	r3, r6, r3, r6
 80010ca:	6813      	ldr	r3, [r2, #0]
 80010cc:	0ab6      	lsrs	r6, r6, #10
 80010ce:	f023 0301 	bic.w	r3, r3, #1
 80010d2:	6013      	str	r3, [r2, #0]
 80010d4:	e002      	b.n	80010dc <HAL_DMA_IRQHandler+0xb0>
 80010d6:	6813      	ldr	r3, [r2, #0]
 80010d8:	07db      	lsls	r3, r3, #31
 80010da:	d504      	bpl.n	80010e6 <HAL_DMA_IRQHandler+0xba>
 80010dc:	9b01      	ldr	r3, [sp, #4]
 80010de:	3301      	adds	r3, #1
 80010e0:	42b3      	cmp	r3, r6
 80010e2:	9301      	str	r3, [sp, #4]
 80010e4:	d9f7      	bls.n	80010d6 <HAL_DMA_IRQHandler+0xaa>
 80010e6:	2200      	movs	r2, #0
 80010e8:	2301      	movs	r3, #1
 80010ea:	f884 2034 	strb.w	r2, [r4, #52]	; 0x34
 80010ee:	f884 3035 	strb.w	r3, [r4, #53]	; 0x35
 80010f2:	6ce3      	ldr	r3, [r4, #76]	; 0x4c
 80010f4:	b123      	cbz	r3, 8001100 <HAL_DMA_IRQHandler+0xd4>
 80010f6:	4620      	mov	r0, r4
 80010f8:	b003      	add	sp, #12
 80010fa:	e8bd 40f0 	ldmia.w	sp!, {r4, r5, r6, r7, lr}
 80010fe:	4718      	bx	r3
 8001100:	b003      	add	sp, #12
 8001102:	bdf0      	pop	{r4, r5, r6, r7, pc}
 8001104:	6808      	ldr	r0, [r1, #0]
 8001106:	f020 0004 	bic.w	r0, r0, #4
 800110a:	6008      	str	r0, [r1, #0]
 800110c:	60ba      	str	r2, [r7, #8]
 800110e:	6d62      	ldr	r2, [r4, #84]	; 0x54
 8001110:	f042 0201 	orr.w	r2, r2, #1
 8001114:	6562      	str	r2, [r4, #84]	; 0x54
 8001116:	e79b      	b.n	8001050 <HAL_DMA_IRQHandler+0x24>
 8001118:	60ba      	str	r2, [r7, #8]
 800111a:	680a      	ldr	r2, [r1, #0]
 800111c:	f412 2f80 	tst.w	r2, #262144	; 0x40000
 8001120:	680a      	ldr	r2, [r1, #0]
 8001122:	d118      	bne.n	8001156 <HAL_DMA_IRQHandler+0x12a>
 8001124:	05d2      	lsls	r2, r2, #23
 8001126:	d403      	bmi.n	8001130 <HAL_DMA_IRQHandler+0x104>
 8001128:	680a      	ldr	r2, [r1, #0]
 800112a:	f022 0208 	bic.w	r2, r2, #8
 800112e:	600a      	str	r2, [r1, #0]
 8001130:	6c22      	ldr	r2, [r4, #64]	; 0x40
 8001132:	2a00      	cmp	r2, #0
 8001134:	d0a4      	beq.n	8001080 <HAL_DMA_IRQHandler+0x54>
 8001136:	4620      	mov	r0, r4
 8001138:	4790      	blx	r2
 800113a:	6de3      	ldr	r3, [r4, #92]	; 0x5c
 800113c:	e7a0      	b.n	8001080 <HAL_DMA_IRQHandler+0x54>
 800113e:	60ba      	str	r2, [r7, #8]
 8001140:	6d62      	ldr	r2, [r4, #84]	; 0x54
 8001142:	f042 0204 	orr.w	r2, r2, #4
 8001146:	6562      	str	r2, [r4, #84]	; 0x54
 8001148:	e792      	b.n	8001070 <HAL_DMA_IRQHandler+0x44>
 800114a:	60ba      	str	r2, [r7, #8]
 800114c:	6d62      	ldr	r2, [r4, #84]	; 0x54
 800114e:	f042 0202 	orr.w	r2, r2, #2
 8001152:	6562      	str	r2, [r4, #84]	; 0x54
 8001154:	e784      	b.n	8001060 <HAL_DMA_IRQHandler+0x34>
 8001156:	0311      	lsls	r1, r2, #12
 8001158:	d5ea      	bpl.n	8001130 <HAL_DMA_IRQHandler+0x104>
 800115a:	6ca2      	ldr	r2, [r4, #72]	; 0x48
 800115c:	2a00      	cmp	r2, #0
 800115e:	d1ea      	bne.n	8001136 <HAL_DMA_IRQHandler+0x10a>
 8001160:	e78e      	b.n	8001080 <HAL_DMA_IRQHandler+0x54>
 8001162:	680a      	ldr	r2, [r1, #0]
 8001164:	6c20      	ldr	r0, [r4, #64]	; 0x40
 8001166:	f022 0216 	bic.w	r2, r2, #22
 800116a:	600a      	str	r2, [r1, #0]
 800116c:	694a      	ldr	r2, [r1, #20]
 800116e:	f022 0280 	bic.w	r2, r2, #128	; 0x80
 8001172:	614a      	str	r2, [r1, #20]
 8001174:	b338      	cbz	r0, 80011c6 <HAL_DMA_IRQHandler+0x19a>
 8001176:	680a      	ldr	r2, [r1, #0]
 8001178:	f022 0208 	bic.w	r2, r2, #8
 800117c:	600a      	str	r2, [r1, #0]
 800117e:	223f      	movs	r2, #63	; 0x3f
 8001180:	2000      	movs	r0, #0
 8001182:	2101      	movs	r1, #1
 8001184:	fa02 f303 	lsl.w	r3, r2, r3
 8001188:	6d22      	ldr	r2, [r4, #80]	; 0x50
 800118a:	60bb      	str	r3, [r7, #8]
 800118c:	f884 0034 	strb.w	r0, [r4, #52]	; 0x34
 8001190:	f884 1035 	strb.w	r1, [r4, #53]	; 0x35
 8001194:	2a00      	cmp	r2, #0
 8001196:	d0b3      	beq.n	8001100 <HAL_DMA_IRQHandler+0xd4>
 8001198:	4620      	mov	r0, r4
 800119a:	b003      	add	sp, #12
 800119c:	e8bd 40f0 	ldmia.w	sp!, {r4, r5, r6, r7, lr}
 80011a0:	4710      	bx	r2
 80011a2:	f413 7380 	ands.w	r3, r3, #256	; 0x100
 80011a6:	d180      	bne.n	80010aa <HAL_DMA_IRQHandler+0x7e>
 80011a8:	2001      	movs	r0, #1
 80011aa:	680a      	ldr	r2, [r1, #0]
 80011ac:	f022 0210 	bic.w	r2, r2, #16
 80011b0:	600a      	str	r2, [r1, #0]
 80011b2:	f884 3034 	strb.w	r3, [r4, #52]	; 0x34
 80011b6:	f884 0035 	strb.w	r0, [r4, #53]	; 0x35
 80011ba:	e776      	b.n	80010aa <HAL_DMA_IRQHandler+0x7e>
 80011bc:	6c63      	ldr	r3, [r4, #68]	; 0x44
 80011be:	2b00      	cmp	r3, #0
 80011c0:	f47f af75 	bne.w	80010ae <HAL_DMA_IRQHandler+0x82>
 80011c4:	e775      	b.n	80010b2 <HAL_DMA_IRQHandler+0x86>
 80011c6:	6ca2      	ldr	r2, [r4, #72]	; 0x48
 80011c8:	2a00      	cmp	r2, #0
 80011ca:	d1d4      	bne.n	8001176 <HAL_DMA_IRQHandler+0x14a>
 80011cc:	e7d7      	b.n	800117e <HAL_DMA_IRQHandler+0x152>
 80011ce:	bf00      	nop
 80011d0:	20000000 	.word	0x20000000
 80011d4:	1b4e81b5 	.word	0x1b4e81b5

080011d8 <HAL_DMA_GetError>:
 80011d8:	6d40      	ldr	r0, [r0, #84]	; 0x54
 80011da:	4770      	bx	lr

080011dc <HAL_GPIO_Init>:
 80011dc:	e92d 4ff0 	stmdb	sp!, {r4, r5, r6, r7, r8, r9, sl, fp, lr}
 80011e0:	f8d1 e000 	ldr.w	lr, [r1]
 80011e4:	b083      	sub	sp, #12
 80011e6:	f1be 0f00 	cmp.w	lr, #0
 80011ea:	f000 8091 	beq.w	8001310 <HAL_GPIO_Init+0x134>
 80011ee:	4688      	mov	r8, r1
 80011f0:	2600      	movs	r6, #0
 80011f2:	f8df 91f4 	ldr.w	r9, [pc, #500]	; 80013e8 <HAL_GPIO_Init+0x20c>
 80011f6:	2301      	movs	r3, #1
 80011f8:	40b3      	lsls	r3, r6
 80011fa:	ea13 070e 	ands.w	r7, r3, lr
 80011fe:	f000 8082 	beq.w	8001306 <HAL_GPIO_Init+0x12a>
 8001202:	2203      	movs	r2, #3
 8001204:	f8d8 1004 	ldr.w	r1, [r8, #4]
 8001208:	ea4f 0c46 	mov.w	ip, r6, lsl #1
 800120c:	f021 0a10 	bic.w	sl, r1, #16
 8001210:	f8d8 4008 	ldr.w	r4, [r8, #8]
 8001214:	f10a 35ff 	add.w	r5, sl, #4294967295
 8001218:	fa02 f20c 	lsl.w	r2, r2, ip
 800121c:	2d01      	cmp	r5, #1
 800121e:	ea6f 0202 	mvn.w	r2, r2
 8001222:	fa04 f40c 	lsl.w	r4, r4, ip
 8001226:	d976      	bls.n	8001316 <HAL_GPIO_Init+0x13a>
 8001228:	68c3      	ldr	r3, [r0, #12]
 800122a:	4013      	ands	r3, r2
 800122c:	431c      	orrs	r4, r3
 800122e:	60c4      	str	r4, [r0, #12]
 8001230:	6804      	ldr	r4, [r0, #0]
 8001232:	f001 0303 	and.w	r3, r1, #3
 8001236:	4014      	ands	r4, r2
 8001238:	fa03 f20c 	lsl.w	r2, r3, ip
 800123c:	4322      	orrs	r2, r4
 800123e:	00cd      	lsls	r5, r1, #3
 8001240:	6002      	str	r2, [r0, #0]
 8001242:	d560      	bpl.n	8001306 <HAL_GPIO_Init+0x12a>
 8001244:	2300      	movs	r3, #0
 8001246:	240f      	movs	r4, #15
 8001248:	4d5e      	ldr	r5, [pc, #376]	; (80013c4 <HAL_GPIO_Init+0x1e8>)
 800124a:	9301      	str	r3, [sp, #4]
 800124c:	6c6a      	ldr	r2, [r5, #68]	; 0x44
 800124e:	f026 0303 	bic.w	r3, r6, #3
 8001252:	f442 4280 	orr.w	r2, r2, #16384	; 0x4000
 8001256:	646a      	str	r2, [r5, #68]	; 0x44
 8001258:	6c6a      	ldr	r2, [r5, #68]	; 0x44
 800125a:	f103 4380 	add.w	r3, r3, #1073741824	; 0x40000000
 800125e:	f402 4280 	and.w	r2, r2, #16384	; 0x4000
 8001262:	9201      	str	r2, [sp, #4]
 8001264:	f503 339c 	add.w	r3, r3, #79872	; 0x13800
 8001268:	f006 0203 	and.w	r2, r6, #3
 800126c:	9d01      	ldr	r5, [sp, #4]
 800126e:	0092      	lsls	r2, r2, #2
 8001270:	689d      	ldr	r5, [r3, #8]
 8001272:	4094      	lsls	r4, r2
 8001274:	ea25 0404 	bic.w	r4, r5, r4
 8001278:	4d53      	ldr	r5, [pc, #332]	; (80013c8 <HAL_GPIO_Init+0x1ec>)
 800127a:	42a8      	cmp	r0, r5
 800127c:	d021      	beq.n	80012c2 <HAL_GPIO_Init+0xe6>
 800127e:	f505 6580 	add.w	r5, r5, #1024	; 0x400
 8001282:	42a8      	cmp	r0, r5
 8001284:	d07f      	beq.n	8001386 <HAL_GPIO_Init+0x1aa>
 8001286:	4d51      	ldr	r5, [pc, #324]	; (80013cc <HAL_GPIO_Init+0x1f0>)
 8001288:	42a8      	cmp	r0, r5
 800128a:	d077      	beq.n	800137c <HAL_GPIO_Init+0x1a0>
 800128c:	4d50      	ldr	r5, [pc, #320]	; (80013d0 <HAL_GPIO_Init+0x1f4>)
 800128e:	42a8      	cmp	r0, r5
 8001290:	f000 8083 	beq.w	800139a <HAL_GPIO_Init+0x1be>
 8001294:	4d4f      	ldr	r5, [pc, #316]	; (80013d4 <HAL_GPIO_Init+0x1f8>)
 8001296:	42a8      	cmp	r0, r5
 8001298:	f000 8084 	beq.w	80013a4 <HAL_GPIO_Init+0x1c8>
 800129c:	4d4e      	ldr	r5, [pc, #312]	; (80013d8 <HAL_GPIO_Init+0x1fc>)
 800129e:	42a8      	cmp	r0, r5
 80012a0:	d076      	beq.n	8001390 <HAL_GPIO_Init+0x1b4>
 80012a2:	4d4e      	ldr	r5, [pc, #312]	; (80013dc <HAL_GPIO_Init+0x200>)
 80012a4:	42a8      	cmp	r0, r5
 80012a6:	f000 8082 	beq.w	80013ae <HAL_GPIO_Init+0x1d2>
 80012aa:	4d4d      	ldr	r5, [pc, #308]	; (80013e0 <HAL_GPIO_Init+0x204>)
 80012ac:	42a8      	cmp	r0, r5
 80012ae:	f000 8083 	beq.w	80013b8 <HAL_GPIO_Init+0x1dc>
 80012b2:	4d4c      	ldr	r5, [pc, #304]	; (80013e4 <HAL_GPIO_Init+0x208>)
 80012b4:	42a8      	cmp	r0, r5
 80012b6:	bf0c      	ite	eq
 80012b8:	2508      	moveq	r5, #8
 80012ba:	2509      	movne	r5, #9
 80012bc:	fa05 f202 	lsl.w	r2, r5, r2
 80012c0:	4314      	orrs	r4, r2
 80012c2:	43fa      	mvns	r2, r7
 80012c4:	609c      	str	r4, [r3, #8]
 80012c6:	f8d9 3000 	ldr.w	r3, [r9]
 80012ca:	03cc      	lsls	r4, r1, #15
 80012cc:	bf54      	ite	pl
 80012ce:	4013      	andpl	r3, r2
 80012d0:	433b      	orrmi	r3, r7
 80012d2:	f8c9 3000 	str.w	r3, [r9]
 80012d6:	f8d9 3004 	ldr.w	r3, [r9, #4]
 80012da:	038d      	lsls	r5, r1, #14
 80012dc:	bf54      	ite	pl
 80012de:	4013      	andpl	r3, r2
 80012e0:	433b      	orrmi	r3, r7
 80012e2:	f8c9 3004 	str.w	r3, [r9, #4]
 80012e6:	f8d9 3008 	ldr.w	r3, [r9, #8]
 80012ea:	02cc      	lsls	r4, r1, #11
 80012ec:	bf54      	ite	pl
 80012ee:	4013      	andpl	r3, r2
 80012f0:	433b      	orrmi	r3, r7
 80012f2:	f8c9 3008 	str.w	r3, [r9, #8]
 80012f6:	f8d9 300c 	ldr.w	r3, [r9, #12]
 80012fa:	0289      	lsls	r1, r1, #10
 80012fc:	bf54      	ite	pl
 80012fe:	4013      	andpl	r3, r2
 8001300:	433b      	orrmi	r3, r7
 8001302:	f8c9 300c 	str.w	r3, [r9, #12]
 8001306:	3601      	adds	r6, #1
 8001308:	fa3e f306 	lsrs.w	r3, lr, r6
 800130c:	f47f af73 	bne.w	80011f6 <HAL_GPIO_Init+0x1a>
 8001310:	b003      	add	sp, #12
 8001312:	e8bd 8ff0 	ldmia.w	sp!, {r4, r5, r6, r7, r8, r9, sl, fp, pc}
 8001316:	6885      	ldr	r5, [r0, #8]
 8001318:	f1ba 0f02 	cmp.w	sl, #2
 800131c:	ea05 0b02 	and.w	fp, r5, r2
 8001320:	f8d8 500c 	ldr.w	r5, [r8, #12]
 8001324:	fa05 f50c 	lsl.w	r5, r5, ip
 8001328:	ea45 050b 	orr.w	r5, r5, fp
 800132c:	6085      	str	r5, [r0, #8]
 800132e:	6845      	ldr	r5, [r0, #4]
 8001330:	f3c1 1b00 	ubfx	fp, r1, #4, #1
 8001334:	ea25 0503 	bic.w	r5, r5, r3
 8001338:	465b      	mov	r3, fp
 800133a:	fa03 f306 	lsl.w	r3, r3, r6
 800133e:	ea43 0305 	orr.w	r3, r3, r5
 8001342:	6043      	str	r3, [r0, #4]
 8001344:	68c3      	ldr	r3, [r0, #12]
 8001346:	ea03 0302 	and.w	r3, r3, r2
 800134a:	ea44 0403 	orr.w	r4, r4, r3
 800134e:	60c4      	str	r4, [r0, #12]
 8001350:	f47f af6e 	bne.w	8001230 <HAL_GPIO_Init+0x54>
 8001354:	f04f 0b0f 	mov.w	fp, #15
 8001358:	08f5      	lsrs	r5, r6, #3
 800135a:	eb00 0585 	add.w	r5, r0, r5, lsl #2
 800135e:	f006 0407 	and.w	r4, r6, #7
 8001362:	6a2b      	ldr	r3, [r5, #32]
 8001364:	00a4      	lsls	r4, r4, #2
 8001366:	fa0b fb04 	lsl.w	fp, fp, r4
 800136a:	ea23 0a0b 	bic.w	sl, r3, fp
 800136e:	f8d8 3010 	ldr.w	r3, [r8, #16]
 8001372:	40a3      	lsls	r3, r4
 8001374:	ea43 030a 	orr.w	r3, r3, sl
 8001378:	622b      	str	r3, [r5, #32]
 800137a:	e759      	b.n	8001230 <HAL_GPIO_Init+0x54>
 800137c:	2502      	movs	r5, #2
 800137e:	fa05 f202 	lsl.w	r2, r5, r2
 8001382:	4314      	orrs	r4, r2
 8001384:	e79d      	b.n	80012c2 <HAL_GPIO_Init+0xe6>
 8001386:	2501      	movs	r5, #1
 8001388:	fa05 f202 	lsl.w	r2, r5, r2
 800138c:	4314      	orrs	r4, r2
 800138e:	e798      	b.n	80012c2 <HAL_GPIO_Init+0xe6>
 8001390:	2505      	movs	r5, #5
 8001392:	fa05 f202 	lsl.w	r2, r5, r2
 8001396:	4314      	orrs	r4, r2
 8001398:	e793      	b.n	80012c2 <HAL_GPIO_Init+0xe6>
 800139a:	2503      	movs	r5, #3
 800139c:	fa05 f202 	lsl.w	r2, r5, r2
 80013a0:	4314      	orrs	r4, r2
 80013a2:	e78e      	b.n	80012c2 <HAL_GPIO_Init+0xe6>
 80013a4:	2504      	movs	r5, #4
 80013a6:	fa05 f202 	lsl.w	r2, r5, r2
 80013aa:	4314      	orrs	r4, r2
 80013ac:	e789      	b.n	80012c2 <HAL_GPIO_Init+0xe6>
 80013ae:	2506      	movs	r5, #6
 80013b0:	fa05 f202 	lsl.w	r2, r5, r2
 80013b4:	4314      	orrs	r4, r2
 80013b6:	e784      	b.n	80012c2 <HAL_GPIO_Init+0xe6>
 80013b8:	2507      	movs	r5, #7
 80013ba:	fa05 f202 	lsl.w	r2, r5, r2
 80013be:	4314      	orrs	r4, r2
 80013c0:	e77f      	b.n	80012c2 <HAL_GPIO_Init+0xe6>
 80013c2:	bf00      	nop
 80013c4:	40023800 	.word	0x40023800
 80013c8:	40020000 	.word	0x40020000
 80013cc:	40020800 	.word	0x40020800
 80013d0:	40020c00 	.word	0x40020c00
 80013d4:	40021000 	.word	0x40021000
 80013d8:	40021400 	.word	0x40021400
 80013dc:	40021800 	.word	0x40021800
 80013e0:	40021c00 	.word	0x40021c00
 80013e4:	40022000 	.word	0x40022000
 80013e8:	40013c00 	.word	0x40013c00

080013ec <HAL_GPIO_ReadPin>:
 80013ec:	6903      	ldr	r3, [r0, #16]
 80013ee:	4219      	tst	r1, r3
 80013f0:	bf14      	ite	ne
 80013f2:	2001      	movne	r0, #1
 80013f4:	2000      	moveq	r0, #0
 80013f6:	4770      	bx	lr

080013f8 <HAL_GPIO_WritePin>:
 80013f8:	b902      	cbnz	r2, 80013fc <HAL_GPIO_WritePin+0x4>
 80013fa:	0409      	lsls	r1, r1, #16
 80013fc:	6181      	str	r1, [r0, #24]
 80013fe:	4770      	bx	lr

08001400 <HAL_GPIO_TogglePin>:
 8001400:	6943      	ldr	r3, [r0, #20]
 8001402:	ea01 0203 	and.w	r2, r1, r3
 8001406:	ea21 0103 	bic.w	r1, r1, r3
 800140a:	ea41 4102 	orr.w	r1, r1, r2, lsl #16
 800140e:	6181      	str	r1, [r0, #24]
 8001410:	4770      	bx	lr
 8001412:	bf00      	nop

08001414 <HAL_GPIO_EXTI_IRQHandler>:
 8001414:	4a04      	ldr	r2, [pc, #16]	; (8001428 <HAL_GPIO_EXTI_IRQHandler+0x14>)
 8001416:	6951      	ldr	r1, [r2, #20]
 8001418:	4201      	tst	r1, r0
 800141a:	d100      	bne.n	800141e <HAL_GPIO_EXTI_IRQHandler+0xa>
 800141c:	4770      	bx	lr
 800141e:	b508      	push	{r3, lr}
 8001420:	6150      	str	r0, [r2, #20]
 8001422:	f7ff f8fb 	bl	800061c <HAL_GPIO_EXTI_Callback>
 8001426:	bd08      	pop	{r3, pc}
 8001428:	40013c00 	.word	0x40013c00

0800142c <HAL_RCC_OscConfig>:
 800142c:	2800      	cmp	r0, #0
 800142e:	f000 8125 	beq.w	800167c <HAL_RCC_OscConfig+0x250>
 8001432:	e92d 41f0 	stmdb	sp!, {r4, r5, r6, r7, r8, lr}
 8001436:	6803      	ldr	r3, [r0, #0]
 8001438:	b082      	sub	sp, #8
 800143a:	07dd      	lsls	r5, r3, #31
 800143c:	4604      	mov	r4, r0
 800143e:	d522      	bpl.n	8001486 <HAL_RCC_OscConfig+0x5a>
 8001440:	49a6      	ldr	r1, [pc, #664]	; (80016dc <HAL_RCC_OscConfig+0x2b0>)
 8001442:	688a      	ldr	r2, [r1, #8]
 8001444:	f002 020c 	and.w	r2, r2, #12
 8001448:	2a04      	cmp	r2, #4
 800144a:	f000 80ea 	beq.w	8001622 <HAL_RCC_OscConfig+0x1f6>
 800144e:	688a      	ldr	r2, [r1, #8]
 8001450:	f002 020c 	and.w	r2, r2, #12
 8001454:	2a08      	cmp	r2, #8
 8001456:	f000 80e0 	beq.w	800161a <HAL_RCC_OscConfig+0x1ee>
 800145a:	4ba1      	ldr	r3, [pc, #644]	; (80016e0 <HAL_RCC_OscConfig+0x2b4>)
 800145c:	7922      	ldrb	r2, [r4, #4]
 800145e:	701a      	strb	r2, [r3, #0]
 8001460:	6863      	ldr	r3, [r4, #4]
 8001462:	2b00      	cmp	r3, #0
 8001464:	f000 80cb 	beq.w	80015fe <HAL_RCC_OscConfig+0x1d2>
 8001468:	f7ff fc7c 	bl	8000d64 <HAL_GetTick>
 800146c:	4d9b      	ldr	r5, [pc, #620]	; (80016dc <HAL_RCC_OscConfig+0x2b0>)
 800146e:	4606      	mov	r6, r0
 8001470:	e005      	b.n	800147e <HAL_RCC_OscConfig+0x52>
 8001472:	f7ff fc77 	bl	8000d64 <HAL_GetTick>
 8001476:	1b80      	subs	r0, r0, r6
 8001478:	2864      	cmp	r0, #100	; 0x64
 800147a:	f200 80ed 	bhi.w	8001658 <HAL_RCC_OscConfig+0x22c>
 800147e:	682b      	ldr	r3, [r5, #0]
 8001480:	039a      	lsls	r2, r3, #14
 8001482:	d5f6      	bpl.n	8001472 <HAL_RCC_OscConfig+0x46>
 8001484:	6823      	ldr	r3, [r4, #0]
 8001486:	079f      	lsls	r7, r3, #30
 8001488:	d46f      	bmi.n	800156a <HAL_RCC_OscConfig+0x13e>
 800148a:	071a      	lsls	r2, r3, #28
 800148c:	d515      	bpl.n	80014ba <HAL_RCC_OscConfig+0x8e>
 800148e:	6963      	ldr	r3, [r4, #20]
 8001490:	2b00      	cmp	r3, #0
 8001492:	f000 80a4 	beq.w	80015de <HAL_RCC_OscConfig+0x1b2>
 8001496:	2201      	movs	r2, #1
 8001498:	4b92      	ldr	r3, [pc, #584]	; (80016e4 <HAL_RCC_OscConfig+0x2b8>)
 800149a:	4d90      	ldr	r5, [pc, #576]	; (80016dc <HAL_RCC_OscConfig+0x2b0>)
 800149c:	601a      	str	r2, [r3, #0]
 800149e:	f7ff fc61 	bl	8000d64 <HAL_GetTick>
 80014a2:	4606      	mov	r6, r0
 80014a4:	e005      	b.n	80014b2 <HAL_RCC_OscConfig+0x86>
 80014a6:	f7ff fc5d 	bl	8000d64 <HAL_GetTick>
 80014aa:	1b80      	subs	r0, r0, r6
 80014ac:	2802      	cmp	r0, #2
 80014ae:	f200 80d3 	bhi.w	8001658 <HAL_RCC_OscConfig+0x22c>
 80014b2:	6f6b      	ldr	r3, [r5, #116]	; 0x74
 80014b4:	079b      	lsls	r3, r3, #30
 80014b6:	d5f6      	bpl.n	80014a6 <HAL_RCC_OscConfig+0x7a>
 80014b8:	6823      	ldr	r3, [r4, #0]
 80014ba:	0758      	lsls	r0, r3, #29
 80014bc:	d534      	bpl.n	8001528 <HAL_RCC_OscConfig+0xfc>
 80014be:	4a87      	ldr	r2, [pc, #540]	; (80016dc <HAL_RCC_OscConfig+0x2b0>)
 80014c0:	6c13      	ldr	r3, [r2, #64]	; 0x40
 80014c2:	f013 5380 	ands.w	r3, r3, #268435456	; 0x10000000
 80014c6:	f040 80db 	bne.w	8001680 <HAL_RCC_OscConfig+0x254>
 80014ca:	2501      	movs	r5, #1
 80014cc:	9301      	str	r3, [sp, #4]
 80014ce:	6c13      	ldr	r3, [r2, #64]	; 0x40
 80014d0:	f043 5380 	orr.w	r3, r3, #268435456	; 0x10000000
 80014d4:	6413      	str	r3, [r2, #64]	; 0x40
 80014d6:	6c13      	ldr	r3, [r2, #64]	; 0x40
 80014d8:	f003 5380 	and.w	r3, r3, #268435456	; 0x10000000
 80014dc:	9301      	str	r3, [sp, #4]
 80014de:	9b01      	ldr	r3, [sp, #4]
 80014e0:	4b81      	ldr	r3, [pc, #516]	; (80016e8 <HAL_RCC_OscConfig+0x2bc>)
 80014e2:	681a      	ldr	r2, [r3, #0]
 80014e4:	f442 7280 	orr.w	r2, r2, #256	; 0x100
 80014e8:	601a      	str	r2, [r3, #0]
 80014ea:	681a      	ldr	r2, [r3, #0]
 80014ec:	05d1      	lsls	r1, r2, #23
 80014ee:	f140 80a2 	bpl.w	8001636 <HAL_RCC_OscConfig+0x20a>
 80014f2:	4b7e      	ldr	r3, [pc, #504]	; (80016ec <HAL_RCC_OscConfig+0x2c0>)
 80014f4:	7a22      	ldrb	r2, [r4, #8]
 80014f6:	701a      	strb	r2, [r3, #0]
 80014f8:	68a3      	ldr	r3, [r4, #8]
 80014fa:	2b00      	cmp	r3, #0
 80014fc:	f000 80c2 	beq.w	8001684 <HAL_RCC_OscConfig+0x258>
 8001500:	f7ff fc30 	bl	8000d64 <HAL_GetTick>
 8001504:	4e75      	ldr	r6, [pc, #468]	; (80016dc <HAL_RCC_OscConfig+0x2b0>)
 8001506:	4680      	mov	r8, r0
 8001508:	f241 3788 	movw	r7, #5000	; 0x1388
 800150c:	e006      	b.n	800151c <HAL_RCC_OscConfig+0xf0>
 800150e:	f7ff fc29 	bl	8000d64 <HAL_GetTick>
 8001512:	eba0 0008 	sub.w	r0, r0, r8
 8001516:	42b8      	cmp	r0, r7
 8001518:	f200 809e 	bhi.w	8001658 <HAL_RCC_OscConfig+0x22c>
 800151c:	6f33      	ldr	r3, [r6, #112]	; 0x70
 800151e:	079b      	lsls	r3, r3, #30
 8001520:	d5f5      	bpl.n	800150e <HAL_RCC_OscConfig+0xe2>
 8001522:	2d00      	cmp	r5, #0
 8001524:	f040 80d3 	bne.w	80016ce <HAL_RCC_OscConfig+0x2a2>
 8001528:	69a0      	ldr	r0, [r4, #24]
 800152a:	b1d0      	cbz	r0, 8001562 <HAL_RCC_OscConfig+0x136>
 800152c:	4d6b      	ldr	r5, [pc, #428]	; (80016dc <HAL_RCC_OscConfig+0x2b0>)
 800152e:	68aa      	ldr	r2, [r5, #8]
 8001530:	f002 020c 	and.w	r2, r2, #12
 8001534:	2a08      	cmp	r2, #8
 8001536:	f000 80df 	beq.w	80016f8 <HAL_RCC_OscConfig+0x2cc>
 800153a:	2802      	cmp	r0, #2
 800153c:	f04f 0100 	mov.w	r1, #0
 8001540:	4a6b      	ldr	r2, [pc, #428]	; (80016f0 <HAL_RCC_OscConfig+0x2c4>)
 8001542:	f000 80fc 	beq.w	800173e <HAL_RCC_OscConfig+0x312>
 8001546:	6011      	str	r1, [r2, #0]
 8001548:	f7ff fc0c 	bl	8000d64 <HAL_GetTick>
 800154c:	462c      	mov	r4, r5
 800154e:	4605      	mov	r5, r0
 8001550:	e004      	b.n	800155c <HAL_RCC_OscConfig+0x130>
 8001552:	f7ff fc07 	bl	8000d64 <HAL_GetTick>
 8001556:	1b40      	subs	r0, r0, r5
 8001558:	2864      	cmp	r0, #100	; 0x64
 800155a:	d87d      	bhi.n	8001658 <HAL_RCC_OscConfig+0x22c>
 800155c:	6823      	ldr	r3, [r4, #0]
 800155e:	019b      	lsls	r3, r3, #6
 8001560:	d4f7      	bmi.n	8001552 <HAL_RCC_OscConfig+0x126>
 8001562:	2000      	movs	r0, #0
 8001564:	b002      	add	sp, #8
 8001566:	e8bd 81f0 	ldmia.w	sp!, {r4, r5, r6, r7, r8, pc}
 800156a:	4a5c      	ldr	r2, [pc, #368]	; (80016dc <HAL_RCC_OscConfig+0x2b0>)
 800156c:	6891      	ldr	r1, [r2, #8]
 800156e:	f011 0f0c 	tst.w	r1, #12
 8001572:	d029      	beq.n	80015c8 <HAL_RCC_OscConfig+0x19c>
 8001574:	6891      	ldr	r1, [r2, #8]
 8001576:	f001 010c 	and.w	r1, r1, #12
 800157a:	2908      	cmp	r1, #8
 800157c:	d021      	beq.n	80015c2 <HAL_RCC_OscConfig+0x196>
 800157e:	68e3      	ldr	r3, [r4, #12]
 8001580:	2b00      	cmp	r3, #0
 8001582:	f000 8093 	beq.w	80016ac <HAL_RCC_OscConfig+0x280>
 8001586:	2201      	movs	r2, #1
 8001588:	4b5a      	ldr	r3, [pc, #360]	; (80016f4 <HAL_RCC_OscConfig+0x2c8>)
 800158a:	4d54      	ldr	r5, [pc, #336]	; (80016dc <HAL_RCC_OscConfig+0x2b0>)
 800158c:	601a      	str	r2, [r3, #0]
 800158e:	f7ff fbe9 	bl	8000d64 <HAL_GetTick>
 8001592:	4606      	mov	r6, r0
 8001594:	e004      	b.n	80015a0 <HAL_RCC_OscConfig+0x174>
 8001596:	f7ff fbe5 	bl	8000d64 <HAL_GetTick>
 800159a:	1b80      	subs	r0, r0, r6
 800159c:	2802      	cmp	r0, #2
 800159e:	d85b      	bhi.n	8001658 <HAL_RCC_OscConfig+0x22c>
 80015a0:	682b      	ldr	r3, [r5, #0]
 80015a2:	0798      	lsls	r0, r3, #30
 80015a4:	d5f7      	bpl.n	8001596 <HAL_RCC_OscConfig+0x16a>
 80015a6:	6829      	ldr	r1, [r5, #0]
 80015a8:	23f8      	movs	r3, #248	; 0xf8
 80015aa:	fa93 f3a3 	rbit	r3, r3
 80015ae:	fab3 f283 	clz	r2, r3
 80015b2:	6923      	ldr	r3, [r4, #16]
 80015b4:	f021 01f8 	bic.w	r1, r1, #248	; 0xf8
 80015b8:	4093      	lsls	r3, r2
 80015ba:	430b      	orrs	r3, r1
 80015bc:	602b      	str	r3, [r5, #0]
 80015be:	6823      	ldr	r3, [r4, #0]
 80015c0:	e763      	b.n	800148a <HAL_RCC_OscConfig+0x5e>
 80015c2:	6852      	ldr	r2, [r2, #4]
 80015c4:	0256      	lsls	r6, r2, #9
 80015c6:	d4da      	bmi.n	800157e <HAL_RCC_OscConfig+0x152>
 80015c8:	4a44      	ldr	r2, [pc, #272]	; (80016dc <HAL_RCC_OscConfig+0x2b0>)
 80015ca:	6812      	ldr	r2, [r2, #0]
 80015cc:	0795      	lsls	r5, r2, #30
 80015ce:	d547      	bpl.n	8001660 <HAL_RCC_OscConfig+0x234>
 80015d0:	68e2      	ldr	r2, [r4, #12]
 80015d2:	2a01      	cmp	r2, #1
 80015d4:	d044      	beq.n	8001660 <HAL_RCC_OscConfig+0x234>
 80015d6:	2001      	movs	r0, #1
 80015d8:	b002      	add	sp, #8
 80015da:	e8bd 81f0 	ldmia.w	sp!, {r4, r5, r6, r7, r8, pc}
 80015de:	4a41      	ldr	r2, [pc, #260]	; (80016e4 <HAL_RCC_OscConfig+0x2b8>)
 80015e0:	4d3e      	ldr	r5, [pc, #248]	; (80016dc <HAL_RCC_OscConfig+0x2b0>)
 80015e2:	6013      	str	r3, [r2, #0]
 80015e4:	f7ff fbbe 	bl	8000d64 <HAL_GetTick>
 80015e8:	4606      	mov	r6, r0
 80015ea:	e004      	b.n	80015f6 <HAL_RCC_OscConfig+0x1ca>
 80015ec:	f7ff fbba 	bl	8000d64 <HAL_GetTick>
 80015f0:	1b80      	subs	r0, r0, r6
 80015f2:	2802      	cmp	r0, #2
 80015f4:	d830      	bhi.n	8001658 <HAL_RCC_OscConfig+0x22c>
 80015f6:	6f6b      	ldr	r3, [r5, #116]	; 0x74
 80015f8:	079f      	lsls	r7, r3, #30
 80015fa:	d4f7      	bmi.n	80015ec <HAL_RCC_OscConfig+0x1c0>
 80015fc:	e75c      	b.n	80014b8 <HAL_RCC_OscConfig+0x8c>
 80015fe:	f7ff fbb1 	bl	8000d64 <HAL_GetTick>
 8001602:	4d36      	ldr	r5, [pc, #216]	; (80016dc <HAL_RCC_OscConfig+0x2b0>)
 8001604:	4606      	mov	r6, r0
 8001606:	e004      	b.n	8001612 <HAL_RCC_OscConfig+0x1e6>
 8001608:	f7ff fbac 	bl	8000d64 <HAL_GetTick>
 800160c:	1b80      	subs	r0, r0, r6
 800160e:	2864      	cmp	r0, #100	; 0x64
 8001610:	d822      	bhi.n	8001658 <HAL_RCC_OscConfig+0x22c>
 8001612:	682b      	ldr	r3, [r5, #0]
 8001614:	039b      	lsls	r3, r3, #14
 8001616:	d4f7      	bmi.n	8001608 <HAL_RCC_OscConfig+0x1dc>
 8001618:	e734      	b.n	8001484 <HAL_RCC_OscConfig+0x58>
 800161a:	684a      	ldr	r2, [r1, #4]
 800161c:	0250      	lsls	r0, r2, #9
 800161e:	f57f af1c 	bpl.w	800145a <HAL_RCC_OscConfig+0x2e>
 8001622:	4a2e      	ldr	r2, [pc, #184]	; (80016dc <HAL_RCC_OscConfig+0x2b0>)
 8001624:	6812      	ldr	r2, [r2, #0]
 8001626:	0391      	lsls	r1, r2, #14
 8001628:	f57f af2d 	bpl.w	8001486 <HAL_RCC_OscConfig+0x5a>
 800162c:	6862      	ldr	r2, [r4, #4]
 800162e:	2a00      	cmp	r2, #0
 8001630:	f47f af29 	bne.w	8001486 <HAL_RCC_OscConfig+0x5a>
 8001634:	e7cf      	b.n	80015d6 <HAL_RCC_OscConfig+0x1aa>
 8001636:	681a      	ldr	r2, [r3, #0]
 8001638:	461e      	mov	r6, r3
 800163a:	f442 7280 	orr.w	r2, r2, #256	; 0x100
 800163e:	601a      	str	r2, [r3, #0]
 8001640:	f7ff fb90 	bl	8000d64 <HAL_GetTick>
 8001644:	4607      	mov	r7, r0
 8001646:	6833      	ldr	r3, [r6, #0]
 8001648:	05da      	lsls	r2, r3, #23
 800164a:	f53f af52 	bmi.w	80014f2 <HAL_RCC_OscConfig+0xc6>
 800164e:	f7ff fb89 	bl	8000d64 <HAL_GetTick>
 8001652:	1bc0      	subs	r0, r0, r7
 8001654:	2802      	cmp	r0, #2
 8001656:	d9f6      	bls.n	8001646 <HAL_RCC_OscConfig+0x21a>
 8001658:	2003      	movs	r0, #3
 800165a:	b002      	add	sp, #8
 800165c:	e8bd 81f0 	ldmia.w	sp!, {r4, r5, r6, r7, r8, pc}
 8001660:	4d1e      	ldr	r5, [pc, #120]	; (80016dc <HAL_RCC_OscConfig+0x2b0>)
 8001662:	22f8      	movs	r2, #248	; 0xf8
 8001664:	6828      	ldr	r0, [r5, #0]
 8001666:	fa92 f2a2 	rbit	r2, r2
 800166a:	fab2 f182 	clz	r1, r2
 800166e:	6922      	ldr	r2, [r4, #16]
 8001670:	f020 00f8 	bic.w	r0, r0, #248	; 0xf8
 8001674:	408a      	lsls	r2, r1
 8001676:	4302      	orrs	r2, r0
 8001678:	602a      	str	r2, [r5, #0]
 800167a:	e706      	b.n	800148a <HAL_RCC_OscConfig+0x5e>
 800167c:	2001      	movs	r0, #1
 800167e:	4770      	bx	lr
 8001680:	2500      	movs	r5, #0
 8001682:	e72d      	b.n	80014e0 <HAL_RCC_OscConfig+0xb4>
 8001684:	f7ff fb6e 	bl	8000d64 <HAL_GetTick>
 8001688:	4e14      	ldr	r6, [pc, #80]	; (80016dc <HAL_RCC_OscConfig+0x2b0>)
 800168a:	4680      	mov	r8, r0
 800168c:	f241 3788 	movw	r7, #5000	; 0x1388
 8001690:	e005      	b.n	800169e <HAL_RCC_OscConfig+0x272>
 8001692:	f7ff fb67 	bl	8000d64 <HAL_GetTick>
 8001696:	eba0 0008 	sub.w	r0, r0, r8
 800169a:	42b8      	cmp	r0, r7
 800169c:	d8dc      	bhi.n	8001658 <HAL_RCC_OscConfig+0x22c>
 800169e:	6f33      	ldr	r3, [r6, #112]	; 0x70
 80016a0:	0798      	lsls	r0, r3, #30
 80016a2:	d4f6      	bmi.n	8001692 <HAL_RCC_OscConfig+0x266>
 80016a4:	2d00      	cmp	r5, #0
 80016a6:	f43f af3f 	beq.w	8001528 <HAL_RCC_OscConfig+0xfc>
 80016aa:	e010      	b.n	80016ce <HAL_RCC_OscConfig+0x2a2>
 80016ac:	4a11      	ldr	r2, [pc, #68]	; (80016f4 <HAL_RCC_OscConfig+0x2c8>)
 80016ae:	4d0b      	ldr	r5, [pc, #44]	; (80016dc <HAL_RCC_OscConfig+0x2b0>)
 80016b0:	6013      	str	r3, [r2, #0]
 80016b2:	f7ff fb57 	bl	8000d64 <HAL_GetTick>
 80016b6:	4606      	mov	r6, r0
 80016b8:	e004      	b.n	80016c4 <HAL_RCC_OscConfig+0x298>
 80016ba:	f7ff fb53 	bl	8000d64 <HAL_GetTick>
 80016be:	1b80      	subs	r0, r0, r6
 80016c0:	2802      	cmp	r0, #2
 80016c2:	d8c9      	bhi.n	8001658 <HAL_RCC_OscConfig+0x22c>
 80016c4:	682b      	ldr	r3, [r5, #0]
 80016c6:	0799      	lsls	r1, r3, #30
 80016c8:	d4f7      	bmi.n	80016ba <HAL_RCC_OscConfig+0x28e>
 80016ca:	6823      	ldr	r3, [r4, #0]
 80016cc:	e6dd      	b.n	800148a <HAL_RCC_OscConfig+0x5e>
 80016ce:	4a03      	ldr	r2, [pc, #12]	; (80016dc <HAL_RCC_OscConfig+0x2b0>)
 80016d0:	6c13      	ldr	r3, [r2, #64]	; 0x40
 80016d2:	f023 5380 	bic.w	r3, r3, #268435456	; 0x10000000
 80016d6:	6413      	str	r3, [r2, #64]	; 0x40
 80016d8:	e726      	b.n	8001528 <HAL_RCC_OscConfig+0xfc>
 80016da:	bf00      	nop
 80016dc:	40023800 	.word	0x40023800
 80016e0:	40023802 	.word	0x40023802
 80016e4:	42470e80 	.word	0x42470e80
 80016e8:	40007000 	.word	0x40007000
 80016ec:	40023870 	.word	0x40023870
 80016f0:	42470060 	.word	0x42470060
 80016f4:	42470000 	.word	0x42470000
 80016f8:	2801      	cmp	r0, #1
 80016fa:	f43f af6d 	beq.w	80015d8 <HAL_RCC_OscConfig+0x1ac>
 80016fe:	686b      	ldr	r3, [r5, #4]
 8001700:	69e2      	ldr	r2, [r4, #28]
 8001702:	f403 0180 	and.w	r1, r3, #4194304	; 0x400000
 8001706:	4291      	cmp	r1, r2
 8001708:	f47f af65 	bne.w	80015d6 <HAL_RCC_OscConfig+0x1aa>
 800170c:	6a22      	ldr	r2, [r4, #32]
 800170e:	f003 013f 	and.w	r1, r3, #63	; 0x3f
 8001712:	4291      	cmp	r1, r2
 8001714:	f47f af5f 	bne.w	80015d6 <HAL_RCC_OscConfig+0x1aa>
 8001718:	6a62      	ldr	r2, [r4, #36]	; 0x24
 800171a:	f3c3 1188 	ubfx	r1, r3, #6, #9
 800171e:	4291      	cmp	r1, r2
 8001720:	f47f af59 	bne.w	80015d6 <HAL_RCC_OscConfig+0x1aa>
 8001724:	6aa2      	ldr	r2, [r4, #40]	; 0x28
 8001726:	f403 3140 	and.w	r1, r3, #196608	; 0x30000
 800172a:	4291      	cmp	r1, r2
 800172c:	f47f af53 	bne.w	80015d6 <HAL_RCC_OscConfig+0x1aa>
 8001730:	6ae0      	ldr	r0, [r4, #44]	; 0x2c
 8001732:	f003 6370 	and.w	r3, r3, #251658240	; 0xf000000
 8001736:	1a18      	subs	r0, r3, r0
 8001738:	bf18      	it	ne
 800173a:	2001      	movne	r0, #1
 800173c:	e74c      	b.n	80015d8 <HAL_RCC_OscConfig+0x1ac>
 800173e:	6011      	str	r1, [r2, #0]
 8001740:	f7ff fb10 	bl	8000d64 <HAL_GetTick>
 8001744:	4606      	mov	r6, r0
 8001746:	e004      	b.n	8001752 <HAL_RCC_OscConfig+0x326>
 8001748:	f7ff fb0c 	bl	8000d64 <HAL_GetTick>
 800174c:	1b80      	subs	r0, r0, r6
 800174e:	2864      	cmp	r0, #100	; 0x64
 8001750:	d882      	bhi.n	8001658 <HAL_RCC_OscConfig+0x22c>
 8001752:	682b      	ldr	r3, [r5, #0]
 8001754:	0199      	lsls	r1, r3, #6
 8001756:	d4f7      	bmi.n	8001748 <HAL_RCC_OscConfig+0x31c>
 8001758:	2101      	movs	r1, #1
 800175a:	686a      	ldr	r2, [r5, #4]
 800175c:	4811      	ldr	r0, [pc, #68]	; (80017a4 <HAL_RCC_OscConfig+0x378>)
 800175e:	69e3      	ldr	r3, [r4, #28]
 8001760:	4002      	ands	r2, r0
 8001762:	6a20      	ldr	r0, [r4, #32]
 8001764:	6a66      	ldr	r6, [r4, #36]	; 0x24
 8001766:	4303      	orrs	r3, r0
 8001768:	4313      	orrs	r3, r2
 800176a:	ea43 1386 	orr.w	r3, r3, r6, lsl #6
 800176e:	e9d4 200a 	ldrd	r2, r0, [r4, #40]	; 0x28
 8001772:	40ca      	lsrs	r2, r1
 8001774:	ea43 6300 	orr.w	r3, r3, r0, lsl #24
 8001778:	3a01      	subs	r2, #1
 800177a:	480b      	ldr	r0, [pc, #44]	; (80017a8 <HAL_RCC_OscConfig+0x37c>)
 800177c:	ea43 4302 	orr.w	r3, r3, r2, lsl #16
 8001780:	606b      	str	r3, [r5, #4]
 8001782:	6001      	str	r1, [r0, #0]
 8001784:	f7ff faee 	bl	8000d64 <HAL_GetTick>
 8001788:	4c08      	ldr	r4, [pc, #32]	; (80017ac <HAL_RCC_OscConfig+0x380>)
 800178a:	4605      	mov	r5, r0
 800178c:	e005      	b.n	800179a <HAL_RCC_OscConfig+0x36e>
 800178e:	f7ff fae9 	bl	8000d64 <HAL_GetTick>
 8001792:	1b40      	subs	r0, r0, r5
 8001794:	2864      	cmp	r0, #100	; 0x64
 8001796:	f63f af5f 	bhi.w	8001658 <HAL_RCC_OscConfig+0x22c>
 800179a:	6823      	ldr	r3, [r4, #0]
 800179c:	019a      	lsls	r2, r3, #6
 800179e:	d5f6      	bpl.n	800178e <HAL_RCC_OscConfig+0x362>
 80017a0:	e6df      	b.n	8001562 <HAL_RCC_OscConfig+0x136>
 80017a2:	bf00      	nop
 80017a4:	f0bc8000 	.word	0xf0bc8000
 80017a8:	42470060 	.word	0x42470060
 80017ac:	40023800 	.word	0x40023800

080017b0 <HAL_RCC_ClockConfig>:
 80017b0:	b160      	cbz	r0, 80017cc <HAL_RCC_ClockConfig+0x1c>
 80017b2:	4a5f      	ldr	r2, [pc, #380]	; (8001930 <HAL_RCC_ClockConfig+0x180>)
 80017b4:	6813      	ldr	r3, [r2, #0]
 80017b6:	f003 030f 	and.w	r3, r3, #15
 80017ba:	428b      	cmp	r3, r1
 80017bc:	d208      	bcs.n	80017d0 <HAL_RCC_ClockConfig+0x20>
 80017be:	b2cb      	uxtb	r3, r1
 80017c0:	7013      	strb	r3, [r2, #0]
 80017c2:	6813      	ldr	r3, [r2, #0]
 80017c4:	f003 030f 	and.w	r3, r3, #15
 80017c8:	428b      	cmp	r3, r1
 80017ca:	d001      	beq.n	80017d0 <HAL_RCC_ClockConfig+0x20>
 80017cc:	2001      	movs	r0, #1
 80017ce:	4770      	bx	lr
 80017d0:	6803      	ldr	r3, [r0, #0]
 80017d2:	e92d 41f0 	stmdb	sp!, {r4, r5, r6, r7, r8, lr}
 80017d6:	079d      	lsls	r5, r3, #30
 80017d8:	d514      	bpl.n	8001804 <HAL_RCC_ClockConfig+0x54>
 80017da:	075c      	lsls	r4, r3, #29
 80017dc:	d504      	bpl.n	80017e8 <HAL_RCC_ClockConfig+0x38>
 80017de:	4c55      	ldr	r4, [pc, #340]	; (8001934 <HAL_RCC_ClockConfig+0x184>)
 80017e0:	68a2      	ldr	r2, [r4, #8]
 80017e2:	f442 52e0 	orr.w	r2, r2, #7168	; 0x1c00
 80017e6:	60a2      	str	r2, [r4, #8]
 80017e8:	071a      	lsls	r2, r3, #28
 80017ea:	d504      	bpl.n	80017f6 <HAL_RCC_ClockConfig+0x46>
 80017ec:	4c51      	ldr	r4, [pc, #324]	; (8001934 <HAL_RCC_ClockConfig+0x184>)
 80017ee:	68a2      	ldr	r2, [r4, #8]
 80017f0:	f442 4260 	orr.w	r2, r2, #57344	; 0xe000
 80017f4:	60a2      	str	r2, [r4, #8]
 80017f6:	4c4f      	ldr	r4, [pc, #316]	; (8001934 <HAL_RCC_ClockConfig+0x184>)
 80017f8:	6885      	ldr	r5, [r0, #8]
 80017fa:	68a2      	ldr	r2, [r4, #8]
 80017fc:	f022 02f0 	bic.w	r2, r2, #240	; 0xf0
 8001800:	432a      	orrs	r2, r5
 8001802:	60a2      	str	r2, [r4, #8]
 8001804:	07df      	lsls	r7, r3, #31
 8001806:	4604      	mov	r4, r0
 8001808:	460d      	mov	r5, r1
 800180a:	d520      	bpl.n	800184e <HAL_RCC_ClockConfig+0x9e>
 800180c:	6842      	ldr	r2, [r0, #4]
 800180e:	4b49      	ldr	r3, [pc, #292]	; (8001934 <HAL_RCC_ClockConfig+0x184>)
 8001810:	2a01      	cmp	r2, #1
 8001812:	681b      	ldr	r3, [r3, #0]
 8001814:	d05f      	beq.n	80018d6 <HAL_RCC_ClockConfig+0x126>
 8001816:	2a02      	cmp	r2, #2
 8001818:	d07c      	beq.n	8001914 <HAL_RCC_ClockConfig+0x164>
 800181a:	0799      	lsls	r1, r3, #30
 800181c:	d524      	bpl.n	8001868 <HAL_RCC_ClockConfig+0xb8>
 800181e:	4e45      	ldr	r6, [pc, #276]	; (8001934 <HAL_RCC_ClockConfig+0x184>)
 8001820:	f241 3888 	movw	r8, #5000	; 0x1388
 8001824:	68b3      	ldr	r3, [r6, #8]
 8001826:	f023 0303 	bic.w	r3, r3, #3
 800182a:	4313      	orrs	r3, r2
 800182c:	60b3      	str	r3, [r6, #8]
 800182e:	f7ff fa99 	bl	8000d64 <HAL_GetTick>
 8001832:	4607      	mov	r7, r0
 8001834:	e004      	b.n	8001840 <HAL_RCC_ClockConfig+0x90>
 8001836:	f7ff fa95 	bl	8000d64 <HAL_GetTick>
 800183a:	1bc0      	subs	r0, r0, r7
 800183c:	4540      	cmp	r0, r8
 800183e:	d867      	bhi.n	8001910 <HAL_RCC_ClockConfig+0x160>
 8001840:	68b3      	ldr	r3, [r6, #8]
 8001842:	6862      	ldr	r2, [r4, #4]
 8001844:	f003 030c 	and.w	r3, r3, #12
 8001848:	ebb3 0f82 	cmp.w	r3, r2, lsl #2
 800184c:	d1f3      	bne.n	8001836 <HAL_RCC_ClockConfig+0x86>
 800184e:	4a38      	ldr	r2, [pc, #224]	; (8001930 <HAL_RCC_ClockConfig+0x180>)
 8001850:	6813      	ldr	r3, [r2, #0]
 8001852:	f003 030f 	and.w	r3, r3, #15
 8001856:	42ab      	cmp	r3, r5
 8001858:	d909      	bls.n	800186e <HAL_RCC_ClockConfig+0xbe>
 800185a:	b2eb      	uxtb	r3, r5
 800185c:	7013      	strb	r3, [r2, #0]
 800185e:	6813      	ldr	r3, [r2, #0]
 8001860:	f003 030f 	and.w	r3, r3, #15
 8001864:	42ab      	cmp	r3, r5
 8001866:	d002      	beq.n	800186e <HAL_RCC_ClockConfig+0xbe>
 8001868:	2001      	movs	r0, #1
 800186a:	e8bd 81f0 	ldmia.w	sp!, {r4, r5, r6, r7, r8, pc}
 800186e:	6823      	ldr	r3, [r4, #0]
 8001870:	075a      	lsls	r2, r3, #29
 8001872:	d506      	bpl.n	8001882 <HAL_RCC_ClockConfig+0xd2>
 8001874:	492f      	ldr	r1, [pc, #188]	; (8001934 <HAL_RCC_ClockConfig+0x184>)
 8001876:	68e0      	ldr	r0, [r4, #12]
 8001878:	688a      	ldr	r2, [r1, #8]
 800187a:	f422 52e0 	bic.w	r2, r2, #7168	; 0x1c00
 800187e:	4302      	orrs	r2, r0
 8001880:	608a      	str	r2, [r1, #8]
 8001882:	071b      	lsls	r3, r3, #28
 8001884:	d507      	bpl.n	8001896 <HAL_RCC_ClockConfig+0xe6>
 8001886:	4a2b      	ldr	r2, [pc, #172]	; (8001934 <HAL_RCC_ClockConfig+0x184>)
 8001888:	6921      	ldr	r1, [r4, #16]
 800188a:	6893      	ldr	r3, [r2, #8]
 800188c:	f423 4360 	bic.w	r3, r3, #57344	; 0xe000
 8001890:	ea43 03c1 	orr.w	r3, r3, r1, lsl #3
 8001894:	6093      	str	r3, [r2, #8]
 8001896:	4927      	ldr	r1, [pc, #156]	; (8001934 <HAL_RCC_ClockConfig+0x184>)
 8001898:	688b      	ldr	r3, [r1, #8]
 800189a:	f003 030c 	and.w	r3, r3, #12
 800189e:	2b04      	cmp	r3, #4
 80018a0:	d01c      	beq.n	80018dc <HAL_RCC_ClockConfig+0x12c>
 80018a2:	2b08      	cmp	r3, #8
 80018a4:	d132      	bne.n	800190c <HAL_RCC_ClockConfig+0x15c>
 80018a6:	684a      	ldr	r2, [r1, #4]
 80018a8:	684b      	ldr	r3, [r1, #4]
 80018aa:	f002 023f 	and.w	r2, r2, #63	; 0x3f
 80018ae:	f413 0380 	ands.w	r3, r3, #4194304	; 0x400000
 80018b2:	d132      	bne.n	800191a <HAL_RCC_ClockConfig+0x16a>
 80018b4:	6849      	ldr	r1, [r1, #4]
 80018b6:	4820      	ldr	r0, [pc, #128]	; (8001938 <HAL_RCC_ClockConfig+0x188>)
 80018b8:	f3c1 1188 	ubfx	r1, r1, #6, #9
 80018bc:	fba1 0100 	umull	r0, r1, r1, r0
 80018c0:	f7fe fc86 	bl	80001d0 <__aeabi_uldivmod>
 80018c4:	4b1b      	ldr	r3, [pc, #108]	; (8001934 <HAL_RCC_ClockConfig+0x184>)
 80018c6:	685b      	ldr	r3, [r3, #4]
 80018c8:	f3c3 4301 	ubfx	r3, r3, #16, #2
 80018cc:	3301      	adds	r3, #1
 80018ce:	005b      	lsls	r3, r3, #1
 80018d0:	fbb0 f0f3 	udiv	r0, r0, r3
 80018d4:	e003      	b.n	80018de <HAL_RCC_ClockConfig+0x12e>
 80018d6:	039e      	lsls	r6, r3, #14
 80018d8:	d4a1      	bmi.n	800181e <HAL_RCC_ClockConfig+0x6e>
 80018da:	e7c5      	b.n	8001868 <HAL_RCC_ClockConfig+0xb8>
 80018dc:	4817      	ldr	r0, [pc, #92]	; (800193c <HAL_RCC_ClockConfig+0x18c>)
 80018de:	4b15      	ldr	r3, [pc, #84]	; (8001934 <HAL_RCC_ClockConfig+0x184>)
 80018e0:	22f0      	movs	r2, #240	; 0xf0
 80018e2:	689b      	ldr	r3, [r3, #8]
 80018e4:	fa92 f2a2 	rbit	r2, r2
 80018e8:	fab2 f282 	clz	r2, r2
 80018ec:	4914      	ldr	r1, [pc, #80]	; (8001940 <HAL_RCC_ClockConfig+0x190>)
 80018ee:	f003 03f0 	and.w	r3, r3, #240	; 0xf0
 80018f2:	40d3      	lsrs	r3, r2
 80018f4:	5ccb      	ldrb	r3, [r1, r3]
 80018f6:	4913      	ldr	r1, [pc, #76]	; (8001944 <HAL_RCC_ClockConfig+0x194>)
 80018f8:	4a13      	ldr	r2, [pc, #76]	; (8001948 <HAL_RCC_ClockConfig+0x198>)
 80018fa:	fa20 f303 	lsr.w	r3, r0, r3
 80018fe:	6808      	ldr	r0, [r1, #0]
 8001900:	6013      	str	r3, [r2, #0]
 8001902:	f7ff f93b 	bl	8000b7c <HAL_InitTick>
 8001906:	2000      	movs	r0, #0
 8001908:	e8bd 81f0 	ldmia.w	sp!, {r4, r5, r6, r7, r8, pc}
 800190c:	480a      	ldr	r0, [pc, #40]	; (8001938 <HAL_RCC_ClockConfig+0x188>)
 800190e:	e7e6      	b.n	80018de <HAL_RCC_ClockConfig+0x12e>
 8001910:	2003      	movs	r0, #3
 8001912:	e7aa      	b.n	800186a <HAL_RCC_ClockConfig+0xba>
 8001914:	0198      	lsls	r0, r3, #6
 8001916:	d482      	bmi.n	800181e <HAL_RCC_ClockConfig+0x6e>
 8001918:	e7a6      	b.n	8001868 <HAL_RCC_ClockConfig+0xb8>
 800191a:	684b      	ldr	r3, [r1, #4]
 800191c:	4807      	ldr	r0, [pc, #28]	; (800193c <HAL_RCC_ClockConfig+0x18c>)
 800191e:	f3c3 1388 	ubfx	r3, r3, #6, #9
 8001922:	fba3 0100 	umull	r0, r1, r3, r0
 8001926:	2300      	movs	r3, #0
 8001928:	f7fe fc52 	bl	80001d0 <__aeabi_uldivmod>
 800192c:	e7ca      	b.n	80018c4 <HAL_RCC_ClockConfig+0x114>
 800192e:	bf00      	nop
 8001930:	40023c00 	.word	0x40023c00
 8001934:	40023800 	.word	0x40023800
 8001938:	00f42400 	.word	0x00f42400
 800193c:	007a1200 	.word	0x007a1200
 8001940:	0800a82c 	.word	0x0800a82c
 8001944:	20000008 	.word	0x20000008
 8001948:	20000000 	.word	0x20000000

0800194c <HAL_RCC_GetPCLK1Freq>:
 800194c:	4b08      	ldr	r3, [pc, #32]	; (8001970 <HAL_RCC_GetPCLK1Freq+0x24>)
 800194e:	f44f 52e0 	mov.w	r2, #7168	; 0x1c00
 8001952:	689b      	ldr	r3, [r3, #8]
 8001954:	fa92 f2a2 	rbit	r2, r2
 8001958:	fab2 f282 	clz	r2, r2
 800195c:	4805      	ldr	r0, [pc, #20]	; (8001974 <HAL_RCC_GetPCLK1Freq+0x28>)
 800195e:	4906      	ldr	r1, [pc, #24]	; (8001978 <HAL_RCC_GetPCLK1Freq+0x2c>)
 8001960:	f403 53e0 	and.w	r3, r3, #7168	; 0x1c00
 8001964:	40d3      	lsrs	r3, r2
 8001966:	5cc3      	ldrb	r3, [r0, r3]
 8001968:	6808      	ldr	r0, [r1, #0]
 800196a:	40d8      	lsrs	r0, r3
 800196c:	4770      	bx	lr
 800196e:	bf00      	nop
 8001970:	40023800 	.word	0x40023800
 8001974:	0800a83c 	.word	0x0800a83c
 8001978:	20000000 	.word	0x20000000

0800197c <HAL_RCC_GetPCLK2Freq>:
 800197c:	4b08      	ldr	r3, [pc, #32]	; (80019a0 <HAL_RCC_GetPCLK2Freq+0x24>)
 800197e:	f44f 4260 	mov.w	r2, #57344	; 0xe000
 8001982:	689b      	ldr	r3, [r3, #8]
 8001984:	fa92 f2a2 	rbit	r2, r2
 8001988:	fab2 f282 	clz	r2, r2
 800198c:	4805      	ldr	r0, [pc, #20]	; (80019a4 <HAL_RCC_GetPCLK2Freq+0x28>)
 800198e:	4906      	ldr	r1, [pc, #24]	; (80019a8 <HAL_RCC_GetPCLK2Freq+0x2c>)
 8001990:	f403 4360 	and.w	r3, r3, #57344	; 0xe000
 8001994:	40d3      	lsrs	r3, r2
 8001996:	5cc3      	ldrb	r3, [r0, r3]
 8001998:	6808      	ldr	r0, [r1, #0]
 800199a:	40d8      	lsrs	r0, r3
 800199c:	4770      	bx	lr
 800199e:	bf00      	nop
 80019a0:	40023800 	.word	0x40023800
 80019a4:	0800a83c 	.word	0x0800a83c
 80019a8:	20000000 	.word	0x20000000

080019ac <HAL_RCC_GetClockConfig>:
 80019ac:	220f      	movs	r2, #15
 80019ae:	4b0d      	ldr	r3, [pc, #52]	; (80019e4 <HAL_RCC_GetClockConfig+0x38>)
 80019b0:	6002      	str	r2, [r0, #0]
 80019b2:	689a      	ldr	r2, [r3, #8]
 80019b4:	b410      	push	{r4}
 80019b6:	f002 0203 	and.w	r2, r2, #3
 80019ba:	6042      	str	r2, [r0, #4]
 80019bc:	689a      	ldr	r2, [r3, #8]
 80019be:	4c0a      	ldr	r4, [pc, #40]	; (80019e8 <HAL_RCC_GetClockConfig+0x3c>)
 80019c0:	f002 02f0 	and.w	r2, r2, #240	; 0xf0
 80019c4:	6082      	str	r2, [r0, #8]
 80019c6:	689a      	ldr	r2, [r3, #8]
 80019c8:	f402 52e0 	and.w	r2, r2, #7168	; 0x1c00
 80019cc:	60c2      	str	r2, [r0, #12]
 80019ce:	689b      	ldr	r3, [r3, #8]
 80019d0:	08db      	lsrs	r3, r3, #3
 80019d2:	f403 53e0 	and.w	r3, r3, #7168	; 0x1c00
 80019d6:	6103      	str	r3, [r0, #16]
 80019d8:	6823      	ldr	r3, [r4, #0]
 80019da:	bc10      	pop	{r4}
 80019dc:	f003 030f 	and.w	r3, r3, #15
 80019e0:	600b      	str	r3, [r1, #0]
 80019e2:	4770      	bx	lr
 80019e4:	40023800 	.word	0x40023800
 80019e8:	40023c00 	.word	0x40023c00

080019ec <SD_DMATransmitCplt>:
 80019ec:	6b83      	ldr	r3, [r0, #56]	; 0x38
 80019ee:	681a      	ldr	r2, [r3, #0]
 80019f0:	6bd3      	ldr	r3, [r2, #60]	; 0x3c
 80019f2:	f443 7380 	orr.w	r3, r3, #256	; 0x100
 80019f6:	63d3      	str	r3, [r2, #60]	; 0x3c
 80019f8:	4770      	bx	lr
 80019fa:	bf00      	nop

080019fc <SD_FindSCR>:
 80019fc:	e92d 43f0 	stmdb	sp!, {r4, r5, r6, r7, r8, r9, lr}
 8001a00:	b089      	sub	sp, #36	; 0x24
 8001a02:	4605      	mov	r5, r0
 8001a04:	460f      	mov	r7, r1
 8001a06:	f7ff f9ad 	bl	8000d64 <HAL_GetTick>
 8001a0a:	2300      	movs	r3, #0
 8001a0c:	4606      	mov	r6, r0
 8001a0e:	2108      	movs	r1, #8
 8001a10:	6828      	ldr	r0, [r5, #0]
 8001a12:	e9cd 3300 	strd	r3, r3, [sp]
 8001a16:	f001 f8f9 	bl	8002c0c <SDMMC_CmdBlockLength>
 8001a1a:	4604      	mov	r4, r0
 8001a1c:	b118      	cbz	r0, 8001a26 <SD_FindSCR+0x2a>
 8001a1e:	4620      	mov	r0, r4
 8001a20:	b009      	add	sp, #36	; 0x24
 8001a22:	e8bd 83f0 	ldmia.w	sp!, {r4, r5, r6, r7, r8, r9, pc}
 8001a26:	6d29      	ldr	r1, [r5, #80]	; 0x50
 8001a28:	6828      	ldr	r0, [r5, #0]
 8001a2a:	0409      	lsls	r1, r1, #16
 8001a2c:	f001 fb1e 	bl	800306c <SDMMC_CmdAppCommand>
 8001a30:	4604      	mov	r4, r0
 8001a32:	2800      	cmp	r0, #0
 8001a34:	d1f3      	bne.n	8001a1e <SD_FindSCR+0x22>
 8001a36:	f04f 3cff 	mov.w	ip, #4294967295
 8001a3a:	2008      	movs	r0, #8
 8001a3c:	2130      	movs	r1, #48	; 0x30
 8001a3e:	2202      	movs	r2, #2
 8001a40:	2301      	movs	r3, #1
 8001a42:	e9cd c002 	strd	ip, r0, [sp, #8]
 8001a46:	9104      	str	r1, [sp, #16]
 8001a48:	eb0d 0100 	add.w	r1, sp, r0
 8001a4c:	6828      	ldr	r0, [r5, #0]
 8001a4e:	9406      	str	r4, [sp, #24]
 8001a50:	9205      	str	r2, [sp, #20]
 8001a52:	9307      	str	r3, [sp, #28]
 8001a54:	f001 f8c6 	bl	8002be4 <SDIO_ConfigData>
 8001a58:	6828      	ldr	r0, [r5, #0]
 8001a5a:	f001 fbc1 	bl	80031e0 <SDMMC_CmdSendSCR>
 8001a5e:	4604      	mov	r4, r0
 8001a60:	2800      	cmp	r0, #0
 8001a62:	d1dc      	bne.n	8001a1e <SD_FindSCR+0x22>
 8001a64:	4681      	mov	r9, r0
 8001a66:	f240 482a 	movw	r8, #1066	; 0x42a
 8001a6a:	6828      	ldr	r0, [r5, #0]
 8001a6c:	6b43      	ldr	r3, [r0, #52]	; 0x34
 8001a6e:	ea13 0f08 	tst.w	r3, r8
 8001a72:	6b43      	ldr	r3, [r0, #52]	; 0x34
 8001a74:	d118      	bne.n	8001aa8 <SD_FindSCR+0xac>
 8001a76:	029b      	lsls	r3, r3, #10
 8001a78:	d407      	bmi.n	8001a8a <SD_FindSCR+0x8e>
 8001a7a:	f7ff f973 	bl	8000d64 <HAL_GetTick>
 8001a7e:	1b80      	subs	r0, r0, r6
 8001a80:	3001      	adds	r0, #1
 8001a82:	d1f2      	bne.n	8001a6a <SD_FindSCR+0x6e>
 8001a84:	f04f 4400 	mov.w	r4, #2147483648	; 0x80000000
 8001a88:	e7c9      	b.n	8001a1e <SD_FindSCR+0x22>
 8001a8a:	f001 f88f 	bl	8002bac <SDIO_ReadFIFO>
 8001a8e:	ab08      	add	r3, sp, #32
 8001a90:	eb03 0389 	add.w	r3, r3, r9, lsl #2
 8001a94:	f843 0c20 	str.w	r0, [r3, #-32]
 8001a98:	f7ff f964 	bl	8000d64 <HAL_GetTick>
 8001a9c:	1b80      	subs	r0, r0, r6
 8001a9e:	3001      	adds	r0, #1
 8001aa0:	f109 0901 	add.w	r9, r9, #1
 8001aa4:	d1e1      	bne.n	8001a6a <SD_FindSCR+0x6e>
 8001aa6:	e7ed      	b.n	8001a84 <SD_FindSCR+0x88>
 8001aa8:	0719      	lsls	r1, r3, #28
 8001aaa:	d40f      	bmi.n	8001acc <SD_FindSCR+0xd0>
 8001aac:	6b43      	ldr	r3, [r0, #52]	; 0x34
 8001aae:	079a      	lsls	r2, r3, #30
 8001ab0:	d40f      	bmi.n	8001ad2 <SD_FindSCR+0xd6>
 8001ab2:	6b43      	ldr	r3, [r0, #52]	; 0x34
 8001ab4:	069b      	lsls	r3, r3, #26
 8001ab6:	d40f      	bmi.n	8001ad8 <SD_FindSCR+0xdc>
 8001ab8:	e9dd 3200 	ldrd	r3, r2, [sp]
 8001abc:	f240 513a 	movw	r1, #1338	; 0x53a
 8001ac0:	ba12      	rev	r2, r2
 8001ac2:	ba1b      	rev	r3, r3
 8001ac4:	6381      	str	r1, [r0, #56]	; 0x38
 8001ac6:	e9c7 2300 	strd	r2, r3, [r7]
 8001aca:	e7a8      	b.n	8001a1e <SD_FindSCR+0x22>
 8001acc:	2408      	movs	r4, #8
 8001ace:	6384      	str	r4, [r0, #56]	; 0x38
 8001ad0:	e7a5      	b.n	8001a1e <SD_FindSCR+0x22>
 8001ad2:	2402      	movs	r4, #2
 8001ad4:	6384      	str	r4, [r0, #56]	; 0x38
 8001ad6:	e7a2      	b.n	8001a1e <SD_FindSCR+0x22>
 8001ad8:	2420      	movs	r4, #32
 8001ada:	6384      	str	r4, [r0, #56]	; 0x38
 8001adc:	e79f      	b.n	8001a1e <SD_FindSCR+0x22>
 8001ade:	bf00      	nop

08001ae0 <HAL_SD_ReadBlocks_DMA>:
 8001ae0:	e92d 43f0 	stmdb	sp!, {r4, r5, r6, r7, r8, r9, lr}
 8001ae4:	4604      	mov	r4, r0
 8001ae6:	b087      	sub	sp, #28
 8001ae8:	b1d1      	cbz	r1, 8001b20 <HAL_SD_ReadBlocks_DMA+0x40>
 8001aea:	f890 5034 	ldrb.w	r5, [r0, #52]	; 0x34
 8001aee:	b2ed      	uxtb	r5, r5
 8001af0:	2d01      	cmp	r5, #1
 8001af2:	d110      	bne.n	8001b16 <HAL_SD_ReadBlocks_DMA+0x36>
 8001af4:	4690      	mov	r8, r2
 8001af6:	2600      	movs	r6, #0
 8001af8:	6dc2      	ldr	r2, [r0, #92]	; 0x5c
 8001afa:	461f      	mov	r7, r3
 8001afc:	4443      	add	r3, r8
 8001afe:	4293      	cmp	r3, r2
 8001b00:	6386      	str	r6, [r0, #56]	; 0x38
 8001b02:	d916      	bls.n	8001b32 <HAL_SD_ReadBlocks_DMA+0x52>
 8001b04:	462e      	mov	r6, r5
 8001b06:	6b83      	ldr	r3, [r0, #56]	; 0x38
 8001b08:	f043 7300 	orr.w	r3, r3, #33554432	; 0x2000000
 8001b0c:	6383      	str	r3, [r0, #56]	; 0x38
 8001b0e:	4630      	mov	r0, r6
 8001b10:	b007      	add	sp, #28
 8001b12:	e8bd 83f0 	ldmia.w	sp!, {r4, r5, r6, r7, r8, r9, pc}
 8001b16:	2602      	movs	r6, #2
 8001b18:	4630      	mov	r0, r6
 8001b1a:	b007      	add	sp, #28
 8001b1c:	e8bd 83f0 	ldmia.w	sp!, {r4, r5, r6, r7, r8, r9, pc}
 8001b20:	2601      	movs	r6, #1
 8001b22:	6b83      	ldr	r3, [r0, #56]	; 0x38
 8001b24:	f043 6300 	orr.w	r3, r3, #134217728	; 0x8000000
 8001b28:	6383      	str	r3, [r0, #56]	; 0x38
 8001b2a:	4630      	mov	r0, r6
 8001b2c:	b007      	add	sp, #28
 8001b2e:	e8bd 83f0 	ldmia.w	sp!, {r4, r5, r6, r7, r8, r9, pc}
 8001b32:	2203      	movs	r2, #3
 8001b34:	6803      	ldr	r3, [r0, #0]
 8001b36:	f880 2034 	strb.w	r2, [r0, #52]	; 0x34
 8001b3a:	62de      	str	r6, [r3, #44]	; 0x2c
 8001b3c:	6bda      	ldr	r2, [r3, #60]	; 0x3c
 8001b3e:	6c00      	ldr	r0, [r0, #64]	; 0x40
 8001b40:	f442 7c95 	orr.w	ip, r2, #298	; 0x12a
 8001b44:	f8c3 c03c 	str.w	ip, [r3, #60]	; 0x3c
 8001b48:	f8df e0d8 	ldr.w	lr, [pc, #216]	; 8001c24 <HAL_SD_ReadBlocks_DMA+0x144>
 8001b4c:	f8df c0d8 	ldr.w	ip, [pc, #216]	; 8001c28 <HAL_SD_ReadBlocks_DMA+0x148>
 8001b50:	ea4f 2947 	mov.w	r9, r7, lsl #9
 8001b54:	460a      	mov	r2, r1
 8001b56:	6506      	str	r6, [r0, #80]	; 0x50
 8001b58:	f103 0180 	add.w	r1, r3, #128	; 0x80
 8001b5c:	f8c0 e03c 	str.w	lr, [r0, #60]	; 0x3c
 8001b60:	f8c0 c04c 	str.w	ip, [r0, #76]	; 0x4c
 8001b64:	ea4f 0399 	mov.w	r3, r9, lsr #2
 8001b68:	f7ff fa0a 	bl	8000f80 <HAL_DMA_Start_IT>
 8001b6c:	4606      	mov	r6, r0
 8001b6e:	b9b8      	cbnz	r0, 8001ba0 <HAL_SD_ReadBlocks_DMA+0xc0>
 8001b70:	4b2a      	ldr	r3, [pc, #168]	; (8001c1c <HAL_SD_ReadBlocks_DMA+0x13c>)
 8001b72:	f44f 7100 	mov.w	r1, #512	; 0x200
 8001b76:	601d      	str	r5, [r3, #0]
 8001b78:	6c63      	ldr	r3, [r4, #68]	; 0x44
 8001b7a:	6820      	ldr	r0, [r4, #0]
 8001b7c:	2b01      	cmp	r3, #1
 8001b7e:	bf18      	it	ne
 8001b80:	ea4f 2848 	movne.w	r8, r8, lsl #9
 8001b84:	f001 f842 	bl	8002c0c <SDMMC_CmdBlockLength>
 8001b88:	b1c8      	cbz	r0, 8001bbe <HAL_SD_ReadBlocks_DMA+0xde>
 8001b8a:	2201      	movs	r2, #1
 8001b8c:	6823      	ldr	r3, [r4, #0]
 8001b8e:	4924      	ldr	r1, [pc, #144]	; (8001c20 <HAL_SD_ReadBlocks_DMA+0x140>)
 8001b90:	4616      	mov	r6, r2
 8001b92:	6399      	str	r1, [r3, #56]	; 0x38
 8001b94:	6ba3      	ldr	r3, [r4, #56]	; 0x38
 8001b96:	4318      	orrs	r0, r3
 8001b98:	63a0      	str	r0, [r4, #56]	; 0x38
 8001b9a:	f884 2034 	strb.w	r2, [r4, #52]	; 0x34
 8001b9e:	e7b6      	b.n	8001b0e <HAL_SD_ReadBlocks_DMA+0x2e>
 8001ba0:	6823      	ldr	r3, [r4, #0]
 8001ba2:	491f      	ldr	r1, [pc, #124]	; (8001c20 <HAL_SD_ReadBlocks_DMA+0x140>)
 8001ba4:	6bda      	ldr	r2, [r3, #60]	; 0x3c
 8001ba6:	462e      	mov	r6, r5
 8001ba8:	f422 7295 	bic.w	r2, r2, #298	; 0x12a
 8001bac:	63da      	str	r2, [r3, #60]	; 0x3c
 8001bae:	6399      	str	r1, [r3, #56]	; 0x38
 8001bb0:	6ba3      	ldr	r3, [r4, #56]	; 0x38
 8001bb2:	f043 4380 	orr.w	r3, r3, #1073741824	; 0x40000000
 8001bb6:	63a3      	str	r3, [r4, #56]	; 0x38
 8001bb8:	f884 5034 	strb.w	r5, [r4, #52]	; 0x34
 8001bbc:	e7a7      	b.n	8001b0e <HAL_SD_ReadBlocks_DMA+0x2e>
 8001bbe:	2190      	movs	r1, #144	; 0x90
 8001bc0:	2202      	movs	r2, #2
 8001bc2:	2301      	movs	r3, #1
 8001bc4:	f04f 35ff 	mov.w	r5, #4294967295
 8001bc8:	9004      	str	r0, [sp, #16]
 8001bca:	9102      	str	r1, [sp, #8]
 8001bcc:	6820      	ldr	r0, [r4, #0]
 8001bce:	4669      	mov	r1, sp
 8001bd0:	f8cd 9004 	str.w	r9, [sp, #4]
 8001bd4:	9500      	str	r5, [sp, #0]
 8001bd6:	9203      	str	r2, [sp, #12]
 8001bd8:	9305      	str	r3, [sp, #20]
 8001bda:	f001 f803 	bl	8002be4 <SDIO_ConfigData>
 8001bde:	2f01      	cmp	r7, #1
 8001be0:	d914      	bls.n	8001c0c <HAL_SD_ReadBlocks_DMA+0x12c>
 8001be2:	2382      	movs	r3, #130	; 0x82
 8001be4:	4641      	mov	r1, r8
 8001be6:	6323      	str	r3, [r4, #48]	; 0x30
 8001be8:	6820      	ldr	r0, [r4, #0]
 8001bea:	f001 f891 	bl	8002d10 <SDMMC_CmdReadMultiBlock>
 8001bee:	2800      	cmp	r0, #0
 8001bf0:	d08d      	beq.n	8001b0e <HAL_SD_ReadBlocks_DMA+0x2e>
 8001bf2:	2201      	movs	r2, #1
 8001bf4:	2100      	movs	r1, #0
 8001bf6:	6823      	ldr	r3, [r4, #0]
 8001bf8:	4d09      	ldr	r5, [pc, #36]	; (8001c20 <HAL_SD_ReadBlocks_DMA+0x140>)
 8001bfa:	4616      	mov	r6, r2
 8001bfc:	639d      	str	r5, [r3, #56]	; 0x38
 8001bfe:	6ba3      	ldr	r3, [r4, #56]	; 0x38
 8001c00:	4318      	orrs	r0, r3
 8001c02:	63a0      	str	r0, [r4, #56]	; 0x38
 8001c04:	f884 2034 	strb.w	r2, [r4, #52]	; 0x34
 8001c08:	6321      	str	r1, [r4, #48]	; 0x30
 8001c0a:	e780      	b.n	8001b0e <HAL_SD_ReadBlocks_DMA+0x2e>
 8001c0c:	2381      	movs	r3, #129	; 0x81
 8001c0e:	4641      	mov	r1, r8
 8001c10:	6323      	str	r3, [r4, #48]	; 0x30
 8001c12:	6820      	ldr	r0, [r4, #0]
 8001c14:	f001 f83a 	bl	8002c8c <SDMMC_CmdReadSingleBlock>
 8001c18:	e7e9      	b.n	8001bee <HAL_SD_ReadBlocks_DMA+0x10e>
 8001c1a:	bf00      	nop
 8001c1c:	4225858c 	.word	0x4225858c
 8001c20:	004005ff 	.word	0x004005ff
 8001c24:	08001d79 	.word	0x08001d79
 8001c28:	08001dc1 	.word	0x08001dc1

08001c2c <HAL_SD_WriteBlocks_DMA>:
 8001c2c:	e92d 43f0 	stmdb	sp!, {r4, r5, r6, r7, r8, r9, lr}
 8001c30:	4604      	mov	r4, r0
 8001c32:	b087      	sub	sp, #28
 8001c34:	2900      	cmp	r1, #0
 8001c36:	d042      	beq.n	8001cbe <HAL_SD_WriteBlocks_DMA+0x92>
 8001c38:	f890 5034 	ldrb.w	r5, [r0, #52]	; 0x34
 8001c3c:	b2ed      	uxtb	r5, r5
 8001c3e:	2d01      	cmp	r5, #1
 8001c40:	d138      	bne.n	8001cb4 <HAL_SD_WriteBlocks_DMA+0x88>
 8001c42:	4617      	mov	r7, r2
 8001c44:	460e      	mov	r6, r1
 8001c46:	2100      	movs	r1, #0
 8001c48:	6dc2      	ldr	r2, [r0, #92]	; 0x5c
 8001c4a:	4698      	mov	r8, r3
 8001c4c:	18fb      	adds	r3, r7, r3
 8001c4e:	4293      	cmp	r3, r2
 8001c50:	6381      	str	r1, [r0, #56]	; 0x38
 8001c52:	d848      	bhi.n	8001ce6 <HAL_SD_WriteBlocks_DMA+0xba>
 8001c54:	2303      	movs	r3, #3
 8001c56:	6800      	ldr	r0, [r0, #0]
 8001c58:	f884 3034 	strb.w	r3, [r4, #52]	; 0x34
 8001c5c:	62c1      	str	r1, [r0, #44]	; 0x2c
 8001c5e:	6bc2      	ldr	r2, [r0, #60]	; 0x3c
 8001c60:	6be3      	ldr	r3, [r4, #60]	; 0x3c
 8001c62:	f042 021a 	orr.w	r2, r2, #26
 8001c66:	63c2      	str	r2, [r0, #60]	; 0x3c
 8001c68:	4a3e      	ldr	r2, [pc, #248]	; (8001d64 <HAL_SD_WriteBlocks_DMA+0x138>)
 8001c6a:	6519      	str	r1, [r3, #80]	; 0x50
 8001c6c:	63da      	str	r2, [r3, #60]	; 0x3c
 8001c6e:	493e      	ldr	r1, [pc, #248]	; (8001d68 <HAL_SD_WriteBlocks_DMA+0x13c>)
 8001c70:	6c62      	ldr	r2, [r4, #68]	; 0x44
 8001c72:	64d9      	str	r1, [r3, #76]	; 0x4c
 8001c74:	2a01      	cmp	r2, #1
 8001c76:	f44f 7100 	mov.w	r1, #512	; 0x200
 8001c7a:	bf18      	it	ne
 8001c7c:	027f      	lslne	r7, r7, #9
 8001c7e:	f000 ffc5 	bl	8002c0c <SDMMC_CmdBlockLength>
 8001c82:	bb28      	cbnz	r0, 8001cd0 <HAL_SD_WriteBlocks_DMA+0xa4>
 8001c84:	f1b8 0f01 	cmp.w	r8, #1
 8001c88:	6820      	ldr	r0, [r4, #0]
 8001c8a:	d954      	bls.n	8001d36 <HAL_SD_WriteBlocks_DMA+0x10a>
 8001c8c:	23a0      	movs	r3, #160	; 0xa0
 8001c8e:	4639      	mov	r1, r7
 8001c90:	6323      	str	r3, [r4, #48]	; 0x30
 8001c92:	f001 f8bf 	bl	8002e14 <SDMMC_CmdWriteMultiBlock>
 8001c96:	4607      	mov	r7, r0
 8001c98:	6822      	ldr	r2, [r4, #0]
 8001c9a:	b367      	cbz	r7, 8001cf6 <HAL_SD_WriteBlocks_DMA+0xca>
 8001c9c:	2101      	movs	r1, #1
 8001c9e:	2000      	movs	r0, #0
 8001ca0:	4b32      	ldr	r3, [pc, #200]	; (8001d6c <HAL_SD_WriteBlocks_DMA+0x140>)
 8001ca2:	460d      	mov	r5, r1
 8001ca4:	6393      	str	r3, [r2, #56]	; 0x38
 8001ca6:	6ba3      	ldr	r3, [r4, #56]	; 0x38
 8001ca8:	431f      	orrs	r7, r3
 8001caa:	63a7      	str	r7, [r4, #56]	; 0x38
 8001cac:	f884 1034 	strb.w	r1, [r4, #52]	; 0x34
 8001cb0:	6320      	str	r0, [r4, #48]	; 0x30
 8001cb2:	e000      	b.n	8001cb6 <HAL_SD_WriteBlocks_DMA+0x8a>
 8001cb4:	2502      	movs	r5, #2
 8001cb6:	4628      	mov	r0, r5
 8001cb8:	b007      	add	sp, #28
 8001cba:	e8bd 83f0 	ldmia.w	sp!, {r4, r5, r6, r7, r8, r9, pc}
 8001cbe:	2501      	movs	r5, #1
 8001cc0:	6b83      	ldr	r3, [r0, #56]	; 0x38
 8001cc2:	f043 6300 	orr.w	r3, r3, #134217728	; 0x8000000
 8001cc6:	6383      	str	r3, [r0, #56]	; 0x38
 8001cc8:	4628      	mov	r0, r5
 8001cca:	b007      	add	sp, #28
 8001ccc:	e8bd 83f0 	ldmia.w	sp!, {r4, r5, r6, r7, r8, r9, pc}
 8001cd0:	2201      	movs	r2, #1
 8001cd2:	6823      	ldr	r3, [r4, #0]
 8001cd4:	4925      	ldr	r1, [pc, #148]	; (8001d6c <HAL_SD_WriteBlocks_DMA+0x140>)
 8001cd6:	4615      	mov	r5, r2
 8001cd8:	6399      	str	r1, [r3, #56]	; 0x38
 8001cda:	6ba3      	ldr	r3, [r4, #56]	; 0x38
 8001cdc:	4318      	orrs	r0, r3
 8001cde:	63a0      	str	r0, [r4, #56]	; 0x38
 8001ce0:	f884 2034 	strb.w	r2, [r4, #52]	; 0x34
 8001ce4:	e7e7      	b.n	8001cb6 <HAL_SD_WriteBlocks_DMA+0x8a>
 8001ce6:	6b83      	ldr	r3, [r0, #56]	; 0x38
 8001ce8:	f043 7300 	orr.w	r3, r3, #33554432	; 0x2000000
 8001cec:	6383      	str	r3, [r0, #56]	; 0x38
 8001cee:	4628      	mov	r0, r5
 8001cf0:	b007      	add	sp, #28
 8001cf2:	e8bd 83f0 	ldmia.w	sp!, {r4, r5, r6, r7, r8, r9, pc}
 8001cf6:	f04f 0901 	mov.w	r9, #1
 8001cfa:	481d      	ldr	r0, [pc, #116]	; (8001d70 <HAL_SD_WriteBlocks_DMA+0x144>)
 8001cfc:	ea4f 2848 	mov.w	r8, r8, lsl #9
 8001d00:	f8c0 9000 	str.w	r9, [r0]
 8001d04:	3280      	adds	r2, #128	; 0x80
 8001d06:	4631      	mov	r1, r6
 8001d08:	ea4f 0398 	mov.w	r3, r8, lsr #2
 8001d0c:	6be0      	ldr	r0, [r4, #60]	; 0x3c
 8001d0e:	f7ff f937 	bl	8000f80 <HAL_DMA_Start_IT>
 8001d12:	4605      	mov	r5, r0
 8001d14:	b1b0      	cbz	r0, 8001d44 <HAL_SD_WriteBlocks_DMA+0x118>
 8001d16:	6823      	ldr	r3, [r4, #0]
 8001d18:	4914      	ldr	r1, [pc, #80]	; (8001d6c <HAL_SD_WriteBlocks_DMA+0x140>)
 8001d1a:	6bda      	ldr	r2, [r3, #60]	; 0x3c
 8001d1c:	464d      	mov	r5, r9
 8001d1e:	f022 021a 	bic.w	r2, r2, #26
 8001d22:	63da      	str	r2, [r3, #60]	; 0x3c
 8001d24:	6399      	str	r1, [r3, #56]	; 0x38
 8001d26:	6ba3      	ldr	r3, [r4, #56]	; 0x38
 8001d28:	f043 4380 	orr.w	r3, r3, #1073741824	; 0x40000000
 8001d2c:	63a3      	str	r3, [r4, #56]	; 0x38
 8001d2e:	f884 9034 	strb.w	r9, [r4, #52]	; 0x34
 8001d32:	6327      	str	r7, [r4, #48]	; 0x30
 8001d34:	e7bf      	b.n	8001cb6 <HAL_SD_WriteBlocks_DMA+0x8a>
 8001d36:	2390      	movs	r3, #144	; 0x90
 8001d38:	4639      	mov	r1, r7
 8001d3a:	6323      	str	r3, [r4, #48]	; 0x30
 8001d3c:	f001 f82a 	bl	8002d94 <SDMMC_CmdWriteSingleBlock>
 8001d40:	4607      	mov	r7, r0
 8001d42:	e7a9      	b.n	8001c98 <HAL_SD_WriteBlocks_DMA+0x6c>
 8001d44:	f04f 32ff 	mov.w	r2, #4294967295
 8001d48:	2390      	movs	r3, #144	; 0x90
 8001d4a:	6820      	ldr	r0, [r4, #0]
 8001d4c:	4669      	mov	r1, sp
 8001d4e:	f8cd 8004 	str.w	r8, [sp, #4]
 8001d52:	e9cd 7703 	strd	r7, r7, [sp, #12]
 8001d56:	f8cd 9014 	str.w	r9, [sp, #20]
 8001d5a:	9200      	str	r2, [sp, #0]
 8001d5c:	9302      	str	r3, [sp, #8]
 8001d5e:	f000 ff41 	bl	8002be4 <SDIO_ConfigData>
 8001d62:	e7a8      	b.n	8001cb6 <HAL_SD_WriteBlocks_DMA+0x8a>
 8001d64:	080019ed 	.word	0x080019ed
 8001d68:	08001dc1 	.word	0x08001dc1
 8001d6c:	004005ff 	.word	0x004005ff
 8001d70:	4225858c 	.word	0x4225858c

08001d74 <HAL_SD_ErrorCallback>:
 8001d74:	4770      	bx	lr
 8001d76:	bf00      	nop

08001d78 <SD_DMAReceiveCplt>:
 8001d78:	b538      	push	{r3, r4, r5, lr}
 8001d7a:	6b84      	ldr	r4, [r0, #56]	; 0x38
 8001d7c:	6b23      	ldr	r3, [r4, #48]	; 0x30
 8001d7e:	6820      	ldr	r0, [r4, #0]
 8001d80:	2b82      	cmp	r3, #130	; 0x82
 8001d82:	d00f      	beq.n	8001da4 <SD_DMAReceiveCplt+0x2c>
 8001d84:	f240 553a 	movw	r5, #1338	; 0x53a
 8001d88:	2101      	movs	r1, #1
 8001d8a:	2200      	movs	r2, #0
 8001d8c:	6ac3      	ldr	r3, [r0, #44]	; 0x2c
 8001d8e:	f023 0308 	bic.w	r3, r3, #8
 8001d92:	62c3      	str	r3, [r0, #44]	; 0x2c
 8001d94:	6385      	str	r5, [r0, #56]	; 0x38
 8001d96:	f884 1034 	strb.w	r1, [r4, #52]	; 0x34
 8001d9a:	4620      	mov	r0, r4
 8001d9c:	6322      	str	r2, [r4, #48]	; 0x30
 8001d9e:	f001 fbb1 	bl	8003504 <HAL_SD_RxCpltCallback>
 8001da2:	bd38      	pop	{r3, r4, r5, pc}
 8001da4:	f001 f878 	bl	8002e98 <SDMMC_CmdStopTransfer>
 8001da8:	4603      	mov	r3, r0
 8001daa:	b908      	cbnz	r0, 8001db0 <SD_DMAReceiveCplt+0x38>
 8001dac:	6820      	ldr	r0, [r4, #0]
 8001dae:	e7e9      	b.n	8001d84 <SD_DMAReceiveCplt+0xc>
 8001db0:	6ba2      	ldr	r2, [r4, #56]	; 0x38
 8001db2:	4620      	mov	r0, r4
 8001db4:	4313      	orrs	r3, r2
 8001db6:	63a3      	str	r3, [r4, #56]	; 0x38
 8001db8:	f7ff ffdc 	bl	8001d74 <HAL_SD_ErrorCallback>
 8001dbc:	e7f6      	b.n	8001dac <SD_DMAReceiveCplt+0x34>
 8001dbe:	bf00      	nop

08001dc0 <SD_DMAError>:
 8001dc0:	b510      	push	{r4, lr}
 8001dc2:	6b84      	ldr	r4, [r0, #56]	; 0x38
 8001dc4:	f7ff fa08 	bl	80011d8 <HAL_DMA_GetError>
 8001dc8:	2802      	cmp	r0, #2
 8001dca:	d00a      	beq.n	8001de2 <SD_DMAError+0x22>
 8001dcc:	e9d4 230f 	ldrd	r2, r3, [r4, #60]	; 0x3c
 8001dd0:	6d5b      	ldr	r3, [r3, #84]	; 0x54
 8001dd2:	6d52      	ldr	r2, [r2, #84]	; 0x54
 8001dd4:	2b01      	cmp	r3, #1
 8001dd6:	d005      	beq.n	8001de4 <SD_DMAError+0x24>
 8001dd8:	2a01      	cmp	r2, #1
 8001dda:	d003      	beq.n	8001de4 <SD_DMAError+0x24>
 8001ddc:	4620      	mov	r0, r4
 8001dde:	f7ff ffc9 	bl	8001d74 <HAL_SD_ErrorCallback>
 8001de2:	bd10      	pop	{r4, pc}
 8001de4:	6823      	ldr	r3, [r4, #0]
 8001de6:	4a16      	ldr	r2, [pc, #88]	; (8001e40 <SD_DMAError+0x80>)
 8001de8:	6d21      	ldr	r1, [r4, #80]	; 0x50
 8001dea:	639a      	str	r2, [r3, #56]	; 0x38
 8001dec:	6bda      	ldr	r2, [r3, #60]	; 0x3c
 8001dee:	4618      	mov	r0, r3
 8001df0:	f422 729d 	bic.w	r2, r2, #314	; 0x13a
 8001df4:	63da      	str	r2, [r3, #60]	; 0x3c
 8001df6:	6ba3      	ldr	r3, [r4, #56]	; 0x38
 8001df8:	0409      	lsls	r1, r1, #16
 8001dfa:	f043 4380 	orr.w	r3, r3, #1073741824	; 0x40000000
 8001dfe:	63a3      	str	r3, [r4, #56]	; 0x38
 8001e00:	f001 faf6 	bl	80033f0 <SDMMC_CmdSendStatus>
 8001e04:	b158      	cbz	r0, 8001e1e <SD_DMAError+0x5e>
 8001e06:	6ba1      	ldr	r1, [r4, #56]	; 0x38
 8001e08:	4308      	orrs	r0, r1
 8001e0a:	63a0      	str	r0, [r4, #56]	; 0x38
 8001e0c:	2201      	movs	r2, #1
 8001e0e:	2300      	movs	r3, #0
 8001e10:	f884 2034 	strb.w	r2, [r4, #52]	; 0x34
 8001e14:	4620      	mov	r0, r4
 8001e16:	6323      	str	r3, [r4, #48]	; 0x30
 8001e18:	f7ff ffac 	bl	8001d74 <HAL_SD_ErrorCallback>
 8001e1c:	e7e1      	b.n	8001de2 <SD_DMAError+0x22>
 8001e1e:	4601      	mov	r1, r0
 8001e20:	6820      	ldr	r0, [r4, #0]
 8001e22:	f000 fedb 	bl	8002bdc <SDIO_GetResponse>
 8001e26:	f3c0 2043 	ubfx	r0, r0, #9, #4
 8001e2a:	3805      	subs	r0, #5
 8001e2c:	2801      	cmp	r0, #1
 8001e2e:	d8ed      	bhi.n	8001e0c <SD_DMAError+0x4c>
 8001e30:	6820      	ldr	r0, [r4, #0]
 8001e32:	f001 f831 	bl	8002e98 <SDMMC_CmdStopTransfer>
 8001e36:	6ba3      	ldr	r3, [r4, #56]	; 0x38
 8001e38:	4318      	orrs	r0, r3
 8001e3a:	63a0      	str	r0, [r4, #56]	; 0x38
 8001e3c:	e7e6      	b.n	8001e0c <SD_DMAError+0x4c>
 8001e3e:	bf00      	nop
 8001e40:	004005ff 	.word	0x004005ff

08001e44 <SD_DMATxAbort>:
 8001e44:	b538      	push	{r3, r4, r5, lr}
 8001e46:	f240 533a 	movw	r3, #1338	; 0x53a
 8001e4a:	6b84      	ldr	r4, [r0, #56]	; 0x38
 8001e4c:	6d21      	ldr	r1, [r4, #80]	; 0x50
 8001e4e:	6820      	ldr	r0, [r4, #0]
 8001e50:	0409      	lsls	r1, r1, #16
 8001e52:	6383      	str	r3, [r0, #56]	; 0x38
 8001e54:	f001 facc 	bl	80033f0 <SDMMC_CmdSendStatus>
 8001e58:	4605      	mov	r5, r0
 8001e5a:	b180      	cbz	r0, 8001e7e <SD_DMATxAbort+0x3a>
 8001e5c:	2101      	movs	r1, #1
 8001e5e:	2200      	movs	r2, #0
 8001e60:	6ba3      	ldr	r3, [r4, #56]	; 0x38
 8001e62:	431d      	orrs	r5, r3
 8001e64:	63a5      	str	r5, [r4, #56]	; 0x38
 8001e66:	f884 1034 	strb.w	r1, [r4, #52]	; 0x34
 8001e6a:	6322      	str	r2, [r4, #48]	; 0x30
 8001e6c:	6ba3      	ldr	r3, [r4, #56]	; 0x38
 8001e6e:	4620      	mov	r0, r4
 8001e70:	b113      	cbz	r3, 8001e78 <SD_DMATxAbort+0x34>
 8001e72:	f7ff ff7f 	bl	8001d74 <HAL_SD_ErrorCallback>
 8001e76:	bd38      	pop	{r3, r4, r5, pc}
 8001e78:	f001 fb3c 	bl	80034f4 <HAL_SD_AbortCallback>
 8001e7c:	bd38      	pop	{r3, r4, r5, pc}
 8001e7e:	4601      	mov	r1, r0
 8001e80:	6820      	ldr	r0, [r4, #0]
 8001e82:	f000 feab 	bl	8002bdc <SDIO_GetResponse>
 8001e86:	2301      	movs	r3, #1
 8001e88:	f3c0 2043 	ubfx	r0, r0, #9, #4
 8001e8c:	3805      	subs	r0, #5
 8001e8e:	4298      	cmp	r0, r3
 8001e90:	f884 3034 	strb.w	r3, [r4, #52]	; 0x34
 8001e94:	6325      	str	r5, [r4, #48]	; 0x30
 8001e96:	d8e9      	bhi.n	8001e6c <SD_DMATxAbort+0x28>
 8001e98:	6820      	ldr	r0, [r4, #0]
 8001e9a:	f000 fffd 	bl	8002e98 <SDMMC_CmdStopTransfer>
 8001e9e:	6ba3      	ldr	r3, [r4, #56]	; 0x38
 8001ea0:	4318      	orrs	r0, r3
 8001ea2:	63a0      	str	r0, [r4, #56]	; 0x38
 8001ea4:	e7e2      	b.n	8001e6c <SD_DMATxAbort+0x28>
 8001ea6:	bf00      	nop

08001ea8 <HAL_SD_IRQHandler>:
 8001ea8:	e92d 41f0 	stmdb	sp!, {r4, r5, r6, r7, r8, lr}
 8001eac:	6803      	ldr	r3, [r0, #0]
 8001eae:	6b05      	ldr	r5, [r0, #48]	; 0x30
 8001eb0:	6b5a      	ldr	r2, [r3, #52]	; 0x34
 8001eb2:	b082      	sub	sp, #8
 8001eb4:	0411      	lsls	r1, r2, #16
 8001eb6:	4604      	mov	r4, r0
 8001eb8:	d51d      	bpl.n	8001ef6 <HAL_SD_IRQHandler+0x4e>
 8001eba:	072a      	lsls	r2, r5, #28
 8001ebc:	f100 80b8 	bmi.w	8002030 <HAL_SD_IRQHandler+0x188>
 8001ec0:	6b5a      	ldr	r2, [r3, #52]	; 0x34
 8001ec2:	05d2      	lsls	r2, r2, #23
 8001ec4:	d56c      	bpl.n	8001fa0 <HAL_SD_IRQHandler+0xf8>
 8001ec6:	f44f 7280 	mov.w	r2, #256	; 0x100
 8001eca:	639a      	str	r2, [r3, #56]	; 0x38
 8001ecc:	6bda      	ldr	r2, [r3, #60]	; 0x3c
 8001ece:	f422 4241 	bic.w	r2, r2, #49408	; 0xc100
 8001ed2:	f022 023a 	bic.w	r2, r2, #58	; 0x3a
 8001ed6:	63da      	str	r2, [r3, #60]	; 0x3c
 8001ed8:	6ada      	ldr	r2, [r3, #44]	; 0x2c
 8001eda:	f022 0201 	bic.w	r2, r2, #1
 8001ede:	62da      	str	r2, [r3, #44]	; 0x2c
 8001ee0:	0629      	lsls	r1, r5, #24
 8001ee2:	d505      	bpl.n	8001ef0 <HAL_SD_IRQHandler+0x48>
 8001ee4:	06aa      	lsls	r2, r5, #26
 8001ee6:	f100 80f4 	bmi.w	80020d2 <HAL_SD_IRQHandler+0x22a>
 8001eea:	07af      	lsls	r7, r5, #30
 8001eec:	f000 80c3 	beq.w	8002076 <HAL_SD_IRQHandler+0x1ce>
 8001ef0:	b002      	add	sp, #8
 8001ef2:	e8bd 81f0 	ldmia.w	sp!, {r4, r5, r6, r7, r8, pc}
 8001ef6:	6b5a      	ldr	r2, [r3, #52]	; 0x34
 8001ef8:	05d7      	lsls	r7, r2, #23
 8001efa:	d523      	bpl.n	8001f44 <HAL_SD_IRQHandler+0x9c>
 8001efc:	f44f 7280 	mov.w	r2, #256	; 0x100
 8001f00:	639a      	str	r2, [r3, #56]	; 0x38
 8001f02:	6bda      	ldr	r2, [r3, #60]	; 0x3c
 8001f04:	072e      	lsls	r6, r5, #28
 8001f06:	f422 4241 	bic.w	r2, r2, #49408	; 0xc100
 8001f0a:	f022 023a 	bic.w	r2, r2, #58	; 0x3a
 8001f0e:	63da      	str	r2, [r3, #60]	; 0x3c
 8001f10:	6ada      	ldr	r2, [r3, #44]	; 0x2c
 8001f12:	f022 0201 	bic.w	r2, r2, #1
 8001f16:	62da      	str	r2, [r3, #44]	; 0x2c
 8001f18:	d5e2      	bpl.n	8001ee0 <HAL_SD_IRQHandler+0x38>
 8001f1a:	f015 0f22 	tst.w	r5, #34	; 0x22
 8001f1e:	f040 80b8 	bne.w	8002092 <HAL_SD_IRQHandler+0x1ea>
 8001f22:	f240 503a 	movw	r0, #1338	; 0x53a
 8001f26:	2101      	movs	r1, #1
 8001f28:	2200      	movs	r2, #0
 8001f2a:	6398      	str	r0, [r3, #56]	; 0x38
 8001f2c:	f884 1034 	strb.w	r1, [r4, #52]	; 0x34
 8001f30:	4620      	mov	r0, r4
 8001f32:	6322      	str	r2, [r4, #48]	; 0x30
 8001f34:	07ac      	lsls	r4, r5, #30
 8001f36:	f000 80a7 	beq.w	8002088 <HAL_SD_IRQHandler+0x1e0>
 8001f3a:	f001 fae3 	bl	8003504 <HAL_SD_RxCpltCallback>
 8001f3e:	b002      	add	sp, #8
 8001f40:	e8bd 81f0 	ldmia.w	sp!, {r4, r5, r6, r7, r8, pc}
 8001f44:	6b5a      	ldr	r2, [r3, #52]	; 0x34
 8001f46:	0456      	lsls	r6, r2, #17
 8001f48:	d52b      	bpl.n	8001fa2 <HAL_SD_IRQHandler+0xfa>
 8001f4a:	0728      	lsls	r0, r5, #28
 8001f4c:	d529      	bpl.n	8001fa2 <HAL_SD_IRQHandler+0xfa>
 8001f4e:	6a66      	ldr	r6, [r4, #36]	; 0x24
 8001f50:	2e00      	cmp	r6, #0
 8001f52:	d0cd      	beq.n	8001ef0 <HAL_SD_IRQHandler+0x48>
 8001f54:	6a27      	ldr	r7, [r4, #32]
 8001f56:	f107 0804 	add.w	r8, r7, #4
 8001f5a:	f107 0524 	add.w	r5, r7, #36	; 0x24
 8001f5e:	e000      	b.n	8001f62 <HAL_SD_IRQHandler+0xba>
 8001f60:	6823      	ldr	r3, [r4, #0]
 8001f62:	f818 2c04 	ldrb.w	r2, [r8, #-4]
 8001f66:	4618      	mov	r0, r3
 8001f68:	9201      	str	r2, [sp, #4]
 8001f6a:	f818 3c03 	ldrb.w	r3, [r8, #-3]
 8001f6e:	a901      	add	r1, sp, #4
 8001f70:	ea42 2303 	orr.w	r3, r2, r3, lsl #8
 8001f74:	9301      	str	r3, [sp, #4]
 8001f76:	f818 2c02 	ldrb.w	r2, [r8, #-2]
 8001f7a:	f108 0804 	add.w	r8, r8, #4
 8001f7e:	ea43 4302 	orr.w	r3, r3, r2, lsl #16
 8001f82:	9301      	str	r3, [sp, #4]
 8001f84:	f818 2c05 	ldrb.w	r2, [r8, #-5]
 8001f88:	ea43 6302 	orr.w	r3, r3, r2, lsl #24
 8001f8c:	9301      	str	r3, [sp, #4]
 8001f8e:	f000 fe11 	bl	8002bb4 <SDIO_WriteFIFO>
 8001f92:	45a8      	cmp	r8, r5
 8001f94:	d1e4      	bne.n	8001f60 <HAL_SD_IRQHandler+0xb8>
 8001f96:	3720      	adds	r7, #32
 8001f98:	3e20      	subs	r6, #32
 8001f9a:	e9c4 7608 	strd	r7, r6, [r4, #32]
 8001f9e:	e7a7      	b.n	8001ef0 <HAL_SD_IRQHandler+0x48>
 8001fa0:	6b5a      	ldr	r2, [r3, #52]	; 0x34
 8001fa2:	6b5a      	ldr	r2, [r3, #52]	; 0x34
 8001fa4:	f012 0f3a 	tst.w	r2, #58	; 0x3a
 8001fa8:	d0a2      	beq.n	8001ef0 <HAL_SD_IRQHandler+0x48>
 8001faa:	6b5a      	ldr	r2, [r3, #52]	; 0x34
 8001fac:	0791      	lsls	r1, r2, #30
 8001fae:	d503      	bpl.n	8001fb8 <HAL_SD_IRQHandler+0x110>
 8001fb0:	6ba2      	ldr	r2, [r4, #56]	; 0x38
 8001fb2:	f042 0202 	orr.w	r2, r2, #2
 8001fb6:	63a2      	str	r2, [r4, #56]	; 0x38
 8001fb8:	6b5a      	ldr	r2, [r3, #52]	; 0x34
 8001fba:	0712      	lsls	r2, r2, #28
 8001fbc:	d503      	bpl.n	8001fc6 <HAL_SD_IRQHandler+0x11e>
 8001fbe:	6ba2      	ldr	r2, [r4, #56]	; 0x38
 8001fc0:	f042 0208 	orr.w	r2, r2, #8
 8001fc4:	63a2      	str	r2, [r4, #56]	; 0x38
 8001fc6:	6b5a      	ldr	r2, [r3, #52]	; 0x34
 8001fc8:	0697      	lsls	r7, r2, #26
 8001fca:	d503      	bpl.n	8001fd4 <HAL_SD_IRQHandler+0x12c>
 8001fcc:	6ba2      	ldr	r2, [r4, #56]	; 0x38
 8001fce:	f042 0220 	orr.w	r2, r2, #32
 8001fd2:	63a2      	str	r2, [r4, #56]	; 0x38
 8001fd4:	6b5a      	ldr	r2, [r3, #52]	; 0x34
 8001fd6:	06d6      	lsls	r6, r2, #27
 8001fd8:	d503      	bpl.n	8001fe2 <HAL_SD_IRQHandler+0x13a>
 8001fda:	6ba2      	ldr	r2, [r4, #56]	; 0x38
 8001fdc:	f042 0210 	orr.w	r2, r2, #16
 8001fe0:	63a2      	str	r2, [r4, #56]	; 0x38
 8001fe2:	f240 723a 	movw	r2, #1850	; 0x73a
 8001fe6:	639a      	str	r2, [r3, #56]	; 0x38
 8001fe8:	6bda      	ldr	r2, [r3, #60]	; 0x3c
 8001fea:	4618      	mov	r0, r3
 8001fec:	f422 724e 	bic.w	r2, r2, #824	; 0x338
 8001ff0:	f022 0202 	bic.w	r2, r2, #2
 8001ff4:	63da      	str	r2, [r3, #60]	; 0x3c
 8001ff6:	f000 ff4f 	bl	8002e98 <SDMMC_CmdStopTransfer>
 8001ffa:	6ba3      	ldr	r3, [r4, #56]	; 0x38
 8001ffc:	4318      	orrs	r0, r3
 8001ffe:	63a0      	str	r0, [r4, #56]	; 0x38
 8002000:	0728      	lsls	r0, r5, #28
 8002002:	d44d      	bmi.n	80020a0 <HAL_SD_IRQHandler+0x1f8>
 8002004:	0629      	lsls	r1, r5, #24
 8002006:	f57f af73 	bpl.w	8001ef0 <HAL_SD_IRQHandler+0x48>
 800200a:	f015 0f30 	tst.w	r5, #48	; 0x30
 800200e:	d16e      	bne.n	80020ee <HAL_SD_IRQHandler+0x246>
 8002010:	f015 0503 	ands.w	r5, r5, #3
 8002014:	d04d      	beq.n	80020b2 <HAL_SD_IRQHandler+0x20a>
 8002016:	6c23      	ldr	r3, [r4, #64]	; 0x40
 8002018:	4a3b      	ldr	r2, [pc, #236]	; (8002108 <HAL_SD_IRQHandler+0x260>)
 800201a:	4618      	mov	r0, r3
 800201c:	651a      	str	r2, [r3, #80]	; 0x50
 800201e:	f7fe fff1 	bl	8001004 <HAL_DMA_Abort_IT>
 8002022:	2800      	cmp	r0, #0
 8002024:	f43f af64 	beq.w	8001ef0 <HAL_SD_IRQHandler+0x48>
 8002028:	6c20      	ldr	r0, [r4, #64]	; 0x40
 800202a:	f7ff ff0b 	bl	8001e44 <SD_DMATxAbort>
 800202e:	e75f      	b.n	8001ef0 <HAL_SD_IRQHandler+0x48>
 8002030:	6ac7      	ldr	r7, [r0, #44]	; 0x2c
 8002032:	2f00      	cmp	r7, #0
 8002034:	f43f af5c 	beq.w	8001ef0 <HAL_SD_IRQHandler+0x48>
 8002038:	f8d0 8028 	ldr.w	r8, [r0, #40]	; 0x28
 800203c:	f108 0504 	add.w	r5, r8, #4
 8002040:	f108 0624 	add.w	r6, r8, #36	; 0x24
 8002044:	e000      	b.n	8002048 <HAL_SD_IRQHandler+0x1a0>
 8002046:	6823      	ldr	r3, [r4, #0]
 8002048:	4618      	mov	r0, r3
 800204a:	f000 fdaf 	bl	8002bac <SDIO_ReadFIFO>
 800204e:	f805 0c04 	strb.w	r0, [r5, #-4]
 8002052:	0a02      	lsrs	r2, r0, #8
 8002054:	0c03      	lsrs	r3, r0, #16
 8002056:	0e00      	lsrs	r0, r0, #24
 8002058:	f805 2c03 	strb.w	r2, [r5, #-3]
 800205c:	f805 3c02 	strb.w	r3, [r5, #-2]
 8002060:	f805 0c01 	strb.w	r0, [r5, #-1]
 8002064:	3504      	adds	r5, #4
 8002066:	42ae      	cmp	r6, r5
 8002068:	d1ed      	bne.n	8002046 <HAL_SD_IRQHandler+0x19e>
 800206a:	f108 0320 	add.w	r3, r8, #32
 800206e:	3f20      	subs	r7, #32
 8002070:	e9c4 370a 	strd	r3, r7, [r4, #40]	; 0x28
 8002074:	e73c      	b.n	8001ef0 <HAL_SD_IRQHandler+0x48>
 8002076:	2101      	movs	r1, #1
 8002078:	4620      	mov	r0, r4
 800207a:	6822      	ldr	r2, [r4, #0]
 800207c:	6ad3      	ldr	r3, [r2, #44]	; 0x2c
 800207e:	f023 0308 	bic.w	r3, r3, #8
 8002082:	62d3      	str	r3, [r2, #44]	; 0x2c
 8002084:	f884 1034 	strb.w	r1, [r4, #52]	; 0x34
 8002088:	f001 fa38 	bl	80034fc <HAL_SD_TxCpltCallback>
 800208c:	b002      	add	sp, #8
 800208e:	e8bd 81f0 	ldmia.w	sp!, {r4, r5, r6, r7, r8, pc}
 8002092:	4618      	mov	r0, r3
 8002094:	f000 ff00 	bl	8002e98 <SDMMC_CmdStopTransfer>
 8002098:	4603      	mov	r3, r0
 800209a:	b998      	cbnz	r0, 80020c4 <HAL_SD_IRQHandler+0x21c>
 800209c:	6823      	ldr	r3, [r4, #0]
 800209e:	e740      	b.n	8001f22 <HAL_SD_IRQHandler+0x7a>
 80020a0:	2201      	movs	r2, #1
 80020a2:	2300      	movs	r3, #0
 80020a4:	f884 2034 	strb.w	r2, [r4, #52]	; 0x34
 80020a8:	4620      	mov	r0, r4
 80020aa:	6323      	str	r3, [r4, #48]	; 0x30
 80020ac:	f7ff fe62 	bl	8001d74 <HAL_SD_ErrorCallback>
 80020b0:	e71e      	b.n	8001ef0 <HAL_SD_IRQHandler+0x48>
 80020b2:	2301      	movs	r3, #1
 80020b4:	63a5      	str	r5, [r4, #56]	; 0x38
 80020b6:	4620      	mov	r0, r4
 80020b8:	f884 3034 	strb.w	r3, [r4, #52]	; 0x34
 80020bc:	6325      	str	r5, [r4, #48]	; 0x30
 80020be:	f001 fa19 	bl	80034f4 <HAL_SD_AbortCallback>
 80020c2:	e715      	b.n	8001ef0 <HAL_SD_IRQHandler+0x48>
 80020c4:	6ba2      	ldr	r2, [r4, #56]	; 0x38
 80020c6:	4620      	mov	r0, r4
 80020c8:	4313      	orrs	r3, r2
 80020ca:	63a3      	str	r3, [r4, #56]	; 0x38
 80020cc:	f7ff fe52 	bl	8001d74 <HAL_SD_ErrorCallback>
 80020d0:	e7e4      	b.n	800209c <HAL_SD_IRQHandler+0x1f4>
 80020d2:	4618      	mov	r0, r3
 80020d4:	f000 fee0 	bl	8002e98 <SDMMC_CmdStopTransfer>
 80020d8:	4603      	mov	r3, r0
 80020da:	2800      	cmp	r0, #0
 80020dc:	f43f af05 	beq.w	8001eea <HAL_SD_IRQHandler+0x42>
 80020e0:	6ba2      	ldr	r2, [r4, #56]	; 0x38
 80020e2:	4620      	mov	r0, r4
 80020e4:	4313      	orrs	r3, r2
 80020e6:	63a3      	str	r3, [r4, #56]	; 0x38
 80020e8:	f7ff fe44 	bl	8001d74 <HAL_SD_ErrorCallback>
 80020ec:	e6fd      	b.n	8001eea <HAL_SD_IRQHandler+0x42>
 80020ee:	6be3      	ldr	r3, [r4, #60]	; 0x3c
 80020f0:	4a06      	ldr	r2, [pc, #24]	; (800210c <HAL_SD_IRQHandler+0x264>)
 80020f2:	4618      	mov	r0, r3
 80020f4:	651a      	str	r2, [r3, #80]	; 0x50
 80020f6:	f7fe ff85 	bl	8001004 <HAL_DMA_Abort_IT>
 80020fa:	2800      	cmp	r0, #0
 80020fc:	f43f aef8 	beq.w	8001ef0 <HAL_SD_IRQHandler+0x48>
 8002100:	6be0      	ldr	r0, [r4, #60]	; 0x3c
 8002102:	f7ff fe9f 	bl	8001e44 <SD_DMATxAbort>
 8002106:	e6f3      	b.n	8001ef0 <HAL_SD_IRQHandler+0x48>
 8002108:	08002111 	.word	0x08002111
 800210c:	08001e45 	.word	0x08001e45

08002110 <SD_DMARxAbort>:
 8002110:	b538      	push	{r3, r4, r5, lr}
 8002112:	f240 533a 	movw	r3, #1338	; 0x53a
 8002116:	6b84      	ldr	r4, [r0, #56]	; 0x38
 8002118:	6d21      	ldr	r1, [r4, #80]	; 0x50
 800211a:	6820      	ldr	r0, [r4, #0]
 800211c:	0409      	lsls	r1, r1, #16
 800211e:	6383      	str	r3, [r0, #56]	; 0x38
 8002120:	f001 f966 	bl	80033f0 <SDMMC_CmdSendStatus>
 8002124:	4605      	mov	r5, r0
 8002126:	b180      	cbz	r0, 800214a <SD_DMARxAbort+0x3a>
 8002128:	2101      	movs	r1, #1
 800212a:	2200      	movs	r2, #0
 800212c:	6ba3      	ldr	r3, [r4, #56]	; 0x38
 800212e:	431d      	orrs	r5, r3
 8002130:	63a5      	str	r5, [r4, #56]	; 0x38
 8002132:	f884 1034 	strb.w	r1, [r4, #52]	; 0x34
 8002136:	6322      	str	r2, [r4, #48]	; 0x30
 8002138:	6ba3      	ldr	r3, [r4, #56]	; 0x38
 800213a:	4620      	mov	r0, r4
 800213c:	b113      	cbz	r3, 8002144 <SD_DMARxAbort+0x34>
 800213e:	f7ff fe19 	bl	8001d74 <HAL_SD_ErrorCallback>
 8002142:	bd38      	pop	{r3, r4, r5, pc}
 8002144:	f001 f9d6 	bl	80034f4 <HAL_SD_AbortCallback>
 8002148:	bd38      	pop	{r3, r4, r5, pc}
 800214a:	4601      	mov	r1, r0
 800214c:	6820      	ldr	r0, [r4, #0]
 800214e:	f000 fd45 	bl	8002bdc <SDIO_GetResponse>
 8002152:	2301      	movs	r3, #1
 8002154:	f3c0 2043 	ubfx	r0, r0, #9, #4
 8002158:	3805      	subs	r0, #5
 800215a:	4298      	cmp	r0, r3
 800215c:	f884 3034 	strb.w	r3, [r4, #52]	; 0x34
 8002160:	6325      	str	r5, [r4, #48]	; 0x30
 8002162:	d8e9      	bhi.n	8002138 <SD_DMARxAbort+0x28>
 8002164:	6820      	ldr	r0, [r4, #0]
 8002166:	f000 fe97 	bl	8002e98 <SDMMC_CmdStopTransfer>
 800216a:	6ba3      	ldr	r3, [r4, #56]	; 0x38
 800216c:	4318      	orrs	r0, r3
 800216e:	63a0      	str	r0, [r4, #56]	; 0x38
 8002170:	e7e2      	b.n	8002138 <SD_DMARxAbort+0x28>
 8002172:	bf00      	nop

08002174 <HAL_SD_GetCardCSD>:
 8002174:	4603      	mov	r3, r0
 8002176:	2000      	movs	r0, #0
 8002178:	6e5a      	ldr	r2, [r3, #100]	; 0x64
 800217a:	b4f0      	push	{r4, r5, r6, r7}
 800217c:	0f94      	lsrs	r4, r2, #30
 800217e:	700c      	strb	r4, [r1, #0]
 8002180:	f3c2 6583 	ubfx	r5, r2, #26, #4
 8002184:	f3c2 6401 	ubfx	r4, r2, #24, #2
 8002188:	704d      	strb	r5, [r1, #1]
 800218a:	708c      	strb	r4, [r1, #2]
 800218c:	f3c2 4507 	ubfx	r5, r2, #16, #8
 8002190:	f3c2 2407 	ubfx	r4, r2, #8, #8
 8002194:	b2d2      	uxtb	r2, r2
 8002196:	70cd      	strb	r5, [r1, #3]
 8002198:	710c      	strb	r4, [r1, #4]
 800219a:	714a      	strb	r2, [r1, #5]
 800219c:	6e9a      	ldr	r2, [r3, #104]	; 0x68
 800219e:	0d15      	lsrs	r5, r2, #20
 80021a0:	f3c2 4403 	ubfx	r4, r2, #16, #4
 80021a4:	80cd      	strh	r5, [r1, #6]
 80021a6:	720c      	strb	r4, [r1, #8]
 80021a8:	f3c2 35c0 	ubfx	r5, r2, #15, #1
 80021ac:	f3c2 3480 	ubfx	r4, r2, #14, #1
 80021b0:	724d      	strb	r5, [r1, #9]
 80021b2:	728c      	strb	r4, [r1, #10]
 80021b4:	f3c2 3540 	ubfx	r5, r2, #13, #1
 80021b8:	f3c2 3400 	ubfx	r4, r2, #12, #1
 80021bc:	72cd      	strb	r5, [r1, #11]
 80021be:	730c      	strb	r4, [r1, #12]
 80021c0:	7348      	strb	r0, [r1, #13]
 80021c2:	6c58      	ldr	r0, [r3, #68]	; 0x44
 80021c4:	2800      	cmp	r0, #0
 80021c6:	d16d      	bne.n	80022a4 <HAL_SD_GetCardCSD+0x130>
 80021c8:	f640 70fc 	movw	r0, #4092	; 0xffc
 80021cc:	2501      	movs	r5, #1
 80021ce:	f44f 7600 	mov.w	r6, #512	; 0x200
 80021d2:	6edc      	ldr	r4, [r3, #108]	; 0x6c
 80021d4:	ea00 0282 	and.w	r2, r0, r2, lsl #2
 80021d8:	ea42 7294 	orr.w	r2, r2, r4, lsr #30
 80021dc:	610a      	str	r2, [r1, #16]
 80021de:	f3c4 6002 	ubfx	r0, r4, #24, #3
 80021e2:	f3c4 5242 	ubfx	r2, r4, #21, #3
 80021e6:	f3c4 67c2 	ubfx	r7, r4, #27, #3
 80021ea:	750f      	strb	r7, [r1, #20]
 80021ec:	7548      	strb	r0, [r1, #21]
 80021ee:	758a      	strb	r2, [r1, #22]
 80021f0:	f3c4 4082 	ubfx	r0, r4, #18, #3
 80021f4:	f3c4 32c2 	ubfx	r2, r4, #15, #3
 80021f8:	75c8      	strb	r0, [r1, #23]
 80021fa:	760a      	strb	r2, [r1, #24]
 80021fc:	690a      	ldr	r2, [r1, #16]
 80021fe:	7e08      	ldrb	r0, [r1, #24]
 8002200:	442a      	add	r2, r5
 8002202:	f000 0007 	and.w	r0, r0, #7
 8002206:	3002      	adds	r0, #2
 8002208:	4082      	lsls	r2, r0
 800220a:	655a      	str	r2, [r3, #84]	; 0x54
 800220c:	7a08      	ldrb	r0, [r1, #8]
 800220e:	661e      	str	r6, [r3, #96]	; 0x60
 8002210:	f000 000f 	and.w	r0, r0, #15
 8002214:	4085      	lsls	r5, r0
 8002216:	0a68      	lsrs	r0, r5, #9
 8002218:	fb02 f200 	mul.w	r2, r2, r0
 800221c:	e9c3 5216 	strd	r5, r2, [r3, #88]	; 0x58
 8002220:	2200      	movs	r2, #0
 8002222:	2501      	movs	r5, #1
 8002224:	f3c4 3680 	ubfx	r6, r4, #14, #1
 8002228:	764e      	strb	r6, [r1, #25]
 800222a:	f3c4 16c6 	ubfx	r6, r4, #7, #7
 800222e:	f004 047f 	and.w	r4, r4, #127	; 0x7f
 8002232:	768e      	strb	r6, [r1, #26]
 8002234:	76cc      	strb	r4, [r1, #27]
 8002236:	6f1b      	ldr	r3, [r3, #112]	; 0x70
 8002238:	4610      	mov	r0, r2
 800223a:	0fdc      	lsrs	r4, r3, #31
 800223c:	770c      	strb	r4, [r1, #28]
 800223e:	f3c3 7441 	ubfx	r4, r3, #29, #2
 8002242:	774c      	strb	r4, [r1, #29]
 8002244:	f3c3 6482 	ubfx	r4, r3, #26, #3
 8002248:	778c      	strb	r4, [r1, #30]
 800224a:	f3c3 5483 	ubfx	r4, r3, #22, #4
 800224e:	77cc      	strb	r4, [r1, #31]
 8002250:	f3c3 5440 	ubfx	r4, r3, #21, #1
 8002254:	f881 4020 	strb.w	r4, [r1, #32]
 8002258:	f3c3 4600 	ubfx	r6, r3, #16, #1
 800225c:	f881 2021 	strb.w	r2, [r1, #33]	; 0x21
 8002260:	f3c3 34c0 	ubfx	r4, r3, #15, #1
 8002264:	f3c3 3280 	ubfx	r2, r3, #14, #1
 8002268:	f881 6022 	strb.w	r6, [r1, #34]	; 0x22
 800226c:	f881 4023 	strb.w	r4, [r1, #35]	; 0x23
 8002270:	f881 2024 	strb.w	r2, [r1, #36]	; 0x24
 8002274:	f3c3 3440 	ubfx	r4, r3, #13, #1
 8002278:	f3c3 3200 	ubfx	r2, r3, #12, #1
 800227c:	f881 4025 	strb.w	r4, [r1, #37]	; 0x25
 8002280:	f881 2026 	strb.w	r2, [r1, #38]	; 0x26
 8002284:	f3c3 2481 	ubfx	r4, r3, #10, #2
 8002288:	f3c3 2201 	ubfx	r2, r3, #8, #2
 800228c:	f3c3 0346 	ubfx	r3, r3, #1, #7
 8002290:	f881 4027 	strb.w	r4, [r1, #39]	; 0x27
 8002294:	f881 2028 	strb.w	r2, [r1, #40]	; 0x28
 8002298:	f881 3029 	strb.w	r3, [r1, #41]	; 0x29
 800229c:	f881 502a 	strb.w	r5, [r1, #42]	; 0x2a
 80022a0:	bcf0      	pop	{r4, r5, r6, r7}
 80022a2:	4770      	bx	lr
 80022a4:	2801      	cmp	r0, #1
 80022a6:	d00c      	beq.n	80022c2 <HAL_SD_GetCardCSD+0x14e>
 80022a8:	2101      	movs	r1, #1
 80022aa:	681a      	ldr	r2, [r3, #0]
 80022ac:	4c0d      	ldr	r4, [pc, #52]	; (80022e4 <HAL_SD_GetCardCSD+0x170>)
 80022ae:	4608      	mov	r0, r1
 80022b0:	6394      	str	r4, [r2, #56]	; 0x38
 80022b2:	6b9a      	ldr	r2, [r3, #56]	; 0x38
 80022b4:	bcf0      	pop	{r4, r5, r6, r7}
 80022b6:	f042 5280 	orr.w	r2, r2, #268435456	; 0x10000000
 80022ba:	639a      	str	r2, [r3, #56]	; 0x38
 80022bc:	f883 1034 	strb.w	r1, [r3, #52]	; 0x34
 80022c0:	4770      	bx	lr
 80022c2:	f44f 7000 	mov.w	r0, #512	; 0x200
 80022c6:	6edc      	ldr	r4, [r3, #108]	; 0x6c
 80022c8:	0412      	lsls	r2, r2, #16
 80022ca:	f402 127c 	and.w	r2, r2, #4128768	; 0x3f0000
 80022ce:	ea42 4214 	orr.w	r2, r2, r4, lsr #16
 80022d2:	610a      	str	r2, [r1, #16]
 80022d4:	690a      	ldr	r2, [r1, #16]
 80022d6:	6598      	str	r0, [r3, #88]	; 0x58
 80022d8:	3201      	adds	r2, #1
 80022da:	0292      	lsls	r2, r2, #10
 80022dc:	655a      	str	r2, [r3, #84]	; 0x54
 80022de:	e9c3 2017 	strd	r2, r0, [r3, #92]	; 0x5c
 80022e2:	e79d      	b.n	8002220 <HAL_SD_GetCardCSD+0xac>
 80022e4:	004005ff 	.word	0x004005ff

080022e8 <HAL_SD_Init>:
 80022e8:	b5f0      	push	{r4, r5, r6, r7, lr}
 80022ea:	b099      	sub	sp, #100	; 0x64
 80022ec:	b1f0      	cbz	r0, 800232c <HAL_SD_Init+0x44>
 80022ee:	f890 3034 	ldrb.w	r3, [r0, #52]	; 0x34
 80022f2:	4604      	mov	r4, r0
 80022f4:	f003 02ff 	and.w	r2, r3, #255	; 0xff
 80022f8:	2b00      	cmp	r3, #0
 80022fa:	d031      	beq.n	8002360 <HAL_SD_Init+0x78>
 80022fc:	2300      	movs	r3, #0
 80022fe:	2276      	movs	r2, #118	; 0x76
 8002300:	2603      	movs	r6, #3
 8002302:	e9cd 330a 	strd	r3, r3, [sp, #40]	; 0x28
 8002306:	e9cd 3307 	strd	r3, r3, [sp, #28]
 800230a:	9309      	str	r3, [sp, #36]	; 0x24
 800230c:	920c      	str	r2, [sp, #48]	; 0x30
 800230e:	ab0a      	add	r3, sp, #40	; 0x28
 8002310:	e893 0007 	ldmia.w	r3, {r0, r1, r2}
 8002314:	6825      	ldr	r5, [r4, #0]
 8002316:	f884 6034 	strb.w	r6, [r4, #52]	; 0x34
 800231a:	e88d 0007 	stmia.w	sp, {r0, r1, r2}
 800231e:	ab07      	add	r3, sp, #28
 8002320:	4628      	mov	r0, r5
 8002322:	cb0e      	ldmia	r3, {r1, r2, r3}
 8002324:	f000 fc26 	bl	8002b74 <SDIO_Init>
 8002328:	4605      	mov	r5, r0
 800232a:	b118      	cbz	r0, 8002334 <HAL_SD_Init+0x4c>
 800232c:	2601      	movs	r6, #1
 800232e:	4630      	mov	r0, r6
 8002330:	b019      	add	sp, #100	; 0x64
 8002332:	bdf0      	pop	{r4, r5, r6, r7, pc}
 8002334:	2701      	movs	r7, #1
 8002336:	4e77      	ldr	r6, [pc, #476]	; (8002514 <HAL_SD_Init+0x22c>)
 8002338:	6820      	ldr	r0, [r4, #0]
 800233a:	6035      	str	r5, [r6, #0]
 800233c:	f000 fc40 	bl	8002bc0 <SDIO_PowerState_ON>
 8002340:	6037      	str	r7, [r6, #0]
 8002342:	6820      	ldr	r0, [r4, #0]
 8002344:	9506      	str	r5, [sp, #24]
 8002346:	f000 fe27 	bl	8002f98 <SDMMC_CmdGoIdleState>
 800234a:	4605      	mov	r5, r0
 800234c:	b160      	cbz	r0, 8002368 <HAL_SD_Init+0x80>
 800234e:	2601      	movs	r6, #1
 8002350:	4630      	mov	r0, r6
 8002352:	f884 6034 	strb.w	r6, [r4, #52]	; 0x34
 8002356:	6ba3      	ldr	r3, [r4, #56]	; 0x38
 8002358:	431d      	orrs	r5, r3
 800235a:	63a5      	str	r5, [r4, #56]	; 0x38
 800235c:	b019      	add	sp, #100	; 0x64
 800235e:	bdf0      	pop	{r4, r5, r6, r7, pc}
 8002360:	7702      	strb	r2, [r0, #28]
 8002362:	f7fe fb17 	bl	8000994 <HAL_SD_MspInit>
 8002366:	e7c9      	b.n	80022fc <HAL_SD_Init+0x14>
 8002368:	6820      	ldr	r0, [r4, #0]
 800236a:	f000 fe3f 	bl	8002fec <SDMMC_CmdOperCond>
 800236e:	2800      	cmp	r0, #0
 8002370:	f040 80b9 	bne.w	80024e6 <HAL_SD_Init+0x1fe>
 8002374:	64a7      	str	r7, [r4, #72]	; 0x48
 8002376:	2100      	movs	r1, #0
 8002378:	6820      	ldr	r0, [r4, #0]
 800237a:	f000 fe77 	bl	800306c <SDMMC_CmdAppCommand>
 800237e:	bb10      	cbnz	r0, 80023c6 <HAL_SD_Init+0xde>
 8002380:	f64f 73fe 	movw	r3, #65534	; 0xfffe
 8002384:	9a06      	ldr	r2, [sp, #24]
 8002386:	429a      	cmp	r2, r3
 8002388:	d820      	bhi.n	80023cc <HAL_SD_Init+0xe4>
 800238a:	f64f 77fe 	movw	r7, #65534	; 0xfffe
 800238e:	4e62      	ldr	r6, [pc, #392]	; (8002518 <HAL_SD_Init+0x230>)
 8002390:	e011      	b.n	80023b6 <HAL_SD_Init+0xce>
 8002392:	4631      	mov	r1, r6
 8002394:	6820      	ldr	r0, [r4, #0]
 8002396:	f000 feab 	bl	80030f0 <SDMMC_CmdAppOperCommand>
 800239a:	b9a0      	cbnz	r0, 80023c6 <HAL_SD_Init+0xde>
 800239c:	4629      	mov	r1, r5
 800239e:	6820      	ldr	r0, [r4, #0]
 80023a0:	f000 fc1c 	bl	8002bdc <SDIO_GetResponse>
 80023a4:	9b06      	ldr	r3, [sp, #24]
 80023a6:	4605      	mov	r5, r0
 80023a8:	3301      	adds	r3, #1
 80023aa:	9306      	str	r3, [sp, #24]
 80023ac:	9b06      	ldr	r3, [sp, #24]
 80023ae:	0fc2      	lsrs	r2, r0, #31
 80023b0:	42bb      	cmp	r3, r7
 80023b2:	d80b      	bhi.n	80023cc <HAL_SD_Init+0xe4>
 80023b4:	b952      	cbnz	r2, 80023cc <HAL_SD_Init+0xe4>
 80023b6:	2100      	movs	r1, #0
 80023b8:	6820      	ldr	r0, [r4, #0]
 80023ba:	f000 fe57 	bl	800306c <SDMMC_CmdAppCommand>
 80023be:	4605      	mov	r5, r0
 80023c0:	2800      	cmp	r0, #0
 80023c2:	d0e6      	beq.n	8002392 <HAL_SD_Init+0xaa>
 80023c4:	e7c3      	b.n	800234e <HAL_SD_Init+0x66>
 80023c6:	f04f 5580 	mov.w	r5, #268435456	; 0x10000000
 80023ca:	e7c0      	b.n	800234e <HAL_SD_Init+0x66>
 80023cc:	f64f 73fe 	movw	r3, #65534	; 0xfffe
 80023d0:	9a06      	ldr	r2, [sp, #24]
 80023d2:	429a      	cmp	r2, r3
 80023d4:	f200 8096 	bhi.w	8002504 <HAL_SD_Init+0x21c>
 80023d8:	2301      	movs	r3, #1
 80023da:	f3c5 7580 	ubfx	r5, r5, #30, #1
 80023de:	6465      	str	r5, [r4, #68]	; 0x44
 80023e0:	6820      	ldr	r0, [r4, #0]
 80023e2:	f8ad 3016 	strh.w	r3, [sp, #22]
 80023e6:	f000 fbf5 	bl	8002bd4 <SDIO_GetPowerState>
 80023ea:	2800      	cmp	r0, #0
 80023ec:	f000 8085 	beq.w	80024fa <HAL_SD_Init+0x212>
 80023f0:	6c62      	ldr	r2, [r4, #68]	; 0x44
 80023f2:	6823      	ldr	r3, [r4, #0]
 80023f4:	2a03      	cmp	r2, #3
 80023f6:	d12f      	bne.n	8002458 <HAL_SD_Init+0x170>
 80023f8:	4618      	mov	r0, r3
 80023fa:	2104      	movs	r1, #4
 80023fc:	f000 fbee 	bl	8002bdc <SDIO_GetResponse>
 8002400:	0d00      	lsrs	r0, r0, #20
 8002402:	64e0      	str	r0, [r4, #76]	; 0x4c
 8002404:	a90d      	add	r1, sp, #52	; 0x34
 8002406:	4620      	mov	r0, r4
 8002408:	f7ff feb4 	bl	8002174 <HAL_SD_GetCardCSD>
 800240c:	4606      	mov	r6, r0
 800240e:	2800      	cmp	r0, #0
 8002410:	d17b      	bne.n	800250a <HAL_SD_Init+0x222>
 8002412:	6d22      	ldr	r2, [r4, #80]	; 0x50
 8002414:	4603      	mov	r3, r0
 8002416:	0412      	lsls	r2, r2, #16
 8002418:	6820      	ldr	r0, [r4, #0]
 800241a:	f000 fd7b 	bl	8002f14 <SDMMC_CmdSelDesel>
 800241e:	b130      	cbz	r0, 800242e <HAL_SD_Init+0x146>
 8002420:	2601      	movs	r6, #1
 8002422:	f884 6034 	strb.w	r6, [r4, #52]	; 0x34
 8002426:	6ba1      	ldr	r1, [r4, #56]	; 0x38
 8002428:	4308      	orrs	r0, r1
 800242a:	63a0      	str	r0, [r4, #56]	; 0x38
 800242c:	e77f      	b.n	800232e <HAL_SD_Init+0x46>
 800242e:	4623      	mov	r3, r4
 8002430:	f853 7b10 	ldr.w	r7, [r3], #16
 8002434:	1d25      	adds	r5, r4, #4
 8002436:	e893 0007 	ldmia.w	r3, {r0, r1, r2}
 800243a:	e88d 0007 	stmia.w	sp, {r0, r1, r2}
 800243e:	4638      	mov	r0, r7
 8002440:	e895 000e 	ldmia.w	r5, {r1, r2, r3}
 8002444:	f000 fb96 	bl	8002b74 <SDIO_Init>
 8002448:	2301      	movs	r3, #1
 800244a:	4630      	mov	r0, r6
 800244c:	63a6      	str	r6, [r4, #56]	; 0x38
 800244e:	6326      	str	r6, [r4, #48]	; 0x30
 8002450:	f884 3034 	strb.w	r3, [r4, #52]	; 0x34
 8002454:	b019      	add	sp, #100	; 0x64
 8002456:	bdf0      	pop	{r4, r5, r6, r7, pc}
 8002458:	4618      	mov	r0, r3
 800245a:	f000 ff03 	bl	8003264 <SDMMC_CmdSendCID>
 800245e:	2800      	cmp	r0, #0
 8002460:	d1de      	bne.n	8002420 <HAL_SD_Init+0x138>
 8002462:	4601      	mov	r1, r0
 8002464:	6820      	ldr	r0, [r4, #0]
 8002466:	f000 fbb9 	bl	8002bdc <SDIO_GetResponse>
 800246a:	2104      	movs	r1, #4
 800246c:	6760      	str	r0, [r4, #116]	; 0x74
 800246e:	6820      	ldr	r0, [r4, #0]
 8002470:	f000 fbb4 	bl	8002bdc <SDIO_GetResponse>
 8002474:	2108      	movs	r1, #8
 8002476:	67a0      	str	r0, [r4, #120]	; 0x78
 8002478:	6820      	ldr	r0, [r4, #0]
 800247a:	f000 fbaf 	bl	8002bdc <SDIO_GetResponse>
 800247e:	210c      	movs	r1, #12
 8002480:	67e0      	str	r0, [r4, #124]	; 0x7c
 8002482:	6820      	ldr	r0, [r4, #0]
 8002484:	f000 fbaa 	bl	8002bdc <SDIO_GetResponse>
 8002488:	6c63      	ldr	r3, [r4, #68]	; 0x44
 800248a:	f8c4 0080 	str.w	r0, [r4, #128]	; 0x80
 800248e:	2b03      	cmp	r3, #3
 8002490:	d03e      	beq.n	8002510 <HAL_SD_Init+0x228>
 8002492:	f10d 0116 	add.w	r1, sp, #22
 8002496:	6820      	ldr	r0, [r4, #0]
 8002498:	f000 ff56 	bl	8003348 <SDMMC_CmdSetRelAdd>
 800249c:	2800      	cmp	r0, #0
 800249e:	d1bf      	bne.n	8002420 <HAL_SD_Init+0x138>
 80024a0:	6c62      	ldr	r2, [r4, #68]	; 0x44
 80024a2:	6823      	ldr	r3, [r4, #0]
 80024a4:	2a03      	cmp	r2, #3
 80024a6:	d0a7      	beq.n	80023f8 <HAL_SD_Init+0x110>
 80024a8:	f8bd 1016 	ldrh.w	r1, [sp, #22]
 80024ac:	4618      	mov	r0, r3
 80024ae:	6521      	str	r1, [r4, #80]	; 0x50
 80024b0:	0409      	lsls	r1, r1, #16
 80024b2:	f000 ff11 	bl	80032d8 <SDMMC_CmdSendCSD>
 80024b6:	2800      	cmp	r0, #0
 80024b8:	d1b2      	bne.n	8002420 <HAL_SD_Init+0x138>
 80024ba:	4601      	mov	r1, r0
 80024bc:	6820      	ldr	r0, [r4, #0]
 80024be:	f000 fb8d 	bl	8002bdc <SDIO_GetResponse>
 80024c2:	2104      	movs	r1, #4
 80024c4:	6660      	str	r0, [r4, #100]	; 0x64
 80024c6:	6820      	ldr	r0, [r4, #0]
 80024c8:	f000 fb88 	bl	8002bdc <SDIO_GetResponse>
 80024cc:	2108      	movs	r1, #8
 80024ce:	66a0      	str	r0, [r4, #104]	; 0x68
 80024d0:	6820      	ldr	r0, [r4, #0]
 80024d2:	f000 fb83 	bl	8002bdc <SDIO_GetResponse>
 80024d6:	210c      	movs	r1, #12
 80024d8:	66e0      	str	r0, [r4, #108]	; 0x6c
 80024da:	6820      	ldr	r0, [r4, #0]
 80024dc:	f000 fb7e 	bl	8002bdc <SDIO_GetResponse>
 80024e0:	6823      	ldr	r3, [r4, #0]
 80024e2:	6720      	str	r0, [r4, #112]	; 0x70
 80024e4:	e788      	b.n	80023f8 <HAL_SD_Init+0x110>
 80024e6:	64a5      	str	r5, [r4, #72]	; 0x48
 80024e8:	6820      	ldr	r0, [r4, #0]
 80024ea:	f000 fd55 	bl	8002f98 <SDMMC_CmdGoIdleState>
 80024ee:	b938      	cbnz	r0, 8002500 <HAL_SD_Init+0x218>
 80024f0:	6ca3      	ldr	r3, [r4, #72]	; 0x48
 80024f2:	2b01      	cmp	r3, #1
 80024f4:	f47f af44 	bne.w	8002380 <HAL_SD_Init+0x98>
 80024f8:	e73d      	b.n	8002376 <HAL_SD_Init+0x8e>
 80024fa:	f04f 6080 	mov.w	r0, #67108864	; 0x4000000
 80024fe:	e78f      	b.n	8002420 <HAL_SD_Init+0x138>
 8002500:	4605      	mov	r5, r0
 8002502:	e724      	b.n	800234e <HAL_SD_Init+0x66>
 8002504:	f04f 7580 	mov.w	r5, #16777216	; 0x1000000
 8002508:	e721      	b.n	800234e <HAL_SD_Init+0x66>
 800250a:	f04f 5080 	mov.w	r0, #268435456	; 0x10000000
 800250e:	e787      	b.n	8002420 <HAL_SD_Init+0x138>
 8002510:	6823      	ldr	r3, [r4, #0]
 8002512:	e771      	b.n	80023f8 <HAL_SD_Init+0x110>
 8002514:	422580a0 	.word	0x422580a0
 8002518:	c1100000 	.word	0xc1100000

0800251c <HAL_SD_GetCardInfo>:
 800251c:	b470      	push	{r4, r5, r6}
 800251e:	e9d0 4211 	ldrd	r4, r2, [r0, #68]	; 0x44
 8002522:	e9d0 3613 	ldrd	r3, r6, [r0, #76]	; 0x4c
 8002526:	6d45      	ldr	r5, [r0, #84]	; 0x54
 8002528:	600c      	str	r4, [r1, #0]
 800252a:	6d84      	ldr	r4, [r0, #88]	; 0x58
 800252c:	604a      	str	r2, [r1, #4]
 800252e:	608b      	str	r3, [r1, #8]
 8002530:	e9d0 2317 	ldrd	r2, r3, [r0, #92]	; 0x5c
 8002534:	e9c1 6503 	strd	r6, r5, [r1, #12]
 8002538:	e9c1 4205 	strd	r4, r2, [r1, #20]
 800253c:	bc70      	pop	{r4, r5, r6}
 800253e:	2000      	movs	r0, #0
 8002540:	61cb      	str	r3, [r1, #28]
 8002542:	4770      	bx	lr

08002544 <HAL_SD_ConfigWideBusOperation>:
 8002544:	2203      	movs	r2, #3
 8002546:	b5f0      	push	{r4, r5, r6, r7, lr}
 8002548:	6c43      	ldr	r3, [r0, #68]	; 0x44
 800254a:	b08b      	sub	sp, #44	; 0x2c
 800254c:	4293      	cmp	r3, r2
 800254e:	4604      	mov	r4, r0
 8002550:	f880 2034 	strb.w	r2, [r0, #52]	; 0x34
 8002554:	6807      	ldr	r7, [r0, #0]
 8002556:	460e      	mov	r6, r1
 8002558:	d028      	beq.n	80025ac <HAL_SD_ConfigWideBusOperation+0x68>
 800255a:	f5b1 5f80 	cmp.w	r1, #4096	; 0x1000
 800255e:	d025      	beq.n	80025ac <HAL_SD_ConfigWideBusOperation+0x68>
 8002560:	f5b1 6f00 	cmp.w	r1, #2048	; 0x800
 8002564:	d050      	beq.n	8002608 <HAL_SD_ConfigWideBusOperation+0xc4>
 8002566:	2900      	cmp	r1, #0
 8002568:	d02f      	beq.n	80025ca <HAL_SD_ConfigWideBusOperation+0x86>
 800256a:	6b83      	ldr	r3, [r0, #56]	; 0x38
 800256c:	f043 6300 	orr.w	r3, r3, #134217728	; 0x8000000
 8002570:	6383      	str	r3, [r0, #56]	; 0x38
 8002572:	6ba5      	ldr	r5, [r4, #56]	; 0x38
 8002574:	bb0d      	cbnz	r5, 80025ba <HAL_SD_ConfigWideBusOperation+0x76>
 8002576:	e9d4 0105 	ldrd	r0, r1, [r4, #20]
 800257a:	6863      	ldr	r3, [r4, #4]
 800257c:	68a2      	ldr	r2, [r4, #8]
 800257e:	9304      	str	r3, [sp, #16]
 8002580:	e9cd 0108 	strd	r0, r1, [sp, #32]
 8002584:	68e3      	ldr	r3, [r4, #12]
 8002586:	9607      	str	r6, [sp, #28]
 8002588:	e9cd 2305 	strd	r2, r3, [sp, #20]
 800258c:	aa0a      	add	r2, sp, #40	; 0x28
 800258e:	e912 0007 	ldmdb	r2, {r0, r1, r2}
 8002592:	e88d 0007 	stmia.w	sp, {r0, r1, r2}
 8002596:	ab04      	add	r3, sp, #16
 8002598:	cb0e      	ldmia	r3, {r1, r2, r3}
 800259a:	4638      	mov	r0, r7
 800259c:	f000 faea 	bl	8002b74 <SDIO_Init>
 80025a0:	2301      	movs	r3, #1
 80025a2:	4628      	mov	r0, r5
 80025a4:	f884 3034 	strb.w	r3, [r4, #52]	; 0x34
 80025a8:	b00b      	add	sp, #44	; 0x2c
 80025aa:	bdf0      	pop	{r4, r5, r6, r7, pc}
 80025ac:	6ba3      	ldr	r3, [r4, #56]	; 0x38
 80025ae:	f043 5380 	orr.w	r3, r3, #268435456	; 0x10000000
 80025b2:	63a3      	str	r3, [r4, #56]	; 0x38
 80025b4:	6ba5      	ldr	r5, [r4, #56]	; 0x38
 80025b6:	2d00      	cmp	r5, #0
 80025b8:	d0dd      	beq.n	8002576 <HAL_SD_ConfigWideBusOperation+0x32>
 80025ba:	2301      	movs	r3, #1
 80025bc:	4618      	mov	r0, r3
 80025be:	4a25      	ldr	r2, [pc, #148]	; (8002654 <HAL_SD_ConfigWideBusOperation+0x110>)
 80025c0:	63ba      	str	r2, [r7, #56]	; 0x38
 80025c2:	f884 3034 	strb.w	r3, [r4, #52]	; 0x34
 80025c6:	b00b      	add	sp, #44	; 0x2c
 80025c8:	bdf0      	pop	{r4, r5, r6, r7, pc}
 80025ca:	4638      	mov	r0, r7
 80025cc:	e9cd 1104 	strd	r1, r1, [sp, #16]
 80025d0:	f000 fb04 	bl	8002bdc <SDIO_GetResponse>
 80025d4:	0182      	lsls	r2, r0, #6
 80025d6:	d420      	bmi.n	800261a <HAL_SD_ConfigWideBusOperation+0xd6>
 80025d8:	a904      	add	r1, sp, #16
 80025da:	4620      	mov	r0, r4
 80025dc:	f7ff fa0e 	bl	80019fc <SD_FindSCR>
 80025e0:	b968      	cbnz	r0, 80025fe <HAL_SD_ConfigWideBusOperation+0xba>
 80025e2:	9b05      	ldr	r3, [sp, #20]
 80025e4:	6827      	ldr	r7, [r4, #0]
 80025e6:	03db      	lsls	r3, r3, #15
 80025e8:	d531      	bpl.n	800264e <HAL_SD_ConfigWideBusOperation+0x10a>
 80025ea:	6d21      	ldr	r1, [r4, #80]	; 0x50
 80025ec:	4638      	mov	r0, r7
 80025ee:	0409      	lsls	r1, r1, #16
 80025f0:	f000 fd3c 	bl	800306c <SDMMC_CmdAppCommand>
 80025f4:	b918      	cbnz	r0, 80025fe <HAL_SD_ConfigWideBusOperation+0xba>
 80025f6:	4601      	mov	r1, r0
 80025f8:	6820      	ldr	r0, [r4, #0]
 80025fa:	f000 fdaf 	bl	800315c <SDMMC_CmdBusWidth>
 80025fe:	6827      	ldr	r7, [r4, #0]
 8002600:	6ba3      	ldr	r3, [r4, #56]	; 0x38
 8002602:	4318      	orrs	r0, r3
 8002604:	63a0      	str	r0, [r4, #56]	; 0x38
 8002606:	e7d5      	b.n	80025b4 <HAL_SD_ConfigWideBusOperation+0x70>
 8002608:	2300      	movs	r3, #0
 800260a:	4638      	mov	r0, r7
 800260c:	4619      	mov	r1, r3
 800260e:	e9cd 3304 	strd	r3, r3, [sp, #16]
 8002612:	f000 fae3 	bl	8002bdc <SDIO_GetResponse>
 8002616:	0180      	lsls	r0, r0, #6
 8002618:	d503      	bpl.n	8002622 <HAL_SD_ConfigWideBusOperation+0xde>
 800261a:	6827      	ldr	r7, [r4, #0]
 800261c:	f44f 6000 	mov.w	r0, #2048	; 0x800
 8002620:	e7ee      	b.n	8002600 <HAL_SD_ConfigWideBusOperation+0xbc>
 8002622:	a904      	add	r1, sp, #16
 8002624:	4620      	mov	r0, r4
 8002626:	f7ff f9e9 	bl	80019fc <SD_FindSCR>
 800262a:	2800      	cmp	r0, #0
 800262c:	d1e7      	bne.n	80025fe <HAL_SD_ConfigWideBusOperation+0xba>
 800262e:	9b05      	ldr	r3, [sp, #20]
 8002630:	6827      	ldr	r7, [r4, #0]
 8002632:	0359      	lsls	r1, r3, #13
 8002634:	d50b      	bpl.n	800264e <HAL_SD_ConfigWideBusOperation+0x10a>
 8002636:	6d21      	ldr	r1, [r4, #80]	; 0x50
 8002638:	4638      	mov	r0, r7
 800263a:	0409      	lsls	r1, r1, #16
 800263c:	f000 fd16 	bl	800306c <SDMMC_CmdAppCommand>
 8002640:	2800      	cmp	r0, #0
 8002642:	d1dc      	bne.n	80025fe <HAL_SD_ConfigWideBusOperation+0xba>
 8002644:	2102      	movs	r1, #2
 8002646:	6820      	ldr	r0, [r4, #0]
 8002648:	f000 fd88 	bl	800315c <SDMMC_CmdBusWidth>
 800264c:	e7d7      	b.n	80025fe <HAL_SD_ConfigWideBusOperation+0xba>
 800264e:	f04f 6080 	mov.w	r0, #67108864	; 0x4000000
 8002652:	e7d5      	b.n	8002600 <HAL_SD_ConfigWideBusOperation+0xbc>
 8002654:	004005ff 	.word	0x004005ff

08002658 <HAL_SD_GetCardState>:
 8002658:	6d01      	ldr	r1, [r0, #80]	; 0x50
 800265a:	b510      	push	{r4, lr}
 800265c:	0409      	lsls	r1, r1, #16
 800265e:	4604      	mov	r4, r0
 8002660:	6800      	ldr	r0, [r0, #0]
 8002662:	f000 fec5 	bl	80033f0 <SDMMC_CmdSendStatus>
 8002666:	4601      	mov	r1, r0
 8002668:	b120      	cbz	r0, 8002674 <HAL_SD_GetCardState+0x1c>
 800266a:	6ba3      	ldr	r3, [r4, #56]	; 0x38
 800266c:	2000      	movs	r0, #0
 800266e:	4319      	orrs	r1, r3
 8002670:	63a1      	str	r1, [r4, #56]	; 0x38
 8002672:	bd10      	pop	{r4, pc}
 8002674:	6820      	ldr	r0, [r4, #0]
 8002676:	f000 fab1 	bl	8002bdc <SDIO_GetResponse>
 800267a:	f3c0 2043 	ubfx	r0, r0, #9, #4
 800267e:	bd10      	pop	{r4, pc}

08002680 <HAL_TIM_Base_MspInit>:
 8002680:	4770      	bx	lr
 8002682:	bf00      	nop

08002684 <HAL_TIM_Base_Init>:
 8002684:	2800      	cmp	r0, #0
 8002686:	d06d      	beq.n	8002764 <HAL_TIM_Base_Init+0xe0>
 8002688:	f890 303d 	ldrb.w	r3, [r0, #61]	; 0x3d
 800268c:	b570      	push	{r4, r5, r6, lr}
 800268e:	f003 02ff 	and.w	r2, r3, #255	; 0xff
 8002692:	4604      	mov	r4, r0
 8002694:	b3b3      	cbz	r3, 8002704 <HAL_TIM_Base_Init+0x80>
 8002696:	2302      	movs	r3, #2
 8002698:	6822      	ldr	r2, [r4, #0]
 800269a:	4e42      	ldr	r6, [pc, #264]	; (80027a4 <HAL_TIM_Base_Init+0x120>)
 800269c:	f884 303d 	strb.w	r3, [r4, #61]	; 0x3d
 80026a0:	42b2      	cmp	r2, r6
 80026a2:	6813      	ldr	r3, [r2, #0]
 80026a4:	69a5      	ldr	r5, [r4, #24]
 80026a6:	68e0      	ldr	r0, [r4, #12]
 80026a8:	6861      	ldr	r1, [r4, #4]
 80026aa:	d05d      	beq.n	8002768 <HAL_TIM_Base_Init+0xe4>
 80026ac:	f1b2 4f80 	cmp.w	r2, #1073741824	; 0x40000000
 80026b0:	d069      	beq.n	8002786 <HAL_TIM_Base_Init+0x102>
 80026b2:	f5a6 467c 	sub.w	r6, r6, #64512	; 0xfc00
 80026b6:	42b2      	cmp	r2, r6
 80026b8:	d029      	beq.n	800270e <HAL_TIM_Base_Init+0x8a>
 80026ba:	f506 6680 	add.w	r6, r6, #1024	; 0x400
 80026be:	42b2      	cmp	r2, r6
 80026c0:	d025      	beq.n	800270e <HAL_TIM_Base_Init+0x8a>
 80026c2:	f506 6680 	add.w	r6, r6, #1024	; 0x400
 80026c6:	42b2      	cmp	r2, r6
 80026c8:	d021      	beq.n	800270e <HAL_TIM_Base_Init+0x8a>
 80026ca:	f506 4678 	add.w	r6, r6, #63488	; 0xf800
 80026ce:	42b2      	cmp	r2, r6
 80026d0:	d01d      	beq.n	800270e <HAL_TIM_Base_Init+0x8a>
 80026d2:	f506 5670 	add.w	r6, r6, #15360	; 0x3c00
 80026d6:	42b2      	cmp	r2, r6
 80026d8:	d059      	beq.n	800278e <HAL_TIM_Base_Init+0x10a>
 80026da:	f506 6680 	add.w	r6, r6, #1024	; 0x400
 80026de:	42b2      	cmp	r2, r6
 80026e0:	d055      	beq.n	800278e <HAL_TIM_Base_Init+0x10a>
 80026e2:	f506 6680 	add.w	r6, r6, #1024	; 0x400
 80026e6:	42b2      	cmp	r2, r6
 80026e8:	d051      	beq.n	800278e <HAL_TIM_Base_Init+0x10a>
 80026ea:	f5a6 3698 	sub.w	r6, r6, #77824	; 0x13000
 80026ee:	42b2      	cmp	r2, r6
 80026f0:	d04d      	beq.n	800278e <HAL_TIM_Base_Init+0x10a>
 80026f2:	f506 6680 	add.w	r6, r6, #1024	; 0x400
 80026f6:	42b2      	cmp	r2, r6
 80026f8:	d049      	beq.n	800278e <HAL_TIM_Base_Init+0x10a>
 80026fa:	f506 6680 	add.w	r6, r6, #1024	; 0x400
 80026fe:	42b2      	cmp	r2, r6
 8002700:	d149      	bne.n	8002796 <HAL_TIM_Base_Init+0x112>
 8002702:	e044      	b.n	800278e <HAL_TIM_Base_Init+0x10a>
 8002704:	f880 203c 	strb.w	r2, [r0, #60]	; 0x3c
 8002708:	f7ff ffba 	bl	8002680 <HAL_TIM_Base_MspInit>
 800270c:	e7c3      	b.n	8002696 <HAL_TIM_Base_Init+0x12>
 800270e:	68a6      	ldr	r6, [r4, #8]
 8002710:	f023 0370 	bic.w	r3, r3, #112	; 0x70
 8002714:	4333      	orrs	r3, r6
 8002716:	6926      	ldr	r6, [r4, #16]
 8002718:	f423 7340 	bic.w	r3, r3, #768	; 0x300
 800271c:	4333      	orrs	r3, r6
 800271e:	4e22      	ldr	r6, [pc, #136]	; (80027a8 <HAL_TIM_Base_Init+0x124>)
 8002720:	f023 0380 	bic.w	r3, r3, #128	; 0x80
 8002724:	432b      	orrs	r3, r5
 8002726:	42b2      	cmp	r2, r6
 8002728:	6013      	str	r3, [r2, #0]
 800272a:	62d0      	str	r0, [r2, #44]	; 0x2c
 800272c:	6291      	str	r1, [r2, #40]	; 0x28
 800272e:	d101      	bne.n	8002734 <HAL_TIM_Base_Init+0xb0>
 8002730:	6963      	ldr	r3, [r4, #20]
 8002732:	6313      	str	r3, [r2, #48]	; 0x30
 8002734:	2301      	movs	r3, #1
 8002736:	2000      	movs	r0, #0
 8002738:	6153      	str	r3, [r2, #20]
 800273a:	f884 3046 	strb.w	r3, [r4, #70]	; 0x46
 800273e:	f884 303e 	strb.w	r3, [r4, #62]	; 0x3e
 8002742:	f884 303f 	strb.w	r3, [r4, #63]	; 0x3f
 8002746:	f884 3040 	strb.w	r3, [r4, #64]	; 0x40
 800274a:	f884 3041 	strb.w	r3, [r4, #65]	; 0x41
 800274e:	f884 3042 	strb.w	r3, [r4, #66]	; 0x42
 8002752:	f884 3043 	strb.w	r3, [r4, #67]	; 0x43
 8002756:	f884 3044 	strb.w	r3, [r4, #68]	; 0x44
 800275a:	f884 3045 	strb.w	r3, [r4, #69]	; 0x45
 800275e:	f884 303d 	strb.w	r3, [r4, #61]	; 0x3d
 8002762:	bd70      	pop	{r4, r5, r6, pc}
 8002764:	2001      	movs	r0, #1
 8002766:	4770      	bx	lr
 8002768:	68a6      	ldr	r6, [r4, #8]
 800276a:	f023 0370 	bic.w	r3, r3, #112	; 0x70
 800276e:	4333      	orrs	r3, r6
 8002770:	6926      	ldr	r6, [r4, #16]
 8002772:	f423 7340 	bic.w	r3, r3, #768	; 0x300
 8002776:	4333      	orrs	r3, r6
 8002778:	f023 0380 	bic.w	r3, r3, #128	; 0x80
 800277c:	432b      	orrs	r3, r5
 800277e:	6013      	str	r3, [r2, #0]
 8002780:	62d0      	str	r0, [r2, #44]	; 0x2c
 8002782:	6291      	str	r1, [r2, #40]	; 0x28
 8002784:	e7d4      	b.n	8002730 <HAL_TIM_Base_Init+0xac>
 8002786:	68a6      	ldr	r6, [r4, #8]
 8002788:	f023 0370 	bic.w	r3, r3, #112	; 0x70
 800278c:	4333      	orrs	r3, r6
 800278e:	6926      	ldr	r6, [r4, #16]
 8002790:	f423 7340 	bic.w	r3, r3, #768	; 0x300
 8002794:	4333      	orrs	r3, r6
 8002796:	f023 0380 	bic.w	r3, r3, #128	; 0x80
 800279a:	432b      	orrs	r3, r5
 800279c:	6013      	str	r3, [r2, #0]
 800279e:	62d0      	str	r0, [r2, #44]	; 0x2c
 80027a0:	6291      	str	r1, [r2, #40]	; 0x28
 80027a2:	e7c7      	b.n	8002734 <HAL_TIM_Base_Init+0xb0>
 80027a4:	40010000 	.word	0x40010000
 80027a8:	40010400 	.word	0x40010400

080027ac <HAL_TIM_Base_Start_IT>:
 80027ac:	f890 303d 	ldrb.w	r3, [r0, #61]	; 0x3d
 80027b0:	2b01      	cmp	r3, #1
 80027b2:	d001      	beq.n	80027b8 <HAL_TIM_Base_Start_IT+0xc>
 80027b4:	2001      	movs	r0, #1
 80027b6:	4770      	bx	lr
 80027b8:	2202      	movs	r2, #2
 80027ba:	6803      	ldr	r3, [r0, #0]
 80027bc:	f880 203d 	strb.w	r2, [r0, #61]	; 0x3d
 80027c0:	68da      	ldr	r2, [r3, #12]
 80027c2:	4916      	ldr	r1, [pc, #88]	; (800281c <HAL_TIM_Base_Start_IT+0x70>)
 80027c4:	f042 0201 	orr.w	r2, r2, #1
 80027c8:	428b      	cmp	r3, r1
 80027ca:	60da      	str	r2, [r3, #12]
 80027cc:	d019      	beq.n	8002802 <HAL_TIM_Base_Start_IT+0x56>
 80027ce:	f1b3 4f80 	cmp.w	r3, #1073741824	; 0x40000000
 80027d2:	d016      	beq.n	8002802 <HAL_TIM_Base_Start_IT+0x56>
 80027d4:	4a12      	ldr	r2, [pc, #72]	; (8002820 <HAL_TIM_Base_Start_IT+0x74>)
 80027d6:	4293      	cmp	r3, r2
 80027d8:	d013      	beq.n	8002802 <HAL_TIM_Base_Start_IT+0x56>
 80027da:	f502 6280 	add.w	r2, r2, #1024	; 0x400
 80027de:	4293      	cmp	r3, r2
 80027e0:	d00f      	beq.n	8002802 <HAL_TIM_Base_Start_IT+0x56>
 80027e2:	f502 6280 	add.w	r2, r2, #1024	; 0x400
 80027e6:	4293      	cmp	r3, r2
 80027e8:	d00b      	beq.n	8002802 <HAL_TIM_Base_Start_IT+0x56>
 80027ea:	f502 4278 	add.w	r2, r2, #63488	; 0xf800
 80027ee:	4293      	cmp	r3, r2
 80027f0:	d007      	beq.n	8002802 <HAL_TIM_Base_Start_IT+0x56>
 80027f2:	f502 5270 	add.w	r2, r2, #15360	; 0x3c00
 80027f6:	4293      	cmp	r3, r2
 80027f8:	d003      	beq.n	8002802 <HAL_TIM_Base_Start_IT+0x56>
 80027fa:	f5a2 3294 	sub.w	r2, r2, #75776	; 0x12800
 80027fe:	4293      	cmp	r3, r2
 8002800:	d104      	bne.n	800280c <HAL_TIM_Base_Start_IT+0x60>
 8002802:	689a      	ldr	r2, [r3, #8]
 8002804:	f002 0207 	and.w	r2, r2, #7
 8002808:	2a06      	cmp	r2, #6
 800280a:	d005      	beq.n	8002818 <HAL_TIM_Base_Start_IT+0x6c>
 800280c:	681a      	ldr	r2, [r3, #0]
 800280e:	2000      	movs	r0, #0
 8002810:	f042 0201 	orr.w	r2, r2, #1
 8002814:	601a      	str	r2, [r3, #0]
 8002816:	4770      	bx	lr
 8002818:	2000      	movs	r0, #0
 800281a:	4770      	bx	lr
 800281c:	40010000 	.word	0x40010000
 8002820:	40000400 	.word	0x40000400

08002824 <HAL_TIM_OC_DelayElapsedCallback>:
 8002824:	4770      	bx	lr
 8002826:	bf00      	nop

08002828 <HAL_TIM_IC_CaptureCallback>:
 8002828:	4770      	bx	lr
 800282a:	bf00      	nop

0800282c <HAL_TIM_PWM_PulseFinishedCallback>:
 800282c:	4770      	bx	lr
 800282e:	bf00      	nop

08002830 <HAL_TIM_TriggerCallback>:
 8002830:	4770      	bx	lr
 8002832:	bf00      	nop

08002834 <HAL_TIM_IRQHandler>:
 8002834:	6803      	ldr	r3, [r0, #0]
 8002836:	b510      	push	{r4, lr}
 8002838:	691a      	ldr	r2, [r3, #16]
 800283a:	4604      	mov	r4, r0
 800283c:	0791      	lsls	r1, r2, #30
 800283e:	d502      	bpl.n	8002846 <HAL_TIM_IRQHandler+0x12>
 8002840:	68da      	ldr	r2, [r3, #12]
 8002842:	0792      	lsls	r2, r2, #30
 8002844:	d45f      	bmi.n	8002906 <HAL_TIM_IRQHandler+0xd2>
 8002846:	691a      	ldr	r2, [r3, #16]
 8002848:	0750      	lsls	r0, r2, #29
 800284a:	d502      	bpl.n	8002852 <HAL_TIM_IRQHandler+0x1e>
 800284c:	68da      	ldr	r2, [r3, #12]
 800284e:	0751      	lsls	r1, r2, #29
 8002850:	d446      	bmi.n	80028e0 <HAL_TIM_IRQHandler+0xac>
 8002852:	691a      	ldr	r2, [r3, #16]
 8002854:	0712      	lsls	r2, r2, #28
 8002856:	d502      	bpl.n	800285e <HAL_TIM_IRQHandler+0x2a>
 8002858:	68da      	ldr	r2, [r3, #12]
 800285a:	0710      	lsls	r0, r2, #28
 800285c:	d42e      	bmi.n	80028bc <HAL_TIM_IRQHandler+0x88>
 800285e:	691a      	ldr	r2, [r3, #16]
 8002860:	06d2      	lsls	r2, r2, #27
 8002862:	d502      	bpl.n	800286a <HAL_TIM_IRQHandler+0x36>
 8002864:	68da      	ldr	r2, [r3, #12]
 8002866:	06d0      	lsls	r0, r2, #27
 8002868:	d418      	bmi.n	800289c <HAL_TIM_IRQHandler+0x68>
 800286a:	691a      	ldr	r2, [r3, #16]
 800286c:	07d1      	lsls	r1, r2, #31
 800286e:	d502      	bpl.n	8002876 <HAL_TIM_IRQHandler+0x42>
 8002870:	68da      	ldr	r2, [r3, #12]
 8002872:	07d2      	lsls	r2, r2, #31
 8002874:	d45d      	bmi.n	8002932 <HAL_TIM_IRQHandler+0xfe>
 8002876:	691a      	ldr	r2, [r3, #16]
 8002878:	0610      	lsls	r0, r2, #24
 800287a:	d502      	bpl.n	8002882 <HAL_TIM_IRQHandler+0x4e>
 800287c:	68da      	ldr	r2, [r3, #12]
 800287e:	0611      	lsls	r1, r2, #24
 8002880:	d45f      	bmi.n	8002942 <HAL_TIM_IRQHandler+0x10e>
 8002882:	691a      	ldr	r2, [r3, #16]
 8002884:	0652      	lsls	r2, r2, #25
 8002886:	d502      	bpl.n	800288e <HAL_TIM_IRQHandler+0x5a>
 8002888:	68da      	ldr	r2, [r3, #12]
 800288a:	0650      	lsls	r0, r2, #25
 800288c:	d461      	bmi.n	8002952 <HAL_TIM_IRQHandler+0x11e>
 800288e:	691a      	ldr	r2, [r3, #16]
 8002890:	0691      	lsls	r1, r2, #26
 8002892:	d502      	bpl.n	800289a <HAL_TIM_IRQHandler+0x66>
 8002894:	68da      	ldr	r2, [r3, #12]
 8002896:	0692      	lsls	r2, r2, #26
 8002898:	d443      	bmi.n	8002922 <HAL_TIM_IRQHandler+0xee>
 800289a:	bd10      	pop	{r4, pc}
 800289c:	f06f 0110 	mvn.w	r1, #16
 80028a0:	2208      	movs	r2, #8
 80028a2:	6119      	str	r1, [r3, #16]
 80028a4:	69db      	ldr	r3, [r3, #28]
 80028a6:	4620      	mov	r0, r4
 80028a8:	f413 7f40 	tst.w	r3, #768	; 0x300
 80028ac:	7722      	strb	r2, [r4, #28]
 80028ae:	d064      	beq.n	800297a <HAL_TIM_IRQHandler+0x146>
 80028b0:	f7ff ffba 	bl	8002828 <HAL_TIM_IC_CaptureCallback>
 80028b4:	2200      	movs	r2, #0
 80028b6:	6823      	ldr	r3, [r4, #0]
 80028b8:	7722      	strb	r2, [r4, #28]
 80028ba:	e7d6      	b.n	800286a <HAL_TIM_IRQHandler+0x36>
 80028bc:	f06f 0108 	mvn.w	r1, #8
 80028c0:	2204      	movs	r2, #4
 80028c2:	6119      	str	r1, [r3, #16]
 80028c4:	69db      	ldr	r3, [r3, #28]
 80028c6:	4620      	mov	r0, r4
 80028c8:	0799      	lsls	r1, r3, #30
 80028ca:	7722      	strb	r2, [r4, #28]
 80028cc:	d152      	bne.n	8002974 <HAL_TIM_IRQHandler+0x140>
 80028ce:	f7ff ffa9 	bl	8002824 <HAL_TIM_OC_DelayElapsedCallback>
 80028d2:	4620      	mov	r0, r4
 80028d4:	f7ff ffaa 	bl	800282c <HAL_TIM_PWM_PulseFinishedCallback>
 80028d8:	2200      	movs	r2, #0
 80028da:	6823      	ldr	r3, [r4, #0]
 80028dc:	7722      	strb	r2, [r4, #28]
 80028de:	e7be      	b.n	800285e <HAL_TIM_IRQHandler+0x2a>
 80028e0:	f06f 0104 	mvn.w	r1, #4
 80028e4:	2202      	movs	r2, #2
 80028e6:	6119      	str	r1, [r3, #16]
 80028e8:	699b      	ldr	r3, [r3, #24]
 80028ea:	4620      	mov	r0, r4
 80028ec:	f413 7f40 	tst.w	r3, #768	; 0x300
 80028f0:	7722      	strb	r2, [r4, #28]
 80028f2:	d13c      	bne.n	800296e <HAL_TIM_IRQHandler+0x13a>
 80028f4:	f7ff ff96 	bl	8002824 <HAL_TIM_OC_DelayElapsedCallback>
 80028f8:	4620      	mov	r0, r4
 80028fa:	f7ff ff97 	bl	800282c <HAL_TIM_PWM_PulseFinishedCallback>
 80028fe:	2200      	movs	r2, #0
 8002900:	6823      	ldr	r3, [r4, #0]
 8002902:	7722      	strb	r2, [r4, #28]
 8002904:	e7a5      	b.n	8002852 <HAL_TIM_IRQHandler+0x1e>
 8002906:	f06f 0102 	mvn.w	r1, #2
 800290a:	2201      	movs	r2, #1
 800290c:	6119      	str	r1, [r3, #16]
 800290e:	699b      	ldr	r3, [r3, #24]
 8002910:	7702      	strb	r2, [r0, #28]
 8002912:	079b      	lsls	r3, r3, #30
 8002914:	d025      	beq.n	8002962 <HAL_TIM_IRQHandler+0x12e>
 8002916:	f7ff ff87 	bl	8002828 <HAL_TIM_IC_CaptureCallback>
 800291a:	2200      	movs	r2, #0
 800291c:	6823      	ldr	r3, [r4, #0]
 800291e:	7722      	strb	r2, [r4, #28]
 8002920:	e791      	b.n	8002846 <HAL_TIM_IRQHandler+0x12>
 8002922:	f06f 0220 	mvn.w	r2, #32
 8002926:	4620      	mov	r0, r4
 8002928:	e8bd 4010 	ldmia.w	sp!, {r4, lr}
 800292c:	611a      	str	r2, [r3, #16]
 800292e:	f000 b82b 	b.w	8002988 <HAL_TIMEx_CommutCallback>
 8002932:	f06f 0201 	mvn.w	r2, #1
 8002936:	4620      	mov	r0, r4
 8002938:	611a      	str	r2, [r3, #16]
 800293a:	f7fd fffd 	bl	8000938 <HAL_TIM_PeriodElapsedCallback>
 800293e:	6823      	ldr	r3, [r4, #0]
 8002940:	e799      	b.n	8002876 <HAL_TIM_IRQHandler+0x42>
 8002942:	f06f 0280 	mvn.w	r2, #128	; 0x80
 8002946:	4620      	mov	r0, r4
 8002948:	611a      	str	r2, [r3, #16]
 800294a:	f000 f81f 	bl	800298c <HAL_TIMEx_BreakCallback>
 800294e:	6823      	ldr	r3, [r4, #0]
 8002950:	e797      	b.n	8002882 <HAL_TIM_IRQHandler+0x4e>
 8002952:	f06f 0240 	mvn.w	r2, #64	; 0x40
 8002956:	4620      	mov	r0, r4
 8002958:	611a      	str	r2, [r3, #16]
 800295a:	f7ff ff69 	bl	8002830 <HAL_TIM_TriggerCallback>
 800295e:	6823      	ldr	r3, [r4, #0]
 8002960:	e795      	b.n	800288e <HAL_TIM_IRQHandler+0x5a>
 8002962:	f7ff ff5f 	bl	8002824 <HAL_TIM_OC_DelayElapsedCallback>
 8002966:	4620      	mov	r0, r4
 8002968:	f7ff ff60 	bl	800282c <HAL_TIM_PWM_PulseFinishedCallback>
 800296c:	e7d5      	b.n	800291a <HAL_TIM_IRQHandler+0xe6>
 800296e:	f7ff ff5b 	bl	8002828 <HAL_TIM_IC_CaptureCallback>
 8002972:	e7c4      	b.n	80028fe <HAL_TIM_IRQHandler+0xca>
 8002974:	f7ff ff58 	bl	8002828 <HAL_TIM_IC_CaptureCallback>
 8002978:	e7ae      	b.n	80028d8 <HAL_TIM_IRQHandler+0xa4>
 800297a:	f7ff ff53 	bl	8002824 <HAL_TIM_OC_DelayElapsedCallback>
 800297e:	4620      	mov	r0, r4
 8002980:	f7ff ff54 	bl	800282c <HAL_TIM_PWM_PulseFinishedCallback>
 8002984:	e796      	b.n	80028b4 <HAL_TIM_IRQHandler+0x80>
 8002986:	bf00      	nop

08002988 <HAL_TIMEx_CommutCallback>:
 8002988:	4770      	bx	lr
 800298a:	bf00      	nop

0800298c <HAL_TIMEx_BreakCallback>:
 800298c:	4770      	bx	lr
 800298e:	bf00      	nop

08002990 <HAL_UART_Init>:
 8002990:	2800      	cmp	r0, #0
 8002992:	d06a      	beq.n	8002a6a <HAL_UART_Init+0xda>
 8002994:	f890 3039 	ldrb.w	r3, [r0, #57]	; 0x39
 8002998:	b570      	push	{r4, r5, r6, lr}
 800299a:	f003 02ff 	and.w	r2, r3, #255	; 0xff
 800299e:	4604      	mov	r4, r0
 80029a0:	2b00      	cmp	r3, #0
 80029a2:	d05d      	beq.n	8002a60 <HAL_UART_Init+0xd0>
 80029a4:	2224      	movs	r2, #36	; 0x24
 80029a6:	6823      	ldr	r3, [r4, #0]
 80029a8:	f884 2039 	strb.w	r2, [r4, #57]	; 0x39
 80029ac:	68da      	ldr	r2, [r3, #12]
 80029ae:	68e0      	ldr	r0, [r4, #12]
 80029b0:	f422 5200 	bic.w	r2, r2, #8192	; 0x2000
 80029b4:	60da      	str	r2, [r3, #12]
 80029b6:	6919      	ldr	r1, [r3, #16]
 80029b8:	68a2      	ldr	r2, [r4, #8]
 80029ba:	f421 5140 	bic.w	r1, r1, #12288	; 0x3000
 80029be:	4301      	orrs	r1, r0
 80029c0:	6119      	str	r1, [r3, #16]
 80029c2:	6920      	ldr	r0, [r4, #16]
 80029c4:	68d9      	ldr	r1, [r3, #12]
 80029c6:	6965      	ldr	r5, [r4, #20]
 80029c8:	4302      	orrs	r2, r0
 80029ca:	69e0      	ldr	r0, [r4, #28]
 80029cc:	f421 4116 	bic.w	r1, r1, #38400	; 0x9600
 80029d0:	432a      	orrs	r2, r5
 80029d2:	f021 010c 	bic.w	r1, r1, #12
 80029d6:	4302      	orrs	r2, r0
 80029d8:	430a      	orrs	r2, r1
 80029da:	60da      	str	r2, [r3, #12]
 80029dc:	695a      	ldr	r2, [r3, #20]
 80029de:	69a0      	ldr	r0, [r4, #24]
 80029e0:	492f      	ldr	r1, [pc, #188]	; (8002aa0 <HAL_UART_Init+0x110>)
 80029e2:	f422 7240 	bic.w	r2, r2, #768	; 0x300
 80029e6:	4302      	orrs	r2, r0
 80029e8:	428b      	cmp	r3, r1
 80029ea:	615a      	str	r2, [r3, #20]
 80029ec:	d035      	beq.n	8002a5a <HAL_UART_Init+0xca>
 80029ee:	4a2d      	ldr	r2, [pc, #180]	; (8002aa4 <HAL_UART_Init+0x114>)
 80029f0:	4293      	cmp	r3, r2
 80029f2:	d032      	beq.n	8002a5a <HAL_UART_Init+0xca>
 80029f4:	f7fe ffaa 	bl	800194c <HAL_RCC_GetPCLK1Freq>
 80029f8:	e9d4 3200 	ldrd	r3, r2, [r4]
 80029fc:	69e1      	ldr	r1, [r4, #28]
 80029fe:	eb00 0080 	add.w	r0, r0, r0, lsl #2
 8002a02:	f5b1 4f00 	cmp.w	r1, #32768	; 0x8000
 8002a06:	eb00 0080 	add.w	r0, r0, r0, lsl #2
 8002a0a:	d030      	beq.n	8002a6e <HAL_UART_Init+0xde>
 8002a0c:	0092      	lsls	r2, r2, #2
 8002a0e:	fbb0 f0f2 	udiv	r0, r0, r2
 8002a12:	2264      	movs	r2, #100	; 0x64
 8002a14:	4d24      	ldr	r5, [pc, #144]	; (8002aa8 <HAL_UART_Init+0x118>)
 8002a16:	fba5 6100 	umull	r6, r1, r5, r0
 8002a1a:	0949      	lsrs	r1, r1, #5
 8002a1c:	fb02 0011 	mls	r0, r2, r1, r0
 8002a20:	0100      	lsls	r0, r0, #4
 8002a22:	3032      	adds	r0, #50	; 0x32
 8002a24:	fba5 2000 	umull	r2, r0, r5, r0
 8002a28:	0109      	lsls	r1, r1, #4
 8002a2a:	eb01 1050 	add.w	r0, r1, r0, lsr #5
 8002a2e:	6098      	str	r0, [r3, #8]
 8002a30:	2500      	movs	r5, #0
 8002a32:	2120      	movs	r1, #32
 8002a34:	691a      	ldr	r2, [r3, #16]
 8002a36:	4628      	mov	r0, r5
 8002a38:	f422 4290 	bic.w	r2, r2, #18432	; 0x4800
 8002a3c:	611a      	str	r2, [r3, #16]
 8002a3e:	695a      	ldr	r2, [r3, #20]
 8002a40:	f022 022a 	bic.w	r2, r2, #42	; 0x2a
 8002a44:	615a      	str	r2, [r3, #20]
 8002a46:	68da      	ldr	r2, [r3, #12]
 8002a48:	f442 5200 	orr.w	r2, r2, #8192	; 0x2000
 8002a4c:	60da      	str	r2, [r3, #12]
 8002a4e:	63e5      	str	r5, [r4, #60]	; 0x3c
 8002a50:	f884 1039 	strb.w	r1, [r4, #57]	; 0x39
 8002a54:	f884 103a 	strb.w	r1, [r4, #58]	; 0x3a
 8002a58:	bd70      	pop	{r4, r5, r6, pc}
 8002a5a:	f7fe ff8f 	bl	800197c <HAL_RCC_GetPCLK2Freq>
 8002a5e:	e7cb      	b.n	80029f8 <HAL_UART_Init+0x68>
 8002a60:	f880 2038 	strb.w	r2, [r0, #56]	; 0x38
 8002a64:	f7fe f852 	bl	8000b0c <HAL_UART_MspInit>
 8002a68:	e79c      	b.n	80029a4 <HAL_UART_Init+0x14>
 8002a6a:	2001      	movs	r0, #1
 8002a6c:	4770      	bx	lr
 8002a6e:	0052      	lsls	r2, r2, #1
 8002a70:	fbb0 f0f2 	udiv	r0, r0, r2
 8002a74:	2264      	movs	r2, #100	; 0x64
 8002a76:	4e0c      	ldr	r6, [pc, #48]	; (8002aa8 <HAL_UART_Init+0x118>)
 8002a78:	fba6 5100 	umull	r5, r1, r6, r0
 8002a7c:	094d      	lsrs	r5, r1, #5
 8002a7e:	fb02 0015 	mls	r0, r2, r5, r0
 8002a82:	00c2      	lsls	r2, r0, #3
 8002a84:	3232      	adds	r2, #50	; 0x32
 8002a86:	fba6 1202 	umull	r1, r2, r6, r2
 8002a8a:	0952      	lsrs	r2, r2, #5
 8002a8c:	f002 0107 	and.w	r1, r2, #7
 8002a90:	0052      	lsls	r2, r2, #1
 8002a92:	eb01 1105 	add.w	r1, r1, r5, lsl #4
 8002a96:	f402 72f8 	and.w	r2, r2, #496	; 0x1f0
 8002a9a:	440a      	add	r2, r1
 8002a9c:	609a      	str	r2, [r3, #8]
 8002a9e:	e7c7      	b.n	8002a30 <HAL_UART_Init+0xa0>
 8002aa0:	40011000 	.word	0x40011000
 8002aa4:	40011400 	.word	0x40011400
 8002aa8:	51eb851f 	.word	0x51eb851f

08002aac <SDMMC_GetCmdResp1.part.2>:
 8002aac:	4b30      	ldr	r3, [pc, #192]	; (8002b70 <SDMMC_GetCmdResp1.part.2+0xc4>)
 8002aae:	6942      	ldr	r2, [r0, #20]
 8002ab0:	4013      	ands	r3, r2
 8002ab2:	b34b      	cbz	r3, 8002b08 <SDMMC_GetCmdResp1.part.2+0x5c>
 8002ab4:	2a00      	cmp	r2, #0
 8002ab6:	db29      	blt.n	8002b0c <SDMMC_GetCmdResp1.part.2+0x60>
 8002ab8:	0051      	lsls	r1, r2, #1
 8002aba:	d42d      	bmi.n	8002b18 <SDMMC_GetCmdResp1.part.2+0x6c>
 8002abc:	0093      	lsls	r3, r2, #2
 8002abe:	d42d      	bmi.n	8002b1c <SDMMC_GetCmdResp1.part.2+0x70>
 8002ac0:	00d1      	lsls	r1, r2, #3
 8002ac2:	d426      	bmi.n	8002b12 <SDMMC_GetCmdResp1.part.2+0x66>
 8002ac4:	0113      	lsls	r3, r2, #4
 8002ac6:	d42e      	bmi.n	8002b26 <SDMMC_GetCmdResp1.part.2+0x7a>
 8002ac8:	0151      	lsls	r1, r2, #5
 8002aca:	d42f      	bmi.n	8002b2c <SDMMC_GetCmdResp1.part.2+0x80>
 8002acc:	01d3      	lsls	r3, r2, #7
 8002ace:	d427      	bmi.n	8002b20 <SDMMC_GetCmdResp1.part.2+0x74>
 8002ad0:	0211      	lsls	r1, r2, #8
 8002ad2:	d42e      	bmi.n	8002b32 <SDMMC_GetCmdResp1.part.2+0x86>
 8002ad4:	0253      	lsls	r3, r2, #9
 8002ad6:	d42f      	bmi.n	8002b38 <SDMMC_GetCmdResp1.part.2+0x8c>
 8002ad8:	0291      	lsls	r1, r2, #10
 8002ada:	d430      	bmi.n	8002b3e <SDMMC_GetCmdResp1.part.2+0x92>
 8002adc:	02d3      	lsls	r3, r2, #11
 8002ade:	d431      	bmi.n	8002b44 <SDMMC_GetCmdResp1.part.2+0x98>
 8002ae0:	0351      	lsls	r1, r2, #13
 8002ae2:	d432      	bmi.n	8002b4a <SDMMC_GetCmdResp1.part.2+0x9e>
 8002ae4:	0393      	lsls	r3, r2, #14
 8002ae6:	d433      	bmi.n	8002b50 <SDMMC_GetCmdResp1.part.2+0xa4>
 8002ae8:	03d1      	lsls	r1, r2, #15
 8002aea:	d434      	bmi.n	8002b56 <SDMMC_GetCmdResp1.part.2+0xaa>
 8002aec:	0413      	lsls	r3, r2, #16
 8002aee:	d435      	bmi.n	8002b5c <SDMMC_GetCmdResp1.part.2+0xb0>
 8002af0:	0451      	lsls	r1, r2, #17
 8002af2:	d436      	bmi.n	8002b62 <SDMMC_GetCmdResp1.part.2+0xb6>
 8002af4:	0493      	lsls	r3, r2, #18
 8002af6:	d437      	bmi.n	8002b68 <SDMMC_GetCmdResp1.part.2+0xbc>
 8002af8:	f012 0f08 	tst.w	r2, #8
 8002afc:	bf14      	ite	ne
 8002afe:	f44f 0000 	movne.w	r0, #8388608	; 0x800000
 8002b02:	f44f 3080 	moveq.w	r0, #65536	; 0x10000
 8002b06:	4770      	bx	lr
 8002b08:	4618      	mov	r0, r3
 8002b0a:	4770      	bx	lr
 8002b0c:	f04f 7000 	mov.w	r0, #33554432	; 0x2000000
 8002b10:	4770      	bx	lr
 8002b12:	f44f 7080 	mov.w	r0, #256	; 0x100
 8002b16:	4770      	bx	lr
 8002b18:	2040      	movs	r0, #64	; 0x40
 8002b1a:	4770      	bx	lr
 8002b1c:	2080      	movs	r0, #128	; 0x80
 8002b1e:	4770      	bx	lr
 8002b20:	f44f 6000 	mov.w	r0, #2048	; 0x800
 8002b24:	4770      	bx	lr
 8002b26:	f44f 7000 	mov.w	r0, #512	; 0x200
 8002b2a:	4770      	bx	lr
 8002b2c:	f44f 6080 	mov.w	r0, #1024	; 0x400
 8002b30:	4770      	bx	lr
 8002b32:	f44f 5080 	mov.w	r0, #4096	; 0x1000
 8002b36:	4770      	bx	lr
 8002b38:	f44f 5000 	mov.w	r0, #8192	; 0x2000
 8002b3c:	4770      	bx	lr
 8002b3e:	f44f 4080 	mov.w	r0, #16384	; 0x4000
 8002b42:	4770      	bx	lr
 8002b44:	f44f 4000 	mov.w	r0, #32768	; 0x8000
 8002b48:	4770      	bx	lr
 8002b4a:	f44f 3000 	mov.w	r0, #131072	; 0x20000
 8002b4e:	4770      	bx	lr
 8002b50:	f44f 2080 	mov.w	r0, #262144	; 0x40000
 8002b54:	4770      	bx	lr
 8002b56:	f44f 2000 	mov.w	r0, #524288	; 0x80000
 8002b5a:	4770      	bx	lr
 8002b5c:	f44f 1080 	mov.w	r0, #1048576	; 0x100000
 8002b60:	4770      	bx	lr
 8002b62:	f44f 1000 	mov.w	r0, #2097152	; 0x200000
 8002b66:	4770      	bx	lr
 8002b68:	f44f 0080 	mov.w	r0, #4194304	; 0x400000
 8002b6c:	4770      	bx	lr
 8002b6e:	bf00      	nop
 8002b70:	fdffe008 	.word	0xfdffe008

08002b74 <SDIO_Init>:
 8002b74:	b084      	sub	sp, #16
 8002b76:	b410      	push	{r4}
 8002b78:	ac02      	add	r4, sp, #8
 8002b7a:	e884 000e 	stmia.w	r4, {r1, r2, r3}
 8002b7e:	460b      	mov	r3, r1
 8002b80:	e9dd 1203 	ldrd	r1, r2, [sp, #12]
 8002b84:	430b      	orrs	r3, r1
 8002b86:	9905      	ldr	r1, [sp, #20]
 8002b88:	9c06      	ldr	r4, [sp, #24]
 8002b8a:	4313      	orrs	r3, r2
 8002b8c:	6842      	ldr	r2, [r0, #4]
 8002b8e:	430b      	orrs	r3, r1
 8002b90:	9907      	ldr	r1, [sp, #28]
 8002b92:	4323      	orrs	r3, r4
 8002b94:	f422 42fd 	bic.w	r2, r2, #32384	; 0x7e80
 8002b98:	430b      	orrs	r3, r1
 8002b9a:	f022 027f 	bic.w	r2, r2, #127	; 0x7f
 8002b9e:	bc10      	pop	{r4}
 8002ba0:	4313      	orrs	r3, r2
 8002ba2:	6043      	str	r3, [r0, #4]
 8002ba4:	b004      	add	sp, #16
 8002ba6:	2000      	movs	r0, #0
 8002ba8:	4770      	bx	lr
 8002baa:	bf00      	nop

08002bac <SDIO_ReadFIFO>:
 8002bac:	f8d0 0080 	ldr.w	r0, [r0, #128]	; 0x80
 8002bb0:	4770      	bx	lr
 8002bb2:	bf00      	nop

08002bb4 <SDIO_WriteFIFO>:
 8002bb4:	4603      	mov	r3, r0
 8002bb6:	680a      	ldr	r2, [r1, #0]
 8002bb8:	2000      	movs	r0, #0
 8002bba:	f8c3 2080 	str.w	r2, [r3, #128]	; 0x80
 8002bbe:	4770      	bx	lr

08002bc0 <SDIO_PowerState_ON>:
 8002bc0:	b508      	push	{r3, lr}
 8002bc2:	2203      	movs	r2, #3
 8002bc4:	4603      	mov	r3, r0
 8002bc6:	2002      	movs	r0, #2
 8002bc8:	601a      	str	r2, [r3, #0]
 8002bca:	f7fe f8d1 	bl	8000d70 <HAL_Delay>
 8002bce:	2000      	movs	r0, #0
 8002bd0:	bd08      	pop	{r3, pc}
 8002bd2:	bf00      	nop

08002bd4 <SDIO_GetPowerState>:
 8002bd4:	6800      	ldr	r0, [r0, #0]
 8002bd6:	f000 0003 	and.w	r0, r0, #3
 8002bda:	4770      	bx	lr

08002bdc <SDIO_GetResponse>:
 8002bdc:	3014      	adds	r0, #20
 8002bde:	5840      	ldr	r0, [r0, r1]
 8002be0:	4770      	bx	lr
 8002be2:	bf00      	nop

08002be4 <SDIO_ConfigData>:
 8002be4:	b430      	push	{r4, r5}
 8002be6:	e9d1 4200 	ldrd	r4, r2, [r1]
 8002bea:	e9d1 3502 	ldrd	r3, r5, [r1, #8]
 8002bee:	6244      	str	r4, [r0, #36]	; 0x24
 8002bf0:	690c      	ldr	r4, [r1, #16]
 8002bf2:	6282      	str	r2, [r0, #40]	; 0x28
 8002bf4:	6ac2      	ldr	r2, [r0, #44]	; 0x2c
 8002bf6:	432b      	orrs	r3, r5
 8002bf8:	6949      	ldr	r1, [r1, #20]
 8002bfa:	4323      	orrs	r3, r4
 8002bfc:	f022 02f7 	bic.w	r2, r2, #247	; 0xf7
 8002c00:	430b      	orrs	r3, r1
 8002c02:	4313      	orrs	r3, r2
 8002c04:	62c3      	str	r3, [r0, #44]	; 0x2c
 8002c06:	bc30      	pop	{r4, r5}
 8002c08:	2000      	movs	r0, #0
 8002c0a:	4770      	bx	lr

08002c0c <SDMMC_CmdBlockLength>:
 8002c0c:	f241 3388 	movw	r3, #5000	; 0x1388
 8002c10:	4a1c      	ldr	r2, [pc, #112]	; (8002c84 <SDMMC_CmdBlockLength+0x78>)
 8002c12:	b410      	push	{r4}
 8002c14:	6812      	ldr	r2, [r2, #0]
 8002c16:	4c1c      	ldr	r4, [pc, #112]	; (8002c88 <SDMMC_CmdBlockLength+0x7c>)
 8002c18:	6081      	str	r1, [r0, #8]
 8002c1a:	fba4 2102 	umull	r2, r1, r4, r2
 8002c1e:	68c2      	ldr	r2, [r0, #12]
 8002c20:	0a49      	lsrs	r1, r1, #9
 8002c22:	f422 627f 	bic.w	r2, r2, #4080	; 0xff0
 8002c26:	fb03 f301 	mul.w	r3, r3, r1
 8002c2a:	f022 020f 	bic.w	r2, r2, #15
 8002c2e:	f442 628a 	orr.w	r2, r2, #1104	; 0x450
 8002c32:	60c2      	str	r2, [r0, #12]
 8002c34:	f113 33ff 	adds.w	r3, r3, #4294967295
 8002c38:	d313      	bcc.n	8002c62 <SDMMC_CmdBlockLength+0x56>
 8002c3a:	6b42      	ldr	r2, [r0, #52]	; 0x34
 8002c3c:	f012 0f45 	tst.w	r2, #69	; 0x45
 8002c40:	d0f8      	beq.n	8002c34 <SDMMC_CmdBlockLength+0x28>
 8002c42:	0511      	lsls	r1, r2, #20
 8002c44:	d4f6      	bmi.n	8002c34 <SDMMC_CmdBlockLength+0x28>
 8002c46:	6b43      	ldr	r3, [r0, #52]	; 0x34
 8002c48:	075a      	lsls	r2, r3, #29
 8002c4a:	d413      	bmi.n	8002c74 <SDMMC_CmdBlockLength+0x68>
 8002c4c:	6b43      	ldr	r3, [r0, #52]	; 0x34
 8002c4e:	07db      	lsls	r3, r3, #31
 8002c50:	d40b      	bmi.n	8002c6a <SDMMC_CmdBlockLength+0x5e>
 8002c52:	23c5      	movs	r3, #197	; 0xc5
 8002c54:	6383      	str	r3, [r0, #56]	; 0x38
 8002c56:	6903      	ldr	r3, [r0, #16]
 8002c58:	b2db      	uxtb	r3, r3
 8002c5a:	2b10      	cmp	r3, #16
 8002c5c:	d00e      	beq.n	8002c7c <SDMMC_CmdBlockLength+0x70>
 8002c5e:	2001      	movs	r0, #1
 8002c60:	e001      	b.n	8002c66 <SDMMC_CmdBlockLength+0x5a>
 8002c62:	f04f 4000 	mov.w	r0, #2147483648	; 0x80000000
 8002c66:	bc10      	pop	{r4}
 8002c68:	4770      	bx	lr
 8002c6a:	2301      	movs	r3, #1
 8002c6c:	bc10      	pop	{r4}
 8002c6e:	6383      	str	r3, [r0, #56]	; 0x38
 8002c70:	4618      	mov	r0, r3
 8002c72:	4770      	bx	lr
 8002c74:	2304      	movs	r3, #4
 8002c76:	6383      	str	r3, [r0, #56]	; 0x38
 8002c78:	4618      	mov	r0, r3
 8002c7a:	e7f4      	b.n	8002c66 <SDMMC_CmdBlockLength+0x5a>
 8002c7c:	bc10      	pop	{r4}
 8002c7e:	f7ff bf15 	b.w	8002aac <SDMMC_GetCmdResp1.part.2>
 8002c82:	bf00      	nop
 8002c84:	20000000 	.word	0x20000000
 8002c88:	10624dd3 	.word	0x10624dd3

08002c8c <SDMMC_CmdReadSingleBlock>:
 8002c8c:	f241 3388 	movw	r3, #5000	; 0x1388
 8002c90:	4a1d      	ldr	r2, [pc, #116]	; (8002d08 <SDMMC_CmdReadSingleBlock+0x7c>)
 8002c92:	b410      	push	{r4}
 8002c94:	6812      	ldr	r2, [r2, #0]
 8002c96:	4c1d      	ldr	r4, [pc, #116]	; (8002d0c <SDMMC_CmdReadSingleBlock+0x80>)
 8002c98:	6081      	str	r1, [r0, #8]
 8002c9a:	fba4 2102 	umull	r2, r1, r4, r2
 8002c9e:	68c2      	ldr	r2, [r0, #12]
 8002ca0:	0a49      	lsrs	r1, r1, #9
 8002ca2:	f422 627f 	bic.w	r2, r2, #4080	; 0xff0
 8002ca6:	f022 020f 	bic.w	r2, r2, #15
 8002caa:	fb03 f301 	mul.w	r3, r3, r1
 8002cae:	f442 628a 	orr.w	r2, r2, #1104	; 0x450
 8002cb2:	f042 0201 	orr.w	r2, r2, #1
 8002cb6:	60c2      	str	r2, [r0, #12]
 8002cb8:	f113 33ff 	adds.w	r3, r3, #4294967295
 8002cbc:	d313      	bcc.n	8002ce6 <SDMMC_CmdReadSingleBlock+0x5a>
 8002cbe:	6b42      	ldr	r2, [r0, #52]	; 0x34
 8002cc0:	f012 0f45 	tst.w	r2, #69	; 0x45
 8002cc4:	d0f8      	beq.n	8002cb8 <SDMMC_CmdReadSingleBlock+0x2c>
 8002cc6:	0511      	lsls	r1, r2, #20
 8002cc8:	d4f6      	bmi.n	8002cb8 <SDMMC_CmdReadSingleBlock+0x2c>
 8002cca:	6b43      	ldr	r3, [r0, #52]	; 0x34
 8002ccc:	075a      	lsls	r2, r3, #29
 8002cce:	d413      	bmi.n	8002cf8 <SDMMC_CmdReadSingleBlock+0x6c>
 8002cd0:	6b43      	ldr	r3, [r0, #52]	; 0x34
 8002cd2:	07db      	lsls	r3, r3, #31
 8002cd4:	d40b      	bmi.n	8002cee <SDMMC_CmdReadSingleBlock+0x62>
 8002cd6:	23c5      	movs	r3, #197	; 0xc5
 8002cd8:	6383      	str	r3, [r0, #56]	; 0x38
 8002cda:	6903      	ldr	r3, [r0, #16]
 8002cdc:	b2db      	uxtb	r3, r3
 8002cde:	2b11      	cmp	r3, #17
 8002ce0:	d00e      	beq.n	8002d00 <SDMMC_CmdReadSingleBlock+0x74>
 8002ce2:	2001      	movs	r0, #1
 8002ce4:	e001      	b.n	8002cea <SDMMC_CmdReadSingleBlock+0x5e>
 8002ce6:	f04f 4000 	mov.w	r0, #2147483648	; 0x80000000
 8002cea:	bc10      	pop	{r4}
 8002cec:	4770      	bx	lr
 8002cee:	2301      	movs	r3, #1
 8002cf0:	bc10      	pop	{r4}
 8002cf2:	6383      	str	r3, [r0, #56]	; 0x38
 8002cf4:	4618      	mov	r0, r3
 8002cf6:	4770      	bx	lr
 8002cf8:	2304      	movs	r3, #4
 8002cfa:	6383      	str	r3, [r0, #56]	; 0x38
 8002cfc:	4618      	mov	r0, r3
 8002cfe:	e7f4      	b.n	8002cea <SDMMC_CmdReadSingleBlock+0x5e>
 8002d00:	bc10      	pop	{r4}
 8002d02:	f7ff bed3 	b.w	8002aac <SDMMC_GetCmdResp1.part.2>
 8002d06:	bf00      	nop
 8002d08:	20000000 	.word	0x20000000
 8002d0c:	10624dd3 	.word	0x10624dd3

08002d10 <SDMMC_CmdReadMultiBlock>:
 8002d10:	f241 3388 	movw	r3, #5000	; 0x1388
 8002d14:	4a1d      	ldr	r2, [pc, #116]	; (8002d8c <SDMMC_CmdReadMultiBlock+0x7c>)
 8002d16:	b410      	push	{r4}
 8002d18:	6812      	ldr	r2, [r2, #0]
 8002d1a:	4c1d      	ldr	r4, [pc, #116]	; (8002d90 <SDMMC_CmdReadMultiBlock+0x80>)
 8002d1c:	6081      	str	r1, [r0, #8]
 8002d1e:	fba4 2102 	umull	r2, r1, r4, r2
 8002d22:	68c2      	ldr	r2, [r0, #12]
 8002d24:	0a49      	lsrs	r1, r1, #9
 8002d26:	f422 627f 	bic.w	r2, r2, #4080	; 0xff0
 8002d2a:	f022 020f 	bic.w	r2, r2, #15
 8002d2e:	fb03 f301 	mul.w	r3, r3, r1
 8002d32:	f442 628a 	orr.w	r2, r2, #1104	; 0x450
 8002d36:	f042 0202 	orr.w	r2, r2, #2
 8002d3a:	60c2      	str	r2, [r0, #12]
 8002d3c:	f113 33ff 	adds.w	r3, r3, #4294967295
 8002d40:	d313      	bcc.n	8002d6a <SDMMC_CmdReadMultiBlock+0x5a>
 8002d42:	6b42      	ldr	r2, [r0, #52]	; 0x34
 8002d44:	f012 0f45 	tst.w	r2, #69	; 0x45
 8002d48:	d0f8      	beq.n	8002d3c <SDMMC_CmdReadMultiBlock+0x2c>
 8002d4a:	0511      	lsls	r1, r2, #20
 8002d4c:	d4f6      	bmi.n	8002d3c <SDMMC_CmdReadMultiBlock+0x2c>
 8002d4e:	6b43      	ldr	r3, [r0, #52]	; 0x34
 8002d50:	075a      	lsls	r2, r3, #29
 8002d52:	d413      	bmi.n	8002d7c <SDMMC_CmdReadMultiBlock+0x6c>
 8002d54:	6b43      	ldr	r3, [r0, #52]	; 0x34
 8002d56:	07db      	lsls	r3, r3, #31
 8002d58:	d40b      	bmi.n	8002d72 <SDMMC_CmdReadMultiBlock+0x62>
 8002d5a:	23c5      	movs	r3, #197	; 0xc5
 8002d5c:	6383      	str	r3, [r0, #56]	; 0x38
 8002d5e:	6903      	ldr	r3, [r0, #16]
 8002d60:	b2db      	uxtb	r3, r3
 8002d62:	2b12      	cmp	r3, #18
 8002d64:	d00e      	beq.n	8002d84 <SDMMC_CmdReadMultiBlock+0x74>
 8002d66:	2001      	movs	r0, #1
 8002d68:	e001      	b.n	8002d6e <SDMMC_CmdReadMultiBlock+0x5e>
 8002d6a:	f04f 4000 	mov.w	r0, #2147483648	; 0x80000000
 8002d6e:	bc10      	pop	{r4}
 8002d70:	4770      	bx	lr
 8002d72:	2301      	movs	r3, #1
 8002d74:	bc10      	pop	{r4}
 8002d76:	6383      	str	r3, [r0, #56]	; 0x38
 8002d78:	4618      	mov	r0, r3
 8002d7a:	4770      	bx	lr
 8002d7c:	2304      	movs	r3, #4
 8002d7e:	6383      	str	r3, [r0, #56]	; 0x38
 8002d80:	4618      	mov	r0, r3
 8002d82:	e7f4      	b.n	8002d6e <SDMMC_CmdReadMultiBlock+0x5e>
 8002d84:	bc10      	pop	{r4}
 8002d86:	f7ff be91 	b.w	8002aac <SDMMC_GetCmdResp1.part.2>
 8002d8a:	bf00      	nop
 8002d8c:	20000000 	.word	0x20000000
 8002d90:	10624dd3 	.word	0x10624dd3

08002d94 <SDMMC_CmdWriteSingleBlock>:
 8002d94:	f241 3388 	movw	r3, #5000	; 0x1388
 8002d98:	4a1c      	ldr	r2, [pc, #112]	; (8002e0c <SDMMC_CmdWriteSingleBlock+0x78>)
 8002d9a:	b410      	push	{r4}
 8002d9c:	6812      	ldr	r2, [r2, #0]
 8002d9e:	4c1c      	ldr	r4, [pc, #112]	; (8002e10 <SDMMC_CmdWriteSingleBlock+0x7c>)
 8002da0:	6081      	str	r1, [r0, #8]
 8002da2:	fba4 2102 	umull	r2, r1, r4, r2
 8002da6:	68c2      	ldr	r2, [r0, #12]
 8002da8:	0a49      	lsrs	r1, r1, #9
 8002daa:	f422 627f 	bic.w	r2, r2, #4080	; 0xff0
 8002dae:	fb03 f301 	mul.w	r3, r3, r1
 8002db2:	f022 020f 	bic.w	r2, r2, #15
 8002db6:	f442 628b 	orr.w	r2, r2, #1112	; 0x458
 8002dba:	60c2      	str	r2, [r0, #12]
 8002dbc:	f113 33ff 	adds.w	r3, r3, #4294967295
 8002dc0:	d313      	bcc.n	8002dea <SDMMC_CmdWriteSingleBlock+0x56>
 8002dc2:	6b42      	ldr	r2, [r0, #52]	; 0x34
 8002dc4:	f012 0f45 	tst.w	r2, #69	; 0x45
 8002dc8:	d0f8      	beq.n	8002dbc <SDMMC_CmdWriteSingleBlock+0x28>
 8002dca:	0511      	lsls	r1, r2, #20
 8002dcc:	d4f6      	bmi.n	8002dbc <SDMMC_CmdWriteSingleBlock+0x28>
 8002dce:	6b43      	ldr	r3, [r0, #52]	; 0x34
 8002dd0:	075a      	lsls	r2, r3, #29
 8002dd2:	d413      	bmi.n	8002dfc <SDMMC_CmdWriteSingleBlock+0x68>
 8002dd4:	6b43      	ldr	r3, [r0, #52]	; 0x34
 8002dd6:	07db      	lsls	r3, r3, #31
 8002dd8:	d40b      	bmi.n	8002df2 <SDMMC_CmdWriteSingleBlock+0x5e>
 8002dda:	23c5      	movs	r3, #197	; 0xc5
 8002ddc:	6383      	str	r3, [r0, #56]	; 0x38
 8002dde:	6903      	ldr	r3, [r0, #16]
 8002de0:	b2db      	uxtb	r3, r3
 8002de2:	2b18      	cmp	r3, #24
 8002de4:	d00e      	beq.n	8002e04 <SDMMC_CmdWriteSingleBlock+0x70>
 8002de6:	2001      	movs	r0, #1
 8002de8:	e001      	b.n	8002dee <SDMMC_CmdWriteSingleBlock+0x5a>
 8002dea:	f04f 4000 	mov.w	r0, #2147483648	; 0x80000000
 8002dee:	bc10      	pop	{r4}
 8002df0:	4770      	bx	lr
 8002df2:	2301      	movs	r3, #1
 8002df4:	bc10      	pop	{r4}
 8002df6:	6383      	str	r3, [r0, #56]	; 0x38
 8002df8:	4618      	mov	r0, r3
 8002dfa:	4770      	bx	lr
 8002dfc:	2304      	movs	r3, #4
 8002dfe:	6383      	str	r3, [r0, #56]	; 0x38
 8002e00:	4618      	mov	r0, r3
 8002e02:	e7f4      	b.n	8002dee <SDMMC_CmdWriteSingleBlock+0x5a>
 8002e04:	bc10      	pop	{r4}
 8002e06:	f7ff be51 	b.w	8002aac <SDMMC_GetCmdResp1.part.2>
 8002e0a:	bf00      	nop
 8002e0c:	20000000 	.word	0x20000000
 8002e10:	10624dd3 	.word	0x10624dd3

08002e14 <SDMMC_CmdWriteMultiBlock>:
 8002e14:	f241 3388 	movw	r3, #5000	; 0x1388
 8002e18:	4a1d      	ldr	r2, [pc, #116]	; (8002e90 <SDMMC_CmdWriteMultiBlock+0x7c>)
 8002e1a:	b410      	push	{r4}
 8002e1c:	6812      	ldr	r2, [r2, #0]
 8002e1e:	4c1d      	ldr	r4, [pc, #116]	; (8002e94 <SDMMC_CmdWriteMultiBlock+0x80>)
 8002e20:	6081      	str	r1, [r0, #8]
 8002e22:	fba4 2102 	umull	r2, r1, r4, r2
 8002e26:	68c2      	ldr	r2, [r0, #12]
 8002e28:	0a49      	lsrs	r1, r1, #9
 8002e2a:	f422 627f 	bic.w	r2, r2, #4080	; 0xff0
 8002e2e:	f022 020f 	bic.w	r2, r2, #15
 8002e32:	fb03 f301 	mul.w	r3, r3, r1
 8002e36:	f442 628b 	orr.w	r2, r2, #1112	; 0x458
 8002e3a:	f042 0201 	orr.w	r2, r2, #1
 8002e3e:	60c2      	str	r2, [r0, #12]
 8002e40:	f113 33ff 	adds.w	r3, r3, #4294967295
 8002e44:	d313      	bcc.n	8002e6e <SDMMC_CmdWriteMultiBlock+0x5a>
 8002e46:	6b42      	ldr	r2, [r0, #52]	; 0x34
 8002e48:	f012 0f45 	tst.w	r2, #69	; 0x45
 8002e4c:	d0f8      	beq.n	8002e40 <SDMMC_CmdWriteMultiBlock+0x2c>
 8002e4e:	0511      	lsls	r1, r2, #20
 8002e50:	d4f6      	bmi.n	8002e40 <SDMMC_CmdWriteMultiBlock+0x2c>
 8002e52:	6b43      	ldr	r3, [r0, #52]	; 0x34
 8002e54:	075a      	lsls	r2, r3, #29
 8002e56:	d413      	bmi.n	8002e80 <SDMMC_CmdWriteMultiBlock+0x6c>
 8002e58:	6b43      	ldr	r3, [r0, #52]	; 0x34
 8002e5a:	07db      	lsls	r3, r3, #31
 8002e5c:	d40b      	bmi.n	8002e76 <SDMMC_CmdWriteMultiBlock+0x62>
 8002e5e:	23c5      	movs	r3, #197	; 0xc5
 8002e60:	6383      	str	r3, [r0, #56]	; 0x38
 8002e62:	6903      	ldr	r3, [r0, #16]
 8002e64:	b2db      	uxtb	r3, r3
 8002e66:	2b19      	cmp	r3, #25
 8002e68:	d00e      	beq.n	8002e88 <SDMMC_CmdWriteMultiBlock+0x74>
 8002e6a:	2001      	movs	r0, #1
 8002e6c:	e001      	b.n	8002e72 <SDMMC_CmdWriteMultiBlock+0x5e>
 8002e6e:	f04f 4000 	mov.w	r0, #2147483648	; 0x80000000
 8002e72:	bc10      	pop	{r4}
 8002e74:	4770      	bx	lr
 8002e76:	2301      	movs	r3, #1
 8002e78:	bc10      	pop	{r4}
 8002e7a:	6383      	str	r3, [r0, #56]	; 0x38
 8002e7c:	4618      	mov	r0, r3
 8002e7e:	4770      	bx	lr
 8002e80:	2304      	movs	r3, #4
 8002e82:	6383      	str	r3, [r0, #56]	; 0x38
 8002e84:	4618      	mov	r0, r3
 8002e86:	e7f4      	b.n	8002e72 <SDMMC_CmdWriteMultiBlock+0x5e>
 8002e88:	bc10      	pop	{r4}
 8002e8a:	f7ff be0f 	b.w	8002aac <SDMMC_GetCmdResp1.part.2>
 8002e8e:	bf00      	nop
 8002e90:	20000000 	.word	0x20000000
 8002e94:	10624dd3 	.word	0x10624dd3

08002e98 <SDMMC_CmdStopTransfer>:
 8002e98:	2200      	movs	r2, #0
 8002e9a:	4b1b      	ldr	r3, [pc, #108]	; (8002f08 <SDMMC_CmdStopTransfer+0x70>)
 8002e9c:	6082      	str	r2, [r0, #8]
 8002e9e:	6819      	ldr	r1, [r3, #0]
 8002ea0:	4b1a      	ldr	r3, [pc, #104]	; (8002f0c <SDMMC_CmdStopTransfer+0x74>)
 8002ea2:	68c2      	ldr	r2, [r0, #12]
 8002ea4:	fba3 3101 	umull	r3, r1, r3, r1
 8002ea8:	4b19      	ldr	r3, [pc, #100]	; (8002f10 <SDMMC_CmdStopTransfer+0x78>)
 8002eaa:	f422 627f 	bic.w	r2, r2, #4080	; 0xff0
 8002eae:	0a49      	lsrs	r1, r1, #9
 8002eb0:	f022 020f 	bic.w	r2, r2, #15
 8002eb4:	fb03 f301 	mul.w	r3, r3, r1
 8002eb8:	f442 6289 	orr.w	r2, r2, #1096	; 0x448
 8002ebc:	f042 0204 	orr.w	r2, r2, #4
 8002ec0:	60c2      	str	r2, [r0, #12]
 8002ec2:	b1a3      	cbz	r3, 8002eee <SDMMC_CmdStopTransfer+0x56>
 8002ec4:	6b42      	ldr	r2, [r0, #52]	; 0x34
 8002ec6:	3b01      	subs	r3, #1
 8002ec8:	f012 0f45 	tst.w	r2, #69	; 0x45
 8002ecc:	d0f9      	beq.n	8002ec2 <SDMMC_CmdStopTransfer+0x2a>
 8002ece:	0511      	lsls	r1, r2, #20
 8002ed0:	d4f7      	bmi.n	8002ec2 <SDMMC_CmdStopTransfer+0x2a>
 8002ed2:	6b43      	ldr	r3, [r0, #52]	; 0x34
 8002ed4:	075a      	lsls	r2, r3, #29
 8002ed6:	d411      	bmi.n	8002efc <SDMMC_CmdStopTransfer+0x64>
 8002ed8:	6b43      	ldr	r3, [r0, #52]	; 0x34
 8002eda:	07db      	lsls	r3, r3, #31
 8002edc:	d40a      	bmi.n	8002ef4 <SDMMC_CmdStopTransfer+0x5c>
 8002ede:	23c5      	movs	r3, #197	; 0xc5
 8002ee0:	6383      	str	r3, [r0, #56]	; 0x38
 8002ee2:	6903      	ldr	r3, [r0, #16]
 8002ee4:	b2db      	uxtb	r3, r3
 8002ee6:	2b0c      	cmp	r3, #12
 8002ee8:	d00c      	beq.n	8002f04 <SDMMC_CmdStopTransfer+0x6c>
 8002eea:	2001      	movs	r0, #1
 8002eec:	4770      	bx	lr
 8002eee:	f04f 4000 	mov.w	r0, #2147483648	; 0x80000000
 8002ef2:	4770      	bx	lr
 8002ef4:	2301      	movs	r3, #1
 8002ef6:	6383      	str	r3, [r0, #56]	; 0x38
 8002ef8:	4618      	mov	r0, r3
 8002efa:	4770      	bx	lr
 8002efc:	2304      	movs	r3, #4
 8002efe:	6383      	str	r3, [r0, #56]	; 0x38
 8002f00:	4618      	mov	r0, r3
 8002f02:	4770      	bx	lr
 8002f04:	f7ff bdd2 	b.w	8002aac <SDMMC_GetCmdResp1.part.2>
 8002f08:	20000000 	.word	0x20000000
 8002f0c:	10624dd3 	.word	0x10624dd3
 8002f10:	05f5e100 	.word	0x05f5e100

08002f14 <SDMMC_CmdSelDesel>:
 8002f14:	f241 3388 	movw	r3, #5000	; 0x1388
 8002f18:	491d      	ldr	r1, [pc, #116]	; (8002f90 <SDMMC_CmdSelDesel+0x7c>)
 8002f1a:	b410      	push	{r4}
 8002f1c:	6809      	ldr	r1, [r1, #0]
 8002f1e:	4c1d      	ldr	r4, [pc, #116]	; (8002f94 <SDMMC_CmdSelDesel+0x80>)
 8002f20:	6082      	str	r2, [r0, #8]
 8002f22:	fba4 2101 	umull	r2, r1, r4, r1
 8002f26:	68c2      	ldr	r2, [r0, #12]
 8002f28:	0a49      	lsrs	r1, r1, #9
 8002f2a:	f422 627f 	bic.w	r2, r2, #4080	; 0xff0
 8002f2e:	f022 020f 	bic.w	r2, r2, #15
 8002f32:	fb03 f301 	mul.w	r3, r3, r1
 8002f36:	f442 6288 	orr.w	r2, r2, #1088	; 0x440
 8002f3a:	f042 0207 	orr.w	r2, r2, #7
 8002f3e:	60c2      	str	r2, [r0, #12]
 8002f40:	f113 33ff 	adds.w	r3, r3, #4294967295
 8002f44:	d313      	bcc.n	8002f6e <SDMMC_CmdSelDesel+0x5a>
 8002f46:	6b42      	ldr	r2, [r0, #52]	; 0x34
 8002f48:	f012 0f45 	tst.w	r2, #69	; 0x45
 8002f4c:	d0f8      	beq.n	8002f40 <SDMMC_CmdSelDesel+0x2c>
 8002f4e:	0511      	lsls	r1, r2, #20
 8002f50:	d4f6      	bmi.n	8002f40 <SDMMC_CmdSelDesel+0x2c>
 8002f52:	6b43      	ldr	r3, [r0, #52]	; 0x34
 8002f54:	075a      	lsls	r2, r3, #29
 8002f56:	d413      	bmi.n	8002f80 <SDMMC_CmdSelDesel+0x6c>
 8002f58:	6b43      	ldr	r3, [r0, #52]	; 0x34
 8002f5a:	07db      	lsls	r3, r3, #31
 8002f5c:	d40b      	bmi.n	8002f76 <SDMMC_CmdSelDesel+0x62>
 8002f5e:	23c5      	movs	r3, #197	; 0xc5
 8002f60:	6383      	str	r3, [r0, #56]	; 0x38
 8002f62:	6903      	ldr	r3, [r0, #16]
 8002f64:	b2db      	uxtb	r3, r3
 8002f66:	2b07      	cmp	r3, #7
 8002f68:	d00e      	beq.n	8002f88 <SDMMC_CmdSelDesel+0x74>
 8002f6a:	2001      	movs	r0, #1
 8002f6c:	e001      	b.n	8002f72 <SDMMC_CmdSelDesel+0x5e>
 8002f6e:	f04f 4000 	mov.w	r0, #2147483648	; 0x80000000
 8002f72:	bc10      	pop	{r4}
 8002f74:	4770      	bx	lr
 8002f76:	2301      	movs	r3, #1
 8002f78:	bc10      	pop	{r4}
 8002f7a:	6383      	str	r3, [r0, #56]	; 0x38
 8002f7c:	4618      	mov	r0, r3
 8002f7e:	4770      	bx	lr
 8002f80:	2304      	movs	r3, #4
 8002f82:	6383      	str	r3, [r0, #56]	; 0x38
 8002f84:	4618      	mov	r0, r3
 8002f86:	e7f4      	b.n	8002f72 <SDMMC_CmdSelDesel+0x5e>
 8002f88:	bc10      	pop	{r4}
 8002f8a:	f7ff bd8f 	b.w	8002aac <SDMMC_GetCmdResp1.part.2>
 8002f8e:	bf00      	nop
 8002f90:	20000000 	.word	0x20000000
 8002f94:	10624dd3 	.word	0x10624dd3

08002f98 <SDMMC_CmdGoIdleState>:
 8002f98:	4601      	mov	r1, r0
 8002f9a:	b410      	push	{r4}
 8002f9c:	2400      	movs	r4, #0
 8002f9e:	f241 3388 	movw	r3, #5000	; 0x1388
 8002fa2:	4810      	ldr	r0, [pc, #64]	; (8002fe4 <SDMMC_CmdGoIdleState+0x4c>)
 8002fa4:	4a10      	ldr	r2, [pc, #64]	; (8002fe8 <SDMMC_CmdGoIdleState+0x50>)
 8002fa6:	6800      	ldr	r0, [r0, #0]
 8002fa8:	608c      	str	r4, [r1, #8]
 8002faa:	fba2 2000 	umull	r2, r0, r2, r0
 8002fae:	68ca      	ldr	r2, [r1, #12]
 8002fb0:	0a40      	lsrs	r0, r0, #9
 8002fb2:	f422 627f 	bic.w	r2, r2, #4080	; 0xff0
 8002fb6:	f022 020f 	bic.w	r2, r2, #15
 8002fba:	f442 6280 	orr.w	r2, r2, #1024	; 0x400
 8002fbe:	fb03 f300 	mul.w	r3, r3, r0
 8002fc2:	60ca      	str	r2, [r1, #12]
 8002fc4:	e002      	b.n	8002fcc <SDMMC_CmdGoIdleState+0x34>
 8002fc6:	6b4a      	ldr	r2, [r1, #52]	; 0x34
 8002fc8:	0612      	lsls	r2, r2, #24
 8002fca:	d406      	bmi.n	8002fda <SDMMC_CmdGoIdleState+0x42>
 8002fcc:	f113 33ff 	adds.w	r3, r3, #4294967295
 8002fd0:	d2f9      	bcs.n	8002fc6 <SDMMC_CmdGoIdleState+0x2e>
 8002fd2:	f04f 4000 	mov.w	r0, #2147483648	; 0x80000000
 8002fd6:	bc10      	pop	{r4}
 8002fd8:	4770      	bx	lr
 8002fda:	23c5      	movs	r3, #197	; 0xc5
 8002fdc:	2000      	movs	r0, #0
 8002fde:	638b      	str	r3, [r1, #56]	; 0x38
 8002fe0:	bc10      	pop	{r4}
 8002fe2:	4770      	bx	lr
 8002fe4:	20000000 	.word	0x20000000
 8002fe8:	10624dd3 	.word	0x10624dd3

08002fec <SDMMC_CmdOperCond>:
 8002fec:	4601      	mov	r1, r0
 8002fee:	b410      	push	{r4}
 8002ff0:	f44f 74d5 	mov.w	r4, #426	; 0x1aa
 8002ff4:	f241 3388 	movw	r3, #5000	; 0x1388
 8002ff8:	481a      	ldr	r0, [pc, #104]	; (8003064 <SDMMC_CmdOperCond+0x78>)
 8002ffa:	4a1b      	ldr	r2, [pc, #108]	; (8003068 <SDMMC_CmdOperCond+0x7c>)
 8002ffc:	6800      	ldr	r0, [r0, #0]
 8002ffe:	608c      	str	r4, [r1, #8]
 8003000:	fba2 2000 	umull	r2, r0, r2, r0
 8003004:	68ca      	ldr	r2, [r1, #12]
 8003006:	0a40      	lsrs	r0, r0, #9
 8003008:	f422 627f 	bic.w	r2, r2, #4080	; 0xff0
 800300c:	fb03 f300 	mul.w	r3, r3, r0
 8003010:	f022 020f 	bic.w	r2, r2, #15
 8003014:	f442 6289 	orr.w	r2, r2, #1096	; 0x448
 8003018:	60ca      	str	r2, [r1, #12]
 800301a:	f113 33ff 	adds.w	r3, r3, #4294967295
 800301e:	d313      	bcc.n	8003048 <SDMMC_CmdOperCond+0x5c>
 8003020:	6b4a      	ldr	r2, [r1, #52]	; 0x34
 8003022:	f012 0f45 	tst.w	r2, #69	; 0x45
 8003026:	d0f8      	beq.n	800301a <SDMMC_CmdOperCond+0x2e>
 8003028:	0512      	lsls	r2, r2, #20
 800302a:	d4f6      	bmi.n	800301a <SDMMC_CmdOperCond+0x2e>
 800302c:	6b4b      	ldr	r3, [r1, #52]	; 0x34
 800302e:	075b      	lsls	r3, r3, #29
 8003030:	d412      	bmi.n	8003058 <SDMMC_CmdOperCond+0x6c>
 8003032:	6b48      	ldr	r0, [r1, #52]	; 0x34
 8003034:	f010 0001 	ands.w	r0, r0, #1
 8003038:	d10a      	bne.n	8003050 <SDMMC_CmdOperCond+0x64>
 800303a:	6b4b      	ldr	r3, [r1, #52]	; 0x34
 800303c:	f013 0340 	ands.w	r3, r3, #64	; 0x40
 8003040:	d00d      	beq.n	800305e <SDMMC_CmdOperCond+0x72>
 8003042:	2340      	movs	r3, #64	; 0x40
 8003044:	638b      	str	r3, [r1, #56]	; 0x38
 8003046:	e001      	b.n	800304c <SDMMC_CmdOperCond+0x60>
 8003048:	f04f 4000 	mov.w	r0, #2147483648	; 0x80000000
 800304c:	bc10      	pop	{r4}
 800304e:	4770      	bx	lr
 8003050:	2001      	movs	r0, #1
 8003052:	6388      	str	r0, [r1, #56]	; 0x38
 8003054:	bc10      	pop	{r4}
 8003056:	4770      	bx	lr
 8003058:	2004      	movs	r0, #4
 800305a:	6388      	str	r0, [r1, #56]	; 0x38
 800305c:	e7f6      	b.n	800304c <SDMMC_CmdOperCond+0x60>
 800305e:	4618      	mov	r0, r3
 8003060:	e7f4      	b.n	800304c <SDMMC_CmdOperCond+0x60>
 8003062:	bf00      	nop
 8003064:	20000000 	.word	0x20000000
 8003068:	10624dd3 	.word	0x10624dd3

0800306c <SDMMC_CmdAppCommand>:
 800306c:	f241 3388 	movw	r3, #5000	; 0x1388
 8003070:	4a1d      	ldr	r2, [pc, #116]	; (80030e8 <SDMMC_CmdAppCommand+0x7c>)
 8003072:	b410      	push	{r4}
 8003074:	6812      	ldr	r2, [r2, #0]
 8003076:	4c1d      	ldr	r4, [pc, #116]	; (80030ec <SDMMC_CmdAppCommand+0x80>)
 8003078:	6081      	str	r1, [r0, #8]
 800307a:	fba4 2102 	umull	r2, r1, r4, r2
 800307e:	68c2      	ldr	r2, [r0, #12]
 8003080:	0a49      	lsrs	r1, r1, #9
 8003082:	f422 627f 	bic.w	r2, r2, #4080	; 0xff0
 8003086:	f022 020f 	bic.w	r2, r2, #15
 800308a:	fb03 f301 	mul.w	r3, r3, r1
 800308e:	f442 628e 	orr.w	r2, r2, #1136	; 0x470
 8003092:	f042 0207 	orr.w	r2, r2, #7
 8003096:	60c2      	str	r2, [r0, #12]
 8003098:	f113 33ff 	adds.w	r3, r3, #4294967295
 800309c:	d313      	bcc.n	80030c6 <SDMMC_CmdAppCommand+0x5a>
 800309e:	6b42      	ldr	r2, [r0, #52]	; 0x34
 80030a0:	f012 0f45 	tst.w	r2, #69	; 0x45
 80030a4:	d0f8      	beq.n	8003098 <SDMMC_CmdAppCommand+0x2c>
 80030a6:	0511      	lsls	r1, r2, #20
 80030a8:	d4f6      	bmi.n	8003098 <SDMMC_CmdAppCommand+0x2c>
 80030aa:	6b43      	ldr	r3, [r0, #52]	; 0x34
 80030ac:	075a      	lsls	r2, r3, #29
 80030ae:	d413      	bmi.n	80030d8 <SDMMC_CmdAppCommand+0x6c>
 80030b0:	6b43      	ldr	r3, [r0, #52]	; 0x34
 80030b2:	07db      	lsls	r3, r3, #31
 80030b4:	d40b      	bmi.n	80030ce <SDMMC_CmdAppCommand+0x62>
 80030b6:	23c5      	movs	r3, #197	; 0xc5
 80030b8:	6383      	str	r3, [r0, #56]	; 0x38
 80030ba:	6903      	ldr	r3, [r0, #16]
 80030bc:	b2db      	uxtb	r3, r3
 80030be:	2b37      	cmp	r3, #55	; 0x37
 80030c0:	d00e      	beq.n	80030e0 <SDMMC_CmdAppCommand+0x74>
 80030c2:	2001      	movs	r0, #1
 80030c4:	e001      	b.n	80030ca <SDMMC_CmdAppCommand+0x5e>
 80030c6:	f04f 4000 	mov.w	r0, #2147483648	; 0x80000000
 80030ca:	bc10      	pop	{r4}
 80030cc:	4770      	bx	lr
 80030ce:	2301      	movs	r3, #1
 80030d0:	bc10      	pop	{r4}
 80030d2:	6383      	str	r3, [r0, #56]	; 0x38
 80030d4:	4618      	mov	r0, r3
 80030d6:	4770      	bx	lr
 80030d8:	2304      	movs	r3, #4
 80030da:	6383      	str	r3, [r0, #56]	; 0x38
 80030dc:	4618      	mov	r0, r3
 80030de:	e7f4      	b.n	80030ca <SDMMC_CmdAppCommand+0x5e>
 80030e0:	bc10      	pop	{r4}
 80030e2:	f7ff bce3 	b.w	8002aac <SDMMC_GetCmdResp1.part.2>
 80030e6:	bf00      	nop
 80030e8:	20000000 	.word	0x20000000
 80030ec:	10624dd3 	.word	0x10624dd3

080030f0 <SDMMC_CmdAppOperCommand>:
 80030f0:	b430      	push	{r4, r5}
 80030f2:	4604      	mov	r4, r0
 80030f4:	f241 3388 	movw	r3, #5000	; 0x1388
 80030f8:	4a16      	ldr	r2, [pc, #88]	; (8003154 <SDMMC_CmdAppOperCommand+0x64>)
 80030fa:	4d17      	ldr	r5, [pc, #92]	; (8003158 <SDMMC_CmdAppOperCommand+0x68>)
 80030fc:	6812      	ldr	r2, [r2, #0]
 80030fe:	f041 4000 	orr.w	r0, r1, #2147483648	; 0x80000000
 8003102:	f440 1080 	orr.w	r0, r0, #1048576	; 0x100000
 8003106:	fba5 2102 	umull	r2, r1, r5, r2
 800310a:	60a0      	str	r0, [r4, #8]
 800310c:	68e2      	ldr	r2, [r4, #12]
 800310e:	0a49      	lsrs	r1, r1, #9
 8003110:	f422 627f 	bic.w	r2, r2, #4080	; 0xff0
 8003114:	f022 020f 	bic.w	r2, r2, #15
 8003118:	fb03 f301 	mul.w	r3, r3, r1
 800311c:	f442 628d 	orr.w	r2, r2, #1128	; 0x468
 8003120:	f042 0201 	orr.w	r2, r2, #1
 8003124:	60e2      	str	r2, [r4, #12]
 8003126:	f113 33ff 	adds.w	r3, r3, #4294967295
 800312a:	d30f      	bcc.n	800314c <SDMMC_CmdAppOperCommand+0x5c>
 800312c:	6b62      	ldr	r2, [r4, #52]	; 0x34
 800312e:	f012 0f45 	tst.w	r2, #69	; 0x45
 8003132:	d0f8      	beq.n	8003126 <SDMMC_CmdAppOperCommand+0x36>
 8003134:	0512      	lsls	r2, r2, #20
 8003136:	d4f6      	bmi.n	8003126 <SDMMC_CmdAppOperCommand+0x36>
 8003138:	6b60      	ldr	r0, [r4, #52]	; 0x34
 800313a:	f010 0004 	ands.w	r0, r0, #4
 800313e:	bf15      	itete	ne
 8003140:	2004      	movne	r0, #4
 8003142:	23c5      	moveq	r3, #197	; 0xc5
 8003144:	63a0      	strne	r0, [r4, #56]	; 0x38
 8003146:	63a3      	streq	r3, [r4, #56]	; 0x38
 8003148:	bc30      	pop	{r4, r5}
 800314a:	4770      	bx	lr
 800314c:	f04f 4000 	mov.w	r0, #2147483648	; 0x80000000
 8003150:	bc30      	pop	{r4, r5}
 8003152:	4770      	bx	lr
 8003154:	20000000 	.word	0x20000000
 8003158:	10624dd3 	.word	0x10624dd3

0800315c <SDMMC_CmdBusWidth>:
 800315c:	f241 3388 	movw	r3, #5000	; 0x1388
 8003160:	4a1d      	ldr	r2, [pc, #116]	; (80031d8 <SDMMC_CmdBusWidth+0x7c>)
 8003162:	b410      	push	{r4}
 8003164:	6812      	ldr	r2, [r2, #0]
 8003166:	4c1d      	ldr	r4, [pc, #116]	; (80031dc <SDMMC_CmdBusWidth+0x80>)
 8003168:	6081      	str	r1, [r0, #8]
 800316a:	fba4 2102 	umull	r2, r1, r4, r2
 800316e:	68c2      	ldr	r2, [r0, #12]
 8003170:	0a49      	lsrs	r1, r1, #9
 8003172:	f422 627f 	bic.w	r2, r2, #4080	; 0xff0
 8003176:	f022 020f 	bic.w	r2, r2, #15
 800317a:	fb03 f301 	mul.w	r3, r3, r1
 800317e:	f442 6288 	orr.w	r2, r2, #1088	; 0x440
 8003182:	f042 0206 	orr.w	r2, r2, #6
 8003186:	60c2      	str	r2, [r0, #12]
 8003188:	f113 33ff 	adds.w	r3, r3, #4294967295
 800318c:	d313      	bcc.n	80031b6 <SDMMC_CmdBusWidth+0x5a>
 800318e:	6b42      	ldr	r2, [r0, #52]	; 0x34
 8003190:	f012 0f45 	tst.w	r2, #69	; 0x45
 8003194:	d0f8      	beq.n	8003188 <SDMMC_CmdBusWidth+0x2c>
 8003196:	0511      	lsls	r1, r2, #20
 8003198:	d4f6      	bmi.n	8003188 <SDMMC_CmdBusWidth+0x2c>
 800319a:	6b43      	ldr	r3, [r0, #52]	; 0x34
 800319c:	075a      	lsls	r2, r3, #29
 800319e:	d413      	bmi.n	80031c8 <SDMMC_CmdBusWidth+0x6c>
 80031a0:	6b43      	ldr	r3, [r0, #52]	; 0x34
 80031a2:	07db      	lsls	r3, r3, #31
 80031a4:	d40b      	bmi.n	80031be <SDMMC_CmdBusWidth+0x62>
 80031a6:	23c5      	movs	r3, #197	; 0xc5
 80031a8:	6383      	str	r3, [r0, #56]	; 0x38
 80031aa:	6903      	ldr	r3, [r0, #16]
 80031ac:	b2db      	uxtb	r3, r3
 80031ae:	2b06      	cmp	r3, #6
 80031b0:	d00e      	beq.n	80031d0 <SDMMC_CmdBusWidth+0x74>
 80031b2:	2001      	movs	r0, #1
 80031b4:	e001      	b.n	80031ba <SDMMC_CmdBusWidth+0x5e>
 80031b6:	f04f 4000 	mov.w	r0, #2147483648	; 0x80000000
 80031ba:	bc10      	pop	{r4}
 80031bc:	4770      	bx	lr
 80031be:	2301      	movs	r3, #1
 80031c0:	bc10      	pop	{r4}
 80031c2:	6383      	str	r3, [r0, #56]	; 0x38
 80031c4:	4618      	mov	r0, r3
 80031c6:	4770      	bx	lr
 80031c8:	2304      	movs	r3, #4
 80031ca:	6383      	str	r3, [r0, #56]	; 0x38
 80031cc:	4618      	mov	r0, r3
 80031ce:	e7f4      	b.n	80031ba <SDMMC_CmdBusWidth+0x5e>
 80031d0:	bc10      	pop	{r4}
 80031d2:	f7ff bc6b 	b.w	8002aac <SDMMC_GetCmdResp1.part.2>
 80031d6:	bf00      	nop
 80031d8:	20000000 	.word	0x20000000
 80031dc:	10624dd3 	.word	0x10624dd3

080031e0 <SDMMC_CmdSendSCR>:
 80031e0:	b410      	push	{r4}
 80031e2:	2400      	movs	r4, #0
 80031e4:	f241 3388 	movw	r3, #5000	; 0x1388
 80031e8:	491c      	ldr	r1, [pc, #112]	; (800325c <SDMMC_CmdSendSCR+0x7c>)
 80031ea:	4a1d      	ldr	r2, [pc, #116]	; (8003260 <SDMMC_CmdSendSCR+0x80>)
 80031ec:	6809      	ldr	r1, [r1, #0]
 80031ee:	6084      	str	r4, [r0, #8]
 80031f0:	fba2 2101 	umull	r2, r1, r2, r1
 80031f4:	68c2      	ldr	r2, [r0, #12]
 80031f6:	0a49      	lsrs	r1, r1, #9
 80031f8:	f422 627f 	bic.w	r2, r2, #4080	; 0xff0
 80031fc:	f022 020f 	bic.w	r2, r2, #15
 8003200:	fb03 f301 	mul.w	r3, r3, r1
 8003204:	f442 628e 	orr.w	r2, r2, #1136	; 0x470
 8003208:	f042 0203 	orr.w	r2, r2, #3
 800320c:	60c2      	str	r2, [r0, #12]
 800320e:	f113 33ff 	adds.w	r3, r3, #4294967295
 8003212:	d313      	bcc.n	800323c <SDMMC_CmdSendSCR+0x5c>
 8003214:	6b42      	ldr	r2, [r0, #52]	; 0x34
 8003216:	f012 0f45 	tst.w	r2, #69	; 0x45
 800321a:	d0f8      	beq.n	800320e <SDMMC_CmdSendSCR+0x2e>
 800321c:	0511      	lsls	r1, r2, #20
 800321e:	d4f6      	bmi.n	800320e <SDMMC_CmdSendSCR+0x2e>
 8003220:	6b43      	ldr	r3, [r0, #52]	; 0x34
 8003222:	075a      	lsls	r2, r3, #29
 8003224:	d413      	bmi.n	800324e <SDMMC_CmdSendSCR+0x6e>
 8003226:	6b43      	ldr	r3, [r0, #52]	; 0x34
 8003228:	07db      	lsls	r3, r3, #31
 800322a:	d40b      	bmi.n	8003244 <SDMMC_CmdSendSCR+0x64>
 800322c:	23c5      	movs	r3, #197	; 0xc5
 800322e:	6383      	str	r3, [r0, #56]	; 0x38
 8003230:	6903      	ldr	r3, [r0, #16]
 8003232:	b2db      	uxtb	r3, r3
 8003234:	2b33      	cmp	r3, #51	; 0x33
 8003236:	d00e      	beq.n	8003256 <SDMMC_CmdSendSCR+0x76>
 8003238:	2001      	movs	r0, #1
 800323a:	e001      	b.n	8003240 <SDMMC_CmdSendSCR+0x60>
 800323c:	f04f 4000 	mov.w	r0, #2147483648	; 0x80000000
 8003240:	bc10      	pop	{r4}
 8003242:	4770      	bx	lr
 8003244:	2301      	movs	r3, #1
 8003246:	bc10      	pop	{r4}
 8003248:	6383      	str	r3, [r0, #56]	; 0x38
 800324a:	4618      	mov	r0, r3
 800324c:	4770      	bx	lr
 800324e:	2304      	movs	r3, #4
 8003250:	6383      	str	r3, [r0, #56]	; 0x38
 8003252:	4618      	mov	r0, r3
 8003254:	e7f4      	b.n	8003240 <SDMMC_CmdSendSCR+0x60>
 8003256:	bc10      	pop	{r4}
 8003258:	f7ff bc28 	b.w	8002aac <SDMMC_GetCmdResp1.part.2>
 800325c:	20000000 	.word	0x20000000
 8003260:	10624dd3 	.word	0x10624dd3

08003264 <SDMMC_CmdSendCID>:
 8003264:	4601      	mov	r1, r0
 8003266:	b410      	push	{r4}
 8003268:	2400      	movs	r4, #0
 800326a:	f241 3388 	movw	r3, #5000	; 0x1388
 800326e:	4818      	ldr	r0, [pc, #96]	; (80032d0 <SDMMC_CmdSendCID+0x6c>)
 8003270:	4a18      	ldr	r2, [pc, #96]	; (80032d4 <SDMMC_CmdSendCID+0x70>)
 8003272:	6800      	ldr	r0, [r0, #0]
 8003274:	608c      	str	r4, [r1, #8]
 8003276:	fba2 2000 	umull	r2, r0, r2, r0
 800327a:	68ca      	ldr	r2, [r1, #12]
 800327c:	0a40      	lsrs	r0, r0, #9
 800327e:	f422 627f 	bic.w	r2, r2, #4080	; 0xff0
 8003282:	f022 020f 	bic.w	r2, r2, #15
 8003286:	fb03 f300 	mul.w	r3, r3, r0
 800328a:	f442 6298 	orr.w	r2, r2, #1216	; 0x4c0
 800328e:	f042 0202 	orr.w	r2, r2, #2
 8003292:	60ca      	str	r2, [r1, #12]
 8003294:	f113 33ff 	adds.w	r3, r3, #4294967295
 8003298:	d312      	bcc.n	80032c0 <SDMMC_CmdSendCID+0x5c>
 800329a:	6b4a      	ldr	r2, [r1, #52]	; 0x34
 800329c:	f012 0f45 	tst.w	r2, #69	; 0x45
 80032a0:	d0f8      	beq.n	8003294 <SDMMC_CmdSendCID+0x30>
 80032a2:	0512      	lsls	r2, r2, #20
 80032a4:	d4f6      	bmi.n	8003294 <SDMMC_CmdSendCID+0x30>
 80032a6:	6b4b      	ldr	r3, [r1, #52]	; 0x34
 80032a8:	075b      	lsls	r3, r3, #29
 80032aa:	d40d      	bmi.n	80032c8 <SDMMC_CmdSendCID+0x64>
 80032ac:	6b48      	ldr	r0, [r1, #52]	; 0x34
 80032ae:	bc10      	pop	{r4}
 80032b0:	f010 0001 	ands.w	r0, r0, #1
 80032b4:	bf15      	itete	ne
 80032b6:	2001      	movne	r0, #1
 80032b8:	23c5      	moveq	r3, #197	; 0xc5
 80032ba:	6388      	strne	r0, [r1, #56]	; 0x38
 80032bc:	638b      	streq	r3, [r1, #56]	; 0x38
 80032be:	4770      	bx	lr
 80032c0:	f04f 4000 	mov.w	r0, #2147483648	; 0x80000000
 80032c4:	bc10      	pop	{r4}
 80032c6:	4770      	bx	lr
 80032c8:	2004      	movs	r0, #4
 80032ca:	6388      	str	r0, [r1, #56]	; 0x38
 80032cc:	e7fa      	b.n	80032c4 <SDMMC_CmdSendCID+0x60>
 80032ce:	bf00      	nop
 80032d0:	20000000 	.word	0x20000000
 80032d4:	10624dd3 	.word	0x10624dd3

080032d8 <SDMMC_CmdSendCSD>:
 80032d8:	b410      	push	{r4}
 80032da:	4604      	mov	r4, r0
 80032dc:	f241 3388 	movw	r3, #5000	; 0x1388
 80032e0:	4a17      	ldr	r2, [pc, #92]	; (8003340 <SDMMC_CmdSendCSD+0x68>)
 80032e2:	4818      	ldr	r0, [pc, #96]	; (8003344 <SDMMC_CmdSendCSD+0x6c>)
 80032e4:	6812      	ldr	r2, [r2, #0]
 80032e6:	60a1      	str	r1, [r4, #8]
 80032e8:	fba0 2102 	umull	r2, r1, r0, r2
 80032ec:	68e2      	ldr	r2, [r4, #12]
 80032ee:	0a49      	lsrs	r1, r1, #9
 80032f0:	f422 627f 	bic.w	r2, r2, #4080	; 0xff0
 80032f4:	f022 020f 	bic.w	r2, r2, #15
 80032f8:	fb03 f301 	mul.w	r3, r3, r1
 80032fc:	f442 6299 	orr.w	r2, r2, #1224	; 0x4c8
 8003300:	f042 0201 	orr.w	r2, r2, #1
 8003304:	60e2      	str	r2, [r4, #12]
 8003306:	f113 33ff 	adds.w	r3, r3, #4294967295
 800330a:	d312      	bcc.n	8003332 <SDMMC_CmdSendCSD+0x5a>
 800330c:	6b62      	ldr	r2, [r4, #52]	; 0x34
 800330e:	f012 0f45 	tst.w	r2, #69	; 0x45
 8003312:	d0f8      	beq.n	8003306 <SDMMC_CmdSendCSD+0x2e>
 8003314:	0512      	lsls	r2, r2, #20
 8003316:	d4f6      	bmi.n	8003306 <SDMMC_CmdSendCSD+0x2e>
 8003318:	6b63      	ldr	r3, [r4, #52]	; 0x34
 800331a:	075b      	lsls	r3, r3, #29
 800331c:	d40d      	bmi.n	800333a <SDMMC_CmdSendCSD+0x62>
 800331e:	6b60      	ldr	r0, [r4, #52]	; 0x34
 8003320:	f010 0001 	ands.w	r0, r0, #1
 8003324:	bf15      	itete	ne
 8003326:	2001      	movne	r0, #1
 8003328:	23c5      	moveq	r3, #197	; 0xc5
 800332a:	63a0      	strne	r0, [r4, #56]	; 0x38
 800332c:	63a3      	streq	r3, [r4, #56]	; 0x38
 800332e:	bc10      	pop	{r4}
 8003330:	4770      	bx	lr
 8003332:	f04f 4000 	mov.w	r0, #2147483648	; 0x80000000
 8003336:	bc10      	pop	{r4}
 8003338:	4770      	bx	lr
 800333a:	2004      	movs	r0, #4
 800333c:	63a0      	str	r0, [r4, #56]	; 0x38
 800333e:	e7fa      	b.n	8003336 <SDMMC_CmdSendCSD+0x5e>
 8003340:	20000000 	.word	0x20000000
 8003344:	10624dd3 	.word	0x10624dd3

08003348 <SDMMC_CmdSetRelAdd>:
 8003348:	b430      	push	{r4, r5}
 800334a:	2500      	movs	r5, #0
 800334c:	f241 3388 	movw	r3, #5000	; 0x1388
 8003350:	4c25      	ldr	r4, [pc, #148]	; (80033e8 <SDMMC_CmdSetRelAdd+0xa0>)
 8003352:	4a26      	ldr	r2, [pc, #152]	; (80033ec <SDMMC_CmdSetRelAdd+0xa4>)
 8003354:	6824      	ldr	r4, [r4, #0]
 8003356:	6085      	str	r5, [r0, #8]
 8003358:	fba2 2404 	umull	r2, r4, r2, r4
 800335c:	68c2      	ldr	r2, [r0, #12]
 800335e:	0a64      	lsrs	r4, r4, #9
 8003360:	f422 627f 	bic.w	r2, r2, #4080	; 0xff0
 8003364:	f022 020f 	bic.w	r2, r2, #15
 8003368:	fb03 f304 	mul.w	r3, r3, r4
 800336c:	f442 6288 	orr.w	r2, r2, #1088	; 0x440
 8003370:	f042 0203 	orr.w	r2, r2, #3
 8003374:	60c2      	str	r2, [r0, #12]
 8003376:	f113 33ff 	adds.w	r3, r3, #4294967295
 800337a:	d311      	bcc.n	80033a0 <SDMMC_CmdSetRelAdd+0x58>
 800337c:	6b42      	ldr	r2, [r0, #52]	; 0x34
 800337e:	f012 0f45 	tst.w	r2, #69	; 0x45
 8003382:	d0f8      	beq.n	8003376 <SDMMC_CmdSetRelAdd+0x2e>
 8003384:	0512      	lsls	r2, r2, #20
 8003386:	d4f6      	bmi.n	8003376 <SDMMC_CmdSetRelAdd+0x2e>
 8003388:	6b43      	ldr	r3, [r0, #52]	; 0x34
 800338a:	075d      	lsls	r5, r3, #29
 800338c:	d411      	bmi.n	80033b2 <SDMMC_CmdSetRelAdd+0x6a>
 800338e:	6b43      	ldr	r3, [r0, #52]	; 0x34
 8003390:	07dc      	lsls	r4, r3, #31
 8003392:	d409      	bmi.n	80033a8 <SDMMC_CmdSetRelAdd+0x60>
 8003394:	6903      	ldr	r3, [r0, #16]
 8003396:	b2db      	uxtb	r3, r3
 8003398:	2b03      	cmp	r3, #3
 800339a:	d00e      	beq.n	80033ba <SDMMC_CmdSetRelAdd+0x72>
 800339c:	2001      	movs	r0, #1
 800339e:	e001      	b.n	80033a4 <SDMMC_CmdSetRelAdd+0x5c>
 80033a0:	f04f 4000 	mov.w	r0, #2147483648	; 0x80000000
 80033a4:	bc30      	pop	{r4, r5}
 80033a6:	4770      	bx	lr
 80033a8:	2301      	movs	r3, #1
 80033aa:	bc30      	pop	{r4, r5}
 80033ac:	6383      	str	r3, [r0, #56]	; 0x38
 80033ae:	4618      	mov	r0, r3
 80033b0:	4770      	bx	lr
 80033b2:	2304      	movs	r3, #4
 80033b4:	6383      	str	r3, [r0, #56]	; 0x38
 80033b6:	4618      	mov	r0, r3
 80033b8:	e7f4      	b.n	80033a4 <SDMMC_CmdSetRelAdd+0x5c>
 80033ba:	23c5      	movs	r3, #197	; 0xc5
 80033bc:	6383      	str	r3, [r0, #56]	; 0x38
 80033be:	6943      	ldr	r3, [r0, #20]
 80033c0:	f413 4060 	ands.w	r0, r3, #57344	; 0xe000
 80033c4:	d009      	beq.n	80033da <SDMMC_CmdSetRelAdd+0x92>
 80033c6:	045a      	lsls	r2, r3, #17
 80033c8:	d40a      	bmi.n	80033e0 <SDMMC_CmdSetRelAdd+0x98>
 80033ca:	f413 4f00 	tst.w	r3, #32768	; 0x8000
 80033ce:	bf0c      	ite	eq
 80033d0:	f44f 3080 	moveq.w	r0, #65536	; 0x10000
 80033d4:	f44f 5080 	movne.w	r0, #4096	; 0x1000
 80033d8:	e7e4      	b.n	80033a4 <SDMMC_CmdSetRelAdd+0x5c>
 80033da:	0c1b      	lsrs	r3, r3, #16
 80033dc:	800b      	strh	r3, [r1, #0]
 80033de:	e7e1      	b.n	80033a4 <SDMMC_CmdSetRelAdd+0x5c>
 80033e0:	f44f 5000 	mov.w	r0, #8192	; 0x2000
 80033e4:	e7de      	b.n	80033a4 <SDMMC_CmdSetRelAdd+0x5c>
 80033e6:	bf00      	nop
 80033e8:	20000000 	.word	0x20000000
 80033ec:	10624dd3 	.word	0x10624dd3

080033f0 <SDMMC_CmdSendStatus>:
 80033f0:	f241 3388 	movw	r3, #5000	; 0x1388
 80033f4:	4a1d      	ldr	r2, [pc, #116]	; (800346c <SDMMC_CmdSendStatus+0x7c>)
 80033f6:	b410      	push	{r4}
 80033f8:	6812      	ldr	r2, [r2, #0]
 80033fa:	4c1d      	ldr	r4, [pc, #116]	; (8003470 <SDMMC_CmdSendStatus+0x80>)
 80033fc:	6081      	str	r1, [r0, #8]
 80033fe:	fba4 2102 	umull	r2, r1, r4, r2
 8003402:	68c2      	ldr	r2, [r0, #12]
 8003404:	0a49      	lsrs	r1, r1, #9
 8003406:	f422 627f 	bic.w	r2, r2, #4080	; 0xff0
 800340a:	f022 020f 	bic.w	r2, r2, #15
 800340e:	fb03 f301 	mul.w	r3, r3, r1
 8003412:	f442 6289 	orr.w	r2, r2, #1096	; 0x448
 8003416:	f042 0205 	orr.w	r2, r2, #5
 800341a:	60c2      	str	r2, [r0, #12]
 800341c:	f113 33ff 	adds.w	r3, r3, #4294967295
 8003420:	d313      	bcc.n	800344a <SDMMC_CmdSendStatus+0x5a>
 8003422:	6b42      	ldr	r2, [r0, #52]	; 0x34
 8003424:	f012 0f45 	tst.w	r2, #69	; 0x45
 8003428:	d0f8      	beq.n	800341c <SDMMC_CmdSendStatus+0x2c>
 800342a:	0511      	lsls	r1, r2, #20
 800342c:	d4f6      	bmi.n	800341c <SDMMC_CmdSendStatus+0x2c>
 800342e:	6b43      	ldr	r3, [r0, #52]	; 0x34
 8003430:	075a      	lsls	r2, r3, #29
 8003432:	d413      	bmi.n	800345c <SDMMC_CmdSendStatus+0x6c>
 8003434:	6b43      	ldr	r3, [r0, #52]	; 0x34
 8003436:	07db      	lsls	r3, r3, #31
 8003438:	d40b      	bmi.n	8003452 <SDMMC_CmdSendStatus+0x62>
 800343a:	23c5      	movs	r3, #197	; 0xc5
 800343c:	6383      	str	r3, [r0, #56]	; 0x38
 800343e:	6903      	ldr	r3, [r0, #16]
 8003440:	b2db      	uxtb	r3, r3
 8003442:	2b0d      	cmp	r3, #13
 8003444:	d00e      	beq.n	8003464 <SDMMC_CmdSendStatus+0x74>
 8003446:	2001      	movs	r0, #1
 8003448:	e001      	b.n	800344e <SDMMC_CmdSendStatus+0x5e>
 800344a:	f04f 4000 	mov.w	r0, #2147483648	; 0x80000000
 800344e:	bc10      	pop	{r4}
 8003450:	4770      	bx	lr
 8003452:	2301      	movs	r3, #1
 8003454:	bc10      	pop	{r4}
 8003456:	6383      	str	r3, [r0, #56]	; 0x38
 8003458:	4618      	mov	r0, r3
 800345a:	4770      	bx	lr
 800345c:	2304      	movs	r3, #4
 800345e:	6383      	str	r3, [r0, #56]	; 0x38
 8003460:	4618      	mov	r0, r3
 8003462:	e7f4      	b.n	800344e <SDMMC_CmdSendStatus+0x5e>
 8003464:	bc10      	pop	{r4}
 8003466:	f7ff bb21 	b.w	8002aac <SDMMC_GetCmdResp1.part.2>
 800346a:	bf00      	nop
 800346c:	20000000 	.word	0x20000000
 8003470:	10624dd3 	.word	0x10624dd3

08003474 <MX_FATFS_Init>:
/* USER CODE BEGIN Variables */

/* USER CODE END Variables */

void MX_FATFS_Init(void)
{
 8003474:	b508      	push	{r3, lr}
  /*## FatFS: Link the SD driver ###########################*/
  retSD = FATFS_LinkDriver(&SD_Driver, SDPath);
 8003476:	4903      	ldr	r1, [pc, #12]	; (8003484 <MX_FATFS_Init+0x10>)
 8003478:	4803      	ldr	r0, [pc, #12]	; (8003488 <MX_FATFS_Init+0x14>)
 800347a:	f004 fdb3 	bl	8007fe4 <FATFS_LinkDriver>
 800347e:	4b03      	ldr	r3, [pc, #12]	; (800348c <MX_FATFS_Init+0x18>)
 8003480:	7018      	strb	r0, [r3, #0]

  /* USER CODE BEGIN Init */
  /* additional user code for init */
  /* USER CODE END Init */
}
 8003482:	bd08      	pop	{r3, pc}
 8003484:	200060b0 	.word	0x200060b0
 8003488:	0800a924 	.word	0x0800a924
 800348c:	20008250 	.word	0x20008250

08003490 <get_fattime>:
DWORD get_fattime(void)
{
  /* USER CODE BEGIN get_fattime */
  return 0;
  /* USER CODE END get_fattime */
}
 8003490:	2000      	movs	r0, #0
 8003492:	4770      	bx	lr

08003494 <BSP_SD_ITConfig>:
 8003494:	2000      	movs	r0, #0
 8003496:	4770      	bx	lr

08003498 <BSP_SD_ReadBlocks_DMA>:
 8003498:	b508      	push	{r3, lr}
 800349a:	4613      	mov	r3, r2
 800349c:	460a      	mov	r2, r1
 800349e:	4601      	mov	r1, r0
 80034a0:	4803      	ldr	r0, [pc, #12]	; (80034b0 <BSP_SD_ReadBlocks_DMA+0x18>)
 80034a2:	f7fe fb1d 	bl	8001ae0 <HAL_SD_ReadBlocks_DMA>
 80034a6:	3000      	adds	r0, #0
 80034a8:	bf18      	it	ne
 80034aa:	2001      	movne	r0, #1
 80034ac:	bd08      	pop	{r3, pc}
 80034ae:	bf00      	nop
 80034b0:	20007150 	.word	0x20007150

080034b4 <BSP_SD_WriteBlocks_DMA>:
 80034b4:	b508      	push	{r3, lr}
 80034b6:	4613      	mov	r3, r2
 80034b8:	460a      	mov	r2, r1
 80034ba:	4601      	mov	r1, r0
 80034bc:	4803      	ldr	r0, [pc, #12]	; (80034cc <BSP_SD_WriteBlocks_DMA+0x18>)
 80034be:	f7fe fbb5 	bl	8001c2c <HAL_SD_WriteBlocks_DMA>
 80034c2:	3000      	adds	r0, #0
 80034c4:	bf18      	it	ne
 80034c6:	2001      	movne	r0, #1
 80034c8:	bd08      	pop	{r3, pc}
 80034ca:	bf00      	nop
 80034cc:	20007150 	.word	0x20007150

080034d0 <BSP_SD_GetCardState>:
 80034d0:	b508      	push	{r3, lr}
 80034d2:	4803      	ldr	r0, [pc, #12]	; (80034e0 <BSP_SD_GetCardState+0x10>)
 80034d4:	f7ff f8c0 	bl	8002658 <HAL_SD_GetCardState>
 80034d8:	3804      	subs	r0, #4
 80034da:	bf18      	it	ne
 80034dc:	2001      	movne	r0, #1
 80034de:	bd08      	pop	{r3, pc}
 80034e0:	20007150 	.word	0x20007150

080034e4 <BSP_SD_GetCardInfo>:
 80034e4:	4601      	mov	r1, r0
 80034e6:	4801      	ldr	r0, [pc, #4]	; (80034ec <BSP_SD_GetCardInfo+0x8>)
 80034e8:	f7ff b818 	b.w	800251c <HAL_SD_GetCardInfo>
 80034ec:	20007150 	.word	0x20007150

080034f0 <BSP_SD_AbortCallback>:
 80034f0:	4770      	bx	lr
 80034f2:	bf00      	nop

080034f4 <HAL_SD_AbortCallback>:
 80034f4:	b508      	push	{r3, lr}
 80034f6:	f7ff fffb 	bl	80034f0 <BSP_SD_AbortCallback>
 80034fa:	bd08      	pop	{r3, pc}

080034fc <HAL_SD_TxCpltCallback>:
 80034fc:	b508      	push	{r3, lr}
 80034fe:	f004 fe5d 	bl	80081bc <BSP_SD_WriteCpltCallback>
 8003502:	bd08      	pop	{r3, pc}

08003504 <HAL_SD_RxCpltCallback>:
 8003504:	b508      	push	{r3, lr}
 8003506:	f004 fe63 	bl	80081d0 <BSP_SD_ReadCpltCallback>
 800350a:	bd08      	pop	{r3, pc}

0800350c <BSP_SD_IsDetected>:
 800350c:	2301      	movs	r3, #1
 800350e:	b500      	push	{lr}
 8003510:	b083      	sub	sp, #12
 8003512:	f88d 3007 	strb.w	r3, [sp, #7]
 8003516:	f000 f821 	bl	800355c <BSP_PlatformIsDetected>
 800351a:	b908      	cbnz	r0, 8003520 <BSP_SD_IsDetected+0x14>
 800351c:	f88d 0007 	strb.w	r0, [sp, #7]
 8003520:	f89d 0007 	ldrb.w	r0, [sp, #7]
 8003524:	b003      	add	sp, #12
 8003526:	f85d fb04 	ldr.w	pc, [sp], #4
 800352a:	bf00      	nop

0800352c <BSP_SD_Init>:
 800352c:	b508      	push	{r3, lr}
 800352e:	f7ff ffed 	bl	800350c <BSP_SD_IsDetected>
 8003532:	2801      	cmp	r0, #1
 8003534:	d001      	beq.n	800353a <BSP_SD_Init+0xe>
 8003536:	2001      	movs	r0, #1
 8003538:	bd08      	pop	{r3, pc}
 800353a:	4807      	ldr	r0, [pc, #28]	; (8003558 <BSP_SD_Init+0x2c>)
 800353c:	f7fe fed4 	bl	80022e8 <HAL_SD_Init>
 8003540:	2800      	cmp	r0, #0
 8003542:	d1f9      	bne.n	8003538 <BSP_SD_Init+0xc>
 8003544:	f44f 6100 	mov.w	r1, #2048	; 0x800
 8003548:	4803      	ldr	r0, [pc, #12]	; (8003558 <BSP_SD_Init+0x2c>)
 800354a:	f7fe fffb 	bl	8002544 <HAL_SD_ConfigWideBusOperation>
 800354e:	3000      	adds	r0, #0
 8003550:	bf18      	it	ne
 8003552:	2001      	movne	r0, #1
 8003554:	bd08      	pop	{r3, pc}
 8003556:	bf00      	nop
 8003558:	20007150 	.word	0x20007150

0800355c <BSP_PlatformIsDetected>:
 800355c:	b508      	push	{r3, lr}
 800355e:	2104      	movs	r1, #4
 8003560:	4803      	ldr	r0, [pc, #12]	; (8003570 <BSP_PlatformIsDetected+0x14>)
 8003562:	f7fd ff43 	bl	80013ec <HAL_GPIO_ReadPin>
 8003566:	fab0 f080 	clz	r0, r0
 800356a:	0940      	lsrs	r0, r0, #5
 800356c:	bd08      	pop	{r3, pc}
 800356e:	bf00      	nop
 8003570:	40021800 	.word	0x40021800

08003574 <disk_status>:
 8003574:	4b03      	ldr	r3, [pc, #12]	; (8003584 <disk_status+0x10>)
 8003576:	eb03 0280 	add.w	r2, r3, r0, lsl #2
 800357a:	6852      	ldr	r2, [r2, #4]
 800357c:	4403      	add	r3, r0
 800357e:	6852      	ldr	r2, [r2, #4]
 8003580:	7a18      	ldrb	r0, [r3, #8]
 8003582:	4710      	bx	r2
 8003584:	200002b0 	.word	0x200002b0

08003588 <disk_initialize>:
 8003588:	4b06      	ldr	r3, [pc, #24]	; (80035a4 <disk_initialize+0x1c>)
 800358a:	5c1a      	ldrb	r2, [r3, r0]
 800358c:	b942      	cbnz	r2, 80035a0 <disk_initialize+0x18>
 800358e:	2101      	movs	r1, #1
 8003590:	eb03 0280 	add.w	r2, r3, r0, lsl #2
 8003594:	6852      	ldr	r2, [r2, #4]
 8003596:	5419      	strb	r1, [r3, r0]
 8003598:	4403      	add	r3, r0
 800359a:	6812      	ldr	r2, [r2, #0]
 800359c:	7a18      	ldrb	r0, [r3, #8]
 800359e:	4710      	bx	r2
 80035a0:	2000      	movs	r0, #0
 80035a2:	4770      	bx	lr
 80035a4:	200002b0 	.word	0x200002b0

080035a8 <disk_read>:
 80035a8:	b430      	push	{r4, r5}
 80035aa:	4c05      	ldr	r4, [pc, #20]	; (80035c0 <disk_read+0x18>)
 80035ac:	eb04 0580 	add.w	r5, r4, r0, lsl #2
 80035b0:	686d      	ldr	r5, [r5, #4]
 80035b2:	4404      	add	r4, r0
 80035b4:	68ad      	ldr	r5, [r5, #8]
 80035b6:	7a20      	ldrb	r0, [r4, #8]
 80035b8:	46ac      	mov	ip, r5
 80035ba:	bc30      	pop	{r4, r5}
 80035bc:	4760      	bx	ip
 80035be:	bf00      	nop
 80035c0:	200002b0 	.word	0x200002b0

080035c4 <disk_write>:
 80035c4:	b430      	push	{r4, r5}
 80035c6:	4c05      	ldr	r4, [pc, #20]	; (80035dc <disk_write+0x18>)
 80035c8:	eb04 0580 	add.w	r5, r4, r0, lsl #2
 80035cc:	686d      	ldr	r5, [r5, #4]
 80035ce:	4404      	add	r4, r0
 80035d0:	68ed      	ldr	r5, [r5, #12]
 80035d2:	7a20      	ldrb	r0, [r4, #8]
 80035d4:	46ac      	mov	ip, r5
 80035d6:	bc30      	pop	{r4, r5}
 80035d8:	4760      	bx	ip
 80035da:	bf00      	nop
 80035dc:	200002b0 	.word	0x200002b0

080035e0 <disk_ioctl>:
 80035e0:	4b05      	ldr	r3, [pc, #20]	; (80035f8 <disk_ioctl+0x18>)
 80035e2:	b410      	push	{r4}
 80035e4:	eb03 0480 	add.w	r4, r3, r0, lsl #2
 80035e8:	6864      	ldr	r4, [r4, #4]
 80035ea:	4403      	add	r3, r0
 80035ec:	6924      	ldr	r4, [r4, #16]
 80035ee:	7a18      	ldrb	r0, [r3, #8]
 80035f0:	4623      	mov	r3, r4
 80035f2:	bc10      	pop	{r4}
 80035f4:	4718      	bx	r3
 80035f6:	bf00      	nop
 80035f8:	200002b0 	.word	0x200002b0

080035fc <move_window.part.6>:
 80035fc:	e92d 41f0 	stmdb	sp!, {r4, r5, r6, r7, r8, lr}
 8003600:	4604      	mov	r4, r0
 8003602:	78c3      	ldrb	r3, [r0, #3]
 8003604:	460d      	mov	r5, r1
 8003606:	7840      	ldrb	r0, [r0, #1]
 8003608:	f104 073c 	add.w	r7, r4, #60	; 0x3c
 800360c:	b30b      	cbz	r3, 8003652 <move_window.part.6+0x56>
 800360e:	6ba6      	ldr	r6, [r4, #56]	; 0x38
 8003610:	2301      	movs	r3, #1
 8003612:	4632      	mov	r2, r6
 8003614:	4639      	mov	r1, r7
 8003616:	f7ff ffd5 	bl	80035c4 <disk_write>
 800361a:	bb40      	cbnz	r0, 800366e <move_window.part.6+0x72>
 800361c:	6ae2      	ldr	r2, [r4, #44]	; 0x2c
 800361e:	6a63      	ldr	r3, [r4, #36]	; 0x24
 8003620:	1ab2      	subs	r2, r6, r2
 8003622:	429a      	cmp	r2, r3
 8003624:	70e0      	strb	r0, [r4, #3]
 8003626:	7860      	ldrb	r0, [r4, #1]
 8003628:	d213      	bcs.n	8003652 <move_window.part.6+0x56>
 800362a:	f894 8002 	ldrb.w	r8, [r4, #2]
 800362e:	f1b8 0f01 	cmp.w	r8, #1
 8003632:	d802      	bhi.n	800363a <move_window.part.6+0x3e>
 8003634:	e00d      	b.n	8003652 <move_window.part.6+0x56>
 8003636:	6a63      	ldr	r3, [r4, #36]	; 0x24
 8003638:	7860      	ldrb	r0, [r4, #1]
 800363a:	441e      	add	r6, r3
 800363c:	f108 38ff 	add.w	r8, r8, #4294967295
 8003640:	4632      	mov	r2, r6
 8003642:	2301      	movs	r3, #1
 8003644:	4639      	mov	r1, r7
 8003646:	f7ff ffbd 	bl	80035c4 <disk_write>
 800364a:	f1b8 0f01 	cmp.w	r8, #1
 800364e:	d1f2      	bne.n	8003636 <move_window.part.6+0x3a>
 8003650:	7860      	ldrb	r0, [r4, #1]
 8003652:	462a      	mov	r2, r5
 8003654:	4639      	mov	r1, r7
 8003656:	2301      	movs	r3, #1
 8003658:	f7ff ffa6 	bl	80035a8 <disk_read>
 800365c:	2800      	cmp	r0, #0
 800365e:	bf1a      	itte	ne
 8003660:	f04f 35ff 	movne.w	r5, #4294967295
 8003664:	2001      	movne	r0, #1
 8003666:	2000      	moveq	r0, #0
 8003668:	63a5      	str	r5, [r4, #56]	; 0x38
 800366a:	e8bd 81f0 	ldmia.w	sp!, {r4, r5, r6, r7, r8, pc}
 800366e:	2001      	movs	r0, #1
 8003670:	e8bd 81f0 	ldmia.w	sp!, {r4, r5, r6, r7, r8, pc}

08003674 <sync_fs>:
 8003674:	b5f8      	push	{r3, r4, r5, r6, r7, lr}
 8003676:	78c3      	ldrb	r3, [r0, #3]
 8003678:	4604      	mov	r4, r0
 800367a:	b95b      	cbnz	r3, 8003694 <sync_fs+0x20>
 800367c:	7823      	ldrb	r3, [r4, #0]
 800367e:	2b03      	cmp	r3, #3
 8003680:	d029      	beq.n	80036d6 <sync_fs+0x62>
 8003682:	2200      	movs	r2, #0
 8003684:	7860      	ldrb	r0, [r4, #1]
 8003686:	4611      	mov	r1, r2
 8003688:	f7ff ffaa 	bl	80035e0 <disk_ioctl>
 800368c:	3000      	adds	r0, #0
 800368e:	bf18      	it	ne
 8003690:	2001      	movne	r0, #1
 8003692:	bdf8      	pop	{r3, r4, r5, r6, r7, pc}
 8003694:	6b85      	ldr	r5, [r0, #56]	; 0x38
 8003696:	f100 073c 	add.w	r7, r0, #60	; 0x3c
 800369a:	462a      	mov	r2, r5
 800369c:	4639      	mov	r1, r7
 800369e:	2301      	movs	r3, #1
 80036a0:	7840      	ldrb	r0, [r0, #1]
 80036a2:	f7ff ff8f 	bl	80035c4 <disk_write>
 80036a6:	2800      	cmp	r0, #0
 80036a8:	d156      	bne.n	8003758 <sync_fs+0xe4>
 80036aa:	6ae2      	ldr	r2, [r4, #44]	; 0x2c
 80036ac:	6a63      	ldr	r3, [r4, #36]	; 0x24
 80036ae:	1aaa      	subs	r2, r5, r2
 80036b0:	429a      	cmp	r2, r3
 80036b2:	70e0      	strb	r0, [r4, #3]
 80036b4:	d2e2      	bcs.n	800367c <sync_fs+0x8>
 80036b6:	78a6      	ldrb	r6, [r4, #2]
 80036b8:	2e01      	cmp	r6, #1
 80036ba:	d801      	bhi.n	80036c0 <sync_fs+0x4c>
 80036bc:	e7de      	b.n	800367c <sync_fs+0x8>
 80036be:	6a63      	ldr	r3, [r4, #36]	; 0x24
 80036c0:	441d      	add	r5, r3
 80036c2:	3e01      	subs	r6, #1
 80036c4:	462a      	mov	r2, r5
 80036c6:	2301      	movs	r3, #1
 80036c8:	4639      	mov	r1, r7
 80036ca:	7860      	ldrb	r0, [r4, #1]
 80036cc:	f7ff ff7a 	bl	80035c4 <disk_write>
 80036d0:	2e01      	cmp	r6, #1
 80036d2:	d1f4      	bne.n	80036be <sync_fs+0x4a>
 80036d4:	e7d2      	b.n	800367c <sync_fs+0x8>
 80036d6:	7925      	ldrb	r5, [r4, #4]
 80036d8:	2d01      	cmp	r5, #1
 80036da:	d1d2      	bne.n	8003682 <sync_fs+0xe>
 80036dc:	f104 033c 	add.w	r3, r4, #60	; 0x3c
 80036e0:	4618      	mov	r0, r3
 80036e2:	89a2      	ldrh	r2, [r4, #12]
 80036e4:	2100      	movs	r1, #0
 80036e6:	f007 f82e 	bl	800a746 <memset>
 80036ea:	2700      	movs	r7, #0
 80036ec:	4603      	mov	r3, r0
 80036ee:	463e      	mov	r6, r7
 80036f0:	f04f 0e55 	mov.w	lr, #85	; 0x55
 80036f4:	f04f 0caa 	mov.w	ip, #170	; 0xaa
 80036f8:	69e0      	ldr	r0, [r4, #28]
 80036fa:	69a2      	ldr	r2, [r4, #24]
 80036fc:	4619      	mov	r1, r3
 80036fe:	f360 0707 	bfi	r7, r0, #0, #8
 8003702:	0a03      	lsrs	r3, r0, #8
 8003704:	f363 270f 	bfi	r7, r3, #8, #8
 8003708:	0c03      	lsrs	r3, r0, #16
 800370a:	f363 4717 	bfi	r7, r3, #16, #8
 800370e:	0e00      	lsrs	r0, r0, #24
 8003710:	0a13      	lsrs	r3, r2, #8
 8003712:	f362 0607 	bfi	r6, r2, #0, #8
 8003716:	f360 671f 	bfi	r7, r0, #24, #8
 800371a:	f363 260f 	bfi	r6, r3, #8, #8
 800371e:	0c10      	lsrs	r0, r2, #16
 8003720:	f360 4617 	bfi	r6, r0, #16, #8
 8003724:	0e12      	lsrs	r2, r2, #24
 8003726:	f362 661f 	bfi	r6, r2, #24, #8
 800372a:	6aa2      	ldr	r2, [r4, #40]	; 0x28
 800372c:	462b      	mov	r3, r5
 800372e:	480b      	ldr	r0, [pc, #44]	; (800375c <sync_fs+0xe8>)
 8003730:	4d0b      	ldr	r5, [pc, #44]	; (8003760 <sync_fs+0xec>)
 8003732:	3201      	adds	r2, #1
 8003734:	f8c4 0220 	str.w	r0, [r4, #544]	; 0x220
 8003738:	f8c4 7224 	str.w	r7, [r4, #548]	; 0x224
 800373c:	f8c4 6228 	str.w	r6, [r4, #552]	; 0x228
 8003740:	63a2      	str	r2, [r4, #56]	; 0x38
 8003742:	f884 e23a 	strb.w	lr, [r4, #570]	; 0x23a
 8003746:	f884 c23b 	strb.w	ip, [r4, #571]	; 0x23b
 800374a:	63e5      	str	r5, [r4, #60]	; 0x3c
 800374c:	7860      	ldrb	r0, [r4, #1]
 800374e:	f7ff ff39 	bl	80035c4 <disk_write>
 8003752:	2300      	movs	r3, #0
 8003754:	7123      	strb	r3, [r4, #4]
 8003756:	e794      	b.n	8003682 <sync_fs+0xe>
 8003758:	2001      	movs	r0, #1
 800375a:	bdf8      	pop	{r3, r4, r5, r6, r7, pc}
 800375c:	61417272 	.word	0x61417272
 8003760:	41615252 	.word	0x41615252

08003764 <dir_sdi>:
 8003764:	f5b1 1f00 	cmp.w	r1, #2097152	; 0x200000
 8003768:	d239      	bcs.n	80037de <dir_sdi+0x7a>
 800376a:	e92d 4ff0 	stmdb	sp!, {r4, r5, r6, r7, r8, r9, sl, fp, lr}
 800376e:	460e      	mov	r6, r1
 8003770:	06f1      	lsls	r1, r6, #27
 8003772:	b087      	sub	sp, #28
 8003774:	d12f      	bne.n	80037d6 <dir_sdi+0x72>
 8003776:	6884      	ldr	r4, [r0, #8]
 8003778:	4607      	mov	r7, r0
 800377a:	6146      	str	r6, [r0, #20]
 800377c:	f8d0 b000 	ldr.w	fp, [r0]
 8003780:	bb84      	cbnz	r4, 80037e4 <dir_sdi+0x80>
 8003782:	f89b 3000 	ldrb.w	r3, [fp]
 8003786:	2b02      	cmp	r3, #2
 8003788:	d902      	bls.n	8003790 <dir_sdi+0x2c>
 800378a:	f8db 3030 	ldr.w	r3, [fp, #48]	; 0x30
 800378e:	bb43      	cbnz	r3, 80037e2 <dir_sdi+0x7e>
 8003790:	f8bb 3008 	ldrh.w	r3, [fp, #8]
 8003794:	ebb3 1f56 	cmp.w	r3, r6, lsr #5
 8003798:	d91d      	bls.n	80037d6 <dir_sdi+0x72>
 800379a:	f8db 2030 	ldr.w	r2, [fp, #48]	; 0x30
 800379e:	61fa      	str	r2, [r7, #28]
 80037a0:	61bc      	str	r4, [r7, #24]
 80037a2:	b1c2      	cbz	r2, 80037d6 <dir_sdi+0x72>
 80037a4:	f8bb 000c 	ldrh.w	r0, [fp, #12]
 80037a8:	f10b 033c 	add.w	r3, fp, #60	; 0x3c
 80037ac:	fbb6 f1f0 	udiv	r1, r6, r0
 80037b0:	fb00 6611 	mls	r6, r0, r1, r6
 80037b4:	2000      	movs	r0, #0
 80037b6:	440a      	add	r2, r1
 80037b8:	441e      	add	r6, r3
 80037ba:	e9c7 2607 	strd	r2, r6, [r7, #28]
 80037be:	b007      	add	sp, #28
 80037c0:	e8bd 8ff0 	ldmia.w	sp!, {r4, r5, r6, r7, r8, r9, sl, fp, pc}
 80037c4:	9f01      	ldr	r7, [sp, #4]
 80037c6:	3b02      	subs	r3, #2
 80037c8:	1ea1      	subs	r1, r4, #2
 80037ca:	4299      	cmp	r1, r3
 80037cc:	f0c0 8170 	bcc.w	8003ab0 <dir_sdi+0x34c>
 80037d0:	2300      	movs	r3, #0
 80037d2:	e9c7 4306 	strd	r4, r3, [r7, #24]
 80037d6:	2002      	movs	r0, #2
 80037d8:	b007      	add	sp, #28
 80037da:	e8bd 8ff0 	ldmia.w	sp!, {r4, r5, r6, r7, r8, r9, sl, fp, pc}
 80037de:	2002      	movs	r0, #2
 80037e0:	4770      	bx	lr
 80037e2:	461c      	mov	r4, r3
 80037e4:	f8bb 300a 	ldrh.w	r3, [fp, #10]
 80037e8:	f8bb 200c 	ldrh.w	r2, [fp, #12]
 80037ec:	fb02 f903 	mul.w	r9, r2, r3
 80037f0:	454e      	cmp	r6, r9
 80037f2:	f0c0 8167 	bcc.w	8003ac4 <dir_sdi+0x360>
 80037f6:	2c01      	cmp	r4, #1
 80037f8:	d9ed      	bls.n	80037d6 <dir_sdi+0x72>
 80037fa:	f8db 3020 	ldr.w	r3, [fp, #32]
 80037fe:	42a3      	cmp	r3, r4
 8003800:	d9e9      	bls.n	80037d6 <dir_sdi+0x72>
 8003802:	465d      	mov	r5, fp
 8003804:	782b      	ldrb	r3, [r5, #0]
 8003806:	9701      	str	r7, [sp, #4]
 8003808:	2b02      	cmp	r3, #2
 800380a:	f000 80ac 	beq.w	8003966 <dir_sdi+0x202>
 800380e:	2b03      	cmp	r3, #3
 8003810:	d046      	beq.n	80038a0 <dir_sdi+0x13c>
 8003812:	2b01      	cmp	r3, #1
 8003814:	d1df      	bne.n	80037d6 <dir_sdi+0x72>
 8003816:	89a9      	ldrh	r1, [r5, #12]
 8003818:	eb04 0754 	add.w	r7, r4, r4, lsr #1
 800381c:	fbb7 f2f1 	udiv	r2, r7, r1
 8003820:	6ae8      	ldr	r0, [r5, #44]	; 0x2c
 8003822:	f8d5 8038 	ldr.w	r8, [r5, #56]	; 0x38
 8003826:	eb02 0a00 	add.w	sl, r2, r0
 800382a:	45c2      	cmp	sl, r8
 800382c:	f000 80ea 	beq.w	8003a04 <dir_sdi+0x2a0>
 8003830:	78ea      	ldrb	r2, [r5, #3]
 8003832:	f105 013c 	add.w	r1, r5, #60	; 0x3c
 8003836:	7868      	ldrb	r0, [r5, #1]
 8003838:	9102      	str	r1, [sp, #8]
 800383a:	b31a      	cbz	r2, 8003884 <dir_sdi+0x120>
 800383c:	4642      	mov	r2, r8
 800383e:	f7ff fec1 	bl	80035c4 <disk_write>
 8003842:	2800      	cmp	r0, #0
 8003844:	f040 813c 	bne.w	8003ac0 <dir_sdi+0x35c>
 8003848:	6aea      	ldr	r2, [r5, #44]	; 0x2c
 800384a:	6a6b      	ldr	r3, [r5, #36]	; 0x24
 800384c:	eba8 0202 	sub.w	r2, r8, r2
 8003850:	429a      	cmp	r2, r3
 8003852:	70e8      	strb	r0, [r5, #3]
 8003854:	d214      	bcs.n	8003880 <dir_sdi+0x11c>
 8003856:	78aa      	ldrb	r2, [r5, #2]
 8003858:	2a01      	cmp	r2, #1
 800385a:	d911      	bls.n	8003880 <dir_sdi+0x11c>
 800385c:	9403      	str	r4, [sp, #12]
 800385e:	9604      	str	r6, [sp, #16]
 8003860:	4614      	mov	r4, r2
 8003862:	9e02      	ldr	r6, [sp, #8]
 8003864:	e000      	b.n	8003868 <dir_sdi+0x104>
 8003866:	6a6b      	ldr	r3, [r5, #36]	; 0x24
 8003868:	4498      	add	r8, r3
 800386a:	3c01      	subs	r4, #1
 800386c:	4642      	mov	r2, r8
 800386e:	2301      	movs	r3, #1
 8003870:	4631      	mov	r1, r6
 8003872:	7868      	ldrb	r0, [r5, #1]
 8003874:	f7ff fea6 	bl	80035c4 <disk_write>
 8003878:	2c01      	cmp	r4, #1
 800387a:	d1f4      	bne.n	8003866 <dir_sdi+0x102>
 800387c:	e9dd 4603 	ldrd	r4, r6, [sp, #12]
 8003880:	7868      	ldrb	r0, [r5, #1]
 8003882:	9902      	ldr	r1, [sp, #8]
 8003884:	2301      	movs	r3, #1
 8003886:	4652      	mov	r2, sl
 8003888:	f7ff fe8e 	bl	80035a8 <disk_read>
 800388c:	2800      	cmp	r0, #0
 800388e:	f000 80b2 	beq.w	80039f6 <dir_sdi+0x292>
 8003892:	f04f 33ff 	mov.w	r3, #4294967295
 8003896:	2001      	movs	r0, #1
 8003898:	63ab      	str	r3, [r5, #56]	; 0x38
 800389a:	b007      	add	sp, #28
 800389c:	e8bd 8ff0 	ldmia.w	sp!, {r4, r5, r6, r7, r8, r9, sl, fp, pc}
 80038a0:	89aa      	ldrh	r2, [r5, #12]
 80038a2:	6aeb      	ldr	r3, [r5, #44]	; 0x2c
 80038a4:	0897      	lsrs	r7, r2, #2
 80038a6:	fbb4 f7f7 	udiv	r7, r4, r7
 80038aa:	f8d5 a038 	ldr.w	sl, [r5, #56]	; 0x38
 80038ae:	441f      	add	r7, r3
 80038b0:	4557      	cmp	r7, sl
 80038b2:	f105 083c 	add.w	r8, r5, #60	; 0x3c
 80038b6:	d02e      	beq.n	8003916 <dir_sdi+0x1b2>
 80038b8:	78eb      	ldrb	r3, [r5, #3]
 80038ba:	7868      	ldrb	r0, [r5, #1]
 80038bc:	b313      	cbz	r3, 8003904 <dir_sdi+0x1a0>
 80038be:	2301      	movs	r3, #1
 80038c0:	4652      	mov	r2, sl
 80038c2:	4641      	mov	r1, r8
 80038c4:	f7ff fe7e 	bl	80035c4 <disk_write>
 80038c8:	2800      	cmp	r0, #0
 80038ca:	f040 80f9 	bne.w	8003ac0 <dir_sdi+0x35c>
 80038ce:	6aea      	ldr	r2, [r5, #44]	; 0x2c
 80038d0:	6a6b      	ldr	r3, [r5, #36]	; 0x24
 80038d2:	ebaa 0202 	sub.w	r2, sl, r2
 80038d6:	429a      	cmp	r2, r3
 80038d8:	70e8      	strb	r0, [r5, #3]
 80038da:	7868      	ldrb	r0, [r5, #1]
 80038dc:	d212      	bcs.n	8003904 <dir_sdi+0x1a0>
 80038de:	78aa      	ldrb	r2, [r5, #2]
 80038e0:	2a01      	cmp	r2, #1
 80038e2:	d90f      	bls.n	8003904 <dir_sdi+0x1a0>
 80038e4:	9402      	str	r4, [sp, #8]
 80038e6:	4614      	mov	r4, r2
 80038e8:	e001      	b.n	80038ee <dir_sdi+0x18a>
 80038ea:	6a6b      	ldr	r3, [r5, #36]	; 0x24
 80038ec:	7868      	ldrb	r0, [r5, #1]
 80038ee:	449a      	add	sl, r3
 80038f0:	3c01      	subs	r4, #1
 80038f2:	4652      	mov	r2, sl
 80038f4:	2301      	movs	r3, #1
 80038f6:	4641      	mov	r1, r8
 80038f8:	f7ff fe64 	bl	80035c4 <disk_write>
 80038fc:	2c01      	cmp	r4, #1
 80038fe:	d1f4      	bne.n	80038ea <dir_sdi+0x186>
 8003900:	9c02      	ldr	r4, [sp, #8]
 8003902:	7868      	ldrb	r0, [r5, #1]
 8003904:	2301      	movs	r3, #1
 8003906:	463a      	mov	r2, r7
 8003908:	4641      	mov	r1, r8
 800390a:	f7ff fe4d 	bl	80035a8 <disk_read>
 800390e:	2800      	cmp	r0, #0
 8003910:	d1bf      	bne.n	8003892 <dir_sdi+0x12e>
 8003912:	89aa      	ldrh	r2, [r5, #12]
 8003914:	63af      	str	r7, [r5, #56]	; 0x38
 8003916:	00a4      	lsls	r4, r4, #2
 8003918:	fbb4 f3f2 	udiv	r3, r4, r2
 800391c:	fb02 4413 	mls	r4, r2, r3, r4
 8003920:	eb08 0204 	add.w	r2, r8, r4
 8003924:	8851      	ldrh	r1, [r2, #2]
 8003926:	7853      	ldrb	r3, [r2, #1]
 8003928:	f818 4004 	ldrb.w	r4, [r8, r4]
 800392c:	ea43 2301 	orr.w	r3, r3, r1, lsl #8
 8003930:	ea44 2403 	orr.w	r4, r4, r3, lsl #8
 8003934:	f024 4470 	bic.w	r4, r4, #4026531840	; 0xf0000000
 8003938:	2c01      	cmp	r4, #1
 800393a:	f67f af4c 	bls.w	80037d6 <dir_sdi+0x72>
 800393e:	f8db 3020 	ldr.w	r3, [fp, #32]
 8003942:	42a3      	cmp	r3, r4
 8003944:	f67f af47 	bls.w	80037d6 <dir_sdi+0x72>
 8003948:	eba6 0609 	sub.w	r6, r6, r9
 800394c:	45b1      	cmp	r9, r6
 800394e:	f63f af39 	bhi.w	80037c4 <dir_sdi+0x60>
 8003952:	9b01      	ldr	r3, [sp, #4]
 8003954:	681d      	ldr	r5, [r3, #0]
 8003956:	6a2b      	ldr	r3, [r5, #32]
 8003958:	42a3      	cmp	r3, r4
 800395a:	f67f af3c 	bls.w	80037d6 <dir_sdi+0x72>
 800395e:	782b      	ldrb	r3, [r5, #0]
 8003960:	2b02      	cmp	r3, #2
 8003962:	f47f af54 	bne.w	800380e <dir_sdi+0xaa>
 8003966:	89aa      	ldrh	r2, [r5, #12]
 8003968:	6aeb      	ldr	r3, [r5, #44]	; 0x2c
 800396a:	0857      	lsrs	r7, r2, #1
 800396c:	fbb4 f7f7 	udiv	r7, r4, r7
 8003970:	f8d5 a038 	ldr.w	sl, [r5, #56]	; 0x38
 8003974:	441f      	add	r7, r3
 8003976:	4557      	cmp	r7, sl
 8003978:	f105 083c 	add.w	r8, r5, #60	; 0x3c
 800397c:	d02e      	beq.n	80039dc <dir_sdi+0x278>
 800397e:	78eb      	ldrb	r3, [r5, #3]
 8003980:	7868      	ldrb	r0, [r5, #1]
 8003982:	b30b      	cbz	r3, 80039c8 <dir_sdi+0x264>
 8003984:	2301      	movs	r3, #1
 8003986:	4652      	mov	r2, sl
 8003988:	4641      	mov	r1, r8
 800398a:	f7ff fe1b 	bl	80035c4 <disk_write>
 800398e:	2800      	cmp	r0, #0
 8003990:	f040 8096 	bne.w	8003ac0 <dir_sdi+0x35c>
 8003994:	6aea      	ldr	r2, [r5, #44]	; 0x2c
 8003996:	6a6b      	ldr	r3, [r5, #36]	; 0x24
 8003998:	ebaa 0202 	sub.w	r2, sl, r2
 800399c:	429a      	cmp	r2, r3
 800399e:	70e8      	strb	r0, [r5, #3]
 80039a0:	d211      	bcs.n	80039c6 <dir_sdi+0x262>
 80039a2:	78aa      	ldrb	r2, [r5, #2]
 80039a4:	2a01      	cmp	r2, #1
 80039a6:	d90e      	bls.n	80039c6 <dir_sdi+0x262>
 80039a8:	9402      	str	r4, [sp, #8]
 80039aa:	4614      	mov	r4, r2
 80039ac:	e000      	b.n	80039b0 <dir_sdi+0x24c>
 80039ae:	6a6b      	ldr	r3, [r5, #36]	; 0x24
 80039b0:	449a      	add	sl, r3
 80039b2:	3c01      	subs	r4, #1
 80039b4:	4652      	mov	r2, sl
 80039b6:	2301      	movs	r3, #1
 80039b8:	4641      	mov	r1, r8
 80039ba:	7868      	ldrb	r0, [r5, #1]
 80039bc:	f7ff fe02 	bl	80035c4 <disk_write>
 80039c0:	2c01      	cmp	r4, #1
 80039c2:	d1f4      	bne.n	80039ae <dir_sdi+0x24a>
 80039c4:	9c02      	ldr	r4, [sp, #8]
 80039c6:	7868      	ldrb	r0, [r5, #1]
 80039c8:	2301      	movs	r3, #1
 80039ca:	463a      	mov	r2, r7
 80039cc:	4641      	mov	r1, r8
 80039ce:	f7ff fdeb 	bl	80035a8 <disk_read>
 80039d2:	2800      	cmp	r0, #0
 80039d4:	f47f af5d 	bne.w	8003892 <dir_sdi+0x12e>
 80039d8:	89aa      	ldrh	r2, [r5, #12]
 80039da:	63af      	str	r7, [r5, #56]	; 0x38
 80039dc:	0064      	lsls	r4, r4, #1
 80039de:	fbb4 f3f2 	udiv	r3, r4, r2
 80039e2:	fb02 4313 	mls	r3, r2, r3, r4
 80039e6:	eb08 0203 	add.w	r2, r8, r3
 80039ea:	7852      	ldrb	r2, [r2, #1]
 80039ec:	f818 4003 	ldrb.w	r4, [r8, r3]
 80039f0:	ea44 2402 	orr.w	r4, r4, r2, lsl #8
 80039f4:	e7a0      	b.n	8003938 <dir_sdi+0x1d4>
 80039f6:	89a9      	ldrh	r1, [r5, #12]
 80039f8:	46d0      	mov	r8, sl
 80039fa:	fbb7 f2f1 	udiv	r2, r7, r1
 80039fe:	6ae8      	ldr	r0, [r5, #44]	; 0x2c
 8003a00:	f8c5 a038 	str.w	sl, [r5, #56]	; 0x38
 8003a04:	1c7b      	adds	r3, r7, #1
 8003a06:	9302      	str	r3, [sp, #8]
 8003a08:	fbb3 f3f1 	udiv	r3, r3, r1
 8003a0c:	fb01 7712 	mls	r7, r1, r2, r7
 8003a10:	eb03 0a00 	add.w	sl, r3, r0
 8003a14:	442f      	add	r7, r5
 8003a16:	45c2      	cmp	sl, r8
 8003a18:	f897 703c 	ldrb.w	r7, [r7, #60]	; 0x3c
 8003a1c:	d03a      	beq.n	8003a94 <dir_sdi+0x330>
 8003a1e:	78eb      	ldrb	r3, [r5, #3]
 8003a20:	f105 023c 	add.w	r2, r5, #60	; 0x3c
 8003a24:	7868      	ldrb	r0, [r5, #1]
 8003a26:	4611      	mov	r1, r2
 8003a28:	9203      	str	r2, [sp, #12]
 8003a2a:	b32b      	cbz	r3, 8003a78 <dir_sdi+0x314>
 8003a2c:	2301      	movs	r3, #1
 8003a2e:	4642      	mov	r2, r8
 8003a30:	f7ff fdc8 	bl	80035c4 <disk_write>
 8003a34:	2800      	cmp	r0, #0
 8003a36:	d143      	bne.n	8003ac0 <dir_sdi+0x35c>
 8003a38:	6aea      	ldr	r2, [r5, #44]	; 0x2c
 8003a3a:	6a6b      	ldr	r3, [r5, #36]	; 0x24
 8003a3c:	eba8 0202 	sub.w	r2, r8, r2
 8003a40:	429a      	cmp	r2, r3
 8003a42:	70e8      	strb	r0, [r5, #3]
 8003a44:	7868      	ldrb	r0, [r5, #1]
 8003a46:	d217      	bcs.n	8003a78 <dir_sdi+0x314>
 8003a48:	f895 c002 	ldrb.w	ip, [r5, #2]
 8003a4c:	4662      	mov	r2, ip
 8003a4e:	2a01      	cmp	r2, #1
 8003a50:	d912      	bls.n	8003a78 <dir_sdi+0x314>
 8003a52:	9404      	str	r4, [sp, #16]
 8003a54:	9605      	str	r6, [sp, #20]
 8003a56:	4664      	mov	r4, ip
 8003a58:	9e03      	ldr	r6, [sp, #12]
 8003a5a:	e001      	b.n	8003a60 <dir_sdi+0x2fc>
 8003a5c:	6a6b      	ldr	r3, [r5, #36]	; 0x24
 8003a5e:	7868      	ldrb	r0, [r5, #1]
 8003a60:	4498      	add	r8, r3
 8003a62:	3c01      	subs	r4, #1
 8003a64:	4642      	mov	r2, r8
 8003a66:	2301      	movs	r3, #1
 8003a68:	4631      	mov	r1, r6
 8003a6a:	f7ff fdab 	bl	80035c4 <disk_write>
 8003a6e:	2c01      	cmp	r4, #1
 8003a70:	d1f4      	bne.n	8003a5c <dir_sdi+0x2f8>
 8003a72:	e9dd 4604 	ldrd	r4, r6, [sp, #16]
 8003a76:	7868      	ldrb	r0, [r5, #1]
 8003a78:	9903      	ldr	r1, [sp, #12]
 8003a7a:	2301      	movs	r3, #1
 8003a7c:	4652      	mov	r2, sl
 8003a7e:	f7ff fd93 	bl	80035a8 <disk_read>
 8003a82:	2800      	cmp	r0, #0
 8003a84:	f47f af05 	bne.w	8003892 <dir_sdi+0x12e>
 8003a88:	89a9      	ldrh	r1, [r5, #12]
 8003a8a:	9b02      	ldr	r3, [sp, #8]
 8003a8c:	f8c5 a038 	str.w	sl, [r5, #56]	; 0x38
 8003a90:	fbb3 f3f1 	udiv	r3, r3, r1
 8003a94:	9a02      	ldr	r2, [sp, #8]
 8003a96:	fb01 2813 	mls	r8, r1, r3, r2
 8003a9a:	4445      	add	r5, r8
 8003a9c:	f895 303c 	ldrb.w	r3, [r5, #60]	; 0x3c
 8003aa0:	07e2      	lsls	r2, r4, #31
 8003aa2:	ea47 2303 	orr.w	r3, r7, r3, lsl #8
 8003aa6:	bf4c      	ite	mi
 8003aa8:	091c      	lsrmi	r4, r3, #4
 8003aaa:	f3c3 040b 	ubfxpl	r4, r3, #0, #12
 8003aae:	e743      	b.n	8003938 <dir_sdi+0x1d4>
 8003ab0:	f8bb 200a 	ldrh.w	r2, [fp, #10]
 8003ab4:	f8db 3034 	ldr.w	r3, [fp, #52]	; 0x34
 8003ab8:	fb01 3202 	mla	r2, r1, r2, r3
 8003abc:	61fa      	str	r2, [r7, #28]
 8003abe:	e66f      	b.n	80037a0 <dir_sdi+0x3c>
 8003ac0:	2001      	movs	r0, #1
 8003ac2:	e689      	b.n	80037d8 <dir_sdi+0x74>
 8003ac4:	f8db 3020 	ldr.w	r3, [fp, #32]
 8003ac8:	e67d      	b.n	80037c6 <dir_sdi+0x62>
 8003aca:	bf00      	nop

08003acc <put_fat.part.8>:
 8003acc:	e92d 4ff8 	stmdb	sp!, {r3, r4, r5, r6, r7, r8, r9, sl, fp, lr}
 8003ad0:	7803      	ldrb	r3, [r0, #0]
 8003ad2:	4604      	mov	r4, r0
 8003ad4:	2b02      	cmp	r3, #2
 8003ad6:	460d      	mov	r5, r1
 8003ad8:	4617      	mov	r7, r2
 8003ada:	f000 809e 	beq.w	8003c1a <put_fat.part.8+0x14e>
 8003ade:	2b03      	cmp	r3, #3
 8003ae0:	d06f      	beq.n	8003bc2 <put_fat.part.8+0xf6>
 8003ae2:	2b01      	cmp	r3, #1
 8003ae4:	d002      	beq.n	8003aec <put_fat.part.8+0x20>
 8003ae6:	2002      	movs	r0, #2
 8003ae8:	e8bd 8ff8 	ldmia.w	sp!, {r3, r4, r5, r6, r7, r8, r9, sl, fp, pc}
 8003aec:	8981      	ldrh	r1, [r0, #12]
 8003aee:	eb05 0655 	add.w	r6, r5, r5, lsr #1
 8003af2:	fbb6 f2f1 	udiv	r2, r6, r1
 8003af6:	6ac0      	ldr	r0, [r0, #44]	; 0x2c
 8003af8:	f8d4 a038 	ldr.w	sl, [r4, #56]	; 0x38
 8003afc:	eb02 0900 	add.w	r9, r2, r0
 8003b00:	45d1      	cmp	r9, sl
 8003b02:	f104 083c 	add.w	r8, r4, #60	; 0x3c
 8003b06:	f040 8107 	bne.w	8003d18 <put_fat.part.8+0x24c>
 8003b0a:	f015 0501 	ands.w	r5, r5, #1
 8003b0e:	fb01 6212 	mls	r2, r1, r2, r6
 8003b12:	f106 0601 	add.w	r6, r6, #1
 8003b16:	f000 8132 	beq.w	8003d7e <put_fat.part.8+0x2b2>
 8003b1a:	f818 1002 	ldrb.w	r1, [r8, r2]
 8003b1e:	013b      	lsls	r3, r7, #4
 8003b20:	f001 010f 	and.w	r1, r1, #15
 8003b24:	f003 03f0 	and.w	r3, r3, #240	; 0xf0
 8003b28:	430b      	orrs	r3, r1
 8003b2a:	f808 3002 	strb.w	r3, [r8, r2]
 8003b2e:	89a2      	ldrh	r2, [r4, #12]
 8003b30:	2301      	movs	r3, #1
 8003b32:	fbb6 f1f2 	udiv	r1, r6, r2
 8003b36:	6ae0      	ldr	r0, [r4, #44]	; 0x2c
 8003b38:	f8d4 a038 	ldr.w	sl, [r4, #56]	; 0x38
 8003b3c:	eb01 0900 	add.w	r9, r1, r0
 8003b40:	45d1      	cmp	r9, sl
 8003b42:	70e3      	strb	r3, [r4, #3]
 8003b44:	d02f      	beq.n	8003ba6 <put_fat.part.8+0xda>
 8003b46:	4652      	mov	r2, sl
 8003b48:	4641      	mov	r1, r8
 8003b4a:	7860      	ldrb	r0, [r4, #1]
 8003b4c:	f7ff fd3a 	bl	80035c4 <disk_write>
 8003b50:	2800      	cmp	r0, #0
 8003b52:	f040 8111 	bne.w	8003d78 <put_fat.part.8+0x2ac>
 8003b56:	6ae2      	ldr	r2, [r4, #44]	; 0x2c
 8003b58:	6a63      	ldr	r3, [r4, #36]	; 0x24
 8003b5a:	ebaa 0202 	sub.w	r2, sl, r2
 8003b5e:	429a      	cmp	r2, r3
 8003b60:	70e0      	strb	r0, [r4, #3]
 8003b62:	d212      	bcs.n	8003b8a <put_fat.part.8+0xbe>
 8003b64:	f894 b002 	ldrb.w	fp, [r4, #2]
 8003b68:	f1bb 0f01 	cmp.w	fp, #1
 8003b6c:	d801      	bhi.n	8003b72 <put_fat.part.8+0xa6>
 8003b6e:	e00c      	b.n	8003b8a <put_fat.part.8+0xbe>
 8003b70:	6a63      	ldr	r3, [r4, #36]	; 0x24
 8003b72:	449a      	add	sl, r3
 8003b74:	f10b 3bff 	add.w	fp, fp, #4294967295
 8003b78:	4652      	mov	r2, sl
 8003b7a:	2301      	movs	r3, #1
 8003b7c:	4641      	mov	r1, r8
 8003b7e:	7860      	ldrb	r0, [r4, #1]
 8003b80:	f7ff fd20 	bl	80035c4 <disk_write>
 8003b84:	f1bb 0f01 	cmp.w	fp, #1
 8003b88:	d1f2      	bne.n	8003b70 <put_fat.part.8+0xa4>
 8003b8a:	2301      	movs	r3, #1
 8003b8c:	464a      	mov	r2, r9
 8003b8e:	4641      	mov	r1, r8
 8003b90:	7860      	ldrb	r0, [r4, #1]
 8003b92:	f7ff fd09 	bl	80035a8 <disk_read>
 8003b96:	2800      	cmp	r0, #0
 8003b98:	f040 80b8 	bne.w	8003d0c <put_fat.part.8+0x240>
 8003b9c:	89a2      	ldrh	r2, [r4, #12]
 8003b9e:	f8c4 9038 	str.w	r9, [r4, #56]	; 0x38
 8003ba2:	fbb6 f1f2 	udiv	r1, r6, r2
 8003ba6:	fb02 6611 	mls	r6, r2, r1, r6
 8003baa:	2d00      	cmp	r5, #0
 8003bac:	f000 80ed 	beq.w	8003d8a <put_fat.part.8+0x2be>
 8003bb0:	f3c7 1707 	ubfx	r7, r7, #4, #8
 8003bb4:	2301      	movs	r3, #1
 8003bb6:	f808 7006 	strb.w	r7, [r8, r6]
 8003bba:	70e3      	strb	r3, [r4, #3]
 8003bbc:	2000      	movs	r0, #0
 8003bbe:	e8bd 8ff8 	ldmia.w	sp!, {r3, r4, r5, r6, r7, r8, r9, sl, fp, pc}
 8003bc2:	8982      	ldrh	r2, [r0, #12]
 8003bc4:	6ac1      	ldr	r1, [r0, #44]	; 0x2c
 8003bc6:	0893      	lsrs	r3, r2, #2
 8003bc8:	fbb5 f3f3 	udiv	r3, r5, r3
 8003bcc:	f8d0 9038 	ldr.w	r9, [r0, #56]	; 0x38
 8003bd0:	eb03 0801 	add.w	r8, r3, r1
 8003bd4:	45c8      	cmp	r8, r9
 8003bd6:	f100 063c 	add.w	r6, r0, #60	; 0x3c
 8003bda:	d16a      	bne.n	8003cb2 <put_fat.part.8+0x1e6>
 8003bdc:	00ad      	lsls	r5, r5, #2
 8003bde:	fbb5 f0f2 	udiv	r0, r5, r2
 8003be2:	2300      	movs	r3, #0
 8003be4:	2101      	movs	r1, #1
 8003be6:	fb02 5510 	mls	r5, r2, r0, r5
 8003bea:	1972      	adds	r2, r6, r5
 8003bec:	8852      	ldrh	r2, [r2, #2]
 8003bee:	f027 4770 	bic.w	r7, r7, #4026531840	; 0xf0000000
 8003bf2:	0412      	lsls	r2, r2, #16
 8003bf4:	f002 4270 	and.w	r2, r2, #4026531840	; 0xf0000000
 8003bf8:	433a      	orrs	r2, r7
 8003bfa:	0a10      	lsrs	r0, r2, #8
 8003bfc:	f362 0307 	bfi	r3, r2, #0, #8
 8003c00:	f360 230f 	bfi	r3, r0, #8, #8
 8003c04:	0c10      	lsrs	r0, r2, #16
 8003c06:	f360 4317 	bfi	r3, r0, #16, #8
 8003c0a:	0e12      	lsrs	r2, r2, #24
 8003c0c:	f362 631f 	bfi	r3, r2, #24, #8
 8003c10:	5173      	str	r3, [r6, r5]
 8003c12:	70e1      	strb	r1, [r4, #3]
 8003c14:	2000      	movs	r0, #0
 8003c16:	e8bd 8ff8 	ldmia.w	sp!, {r3, r4, r5, r6, r7, r8, r9, sl, fp, pc}
 8003c1a:	8983      	ldrh	r3, [r0, #12]
 8003c1c:	6ac2      	ldr	r2, [r0, #44]	; 0x2c
 8003c1e:	085e      	lsrs	r6, r3, #1
 8003c20:	fbb1 f6f6 	udiv	r6, r1, r6
 8003c24:	f8d0 8038 	ldr.w	r8, [r0, #56]	; 0x38
 8003c28:	4416      	add	r6, r2
 8003c2a:	4546      	cmp	r6, r8
 8003c2c:	f100 093c 	add.w	r9, r0, #60	; 0x3c
 8003c30:	d02e      	beq.n	8003c90 <put_fat.part.8+0x1c4>
 8003c32:	78c3      	ldrb	r3, [r0, #3]
 8003c34:	7840      	ldrb	r0, [r0, #1]
 8003c36:	b313      	cbz	r3, 8003c7e <put_fat.part.8+0x1b2>
 8003c38:	2301      	movs	r3, #1
 8003c3a:	4642      	mov	r2, r8
 8003c3c:	4649      	mov	r1, r9
 8003c3e:	f7ff fcc1 	bl	80035c4 <disk_write>
 8003c42:	2800      	cmp	r0, #0
 8003c44:	f040 8098 	bne.w	8003d78 <put_fat.part.8+0x2ac>
 8003c48:	6ae2      	ldr	r2, [r4, #44]	; 0x2c
 8003c4a:	6a63      	ldr	r3, [r4, #36]	; 0x24
 8003c4c:	eba8 0202 	sub.w	r2, r8, r2
 8003c50:	429a      	cmp	r2, r3
 8003c52:	70e0      	strb	r0, [r4, #3]
 8003c54:	d212      	bcs.n	8003c7c <put_fat.part.8+0x1b0>
 8003c56:	f894 a002 	ldrb.w	sl, [r4, #2]
 8003c5a:	f1ba 0f01 	cmp.w	sl, #1
 8003c5e:	d801      	bhi.n	8003c64 <put_fat.part.8+0x198>
 8003c60:	e00c      	b.n	8003c7c <put_fat.part.8+0x1b0>
 8003c62:	6a63      	ldr	r3, [r4, #36]	; 0x24
 8003c64:	4498      	add	r8, r3
 8003c66:	f10a 3aff 	add.w	sl, sl, #4294967295
 8003c6a:	4642      	mov	r2, r8
 8003c6c:	2301      	movs	r3, #1
 8003c6e:	4649      	mov	r1, r9
 8003c70:	7860      	ldrb	r0, [r4, #1]
 8003c72:	f7ff fca7 	bl	80035c4 <disk_write>
 8003c76:	f1ba 0f01 	cmp.w	sl, #1
 8003c7a:	d1f2      	bne.n	8003c62 <put_fat.part.8+0x196>
 8003c7c:	7860      	ldrb	r0, [r4, #1]
 8003c7e:	2301      	movs	r3, #1
 8003c80:	4632      	mov	r2, r6
 8003c82:	4649      	mov	r1, r9
 8003c84:	f7ff fc90 	bl	80035a8 <disk_read>
 8003c88:	2800      	cmp	r0, #0
 8003c8a:	d13f      	bne.n	8003d0c <put_fat.part.8+0x240>
 8003c8c:	89a3      	ldrh	r3, [r4, #12]
 8003c8e:	63a6      	str	r6, [r4, #56]	; 0x38
 8003c90:	006d      	lsls	r5, r5, #1
 8003c92:	fbb5 f2f3 	udiv	r2, r5, r3
 8003c96:	2101      	movs	r1, #1
 8003c98:	fb03 5312 	mls	r3, r3, r2, r5
 8003c9c:	f3c7 2507 	ubfx	r5, r7, #8, #8
 8003ca0:	eb09 0203 	add.w	r2, r9, r3
 8003ca4:	f809 7003 	strb.w	r7, [r9, r3]
 8003ca8:	7055      	strb	r5, [r2, #1]
 8003caa:	70e1      	strb	r1, [r4, #3]
 8003cac:	2000      	movs	r0, #0
 8003cae:	e8bd 8ff8 	ldmia.w	sp!, {r3, r4, r5, r6, r7, r8, r9, sl, fp, pc}
 8003cb2:	78c3      	ldrb	r3, [r0, #3]
 8003cb4:	7840      	ldrb	r0, [r0, #1]
 8003cb6:	b313      	cbz	r3, 8003cfe <put_fat.part.8+0x232>
 8003cb8:	2301      	movs	r3, #1
 8003cba:	464a      	mov	r2, r9
 8003cbc:	4631      	mov	r1, r6
 8003cbe:	f7ff fc81 	bl	80035c4 <disk_write>
 8003cc2:	2800      	cmp	r0, #0
 8003cc4:	d158      	bne.n	8003d78 <put_fat.part.8+0x2ac>
 8003cc6:	6ae2      	ldr	r2, [r4, #44]	; 0x2c
 8003cc8:	6a63      	ldr	r3, [r4, #36]	; 0x24
 8003cca:	eba9 0202 	sub.w	r2, r9, r2
 8003cce:	429a      	cmp	r2, r3
 8003cd0:	70e0      	strb	r0, [r4, #3]
 8003cd2:	7860      	ldrb	r0, [r4, #1]
 8003cd4:	d213      	bcs.n	8003cfe <put_fat.part.8+0x232>
 8003cd6:	f894 a002 	ldrb.w	sl, [r4, #2]
 8003cda:	f1ba 0f01 	cmp.w	sl, #1
 8003cde:	d802      	bhi.n	8003ce6 <put_fat.part.8+0x21a>
 8003ce0:	e00d      	b.n	8003cfe <put_fat.part.8+0x232>
 8003ce2:	6a63      	ldr	r3, [r4, #36]	; 0x24
 8003ce4:	7860      	ldrb	r0, [r4, #1]
 8003ce6:	4499      	add	r9, r3
 8003ce8:	f10a 3aff 	add.w	sl, sl, #4294967295
 8003cec:	464a      	mov	r2, r9
 8003cee:	2301      	movs	r3, #1
 8003cf0:	4631      	mov	r1, r6
 8003cf2:	f7ff fc67 	bl	80035c4 <disk_write>
 8003cf6:	f1ba 0f01 	cmp.w	sl, #1
 8003cfa:	d1f2      	bne.n	8003ce2 <put_fat.part.8+0x216>
 8003cfc:	7860      	ldrb	r0, [r4, #1]
 8003cfe:	2301      	movs	r3, #1
 8003d00:	4642      	mov	r2, r8
 8003d02:	4631      	mov	r1, r6
 8003d04:	f7ff fc50 	bl	80035a8 <disk_read>
 8003d08:	2800      	cmp	r0, #0
 8003d0a:	d03a      	beq.n	8003d82 <put_fat.part.8+0x2b6>
 8003d0c:	f04f 33ff 	mov.w	r3, #4294967295
 8003d10:	2001      	movs	r0, #1
 8003d12:	63a3      	str	r3, [r4, #56]	; 0x38
 8003d14:	e8bd 8ff8 	ldmia.w	sp!, {r3, r4, r5, r6, r7, r8, r9, sl, fp, pc}
 8003d18:	78e2      	ldrb	r2, [r4, #3]
 8003d1a:	7860      	ldrb	r0, [r4, #1]
 8003d1c:	b1fa      	cbz	r2, 8003d5e <put_fat.part.8+0x292>
 8003d1e:	4652      	mov	r2, sl
 8003d20:	4641      	mov	r1, r8
 8003d22:	f7ff fc4f 	bl	80035c4 <disk_write>
 8003d26:	bb38      	cbnz	r0, 8003d78 <put_fat.part.8+0x2ac>
 8003d28:	6ae2      	ldr	r2, [r4, #44]	; 0x2c
 8003d2a:	6a63      	ldr	r3, [r4, #36]	; 0x24
 8003d2c:	ebaa 0202 	sub.w	r2, sl, r2
 8003d30:	429a      	cmp	r2, r3
 8003d32:	70e0      	strb	r0, [r4, #3]
 8003d34:	d212      	bcs.n	8003d5c <put_fat.part.8+0x290>
 8003d36:	f894 b002 	ldrb.w	fp, [r4, #2]
 8003d3a:	f1bb 0f01 	cmp.w	fp, #1
 8003d3e:	d801      	bhi.n	8003d44 <put_fat.part.8+0x278>
 8003d40:	e00c      	b.n	8003d5c <put_fat.part.8+0x290>
 8003d42:	6a63      	ldr	r3, [r4, #36]	; 0x24
 8003d44:	449a      	add	sl, r3
 8003d46:	f10b 3bff 	add.w	fp, fp, #4294967295
 8003d4a:	4652      	mov	r2, sl
 8003d4c:	2301      	movs	r3, #1
 8003d4e:	4641      	mov	r1, r8
 8003d50:	7860      	ldrb	r0, [r4, #1]
 8003d52:	f7ff fc37 	bl	80035c4 <disk_write>
 8003d56:	f1bb 0f01 	cmp.w	fp, #1
 8003d5a:	d1f2      	bne.n	8003d42 <put_fat.part.8+0x276>
 8003d5c:	7860      	ldrb	r0, [r4, #1]
 8003d5e:	2301      	movs	r3, #1
 8003d60:	464a      	mov	r2, r9
 8003d62:	4641      	mov	r1, r8
 8003d64:	f7ff fc20 	bl	80035a8 <disk_read>
 8003d68:	2800      	cmp	r0, #0
 8003d6a:	d1cf      	bne.n	8003d0c <put_fat.part.8+0x240>
 8003d6c:	89a1      	ldrh	r1, [r4, #12]
 8003d6e:	f8c4 9038 	str.w	r9, [r4, #56]	; 0x38
 8003d72:	fbb6 f2f1 	udiv	r2, r6, r1
 8003d76:	e6c8      	b.n	8003b0a <put_fat.part.8+0x3e>
 8003d78:	2001      	movs	r0, #1
 8003d7a:	e8bd 8ff8 	ldmia.w	sp!, {r3, r4, r5, r6, r7, r8, r9, sl, fp, pc}
 8003d7e:	b2fb      	uxtb	r3, r7
 8003d80:	e6d3      	b.n	8003b2a <put_fat.part.8+0x5e>
 8003d82:	89a2      	ldrh	r2, [r4, #12]
 8003d84:	f8c4 8038 	str.w	r8, [r4, #56]	; 0x38
 8003d88:	e728      	b.n	8003bdc <put_fat.part.8+0x110>
 8003d8a:	f818 3006 	ldrb.w	r3, [r8, r6]
 8003d8e:	f3c7 2203 	ubfx	r2, r7, #8, #4
 8003d92:	f023 070f 	bic.w	r7, r3, #15
 8003d96:	4317      	orrs	r7, r2
 8003d98:	e70c      	b.n	8003bb4 <put_fat.part.8+0xe8>
 8003d9a:	bf00      	nop

08003d9c <remove_chain>:
 8003d9c:	e92d 4ff0 	stmdb	sp!, {r4, r5, r6, r7, r8, r9, sl, fp, lr}
 8003da0:	2901      	cmp	r1, #1
 8003da2:	b085      	sub	sp, #20
 8003da4:	9000      	str	r0, [sp, #0]
 8003da6:	d914      	bls.n	8003dd2 <remove_chain+0x36>
 8003da8:	6804      	ldr	r4, [r0, #0]
 8003daa:	460d      	mov	r5, r1
 8003dac:	6a23      	ldr	r3, [r4, #32]
 8003dae:	4606      	mov	r6, r0
 8003db0:	428b      	cmp	r3, r1
 8003db2:	d90e      	bls.n	8003dd2 <remove_chain+0x36>
 8003db4:	b98a      	cbnz	r2, 8003dda <remove_chain+0x3e>
 8003db6:	46a3      	mov	fp, r4
 8003db8:	465e      	mov	r6, fp
 8003dba:	f104 0a3c 	add.w	sl, r4, #60	; 0x3c
 8003dbe:	42ab      	cmp	r3, r5
 8003dc0:	d907      	bls.n	8003dd2 <remove_chain+0x36>
 8003dc2:	7833      	ldrb	r3, [r6, #0]
 8003dc4:	2b02      	cmp	r3, #2
 8003dc6:	f000 814b 	beq.w	8004060 <remove_chain+0x2c4>
 8003dca:	2b03      	cmp	r3, #3
 8003dcc:	d06d      	beq.n	8003eaa <remove_chain+0x10e>
 8003dce:	2b01      	cmp	r3, #1
 8003dd0:	d014      	beq.n	8003dfc <remove_chain+0x60>
 8003dd2:	2002      	movs	r0, #2
 8003dd4:	b005      	add	sp, #20
 8003dd6:	e8bd 8ff0 	ldmia.w	sp!, {r4, r5, r6, r7, r8, r9, sl, fp, pc}
 8003dda:	2a01      	cmp	r2, #1
 8003ddc:	d9f9      	bls.n	8003dd2 <remove_chain+0x36>
 8003dde:	4293      	cmp	r3, r2
 8003de0:	d9f7      	bls.n	8003dd2 <remove_chain+0x36>
 8003de2:	4611      	mov	r1, r2
 8003de4:	4620      	mov	r0, r4
 8003de6:	f04f 32ff 	mov.w	r2, #4294967295
 8003dea:	f7ff fe6f 	bl	8003acc <put_fat.part.8>
 8003dee:	2800      	cmp	r0, #0
 8003df0:	d1f0      	bne.n	8003dd4 <remove_chain+0x38>
 8003df2:	f8d6 b000 	ldr.w	fp, [r6]
 8003df6:	f8db 3020 	ldr.w	r3, [fp, #32]
 8003dfa:	e7dd      	b.n	8003db8 <remove_chain+0x1c>
 8003dfc:	89b1      	ldrh	r1, [r6, #12]
 8003dfe:	eb05 0755 	add.w	r7, r5, r5, lsr #1
 8003e02:	fbb7 f2f1 	udiv	r2, r7, r1
 8003e06:	6af0      	ldr	r0, [r6, #44]	; 0x2c
 8003e08:	f8d6 9038 	ldr.w	r9, [r6, #56]	; 0x38
 8003e0c:	eb02 0800 	add.w	r8, r2, r0
 8003e10:	45c8      	cmp	r8, r9
 8003e12:	f040 816f 	bne.w	80040f4 <remove_chain+0x358>
 8003e16:	f107 0801 	add.w	r8, r7, #1
 8003e1a:	fbb8 f3f1 	udiv	r3, r8, r1
 8003e1e:	fb01 7212 	mls	r2, r1, r2, r7
 8003e22:	181f      	adds	r7, r3, r0
 8003e24:	4432      	add	r2, r6
 8003e26:	454f      	cmp	r7, r9
 8003e28:	f892 b03c 	ldrb.w	fp, [r2, #60]	; 0x3c
 8003e2c:	f000 826e 	beq.w	800430c <remove_chain+0x570>
 8003e30:	78f3      	ldrb	r3, [r6, #3]
 8003e32:	f106 023c 	add.w	r2, r6, #60	; 0x3c
 8003e36:	7870      	ldrb	r0, [r6, #1]
 8003e38:	4611      	mov	r1, r2
 8003e3a:	9201      	str	r2, [sp, #4]
 8003e3c:	b333      	cbz	r3, 8003e8c <remove_chain+0xf0>
 8003e3e:	2301      	movs	r3, #1
 8003e40:	464a      	mov	r2, r9
 8003e42:	f7ff fbbf 	bl	80035c4 <disk_write>
 8003e46:	2800      	cmp	r0, #0
 8003e48:	f040 81b9 	bne.w	80041be <remove_chain+0x422>
 8003e4c:	6af2      	ldr	r2, [r6, #44]	; 0x2c
 8003e4e:	6a73      	ldr	r3, [r6, #36]	; 0x24
 8003e50:	eba9 0202 	sub.w	r2, r9, r2
 8003e54:	429a      	cmp	r2, r3
 8003e56:	70f0      	strb	r0, [r6, #3]
 8003e58:	7870      	ldrb	r0, [r6, #1]
 8003e5a:	d217      	bcs.n	8003e8c <remove_chain+0xf0>
 8003e5c:	f896 c002 	ldrb.w	ip, [r6, #2]
 8003e60:	4662      	mov	r2, ip
 8003e62:	2a01      	cmp	r2, #1
 8003e64:	d912      	bls.n	8003e8c <remove_chain+0xf0>
 8003e66:	9402      	str	r4, [sp, #8]
 8003e68:	9503      	str	r5, [sp, #12]
 8003e6a:	4664      	mov	r4, ip
 8003e6c:	9d01      	ldr	r5, [sp, #4]
 8003e6e:	e001      	b.n	8003e74 <remove_chain+0xd8>
 8003e70:	6a73      	ldr	r3, [r6, #36]	; 0x24
 8003e72:	7870      	ldrb	r0, [r6, #1]
 8003e74:	4499      	add	r9, r3
 8003e76:	3c01      	subs	r4, #1
 8003e78:	464a      	mov	r2, r9
 8003e7a:	2301      	movs	r3, #1
 8003e7c:	4629      	mov	r1, r5
 8003e7e:	f7ff fba1 	bl	80035c4 <disk_write>
 8003e82:	2c01      	cmp	r4, #1
 8003e84:	d1f4      	bne.n	8003e70 <remove_chain+0xd4>
 8003e86:	e9dd 4502 	ldrd	r4, r5, [sp, #8]
 8003e8a:	7870      	ldrb	r0, [r6, #1]
 8003e8c:	9901      	ldr	r1, [sp, #4]
 8003e8e:	2301      	movs	r3, #1
 8003e90:	463a      	mov	r2, r7
 8003e92:	f7ff fb89 	bl	80035a8 <disk_read>
 8003e96:	2800      	cmp	r0, #0
 8003e98:	f000 8234 	beq.w	8004304 <remove_chain+0x568>
 8003e9c:	f04f 33ff 	mov.w	r3, #4294967295
 8003ea0:	2001      	movs	r0, #1
 8003ea2:	63b3      	str	r3, [r6, #56]	; 0x38
 8003ea4:	b005      	add	sp, #20
 8003ea6:	e8bd 8ff0 	ldmia.w	sp!, {r4, r5, r6, r7, r8, r9, sl, fp, pc}
 8003eaa:	89b2      	ldrh	r2, [r6, #12]
 8003eac:	6af3      	ldr	r3, [r6, #44]	; 0x2c
 8003eae:	0897      	lsrs	r7, r2, #2
 8003eb0:	fbb5 f7f7 	udiv	r7, r5, r7
 8003eb4:	f8d6 9038 	ldr.w	r9, [r6, #56]	; 0x38
 8003eb8:	441f      	add	r7, r3
 8003eba:	454f      	cmp	r7, r9
 8003ebc:	f106 083c 	add.w	r8, r6, #60	; 0x3c
 8003ec0:	f040 814d 	bne.w	800415e <remove_chain+0x3c2>
 8003ec4:	00a9      	lsls	r1, r5, #2
 8003ec6:	fbb1 f3f2 	udiv	r3, r1, r2
 8003eca:	fb02 1313 	mls	r3, r2, r3, r1
 8003ece:	eb08 0203 	add.w	r2, r8, r3
 8003ed2:	8851      	ldrh	r1, [r2, #2]
 8003ed4:	f892 b001 	ldrb.w	fp, [r2, #1]
 8003ed8:	f818 6003 	ldrb.w	r6, [r8, r3]
 8003edc:	ea4b 2b01 	orr.w	fp, fp, r1, lsl #8
 8003ee0:	ea46 260b 	orr.w	r6, r6, fp, lsl #8
 8003ee4:	f026 4670 	bic.w	r6, r6, #4026531840	; 0xf0000000
 8003ee8:	2e00      	cmp	r6, #0
 8003eea:	f000 821d 	beq.w	8004328 <remove_chain+0x58c>
 8003eee:	2e01      	cmp	r6, #1
 8003ef0:	f43f af6f 	beq.w	8003dd2 <remove_chain+0x36>
 8003ef4:	6a23      	ldr	r3, [r4, #32]
 8003ef6:	42ab      	cmp	r3, r5
 8003ef8:	f67f af6b 	bls.w	8003dd2 <remove_chain+0x36>
 8003efc:	7823      	ldrb	r3, [r4, #0]
 8003efe:	2b02      	cmp	r3, #2
 8003f00:	f000 81b0 	beq.w	8004264 <remove_chain+0x4c8>
 8003f04:	2b03      	cmp	r3, #3
 8003f06:	f000 815e 	beq.w	80041c6 <remove_chain+0x42a>
 8003f0a:	2b01      	cmp	r3, #1
 8003f0c:	f47f af61 	bne.w	8003dd2 <remove_chain+0x36>
 8003f10:	89a1      	ldrh	r1, [r4, #12]
 8003f12:	eb05 0855 	add.w	r8, r5, r5, lsr #1
 8003f16:	fbb8 f2f1 	udiv	r2, r8, r1
 8003f1a:	6ae7      	ldr	r7, [r4, #44]	; 0x2c
 8003f1c:	f8d4 9038 	ldr.w	r9, [r4, #56]	; 0x38
 8003f20:	4417      	add	r7, r2
 8003f22:	454f      	cmp	r7, r9
 8003f24:	d030      	beq.n	8003f88 <remove_chain+0x1ec>
 8003f26:	78e2      	ldrb	r2, [r4, #3]
 8003f28:	7860      	ldrb	r0, [r4, #1]
 8003f2a:	b30a      	cbz	r2, 8003f70 <remove_chain+0x1d4>
 8003f2c:	464a      	mov	r2, r9
 8003f2e:	4651      	mov	r1, sl
 8003f30:	f7ff fb48 	bl	80035c4 <disk_write>
 8003f34:	2800      	cmp	r0, #0
 8003f36:	f040 8142 	bne.w	80041be <remove_chain+0x422>
 8003f3a:	6ae2      	ldr	r2, [r4, #44]	; 0x2c
 8003f3c:	6a63      	ldr	r3, [r4, #36]	; 0x24
 8003f3e:	eba9 0202 	sub.w	r2, r9, r2
 8003f42:	429a      	cmp	r2, r3
 8003f44:	70e0      	strb	r0, [r4, #3]
 8003f46:	d212      	bcs.n	8003f6e <remove_chain+0x1d2>
 8003f48:	f894 b002 	ldrb.w	fp, [r4, #2]
 8003f4c:	f1bb 0f01 	cmp.w	fp, #1
 8003f50:	d801      	bhi.n	8003f56 <remove_chain+0x1ba>
 8003f52:	e00c      	b.n	8003f6e <remove_chain+0x1d2>
 8003f54:	6a63      	ldr	r3, [r4, #36]	; 0x24
 8003f56:	4499      	add	r9, r3
 8003f58:	f10b 3bff 	add.w	fp, fp, #4294967295
 8003f5c:	464a      	mov	r2, r9
 8003f5e:	2301      	movs	r3, #1
 8003f60:	4651      	mov	r1, sl
 8003f62:	7860      	ldrb	r0, [r4, #1]
 8003f64:	f7ff fb2e 	bl	80035c4 <disk_write>
 8003f68:	f1bb 0f01 	cmp.w	fp, #1
 8003f6c:	d1f2      	bne.n	8003f54 <remove_chain+0x1b8>
 8003f6e:	7860      	ldrb	r0, [r4, #1]
 8003f70:	2301      	movs	r3, #1
 8003f72:	463a      	mov	r2, r7
 8003f74:	4651      	mov	r1, sl
 8003f76:	f7ff fb17 	bl	80035a8 <disk_read>
 8003f7a:	2800      	cmp	r0, #0
 8003f7c:	f040 81b9 	bne.w	80042f2 <remove_chain+0x556>
 8003f80:	89a1      	ldrh	r1, [r4, #12]
 8003f82:	63a7      	str	r7, [r4, #56]	; 0x38
 8003f84:	fbb8 f2f1 	udiv	r2, r8, r1
 8003f88:	f015 0901 	ands.w	r9, r5, #1
 8003f8c:	bf08      	it	eq
 8003f8e:	464b      	moveq	r3, r9
 8003f90:	fb01 8212 	mls	r2, r1, r2, r8
 8003f94:	bf18      	it	ne
 8003f96:	f81a 3002 	ldrbne.w	r3, [sl, r2]
 8003f9a:	f108 0801 	add.w	r8, r8, #1
 8003f9e:	bf18      	it	ne
 8003fa0:	f003 030f 	andne.w	r3, r3, #15
 8003fa4:	f80a 3002 	strb.w	r3, [sl, r2]
 8003fa8:	89a2      	ldrh	r2, [r4, #12]
 8003faa:	f04f 0101 	mov.w	r1, #1
 8003fae:	fbb8 f3f2 	udiv	r3, r8, r2
 8003fb2:	6ae7      	ldr	r7, [r4, #44]	; 0x2c
 8003fb4:	6ba5      	ldr	r5, [r4, #56]	; 0x38
 8003fb6:	441f      	add	r7, r3
 8003fb8:	42af      	cmp	r7, r5
 8003fba:	70e1      	strb	r1, [r4, #3]
 8003fbc:	d02e      	beq.n	800401c <remove_chain+0x280>
 8003fbe:	2301      	movs	r3, #1
 8003fc0:	462a      	mov	r2, r5
 8003fc2:	4651      	mov	r1, sl
 8003fc4:	7860      	ldrb	r0, [r4, #1]
 8003fc6:	f7ff fafd 	bl	80035c4 <disk_write>
 8003fca:	2800      	cmp	r0, #0
 8003fcc:	f040 80f7 	bne.w	80041be <remove_chain+0x422>
 8003fd0:	6ae2      	ldr	r2, [r4, #44]	; 0x2c
 8003fd2:	6a63      	ldr	r3, [r4, #36]	; 0x24
 8003fd4:	1aaa      	subs	r2, r5, r2
 8003fd6:	429a      	cmp	r2, r3
 8003fd8:	70e0      	strb	r0, [r4, #3]
 8003fda:	d212      	bcs.n	8004002 <remove_chain+0x266>
 8003fdc:	f894 b002 	ldrb.w	fp, [r4, #2]
 8003fe0:	f1bb 0f01 	cmp.w	fp, #1
 8003fe4:	d801      	bhi.n	8003fea <remove_chain+0x24e>
 8003fe6:	e00c      	b.n	8004002 <remove_chain+0x266>
 8003fe8:	6a63      	ldr	r3, [r4, #36]	; 0x24
 8003fea:	441d      	add	r5, r3
 8003fec:	f10b 3bff 	add.w	fp, fp, #4294967295
 8003ff0:	462a      	mov	r2, r5
 8003ff2:	2301      	movs	r3, #1
 8003ff4:	4651      	mov	r1, sl
 8003ff6:	7860      	ldrb	r0, [r4, #1]
 8003ff8:	f7ff fae4 	bl	80035c4 <disk_write>
 8003ffc:	f1bb 0f01 	cmp.w	fp, #1
 8004000:	d1f2      	bne.n	8003fe8 <remove_chain+0x24c>
 8004002:	2301      	movs	r3, #1
 8004004:	463a      	mov	r2, r7
 8004006:	4651      	mov	r1, sl
 8004008:	7860      	ldrb	r0, [r4, #1]
 800400a:	f7ff facd 	bl	80035a8 <disk_read>
 800400e:	2800      	cmp	r0, #0
 8004010:	f040 816f 	bne.w	80042f2 <remove_chain+0x556>
 8004014:	89a2      	ldrh	r2, [r4, #12]
 8004016:	63a7      	str	r7, [r4, #56]	; 0x38
 8004018:	fbb8 f3f2 	udiv	r3, r8, r2
 800401c:	fb02 8813 	mls	r8, r2, r3, r8
 8004020:	f1b9 0f00 	cmp.w	r9, #0
 8004024:	f040 816c 	bne.w	8004300 <remove_chain+0x564>
 8004028:	f81a 3008 	ldrb.w	r3, [sl, r8]
 800402c:	f003 03f0 	and.w	r3, r3, #240	; 0xf0
 8004030:	f80a 3008 	strb.w	r3, [sl, r8]
 8004034:	f04f 0301 	mov.w	r3, #1
 8004038:	70e3      	strb	r3, [r4, #3]
 800403a:	e9d4 3207 	ldrd	r3, r2, [r4, #28]
 800403e:	1e91      	subs	r1, r2, #2
 8004040:	428b      	cmp	r3, r1
 8004042:	d205      	bcs.n	8004050 <remove_chain+0x2b4>
 8004044:	7921      	ldrb	r1, [r4, #4]
 8004046:	3301      	adds	r3, #1
 8004048:	f041 0101 	orr.w	r1, r1, #1
 800404c:	61e3      	str	r3, [r4, #28]
 800404e:	7121      	strb	r1, [r4, #4]
 8004050:	42b2      	cmp	r2, r6
 8004052:	f240 8169 	bls.w	8004328 <remove_chain+0x58c>
 8004056:	9b00      	ldr	r3, [sp, #0]
 8004058:	4635      	mov	r5, r6
 800405a:	681e      	ldr	r6, [r3, #0]
 800405c:	6a33      	ldr	r3, [r6, #32]
 800405e:	e6ae      	b.n	8003dbe <remove_chain+0x22>
 8004060:	89b2      	ldrh	r2, [r6, #12]
 8004062:	6af3      	ldr	r3, [r6, #44]	; 0x2c
 8004064:	0857      	lsrs	r7, r2, #1
 8004066:	fbb5 f7f7 	udiv	r7, r5, r7
 800406a:	f8d6 9038 	ldr.w	r9, [r6, #56]	; 0x38
 800406e:	441f      	add	r7, r3
 8004070:	454f      	cmp	r7, r9
 8004072:	f106 083c 	add.w	r8, r6, #60	; 0x3c
 8004076:	d02f      	beq.n	80040d8 <remove_chain+0x33c>
 8004078:	78f3      	ldrb	r3, [r6, #3]
 800407a:	7870      	ldrb	r0, [r6, #1]
 800407c:	b313      	cbz	r3, 80040c4 <remove_chain+0x328>
 800407e:	2301      	movs	r3, #1
 8004080:	464a      	mov	r2, r9
 8004082:	4641      	mov	r1, r8
 8004084:	f7ff fa9e 	bl	80035c4 <disk_write>
 8004088:	2800      	cmp	r0, #0
 800408a:	f040 8098 	bne.w	80041be <remove_chain+0x422>
 800408e:	6af2      	ldr	r2, [r6, #44]	; 0x2c
 8004090:	6a73      	ldr	r3, [r6, #36]	; 0x24
 8004092:	eba9 0202 	sub.w	r2, r9, r2
 8004096:	429a      	cmp	r2, r3
 8004098:	70f0      	strb	r0, [r6, #3]
 800409a:	d212      	bcs.n	80040c2 <remove_chain+0x326>
 800409c:	f896 b002 	ldrb.w	fp, [r6, #2]
 80040a0:	f1bb 0f01 	cmp.w	fp, #1
 80040a4:	d801      	bhi.n	80040aa <remove_chain+0x30e>
 80040a6:	e00c      	b.n	80040c2 <remove_chain+0x326>
 80040a8:	6a73      	ldr	r3, [r6, #36]	; 0x24
 80040aa:	4499      	add	r9, r3
 80040ac:	f10b 3bff 	add.w	fp, fp, #4294967295
 80040b0:	464a      	mov	r2, r9
 80040b2:	2301      	movs	r3, #1
 80040b4:	4641      	mov	r1, r8
 80040b6:	7870      	ldrb	r0, [r6, #1]
 80040b8:	f7ff fa84 	bl	80035c4 <disk_write>
 80040bc:	f1bb 0f01 	cmp.w	fp, #1
 80040c0:	d1f2      	bne.n	80040a8 <remove_chain+0x30c>
 80040c2:	7870      	ldrb	r0, [r6, #1]
 80040c4:	2301      	movs	r3, #1
 80040c6:	463a      	mov	r2, r7
 80040c8:	4641      	mov	r1, r8
 80040ca:	f7ff fa6d 	bl	80035a8 <disk_read>
 80040ce:	2800      	cmp	r0, #0
 80040d0:	f47f aee4 	bne.w	8003e9c <remove_chain+0x100>
 80040d4:	89b2      	ldrh	r2, [r6, #12]
 80040d6:	63b7      	str	r7, [r6, #56]	; 0x38
 80040d8:	0069      	lsls	r1, r5, #1
 80040da:	fbb1 f3f2 	udiv	r3, r1, r2
 80040de:	fb02 1313 	mls	r3, r2, r3, r1
 80040e2:	eb08 0203 	add.w	r2, r8, r3
 80040e6:	f892 b001 	ldrb.w	fp, [r2, #1]
 80040ea:	f818 6003 	ldrb.w	r6, [r8, r3]
 80040ee:	ea46 260b 	orr.w	r6, r6, fp, lsl #8
 80040f2:	e6f9      	b.n	8003ee8 <remove_chain+0x14c>
 80040f4:	78f2      	ldrb	r2, [r6, #3]
 80040f6:	7870      	ldrb	r0, [r6, #1]
 80040f8:	f106 0b3c 	add.w	fp, r6, #60	; 0x3c
 80040fc:	b1fa      	cbz	r2, 800413e <remove_chain+0x3a2>
 80040fe:	464a      	mov	r2, r9
 8004100:	4659      	mov	r1, fp
 8004102:	f7ff fa5f 	bl	80035c4 <disk_write>
 8004106:	2800      	cmp	r0, #0
 8004108:	d159      	bne.n	80041be <remove_chain+0x422>
 800410a:	6af2      	ldr	r2, [r6, #44]	; 0x2c
 800410c:	6a73      	ldr	r3, [r6, #36]	; 0x24
 800410e:	eba9 0202 	sub.w	r2, r9, r2
 8004112:	429a      	cmp	r2, r3
 8004114:	70f0      	strb	r0, [r6, #3]
 8004116:	d211      	bcs.n	800413c <remove_chain+0x3a0>
 8004118:	78b2      	ldrb	r2, [r6, #2]
 800411a:	2a01      	cmp	r2, #1
 800411c:	d90e      	bls.n	800413c <remove_chain+0x3a0>
 800411e:	9401      	str	r4, [sp, #4]
 8004120:	4614      	mov	r4, r2
 8004122:	e000      	b.n	8004126 <remove_chain+0x38a>
 8004124:	6a73      	ldr	r3, [r6, #36]	; 0x24
 8004126:	4499      	add	r9, r3
 8004128:	3c01      	subs	r4, #1
 800412a:	464a      	mov	r2, r9
 800412c:	2301      	movs	r3, #1
 800412e:	4659      	mov	r1, fp
 8004130:	7870      	ldrb	r0, [r6, #1]
 8004132:	f7ff fa47 	bl	80035c4 <disk_write>
 8004136:	2c01      	cmp	r4, #1
 8004138:	d1f4      	bne.n	8004124 <remove_chain+0x388>
 800413a:	9c01      	ldr	r4, [sp, #4]
 800413c:	7870      	ldrb	r0, [r6, #1]
 800413e:	4659      	mov	r1, fp
 8004140:	2301      	movs	r3, #1
 8004142:	4642      	mov	r2, r8
 8004144:	f7ff fa30 	bl	80035a8 <disk_read>
 8004148:	2800      	cmp	r0, #0
 800414a:	f47f aea7 	bne.w	8003e9c <remove_chain+0x100>
 800414e:	89b1      	ldrh	r1, [r6, #12]
 8004150:	46c1      	mov	r9, r8
 8004152:	fbb7 f2f1 	udiv	r2, r7, r1
 8004156:	6af0      	ldr	r0, [r6, #44]	; 0x2c
 8004158:	f8c6 8038 	str.w	r8, [r6, #56]	; 0x38
 800415c:	e65b      	b.n	8003e16 <remove_chain+0x7a>
 800415e:	78f3      	ldrb	r3, [r6, #3]
 8004160:	7870      	ldrb	r0, [r6, #1]
 8004162:	b30b      	cbz	r3, 80041a8 <remove_chain+0x40c>
 8004164:	2301      	movs	r3, #1
 8004166:	464a      	mov	r2, r9
 8004168:	4641      	mov	r1, r8
 800416a:	f7ff fa2b 	bl	80035c4 <disk_write>
 800416e:	bb30      	cbnz	r0, 80041be <remove_chain+0x422>
 8004170:	6af2      	ldr	r2, [r6, #44]	; 0x2c
 8004172:	6a73      	ldr	r3, [r6, #36]	; 0x24
 8004174:	eba9 0202 	sub.w	r2, r9, r2
 8004178:	429a      	cmp	r2, r3
 800417a:	70f0      	strb	r0, [r6, #3]
 800417c:	7870      	ldrb	r0, [r6, #1]
 800417e:	d213      	bcs.n	80041a8 <remove_chain+0x40c>
 8004180:	f896 b002 	ldrb.w	fp, [r6, #2]
 8004184:	f1bb 0f01 	cmp.w	fp, #1
 8004188:	d802      	bhi.n	8004190 <remove_chain+0x3f4>
 800418a:	e00d      	b.n	80041a8 <remove_chain+0x40c>
 800418c:	6a73      	ldr	r3, [r6, #36]	; 0x24
 800418e:	7870      	ldrb	r0, [r6, #1]
 8004190:	4499      	add	r9, r3
 8004192:	f10b 3bff 	add.w	fp, fp, #4294967295
 8004196:	464a      	mov	r2, r9
 8004198:	2301      	movs	r3, #1
 800419a:	4641      	mov	r1, r8
 800419c:	f7ff fa12 	bl	80035c4 <disk_write>
 80041a0:	f1bb 0f01 	cmp.w	fp, #1
 80041a4:	d1f2      	bne.n	800418c <remove_chain+0x3f0>
 80041a6:	7870      	ldrb	r0, [r6, #1]
 80041a8:	2301      	movs	r3, #1
 80041aa:	463a      	mov	r2, r7
 80041ac:	4641      	mov	r1, r8
 80041ae:	f7ff f9fb 	bl	80035a8 <disk_read>
 80041b2:	2800      	cmp	r0, #0
 80041b4:	f47f ae72 	bne.w	8003e9c <remove_chain+0x100>
 80041b8:	89b2      	ldrh	r2, [r6, #12]
 80041ba:	63b7      	str	r7, [r6, #56]	; 0x38
 80041bc:	e682      	b.n	8003ec4 <remove_chain+0x128>
 80041be:	2001      	movs	r0, #1
 80041c0:	b005      	add	sp, #20
 80041c2:	e8bd 8ff0 	ldmia.w	sp!, {r4, r5, r6, r7, r8, r9, sl, fp, pc}
 80041c6:	89a2      	ldrh	r2, [r4, #12]
 80041c8:	6ae7      	ldr	r7, [r4, #44]	; 0x2c
 80041ca:	0893      	lsrs	r3, r2, #2
 80041cc:	fbb5 f3f3 	udiv	r3, r5, r3
 80041d0:	f8d4 8038 	ldr.w	r8, [r4, #56]	; 0x38
 80041d4:	441f      	add	r7, r3
 80041d6:	4547      	cmp	r7, r8
 80041d8:	d02e      	beq.n	8004238 <remove_chain+0x49c>
 80041da:	78e3      	ldrb	r3, [r4, #3]
 80041dc:	7860      	ldrb	r0, [r4, #1]
 80041de:	b313      	cbz	r3, 8004226 <remove_chain+0x48a>
 80041e0:	2301      	movs	r3, #1
 80041e2:	4642      	mov	r2, r8
 80041e4:	4651      	mov	r1, sl
 80041e6:	f7ff f9ed 	bl	80035c4 <disk_write>
 80041ea:	2800      	cmp	r0, #0
 80041ec:	d1e7      	bne.n	80041be <remove_chain+0x422>
 80041ee:	6ae2      	ldr	r2, [r4, #44]	; 0x2c
 80041f0:	6a63      	ldr	r3, [r4, #36]	; 0x24
 80041f2:	eba8 0202 	sub.w	r2, r8, r2
 80041f6:	429a      	cmp	r2, r3
 80041f8:	70e0      	strb	r0, [r4, #3]
 80041fa:	7860      	ldrb	r0, [r4, #1]
 80041fc:	d213      	bcs.n	8004226 <remove_chain+0x48a>
 80041fe:	f894 9002 	ldrb.w	r9, [r4, #2]
 8004202:	f1b9 0f01 	cmp.w	r9, #1
 8004206:	d802      	bhi.n	800420e <remove_chain+0x472>
 8004208:	e00d      	b.n	8004226 <remove_chain+0x48a>
 800420a:	6a63      	ldr	r3, [r4, #36]	; 0x24
 800420c:	7860      	ldrb	r0, [r4, #1]
 800420e:	4498      	add	r8, r3
 8004210:	f109 39ff 	add.w	r9, r9, #4294967295
 8004214:	4642      	mov	r2, r8
 8004216:	2301      	movs	r3, #1
 8004218:	4651      	mov	r1, sl
 800421a:	f7ff f9d3 	bl	80035c4 <disk_write>
 800421e:	f1b9 0f01 	cmp.w	r9, #1
 8004222:	d1f2      	bne.n	800420a <remove_chain+0x46e>
 8004224:	7860      	ldrb	r0, [r4, #1]
 8004226:	2301      	movs	r3, #1
 8004228:	463a      	mov	r2, r7
 800422a:	4651      	mov	r1, sl
 800422c:	f7ff f9bc 	bl	80035a8 <disk_read>
 8004230:	2800      	cmp	r0, #0
 8004232:	d15e      	bne.n	80042f2 <remove_chain+0x556>
 8004234:	89a2      	ldrh	r2, [r4, #12]
 8004236:	63a7      	str	r7, [r4, #56]	; 0x38
 8004238:	00ad      	lsls	r5, r5, #2
 800423a:	fbb5 f3f2 	udiv	r3, r5, r2
 800423e:	f04f 0100 	mov.w	r1, #0
 8004242:	fb02 5513 	mls	r5, r2, r3, r5
 8004246:	eb0a 0205 	add.w	r2, sl, r5
 800424a:	8853      	ldrh	r3, [r2, #2]
 800424c:	f80a 1005 	strb.w	r1, [sl, r5]
 8004250:	0a1b      	lsrs	r3, r3, #8
 8004252:	f003 03f0 	and.w	r3, r3, #240	; 0xf0
 8004256:	70d3      	strb	r3, [r2, #3]
 8004258:	f04f 0301 	mov.w	r3, #1
 800425c:	7051      	strb	r1, [r2, #1]
 800425e:	7091      	strb	r1, [r2, #2]
 8004260:	70e3      	strb	r3, [r4, #3]
 8004262:	e6ea      	b.n	800403a <remove_chain+0x29e>
 8004264:	89a3      	ldrh	r3, [r4, #12]
 8004266:	6ae2      	ldr	r2, [r4, #44]	; 0x2c
 8004268:	085f      	lsrs	r7, r3, #1
 800426a:	fbb5 f7f7 	udiv	r7, r5, r7
 800426e:	f8d4 8038 	ldr.w	r8, [r4, #56]	; 0x38
 8004272:	4417      	add	r7, r2
 8004274:	4547      	cmp	r7, r8
 8004276:	d02c      	beq.n	80042d2 <remove_chain+0x536>
 8004278:	78e3      	ldrb	r3, [r4, #3]
 800427a:	7860      	ldrb	r0, [r4, #1]
 800427c:	b30b      	cbz	r3, 80042c2 <remove_chain+0x526>
 800427e:	2301      	movs	r3, #1
 8004280:	4642      	mov	r2, r8
 8004282:	4651      	mov	r1, sl
 8004284:	f7ff f99e 	bl	80035c4 <disk_write>
 8004288:	2800      	cmp	r0, #0
 800428a:	d198      	bne.n	80041be <remove_chain+0x422>
 800428c:	6ae2      	ldr	r2, [r4, #44]	; 0x2c
 800428e:	6a63      	ldr	r3, [r4, #36]	; 0x24
 8004290:	eba8 0202 	sub.w	r2, r8, r2
 8004294:	429a      	cmp	r2, r3
 8004296:	70e0      	strb	r0, [r4, #3]
 8004298:	d212      	bcs.n	80042c0 <remove_chain+0x524>
 800429a:	f894 9002 	ldrb.w	r9, [r4, #2]
 800429e:	f1b9 0f01 	cmp.w	r9, #1
 80042a2:	d801      	bhi.n	80042a8 <remove_chain+0x50c>
 80042a4:	e00c      	b.n	80042c0 <remove_chain+0x524>
 80042a6:	6a63      	ldr	r3, [r4, #36]	; 0x24
 80042a8:	4498      	add	r8, r3
 80042aa:	f109 39ff 	add.w	r9, r9, #4294967295
 80042ae:	4642      	mov	r2, r8
 80042b0:	2301      	movs	r3, #1
 80042b2:	4651      	mov	r1, sl
 80042b4:	7860      	ldrb	r0, [r4, #1]
 80042b6:	f7ff f985 	bl	80035c4 <disk_write>
 80042ba:	f1b9 0f01 	cmp.w	r9, #1
 80042be:	d1f2      	bne.n	80042a6 <remove_chain+0x50a>
 80042c0:	7860      	ldrb	r0, [r4, #1]
 80042c2:	2301      	movs	r3, #1
 80042c4:	463a      	mov	r2, r7
 80042c6:	4651      	mov	r1, sl
 80042c8:	f7ff f96e 	bl	80035a8 <disk_read>
 80042cc:	b988      	cbnz	r0, 80042f2 <remove_chain+0x556>
 80042ce:	89a3      	ldrh	r3, [r4, #12]
 80042d0:	63a7      	str	r7, [r4, #56]	; 0x38
 80042d2:	006d      	lsls	r5, r5, #1
 80042d4:	fbb5 f2f3 	udiv	r2, r5, r3
 80042d8:	f04f 0100 	mov.w	r1, #0
 80042dc:	fb03 5312 	mls	r3, r3, r2, r5
 80042e0:	f80a 1003 	strb.w	r1, [sl, r3]
 80042e4:	eb0a 0203 	add.w	r2, sl, r3
 80042e8:	f04f 0301 	mov.w	r3, #1
 80042ec:	7051      	strb	r1, [r2, #1]
 80042ee:	70e3      	strb	r3, [r4, #3]
 80042f0:	e6a3      	b.n	800403a <remove_chain+0x29e>
 80042f2:	f04f 33ff 	mov.w	r3, #4294967295
 80042f6:	2001      	movs	r0, #1
 80042f8:	63a3      	str	r3, [r4, #56]	; 0x38
 80042fa:	b005      	add	sp, #20
 80042fc:	e8bd 8ff0 	ldmia.w	sp!, {r4, r5, r6, r7, r8, r9, sl, fp, pc}
 8004300:	2300      	movs	r3, #0
 8004302:	e695      	b.n	8004030 <remove_chain+0x294>
 8004304:	89b1      	ldrh	r1, [r6, #12]
 8004306:	63b7      	str	r7, [r6, #56]	; 0x38
 8004308:	fbb8 f3f1 	udiv	r3, r8, r1
 800430c:	fb01 8813 	mls	r8, r1, r3, r8
 8004310:	4446      	add	r6, r8
 8004312:	f896 603c 	ldrb.w	r6, [r6, #60]	; 0x3c
 8004316:	07eb      	lsls	r3, r5, #31
 8004318:	ea4b 2b06 	orr.w	fp, fp, r6, lsl #8
 800431c:	bf4c      	ite	mi
 800431e:	ea4f 161b 	movmi.w	r6, fp, lsr #4
 8004322:	f3cb 060b 	ubfxpl	r6, fp, #0, #12
 8004326:	e5df      	b.n	8003ee8 <remove_chain+0x14c>
 8004328:	2000      	movs	r0, #0
 800432a:	e553      	b.n	8003dd4 <remove_chain+0x38>

0800432c <get_fat.isra.9>:
 800432c:	2901      	cmp	r1, #1
 800432e:	d937      	bls.n	80043a0 <get_fat.isra.9+0x74>
 8004330:	e92d 4ff8 	stmdb	sp!, {r3, r4, r5, r6, r7, r8, r9, sl, fp, lr}
 8004334:	6a03      	ldr	r3, [r0, #32]
 8004336:	4299      	cmp	r1, r3
 8004338:	d22f      	bcs.n	800439a <get_fat.isra.9+0x6e>
 800433a:	7803      	ldrb	r3, [r0, #0]
 800433c:	4604      	mov	r4, r0
 800433e:	2b02      	cmp	r3, #2
 8004340:	460d      	mov	r5, r1
 8004342:	d04b      	beq.n	80043dc <get_fat.isra.9+0xb0>
 8004344:	2b03      	cmp	r3, #3
 8004346:	d02d      	beq.n	80043a4 <get_fat.isra.9+0x78>
 8004348:	2b01      	cmp	r3, #1
 800434a:	d126      	bne.n	800439a <get_fat.isra.9+0x6e>
 800434c:	8981      	ldrh	r1, [r0, #12]
 800434e:	eb05 0655 	add.w	r6, r5, r5, lsr #1
 8004352:	fbb6 f2f1 	udiv	r2, r6, r1
 8004356:	6ac0      	ldr	r0, [r0, #44]	; 0x2c
 8004358:	6ba7      	ldr	r7, [r4, #56]	; 0x38
 800435a:	eb02 0800 	add.w	r8, r2, r0
 800435e:	45b8      	cmp	r8, r7
 8004360:	f040 80b4 	bne.w	80044cc <get_fat.isra.9+0x1a0>
 8004364:	f106 0801 	add.w	r8, r6, #1
 8004368:	fbb8 f3f1 	udiv	r3, r8, r1
 800436c:	fb01 6212 	mls	r2, r1, r2, r6
 8004370:	eb03 0900 	add.w	r9, r3, r0
 8004374:	4422      	add	r2, r4
 8004376:	45b9      	cmp	r9, r7
 8004378:	f892 603c 	ldrb.w	r6, [r2, #60]	; 0x3c
 800437c:	f040 80da 	bne.w	8004534 <get_fat.isra.9+0x208>
 8004380:	fb01 8813 	mls	r8, r1, r3, r8
 8004384:	4444      	add	r4, r8
 8004386:	f894 003c 	ldrb.w	r0, [r4, #60]	; 0x3c
 800438a:	07eb      	lsls	r3, r5, #31
 800438c:	ea46 2000 	orr.w	r0, r6, r0, lsl #8
 8004390:	bf4c      	ite	mi
 8004392:	0900      	lsrmi	r0, r0, #4
 8004394:	f3c0 000b 	ubfxpl	r0, r0, #0, #12
 8004398:	e000      	b.n	800439c <get_fat.isra.9+0x70>
 800439a:	2001      	movs	r0, #1
 800439c:	e8bd 8ff8 	ldmia.w	sp!, {r3, r4, r5, r6, r7, r8, r9, sl, fp, pc}
 80043a0:	2001      	movs	r0, #1
 80043a2:	4770      	bx	lr
 80043a4:	8983      	ldrh	r3, [r0, #12]
 80043a6:	6ac2      	ldr	r2, [r0, #44]	; 0x2c
 80043a8:	089e      	lsrs	r6, r3, #2
 80043aa:	fbb1 f6f6 	udiv	r6, r1, r6
 80043ae:	f8d0 8038 	ldr.w	r8, [r0, #56]	; 0x38
 80043b2:	4416      	add	r6, r2
 80043b4:	4546      	cmp	r6, r8
 80043b6:	f100 073c 	add.w	r7, r0, #60	; 0x3c
 80043ba:	d156      	bne.n	800446a <get_fat.isra.9+0x13e>
 80043bc:	00a9      	lsls	r1, r5, #2
 80043be:	fbb1 f5f3 	udiv	r5, r1, r3
 80043c2:	fb03 1115 	mls	r1, r3, r5, r1
 80043c6:	187a      	adds	r2, r7, r1
 80043c8:	8854      	ldrh	r4, [r2, #2]
 80043ca:	7853      	ldrb	r3, [r2, #1]
 80043cc:	5c78      	ldrb	r0, [r7, r1]
 80043ce:	ea43 2304 	orr.w	r3, r3, r4, lsl #8
 80043d2:	ea40 2003 	orr.w	r0, r0, r3, lsl #8
 80043d6:	f020 4070 	bic.w	r0, r0, #4026531840	; 0xf0000000
 80043da:	e7df      	b.n	800439c <get_fat.isra.9+0x70>
 80043dc:	8982      	ldrh	r2, [r0, #12]
 80043de:	6ac3      	ldr	r3, [r0, #44]	; 0x2c
 80043e0:	0856      	lsrs	r6, r2, #1
 80043e2:	fbb1 f6f6 	udiv	r6, r1, r6
 80043e6:	f8d0 8038 	ldr.w	r8, [r0, #56]	; 0x38
 80043ea:	441e      	add	r6, r3
 80043ec:	4546      	cmp	r6, r8
 80043ee:	f100 073c 	add.w	r7, r0, #60	; 0x3c
 80043f2:	d02f      	beq.n	8004454 <get_fat.isra.9+0x128>
 80043f4:	78c3      	ldrb	r3, [r0, #3]
 80043f6:	7840      	ldrb	r0, [r0, #1]
 80043f8:	b313      	cbz	r3, 8004440 <get_fat.isra.9+0x114>
 80043fa:	2301      	movs	r3, #1
 80043fc:	4642      	mov	r2, r8
 80043fe:	4639      	mov	r1, r7
 8004400:	f7ff f8e0 	bl	80035c4 <disk_write>
 8004404:	2800      	cmp	r0, #0
 8004406:	f040 80cb 	bne.w	80045a0 <get_fat.isra.9+0x274>
 800440a:	6ae2      	ldr	r2, [r4, #44]	; 0x2c
 800440c:	6a63      	ldr	r3, [r4, #36]	; 0x24
 800440e:	eba8 0202 	sub.w	r2, r8, r2
 8004412:	429a      	cmp	r2, r3
 8004414:	70e0      	strb	r0, [r4, #3]
 8004416:	d212      	bcs.n	800443e <get_fat.isra.9+0x112>
 8004418:	f894 9002 	ldrb.w	r9, [r4, #2]
 800441c:	f1b9 0f01 	cmp.w	r9, #1
 8004420:	d801      	bhi.n	8004426 <get_fat.isra.9+0xfa>
 8004422:	e00c      	b.n	800443e <get_fat.isra.9+0x112>
 8004424:	6a63      	ldr	r3, [r4, #36]	; 0x24
 8004426:	4498      	add	r8, r3
 8004428:	f109 39ff 	add.w	r9, r9, #4294967295
 800442c:	4642      	mov	r2, r8
 800442e:	2301      	movs	r3, #1
 8004430:	4639      	mov	r1, r7
 8004432:	7860      	ldrb	r0, [r4, #1]
 8004434:	f7ff f8c6 	bl	80035c4 <disk_write>
 8004438:	f1b9 0f01 	cmp.w	r9, #1
 800443c:	d1f2      	bne.n	8004424 <get_fat.isra.9+0xf8>
 800443e:	7860      	ldrb	r0, [r4, #1]
 8004440:	2301      	movs	r3, #1
 8004442:	4632      	mov	r2, r6
 8004444:	4639      	mov	r1, r7
 8004446:	f7ff f8af 	bl	80035a8 <disk_read>
 800444a:	2800      	cmp	r0, #0
 800444c:	f040 80a4 	bne.w	8004598 <get_fat.isra.9+0x26c>
 8004450:	89a2      	ldrh	r2, [r4, #12]
 8004452:	63a6      	str	r6, [r4, #56]	; 0x38
 8004454:	0069      	lsls	r1, r5, #1
 8004456:	fbb1 f3f2 	udiv	r3, r1, r2
 800445a:	fb02 1113 	mls	r1, r2, r3, r1
 800445e:	187b      	adds	r3, r7, r1
 8004460:	785b      	ldrb	r3, [r3, #1]
 8004462:	5c78      	ldrb	r0, [r7, r1]
 8004464:	ea40 2003 	orr.w	r0, r0, r3, lsl #8
 8004468:	e798      	b.n	800439c <get_fat.isra.9+0x70>
 800446a:	78c3      	ldrb	r3, [r0, #3]
 800446c:	7840      	ldrb	r0, [r0, #1]
 800446e:	b31b      	cbz	r3, 80044b8 <get_fat.isra.9+0x18c>
 8004470:	2301      	movs	r3, #1
 8004472:	4642      	mov	r2, r8
 8004474:	4639      	mov	r1, r7
 8004476:	f7ff f8a5 	bl	80035c4 <disk_write>
 800447a:	2800      	cmp	r0, #0
 800447c:	f040 8090 	bne.w	80045a0 <get_fat.isra.9+0x274>
 8004480:	6ae2      	ldr	r2, [r4, #44]	; 0x2c
 8004482:	6a63      	ldr	r3, [r4, #36]	; 0x24
 8004484:	eba8 0202 	sub.w	r2, r8, r2
 8004488:	429a      	cmp	r2, r3
 800448a:	70e0      	strb	r0, [r4, #3]
 800448c:	7860      	ldrb	r0, [r4, #1]
 800448e:	d213      	bcs.n	80044b8 <get_fat.isra.9+0x18c>
 8004490:	f894 9002 	ldrb.w	r9, [r4, #2]
 8004494:	f1b9 0f01 	cmp.w	r9, #1
 8004498:	d802      	bhi.n	80044a0 <get_fat.isra.9+0x174>
 800449a:	e00d      	b.n	80044b8 <get_fat.isra.9+0x18c>
 800449c:	6a63      	ldr	r3, [r4, #36]	; 0x24
 800449e:	7860      	ldrb	r0, [r4, #1]
 80044a0:	4498      	add	r8, r3
 80044a2:	f109 39ff 	add.w	r9, r9, #4294967295
 80044a6:	4642      	mov	r2, r8
 80044a8:	2301      	movs	r3, #1
 80044aa:	4639      	mov	r1, r7
 80044ac:	f7ff f88a 	bl	80035c4 <disk_write>
 80044b0:	f1b9 0f01 	cmp.w	r9, #1
 80044b4:	d1f2      	bne.n	800449c <get_fat.isra.9+0x170>
 80044b6:	7860      	ldrb	r0, [r4, #1]
 80044b8:	2301      	movs	r3, #1
 80044ba:	4632      	mov	r2, r6
 80044bc:	4639      	mov	r1, r7
 80044be:	f7ff f873 	bl	80035a8 <disk_read>
 80044c2:	2800      	cmp	r0, #0
 80044c4:	d168      	bne.n	8004598 <get_fat.isra.9+0x26c>
 80044c6:	89a3      	ldrh	r3, [r4, #12]
 80044c8:	63a6      	str	r6, [r4, #56]	; 0x38
 80044ca:	e777      	b.n	80043bc <get_fat.isra.9+0x90>
 80044cc:	78e2      	ldrb	r2, [r4, #3]
 80044ce:	7860      	ldrb	r0, [r4, #1]
 80044d0:	f104 093c 	add.w	r9, r4, #60	; 0x3c
 80044d4:	b1fa      	cbz	r2, 8004516 <get_fat.isra.9+0x1ea>
 80044d6:	463a      	mov	r2, r7
 80044d8:	4649      	mov	r1, r9
 80044da:	f7ff f873 	bl	80035c4 <disk_write>
 80044de:	2800      	cmp	r0, #0
 80044e0:	d15e      	bne.n	80045a0 <get_fat.isra.9+0x274>
 80044e2:	6ae2      	ldr	r2, [r4, #44]	; 0x2c
 80044e4:	6a63      	ldr	r3, [r4, #36]	; 0x24
 80044e6:	1aba      	subs	r2, r7, r2
 80044e8:	429a      	cmp	r2, r3
 80044ea:	70e0      	strb	r0, [r4, #3]
 80044ec:	d212      	bcs.n	8004514 <get_fat.isra.9+0x1e8>
 80044ee:	f894 a002 	ldrb.w	sl, [r4, #2]
 80044f2:	f1ba 0f01 	cmp.w	sl, #1
 80044f6:	d801      	bhi.n	80044fc <get_fat.isra.9+0x1d0>
 80044f8:	e00c      	b.n	8004514 <get_fat.isra.9+0x1e8>
 80044fa:	6a63      	ldr	r3, [r4, #36]	; 0x24
 80044fc:	441f      	add	r7, r3
 80044fe:	f10a 3aff 	add.w	sl, sl, #4294967295
 8004502:	463a      	mov	r2, r7
 8004504:	2301      	movs	r3, #1
 8004506:	4649      	mov	r1, r9
 8004508:	7860      	ldrb	r0, [r4, #1]
 800450a:	f7ff f85b 	bl	80035c4 <disk_write>
 800450e:	f1ba 0f01 	cmp.w	sl, #1
 8004512:	d1f2      	bne.n	80044fa <get_fat.isra.9+0x1ce>
 8004514:	7860      	ldrb	r0, [r4, #1]
 8004516:	4649      	mov	r1, r9
 8004518:	2301      	movs	r3, #1
 800451a:	4642      	mov	r2, r8
 800451c:	f7ff f844 	bl	80035a8 <disk_read>
 8004520:	2800      	cmp	r0, #0
 8004522:	d139      	bne.n	8004598 <get_fat.isra.9+0x26c>
 8004524:	89a1      	ldrh	r1, [r4, #12]
 8004526:	4647      	mov	r7, r8
 8004528:	fbb6 f2f1 	udiv	r2, r6, r1
 800452c:	6ae0      	ldr	r0, [r4, #44]	; 0x2c
 800452e:	f8c4 8038 	str.w	r8, [r4, #56]	; 0x38
 8004532:	e717      	b.n	8004364 <get_fat.isra.9+0x38>
 8004534:	78e3      	ldrb	r3, [r4, #3]
 8004536:	7860      	ldrb	r0, [r4, #1]
 8004538:	f104 0a3c 	add.w	sl, r4, #60	; 0x3c
 800453c:	b303      	cbz	r3, 8004580 <get_fat.isra.9+0x254>
 800453e:	2301      	movs	r3, #1
 8004540:	463a      	mov	r2, r7
 8004542:	4651      	mov	r1, sl
 8004544:	f7ff f83e 	bl	80035c4 <disk_write>
 8004548:	bb50      	cbnz	r0, 80045a0 <get_fat.isra.9+0x274>
 800454a:	6ae2      	ldr	r2, [r4, #44]	; 0x2c
 800454c:	6a63      	ldr	r3, [r4, #36]	; 0x24
 800454e:	1aba      	subs	r2, r7, r2
 8004550:	429a      	cmp	r2, r3
 8004552:	70e0      	strb	r0, [r4, #3]
 8004554:	7860      	ldrb	r0, [r4, #1]
 8004556:	d213      	bcs.n	8004580 <get_fat.isra.9+0x254>
 8004558:	f894 b002 	ldrb.w	fp, [r4, #2]
 800455c:	f1bb 0f01 	cmp.w	fp, #1
 8004560:	d802      	bhi.n	8004568 <get_fat.isra.9+0x23c>
 8004562:	e00d      	b.n	8004580 <get_fat.isra.9+0x254>
 8004564:	6a63      	ldr	r3, [r4, #36]	; 0x24
 8004566:	7860      	ldrb	r0, [r4, #1]
 8004568:	441f      	add	r7, r3
 800456a:	f10b 3bff 	add.w	fp, fp, #4294967295
 800456e:	463a      	mov	r2, r7
 8004570:	2301      	movs	r3, #1
 8004572:	4651      	mov	r1, sl
 8004574:	f7ff f826 	bl	80035c4 <disk_write>
 8004578:	f1bb 0f01 	cmp.w	fp, #1
 800457c:	d1f2      	bne.n	8004564 <get_fat.isra.9+0x238>
 800457e:	7860      	ldrb	r0, [r4, #1]
 8004580:	4651      	mov	r1, sl
 8004582:	2301      	movs	r3, #1
 8004584:	464a      	mov	r2, r9
 8004586:	f7ff f80f 	bl	80035a8 <disk_read>
 800458a:	b928      	cbnz	r0, 8004598 <get_fat.isra.9+0x26c>
 800458c:	89a1      	ldrh	r1, [r4, #12]
 800458e:	f8c4 9038 	str.w	r9, [r4, #56]	; 0x38
 8004592:	fbb8 f3f1 	udiv	r3, r8, r1
 8004596:	e6f3      	b.n	8004380 <get_fat.isra.9+0x54>
 8004598:	f04f 30ff 	mov.w	r0, #4294967295
 800459c:	63a0      	str	r0, [r4, #56]	; 0x38
 800459e:	e6fd      	b.n	800439c <get_fat.isra.9+0x70>
 80045a0:	f04f 30ff 	mov.w	r0, #4294967295
 80045a4:	e6fa      	b.n	800439c <get_fat.isra.9+0x70>
 80045a6:	bf00      	nop

080045a8 <create_chain>:
 80045a8:	e92d 4ff0 	stmdb	sp!, {r4, r5, r6, r7, r8, r9, sl, fp, lr}
 80045ac:	b087      	sub	sp, #28
 80045ae:	4682      	mov	sl, r0
 80045b0:	9101      	str	r1, [sp, #4]
 80045b2:	f8d0 b000 	ldr.w	fp, [r0]
 80045b6:	2900      	cmp	r1, #0
 80045b8:	f040 8173 	bne.w	80048a2 <create_chain+0x2fa>
 80045bc:	f8db 8018 	ldr.w	r8, [fp, #24]
 80045c0:	f8db 3020 	ldr.w	r3, [fp, #32]
 80045c4:	f1b8 0f00 	cmp.w	r8, #0
 80045c8:	d11d      	bne.n	8004606 <create_chain+0x5e>
 80045ca:	f04f 0801 	mov.w	r8, #1
 80045ce:	4644      	mov	r4, r8
 80045d0:	3401      	adds	r4, #1
 80045d2:	429c      	cmp	r4, r3
 80045d4:	d31c      	bcc.n	8004610 <create_chain+0x68>
 80045d6:	f1b8 0f01 	cmp.w	r8, #1
 80045da:	f240 8188 	bls.w	80048ee <create_chain+0x346>
 80045de:	2402      	movs	r4, #2
 80045e0:	f8da 5000 	ldr.w	r5, [sl]
 80045e4:	6a2b      	ldr	r3, [r5, #32]
 80045e6:	42a3      	cmp	r3, r4
 80045e8:	d908      	bls.n	80045fc <create_chain+0x54>
 80045ea:	782b      	ldrb	r3, [r5, #0]
 80045ec:	2b02      	cmp	r3, #2
 80045ee:	f000 810a 	beq.w	8004806 <create_chain+0x25e>
 80045f2:	2b03      	cmp	r3, #3
 80045f4:	f000 80b8 	beq.w	8004768 <create_chain+0x1c0>
 80045f8:	2b01      	cmp	r3, #1
 80045fa:	d00e      	beq.n	800461a <create_chain+0x72>
 80045fc:	2401      	movs	r4, #1
 80045fe:	4620      	mov	r0, r4
 8004600:	b007      	add	sp, #28
 8004602:	e8bd 8ff0 	ldmia.w	sp!, {r4, r5, r6, r7, r8, r9, sl, fp, pc}
 8004606:	4598      	cmp	r8, r3
 8004608:	bf28      	it	cs
 800460a:	f04f 0801 	movcs.w	r8, #1
 800460e:	e7de      	b.n	80045ce <create_chain+0x26>
 8004610:	2c01      	cmp	r4, #1
 8004612:	f8da 5000 	ldr.w	r5, [sl]
 8004616:	d9f1      	bls.n	80045fc <create_chain+0x54>
 8004618:	e7e4      	b.n	80045e4 <create_chain+0x3c>
 800461a:	89a9      	ldrh	r1, [r5, #12]
 800461c:	eb04 0654 	add.w	r6, r4, r4, lsr #1
 8004620:	fbb6 f2f1 	udiv	r2, r6, r1
 8004624:	6ae8      	ldr	r0, [r5, #44]	; 0x2c
 8004626:	f8d5 9038 	ldr.w	r9, [r5, #56]	; 0x38
 800462a:	1817      	adds	r7, r2, r0
 800462c:	454f      	cmp	r7, r9
 800462e:	d039      	beq.n	80046a4 <create_chain+0xfc>
 8004630:	78ea      	ldrb	r2, [r5, #3]
 8004632:	f105 013c 	add.w	r1, r5, #60	; 0x3c
 8004636:	7868      	ldrb	r0, [r5, #1]
 8004638:	9102      	str	r1, [sp, #8]
 800463a:	b332      	cbz	r2, 800468a <create_chain+0xe2>
 800463c:	464a      	mov	r2, r9
 800463e:	f7fe ffc1 	bl	80035c4 <disk_write>
 8004642:	2800      	cmp	r0, #0
 8004644:	f040 814d 	bne.w	80048e2 <create_chain+0x33a>
 8004648:	6aea      	ldr	r2, [r5, #44]	; 0x2c
 800464a:	6a6b      	ldr	r3, [r5, #36]	; 0x24
 800464c:	eba9 0202 	sub.w	r2, r9, r2
 8004650:	429a      	cmp	r2, r3
 8004652:	70e8      	strb	r0, [r5, #3]
 8004654:	d217      	bcs.n	8004686 <create_chain+0xde>
 8004656:	78aa      	ldrb	r2, [r5, #2]
 8004658:	2a01      	cmp	r2, #1
 800465a:	d914      	bls.n	8004686 <create_chain+0xde>
 800465c:	f8cd 800c 	str.w	r8, [sp, #12]
 8004660:	9404      	str	r4, [sp, #16]
 8004662:	4690      	mov	r8, r2
 8004664:	9c02      	ldr	r4, [sp, #8]
 8004666:	e000      	b.n	800466a <create_chain+0xc2>
 8004668:	6a6b      	ldr	r3, [r5, #36]	; 0x24
 800466a:	4499      	add	r9, r3
 800466c:	f108 38ff 	add.w	r8, r8, #4294967295
 8004670:	464a      	mov	r2, r9
 8004672:	2301      	movs	r3, #1
 8004674:	4621      	mov	r1, r4
 8004676:	7868      	ldrb	r0, [r5, #1]
 8004678:	f7fe ffa4 	bl	80035c4 <disk_write>
 800467c:	f1b8 0f01 	cmp.w	r8, #1
 8004680:	d1f2      	bne.n	8004668 <create_chain+0xc0>
 8004682:	e9dd 8403 	ldrd	r8, r4, [sp, #12]
 8004686:	7868      	ldrb	r0, [r5, #1]
 8004688:	9902      	ldr	r1, [sp, #8]
 800468a:	2301      	movs	r3, #1
 800468c:	463a      	mov	r2, r7
 800468e:	f7fe ff8b 	bl	80035a8 <disk_read>
 8004692:	2800      	cmp	r0, #0
 8004694:	f040 80f1 	bne.w	800487a <create_chain+0x2d2>
 8004698:	89a9      	ldrh	r1, [r5, #12]
 800469a:	46b9      	mov	r9, r7
 800469c:	fbb6 f2f1 	udiv	r2, r6, r1
 80046a0:	6ae8      	ldr	r0, [r5, #44]	; 0x2c
 80046a2:	63af      	str	r7, [r5, #56]	; 0x38
 80046a4:	1c77      	adds	r7, r6, #1
 80046a6:	fbb7 f3f1 	udiv	r3, r7, r1
 80046aa:	fb01 6612 	mls	r6, r1, r2, r6
 80046ae:	181a      	adds	r2, r3, r0
 80046b0:	442e      	add	r6, r5
 80046b2:	454a      	cmp	r2, r9
 80046b4:	9202      	str	r2, [sp, #8]
 80046b6:	f896 603c 	ldrb.w	r6, [r6, #60]	; 0x3c
 80046ba:	d03d      	beq.n	8004738 <create_chain+0x190>
 80046bc:	78eb      	ldrb	r3, [r5, #3]
 80046be:	f105 023c 	add.w	r2, r5, #60	; 0x3c
 80046c2:	7868      	ldrb	r0, [r5, #1]
 80046c4:	4611      	mov	r1, r2
 80046c6:	9203      	str	r2, [sp, #12]
 80046c8:	b34b      	cbz	r3, 800471e <create_chain+0x176>
 80046ca:	2301      	movs	r3, #1
 80046cc:	464a      	mov	r2, r9
 80046ce:	f7fe ff79 	bl	80035c4 <disk_write>
 80046d2:	2800      	cmp	r0, #0
 80046d4:	f040 8105 	bne.w	80048e2 <create_chain+0x33a>
 80046d8:	6aea      	ldr	r2, [r5, #44]	; 0x2c
 80046da:	6a6b      	ldr	r3, [r5, #36]	; 0x24
 80046dc:	eba9 0202 	sub.w	r2, r9, r2
 80046e0:	429a      	cmp	r2, r3
 80046e2:	70e8      	strb	r0, [r5, #3]
 80046e4:	7868      	ldrb	r0, [r5, #1]
 80046e6:	d21a      	bcs.n	800471e <create_chain+0x176>
 80046e8:	f895 c002 	ldrb.w	ip, [r5, #2]
 80046ec:	4662      	mov	r2, ip
 80046ee:	2a01      	cmp	r2, #1
 80046f0:	d915      	bls.n	800471e <create_chain+0x176>
 80046f2:	f8cd 8010 	str.w	r8, [sp, #16]
 80046f6:	9405      	str	r4, [sp, #20]
 80046f8:	46e0      	mov	r8, ip
 80046fa:	9c03      	ldr	r4, [sp, #12]
 80046fc:	e001      	b.n	8004702 <create_chain+0x15a>
 80046fe:	6a6b      	ldr	r3, [r5, #36]	; 0x24
 8004700:	7868      	ldrb	r0, [r5, #1]
 8004702:	4499      	add	r9, r3
 8004704:	f108 38ff 	add.w	r8, r8, #4294967295
 8004708:	464a      	mov	r2, r9
 800470a:	2301      	movs	r3, #1
 800470c:	4621      	mov	r1, r4
 800470e:	f7fe ff59 	bl	80035c4 <disk_write>
 8004712:	f1b8 0f01 	cmp.w	r8, #1
 8004716:	d1f2      	bne.n	80046fe <create_chain+0x156>
 8004718:	e9dd 8404 	ldrd	r8, r4, [sp, #16]
 800471c:	7868      	ldrb	r0, [r5, #1]
 800471e:	9903      	ldr	r1, [sp, #12]
 8004720:	2301      	movs	r3, #1
 8004722:	9a02      	ldr	r2, [sp, #8]
 8004724:	f7fe ff40 	bl	80035a8 <disk_read>
 8004728:	2800      	cmp	r0, #0
 800472a:	f040 80a6 	bne.w	800487a <create_chain+0x2d2>
 800472e:	9b02      	ldr	r3, [sp, #8]
 8004730:	89a9      	ldrh	r1, [r5, #12]
 8004732:	63ab      	str	r3, [r5, #56]	; 0x38
 8004734:	fbb7 f3f1 	udiv	r3, r7, r1
 8004738:	fb01 7713 	mls	r7, r1, r3, r7
 800473c:	443d      	add	r5, r7
 800473e:	f895 303c 	ldrb.w	r3, [r5, #60]	; 0x3c
 8004742:	07e2      	lsls	r2, r4, #31
 8004744:	ea46 2303 	orr.w	r3, r6, r3, lsl #8
 8004748:	bf4c      	ite	mi
 800474a:	091b      	lsrmi	r3, r3, #4
 800474c:	f3c3 030b 	ubfxpl	r3, r3, #0, #12
 8004750:	2b00      	cmp	r3, #0
 8004752:	f000 80b7 	beq.w	80048c4 <create_chain+0x31c>
 8004756:	2b01      	cmp	r3, #1
 8004758:	f43f af50 	beq.w	80045fc <create_chain+0x54>
 800475c:	45a0      	cmp	r8, r4
 800475e:	f000 80c6 	beq.w	80048ee <create_chain+0x346>
 8004762:	f8db 3020 	ldr.w	r3, [fp, #32]
 8004766:	e733      	b.n	80045d0 <create_chain+0x28>
 8004768:	89ab      	ldrh	r3, [r5, #12]
 800476a:	6aea      	ldr	r2, [r5, #44]	; 0x2c
 800476c:	089e      	lsrs	r6, r3, #2
 800476e:	fbb4 f6f6 	udiv	r6, r4, r6
 8004772:	f8d5 9038 	ldr.w	r9, [r5, #56]	; 0x38
 8004776:	4416      	add	r6, r2
 8004778:	454e      	cmp	r6, r9
 800477a:	f105 073c 	add.w	r7, r5, #60	; 0x3c
 800477e:	d032      	beq.n	80047e6 <create_chain+0x23e>
 8004780:	78eb      	ldrb	r3, [r5, #3]
 8004782:	7868      	ldrb	r0, [r5, #1]
 8004784:	b333      	cbz	r3, 80047d4 <create_chain+0x22c>
 8004786:	2301      	movs	r3, #1
 8004788:	464a      	mov	r2, r9
 800478a:	4639      	mov	r1, r7
 800478c:	f7fe ff1a 	bl	80035c4 <disk_write>
 8004790:	2800      	cmp	r0, #0
 8004792:	f040 80a6 	bne.w	80048e2 <create_chain+0x33a>
 8004796:	6aea      	ldr	r2, [r5, #44]	; 0x2c
 8004798:	6a6b      	ldr	r3, [r5, #36]	; 0x24
 800479a:	eba9 0202 	sub.w	r2, r9, r2
 800479e:	429a      	cmp	r2, r3
 80047a0:	70e8      	strb	r0, [r5, #3]
 80047a2:	7868      	ldrb	r0, [r5, #1]
 80047a4:	d216      	bcs.n	80047d4 <create_chain+0x22c>
 80047a6:	78aa      	ldrb	r2, [r5, #2]
 80047a8:	2a01      	cmp	r2, #1
 80047aa:	d913      	bls.n	80047d4 <create_chain+0x22c>
 80047ac:	f8cd 8008 	str.w	r8, [sp, #8]
 80047b0:	4690      	mov	r8, r2
 80047b2:	e001      	b.n	80047b8 <create_chain+0x210>
 80047b4:	6a6b      	ldr	r3, [r5, #36]	; 0x24
 80047b6:	7868      	ldrb	r0, [r5, #1]
 80047b8:	4499      	add	r9, r3
 80047ba:	f108 38ff 	add.w	r8, r8, #4294967295
 80047be:	464a      	mov	r2, r9
 80047c0:	2301      	movs	r3, #1
 80047c2:	4639      	mov	r1, r7
 80047c4:	f7fe fefe 	bl	80035c4 <disk_write>
 80047c8:	f1b8 0f01 	cmp.w	r8, #1
 80047cc:	d1f2      	bne.n	80047b4 <create_chain+0x20c>
 80047ce:	f8dd 8008 	ldr.w	r8, [sp, #8]
 80047d2:	7868      	ldrb	r0, [r5, #1]
 80047d4:	2301      	movs	r3, #1
 80047d6:	4632      	mov	r2, r6
 80047d8:	4639      	mov	r1, r7
 80047da:	f7fe fee5 	bl	80035a8 <disk_read>
 80047de:	2800      	cmp	r0, #0
 80047e0:	d14b      	bne.n	800487a <create_chain+0x2d2>
 80047e2:	89ab      	ldrh	r3, [r5, #12]
 80047e4:	63ae      	str	r6, [r5, #56]	; 0x38
 80047e6:	00a1      	lsls	r1, r4, #2
 80047e8:	fbb1 f2f3 	udiv	r2, r1, r3
 80047ec:	fb03 1212 	mls	r2, r3, r2, r1
 80047f0:	18b9      	adds	r1, r7, r2
 80047f2:	8848      	ldrh	r0, [r1, #2]
 80047f4:	7849      	ldrb	r1, [r1, #1]
 80047f6:	5cbb      	ldrb	r3, [r7, r2]
 80047f8:	ea41 2200 	orr.w	r2, r1, r0, lsl #8
 80047fc:	ea43 2302 	orr.w	r3, r3, r2, lsl #8
 8004800:	f023 4370 	bic.w	r3, r3, #4026531840	; 0xf0000000
 8004804:	e7a4      	b.n	8004750 <create_chain+0x1a8>
 8004806:	89ab      	ldrh	r3, [r5, #12]
 8004808:	6aea      	ldr	r2, [r5, #44]	; 0x2c
 800480a:	085e      	lsrs	r6, r3, #1
 800480c:	fbb4 f6f6 	udiv	r6, r4, r6
 8004810:	f8d5 9038 	ldr.w	r9, [r5, #56]	; 0x38
 8004814:	4416      	add	r6, r2
 8004816:	454e      	cmp	r6, r9
 8004818:	f105 073c 	add.w	r7, r5, #60	; 0x3c
 800481c:	d036      	beq.n	800488c <create_chain+0x2e4>
 800481e:	78eb      	ldrb	r3, [r5, #3]
 8004820:	7868      	ldrb	r0, [r5, #1]
 8004822:	b323      	cbz	r3, 800486e <create_chain+0x2c6>
 8004824:	2301      	movs	r3, #1
 8004826:	464a      	mov	r2, r9
 8004828:	4639      	mov	r1, r7
 800482a:	f7fe fecb 	bl	80035c4 <disk_write>
 800482e:	2800      	cmp	r0, #0
 8004830:	d157      	bne.n	80048e2 <create_chain+0x33a>
 8004832:	6aea      	ldr	r2, [r5, #44]	; 0x2c
 8004834:	6a6b      	ldr	r3, [r5, #36]	; 0x24
 8004836:	eba9 0202 	sub.w	r2, r9, r2
 800483a:	429a      	cmp	r2, r3
 800483c:	70e8      	strb	r0, [r5, #3]
 800483e:	d215      	bcs.n	800486c <create_chain+0x2c4>
 8004840:	78aa      	ldrb	r2, [r5, #2]
 8004842:	2a01      	cmp	r2, #1
 8004844:	d912      	bls.n	800486c <create_chain+0x2c4>
 8004846:	f8cd 8008 	str.w	r8, [sp, #8]
 800484a:	4690      	mov	r8, r2
 800484c:	e000      	b.n	8004850 <create_chain+0x2a8>
 800484e:	6a6b      	ldr	r3, [r5, #36]	; 0x24
 8004850:	4499      	add	r9, r3
 8004852:	f108 38ff 	add.w	r8, r8, #4294967295
 8004856:	464a      	mov	r2, r9
 8004858:	2301      	movs	r3, #1
 800485a:	4639      	mov	r1, r7
 800485c:	7868      	ldrb	r0, [r5, #1]
 800485e:	f7fe feb1 	bl	80035c4 <disk_write>
 8004862:	f1b8 0f01 	cmp.w	r8, #1
 8004866:	d1f2      	bne.n	800484e <create_chain+0x2a6>
 8004868:	f8dd 8008 	ldr.w	r8, [sp, #8]
 800486c:	7868      	ldrb	r0, [r5, #1]
 800486e:	2301      	movs	r3, #1
 8004870:	4632      	mov	r2, r6
 8004872:	4639      	mov	r1, r7
 8004874:	f7fe fe98 	bl	80035a8 <disk_read>
 8004878:	b130      	cbz	r0, 8004888 <create_chain+0x2e0>
 800487a:	f04f 34ff 	mov.w	r4, #4294967295
 800487e:	4620      	mov	r0, r4
 8004880:	63ac      	str	r4, [r5, #56]	; 0x38
 8004882:	b007      	add	sp, #28
 8004884:	e8bd 8ff0 	ldmia.w	sp!, {r4, r5, r6, r7, r8, r9, sl, fp, pc}
 8004888:	89ab      	ldrh	r3, [r5, #12]
 800488a:	63ae      	str	r6, [r5, #56]	; 0x38
 800488c:	0061      	lsls	r1, r4, #1
 800488e:	fbb1 f2f3 	udiv	r2, r1, r3
 8004892:	fb03 1212 	mls	r2, r3, r2, r1
 8004896:	18bb      	adds	r3, r7, r2
 8004898:	7859      	ldrb	r1, [r3, #1]
 800489a:	5cbb      	ldrb	r3, [r7, r2]
 800489c:	ea43 2301 	orr.w	r3, r3, r1, lsl #8
 80048a0:	e756      	b.n	8004750 <create_chain+0x1a8>
 80048a2:	4658      	mov	r0, fp
 80048a4:	f7ff fd42 	bl	800432c <get_fat.isra.9>
 80048a8:	2801      	cmp	r0, #1
 80048aa:	4604      	mov	r4, r0
 80048ac:	f67f aea6 	bls.w	80045fc <create_chain+0x54>
 80048b0:	1c41      	adds	r1, r0, #1
 80048b2:	d016      	beq.n	80048e2 <create_chain+0x33a>
 80048b4:	f8db 3020 	ldr.w	r3, [fp, #32]
 80048b8:	4283      	cmp	r3, r0
 80048ba:	f63f aea0 	bhi.w	80045fe <create_chain+0x56>
 80048be:	f8dd 8004 	ldr.w	r8, [sp, #4]
 80048c2:	e684      	b.n	80045ce <create_chain+0x26>
 80048c4:	f8db 3020 	ldr.w	r3, [fp, #32]
 80048c8:	42a3      	cmp	r3, r4
 80048ca:	f67f ae97 	bls.w	80045fc <create_chain+0x54>
 80048ce:	f04f 32ff 	mov.w	r2, #4294967295
 80048d2:	4621      	mov	r1, r4
 80048d4:	4658      	mov	r0, fp
 80048d6:	f7ff f8f9 	bl	8003acc <put_fat.part.8>
 80048da:	b168      	cbz	r0, 80048f8 <create_chain+0x350>
 80048dc:	2801      	cmp	r0, #1
 80048de:	f47f ae8d 	bne.w	80045fc <create_chain+0x54>
 80048e2:	f04f 34ff 	mov.w	r4, #4294967295
 80048e6:	4620      	mov	r0, r4
 80048e8:	b007      	add	sp, #28
 80048ea:	e8bd 8ff0 	ldmia.w	sp!, {r4, r5, r6, r7, r8, r9, sl, fp, pc}
 80048ee:	2400      	movs	r4, #0
 80048f0:	4620      	mov	r0, r4
 80048f2:	b007      	add	sp, #28
 80048f4:	e8bd 8ff0 	ldmia.w	sp!, {r4, r5, r6, r7, r8, r9, sl, fp, pc}
 80048f8:	9b01      	ldr	r3, [sp, #4]
 80048fa:	b17b      	cbz	r3, 800491c <create_chain+0x374>
 80048fc:	2b01      	cmp	r3, #1
 80048fe:	461a      	mov	r2, r3
 8004900:	f67f ae7c 	bls.w	80045fc <create_chain+0x54>
 8004904:	f8db 3020 	ldr.w	r3, [fp, #32]
 8004908:	429a      	cmp	r2, r3
 800490a:	f4bf ae77 	bcs.w	80045fc <create_chain+0x54>
 800490e:	4611      	mov	r1, r2
 8004910:	4658      	mov	r0, fp
 8004912:	4622      	mov	r2, r4
 8004914:	f7ff f8da 	bl	8003acc <put_fat.part.8>
 8004918:	2800      	cmp	r0, #0
 800491a:	d1df      	bne.n	80048dc <create_chain+0x334>
 800491c:	e9db 2307 	ldrd	r2, r3, [fp, #28]
 8004920:	3b02      	subs	r3, #2
 8004922:	429a      	cmp	r2, r3
 8004924:	f8cb 4018 	str.w	r4, [fp, #24]
 8004928:	d802      	bhi.n	8004930 <create_chain+0x388>
 800492a:	3a01      	subs	r2, #1
 800492c:	f8cb 201c 	str.w	r2, [fp, #28]
 8004930:	f89b 3004 	ldrb.w	r3, [fp, #4]
 8004934:	f043 0301 	orr.w	r3, r3, #1
 8004938:	f88b 3004 	strb.w	r3, [fp, #4]
 800493c:	e65f      	b.n	80045fe <create_chain+0x56>
 800493e:	bf00      	nop

08004940 <dir_next>:
 8004940:	69c2      	ldr	r2, [r0, #28]
 8004942:	b32a      	cbz	r2, 8004990 <dir_next+0x50>
 8004944:	e92d 4ff0 	stmdb	sp!, {r4, r5, r6, r7, r8, r9, sl, fp, lr}
 8004948:	6945      	ldr	r5, [r0, #20]
 800494a:	b083      	sub	sp, #12
 800494c:	3520      	adds	r5, #32
 800494e:	f5b5 1f00 	cmp.w	r5, #2097152	; 0x200000
 8004952:	d219      	bcs.n	8004988 <dir_next+0x48>
 8004954:	6806      	ldr	r6, [r0, #0]
 8004956:	4604      	mov	r4, r0
 8004958:	89b7      	ldrh	r7, [r6, #12]
 800495a:	4689      	mov	r9, r1
 800495c:	fbb5 f0f7 	udiv	r0, r5, r7
 8004960:	fb07 5310 	mls	r3, r7, r0, r5
 8004964:	b93b      	cbnz	r3, 8004976 <dir_next+0x36>
 8004966:	69a1      	ldr	r1, [r4, #24]
 8004968:	3201      	adds	r2, #1
 800496a:	61e2      	str	r2, [r4, #28]
 800496c:	b991      	cbnz	r1, 8004994 <dir_next+0x54>
 800496e:	8932      	ldrh	r2, [r6, #8]
 8004970:	ebb2 1f55 	cmp.w	r2, r5, lsr #5
 8004974:	d937      	bls.n	80049e6 <dir_next+0xa6>
 8004976:	f106 073c 	add.w	r7, r6, #60	; 0x3c
 800497a:	2000      	movs	r0, #0
 800497c:	441f      	add	r7, r3
 800497e:	6227      	str	r7, [r4, #32]
 8004980:	6165      	str	r5, [r4, #20]
 8004982:	b003      	add	sp, #12
 8004984:	e8bd 8ff0 	ldmia.w	sp!, {r4, r5, r6, r7, r8, r9, sl, fp, pc}
 8004988:	2004      	movs	r0, #4
 800498a:	b003      	add	sp, #12
 800498c:	e8bd 8ff0 	ldmia.w	sp!, {r4, r5, r6, r7, r8, r9, sl, fp, pc}
 8004990:	2004      	movs	r0, #4
 8004992:	4770      	bx	lr
 8004994:	8972      	ldrh	r2, [r6, #10]
 8004996:	3a01      	subs	r2, #1
 8004998:	4202      	tst	r2, r0
 800499a:	d1ec      	bne.n	8004976 <dir_next+0x36>
 800499c:	4630      	mov	r0, r6
 800499e:	f7ff fcc5 	bl	800432c <get_fat.isra.9>
 80049a2:	2801      	cmp	r0, #1
 80049a4:	4680      	mov	r8, r0
 80049a6:	f240 808c 	bls.w	8004ac2 <dir_next+0x182>
 80049aa:	f1b0 3fff 	cmp.w	r0, #4294967295
 80049ae:	d01e      	beq.n	80049ee <dir_next+0xae>
 80049b0:	6a33      	ldr	r3, [r6, #32]
 80049b2:	4283      	cmp	r3, r0
 80049b4:	d91d      	bls.n	80049f2 <dir_next+0xb2>
 80049b6:	1e82      	subs	r2, r0, #2
 80049b8:	4611      	mov	r1, r2
 80049ba:	9200      	str	r2, [sp, #0]
 80049bc:	f106 073c 	add.w	r7, r6, #60	; 0x3c
 80049c0:	460a      	mov	r2, r1
 80049c2:	3b02      	subs	r3, #2
 80049c4:	428b      	cmp	r3, r1
 80049c6:	bf92      	itee	ls
 80049c8:	2300      	movls	r3, #0
 80049ca:	8973      	ldrhhi	r3, [r6, #10]
 80049cc:	6b72      	ldrhi	r2, [r6, #52]	; 0x34
 80049ce:	f8c4 8018 	str.w	r8, [r4, #24]
 80049d2:	bf88      	it	hi
 80049d4:	fb01 2303 	mlahi	r3, r1, r3, r2
 80049d8:	89b2      	ldrh	r2, [r6, #12]
 80049da:	61e3      	str	r3, [r4, #28]
 80049dc:	fbb5 f3f2 	udiv	r3, r5, r2
 80049e0:	fb02 5313 	mls	r3, r2, r3, r5
 80049e4:	e7c9      	b.n	800497a <dir_next+0x3a>
 80049e6:	2300      	movs	r3, #0
 80049e8:	2004      	movs	r0, #4
 80049ea:	61e3      	str	r3, [r4, #28]
 80049ec:	e7cd      	b.n	800498a <dir_next+0x4a>
 80049ee:	2001      	movs	r0, #1
 80049f0:	e7cb      	b.n	800498a <dir_next+0x4a>
 80049f2:	f1b9 0f00 	cmp.w	r9, #0
 80049f6:	d0f6      	beq.n	80049e6 <dir_next+0xa6>
 80049f8:	69a1      	ldr	r1, [r4, #24]
 80049fa:	4620      	mov	r0, r4
 80049fc:	f7ff fdd4 	bl	80045a8 <create_chain>
 8004a00:	4680      	mov	r8, r0
 8004a02:	2800      	cmp	r0, #0
 8004a04:	d05f      	beq.n	8004ac6 <dir_next+0x186>
 8004a06:	2801      	cmp	r0, #1
 8004a08:	d05b      	beq.n	8004ac2 <dir_next+0x182>
 8004a0a:	f1b0 3fff 	cmp.w	r0, #4294967295
 8004a0e:	d0ee      	beq.n	80049ee <dir_next+0xae>
 8004a10:	78f3      	ldrb	r3, [r6, #3]
 8004a12:	f106 0b3c 	add.w	fp, r6, #60	; 0x3c
 8004a16:	465f      	mov	r7, fp
 8004a18:	2b00      	cmp	r3, #0
 8004a1a:	d156      	bne.n	8004aca <dir_next+0x18a>
 8004a1c:	89b2      	ldrh	r2, [r6, #12]
 8004a1e:	2100      	movs	r1, #0
 8004a20:	4658      	mov	r0, fp
 8004a22:	f005 fe90 	bl	800a746 <memset>
 8004a26:	f1a8 0002 	sub.w	r0, r8, #2
 8004a2a:	4601      	mov	r1, r0
 8004a2c:	6a33      	ldr	r3, [r6, #32]
 8004a2e:	8972      	ldrh	r2, [r6, #10]
 8004a30:	f1a3 0c02 	sub.w	ip, r3, #2
 8004a34:	4560      	cmp	r0, ip
 8004a36:	bf2c      	ite	cs
 8004a38:	f04f 0900 	movcs.w	r9, #0
 8004a3c:	6b71      	ldrcc	r1, [r6, #52]	; 0x34
 8004a3e:	9000      	str	r0, [sp, #0]
 8004a40:	bf38      	it	cc
 8004a42:	fb00 1902 	mlacc	r9, r0, r2, r1
 8004a46:	f8c6 9038 	str.w	r9, [r6, #56]	; 0x38
 8004a4a:	2a00      	cmp	r2, #0
 8004a4c:	d062      	beq.n	8004b14 <dir_next+0x1d4>
 8004a4e:	2300      	movs	r3, #0
 8004a50:	469a      	mov	sl, r3
 8004a52:	f8cd 8004 	str.w	r8, [sp, #4]
 8004a56:	f04f 0301 	mov.w	r3, #1
 8004a5a:	464a      	mov	r2, r9
 8004a5c:	70f3      	strb	r3, [r6, #3]
 8004a5e:	4659      	mov	r1, fp
 8004a60:	2301      	movs	r3, #1
 8004a62:	7870      	ldrb	r0, [r6, #1]
 8004a64:	f7fe fdae 	bl	80035c4 <disk_write>
 8004a68:	2800      	cmp	r0, #0
 8004a6a:	d1c0      	bne.n	80049ee <dir_next+0xae>
 8004a6c:	6af2      	ldr	r2, [r6, #44]	; 0x2c
 8004a6e:	6a73      	ldr	r3, [r6, #36]	; 0x24
 8004a70:	eba9 0202 	sub.w	r2, r9, r2
 8004a74:	429a      	cmp	r2, r3
 8004a76:	70f0      	strb	r0, [r6, #3]
 8004a78:	d212      	bcs.n	8004aa0 <dir_next+0x160>
 8004a7a:	f896 8002 	ldrb.w	r8, [r6, #2]
 8004a7e:	f1b8 0f01 	cmp.w	r8, #1
 8004a82:	d801      	bhi.n	8004a88 <dir_next+0x148>
 8004a84:	e00c      	b.n	8004aa0 <dir_next+0x160>
 8004a86:	6a73      	ldr	r3, [r6, #36]	; 0x24
 8004a88:	4499      	add	r9, r3
 8004a8a:	f108 38ff 	add.w	r8, r8, #4294967295
 8004a8e:	464a      	mov	r2, r9
 8004a90:	2301      	movs	r3, #1
 8004a92:	4659      	mov	r1, fp
 8004a94:	7870      	ldrb	r0, [r6, #1]
 8004a96:	f7fe fd95 	bl	80035c4 <disk_write>
 8004a9a:	f1b8 0f01 	cmp.w	r8, #1
 8004a9e:	d1f2      	bne.n	8004a86 <dir_next+0x146>
 8004aa0:	6bb2      	ldr	r2, [r6, #56]	; 0x38
 8004aa2:	8973      	ldrh	r3, [r6, #10]
 8004aa4:	f10a 0a01 	add.w	sl, sl, #1
 8004aa8:	3201      	adds	r2, #1
 8004aaa:	4553      	cmp	r3, sl
 8004aac:	63b2      	str	r2, [r6, #56]	; 0x38
 8004aae:	4691      	mov	r9, r2
 8004ab0:	d8d1      	bhi.n	8004a56 <dir_next+0x116>
 8004ab2:	4651      	mov	r1, sl
 8004ab4:	f8dd 8004 	ldr.w	r8, [sp, #4]
 8004ab8:	6a33      	ldr	r3, [r6, #32]
 8004aba:	1a52      	subs	r2, r2, r1
 8004abc:	63b2      	str	r2, [r6, #56]	; 0x38
 8004abe:	9900      	ldr	r1, [sp, #0]
 8004ac0:	e77e      	b.n	80049c0 <dir_next+0x80>
 8004ac2:	2002      	movs	r0, #2
 8004ac4:	e761      	b.n	800498a <dir_next+0x4a>
 8004ac6:	2007      	movs	r0, #7
 8004ac8:	e75f      	b.n	800498a <dir_next+0x4a>
 8004aca:	f8d6 9038 	ldr.w	r9, [r6, #56]	; 0x38
 8004ace:	2301      	movs	r3, #1
 8004ad0:	464a      	mov	r2, r9
 8004ad2:	4659      	mov	r1, fp
 8004ad4:	7870      	ldrb	r0, [r6, #1]
 8004ad6:	f7fe fd75 	bl	80035c4 <disk_write>
 8004ada:	2800      	cmp	r0, #0
 8004adc:	d187      	bne.n	80049ee <dir_next+0xae>
 8004ade:	6af2      	ldr	r2, [r6, #44]	; 0x2c
 8004ae0:	6a73      	ldr	r3, [r6, #36]	; 0x24
 8004ae2:	eba9 0202 	sub.w	r2, r9, r2
 8004ae6:	429a      	cmp	r2, r3
 8004ae8:	70f0      	strb	r0, [r6, #3]
 8004aea:	d297      	bcs.n	8004a1c <dir_next+0xdc>
 8004aec:	f896 a002 	ldrb.w	sl, [r6, #2]
 8004af0:	f1ba 0f01 	cmp.w	sl, #1
 8004af4:	d801      	bhi.n	8004afa <dir_next+0x1ba>
 8004af6:	e791      	b.n	8004a1c <dir_next+0xdc>
 8004af8:	6a73      	ldr	r3, [r6, #36]	; 0x24
 8004afa:	4499      	add	r9, r3
 8004afc:	f10a 3aff 	add.w	sl, sl, #4294967295
 8004b00:	464a      	mov	r2, r9
 8004b02:	2301      	movs	r3, #1
 8004b04:	4659      	mov	r1, fp
 8004b06:	7870      	ldrb	r0, [r6, #1]
 8004b08:	f7fe fd5c 	bl	80035c4 <disk_write>
 8004b0c:	f1ba 0f01 	cmp.w	sl, #1
 8004b10:	d1f2      	bne.n	8004af8 <dir_next+0x1b8>
 8004b12:	e783      	b.n	8004a1c <dir_next+0xdc>
 8004b14:	4611      	mov	r1, r2
 8004b16:	464a      	mov	r2, r9
 8004b18:	e7cf      	b.n	8004aba <dir_next+0x17a>
 8004b1a:	bf00      	nop

08004b1c <dir_find>:
 8004b1c:	e92d 4ff0 	stmdb	sp!, {r4, r5, r6, r7, r8, r9, sl, fp, lr}
 8004b20:	2100      	movs	r1, #0
 8004b22:	b087      	sub	sp, #28
 8004b24:	4604      	mov	r4, r0
 8004b26:	6806      	ldr	r6, [r0, #0]
 8004b28:	f7fe fe1c 	bl	8003764 <dir_sdi>
 8004b2c:	4683      	mov	fp, r0
 8004b2e:	2800      	cmp	r0, #0
 8004b30:	d13d      	bne.n	8004bae <dir_find+0x92>
 8004b32:	23ff      	movs	r3, #255	; 0xff
 8004b34:	461d      	mov	r5, r3
 8004b36:	9301      	str	r3, [sp, #4]
 8004b38:	f04f 33ff 	mov.w	r3, #4294967295
 8004b3c:	46a8      	mov	r8, r5
 8004b3e:	69e7      	ldr	r7, [r4, #28]
 8004b40:	6323      	str	r3, [r4, #48]	; 0x30
 8004b42:	6bb5      	ldr	r5, [r6, #56]	; 0x38
 8004b44:	42bd      	cmp	r5, r7
 8004b46:	d037      	beq.n	8004bb8 <dir_find+0x9c>
 8004b48:	78f3      	ldrb	r3, [r6, #3]
 8004b4a:	7870      	ldrb	r0, [r6, #1]
 8004b4c:	f106 093c 	add.w	r9, r6, #60	; 0x3c
 8004b50:	b313      	cbz	r3, 8004b98 <dir_find+0x7c>
 8004b52:	2301      	movs	r3, #1
 8004b54:	462a      	mov	r2, r5
 8004b56:	4649      	mov	r1, r9
 8004b58:	f7fe fd34 	bl	80035c4 <disk_write>
 8004b5c:	2800      	cmp	r0, #0
 8004b5e:	f040 80c4 	bne.w	8004cea <dir_find+0x1ce>
 8004b62:	6af2      	ldr	r2, [r6, #44]	; 0x2c
 8004b64:	6a73      	ldr	r3, [r6, #36]	; 0x24
 8004b66:	1aaa      	subs	r2, r5, r2
 8004b68:	429a      	cmp	r2, r3
 8004b6a:	70f0      	strb	r0, [r6, #3]
 8004b6c:	7870      	ldrb	r0, [r6, #1]
 8004b6e:	d213      	bcs.n	8004b98 <dir_find+0x7c>
 8004b70:	f896 a002 	ldrb.w	sl, [r6, #2]
 8004b74:	f1ba 0f01 	cmp.w	sl, #1
 8004b78:	d802      	bhi.n	8004b80 <dir_find+0x64>
 8004b7a:	e00d      	b.n	8004b98 <dir_find+0x7c>
 8004b7c:	6a73      	ldr	r3, [r6, #36]	; 0x24
 8004b7e:	7870      	ldrb	r0, [r6, #1]
 8004b80:	441d      	add	r5, r3
 8004b82:	f10a 3aff 	add.w	sl, sl, #4294967295
 8004b86:	462a      	mov	r2, r5
 8004b88:	2301      	movs	r3, #1
 8004b8a:	4649      	mov	r1, r9
 8004b8c:	f7fe fd1a 	bl	80035c4 <disk_write>
 8004b90:	f1ba 0f01 	cmp.w	sl, #1
 8004b94:	d1f2      	bne.n	8004b7c <dir_find+0x60>
 8004b96:	7870      	ldrb	r0, [r6, #1]
 8004b98:	4649      	mov	r1, r9
 8004b9a:	2301      	movs	r3, #1
 8004b9c:	463a      	mov	r2, r7
 8004b9e:	f7fe fd03 	bl	80035a8 <disk_read>
 8004ba2:	b140      	cbz	r0, 8004bb6 <dir_find+0x9a>
 8004ba4:	f04f 33ff 	mov.w	r3, #4294967295
 8004ba8:	f04f 0b01 	mov.w	fp, #1
 8004bac:	63b3      	str	r3, [r6, #56]	; 0x38
 8004bae:	4658      	mov	r0, fp
 8004bb0:	b007      	add	sp, #28
 8004bb2:	e8bd 8ff0 	ldmia.w	sp!, {r4, r5, r6, r7, r8, r9, sl, fp, pc}
 8004bb6:	63b7      	str	r7, [r6, #56]	; 0x38
 8004bb8:	6a27      	ldr	r7, [r4, #32]
 8004bba:	783d      	ldrb	r5, [r7, #0]
 8004bbc:	b35d      	cbz	r5, 8004c16 <dir_find+0xfa>
 8004bbe:	7afa      	ldrb	r2, [r7, #11]
 8004bc0:	2de5      	cmp	r5, #229	; 0xe5
 8004bc2:	f002 033f 	and.w	r3, r2, #63	; 0x3f
 8004bc6:	71a3      	strb	r3, [r4, #6]
 8004bc8:	d003      	beq.n	8004bd2 <dir_find+0xb6>
 8004bca:	0712      	lsls	r2, r2, #28
 8004bcc:	d529      	bpl.n	8004c22 <dir_find+0x106>
 8004bce:	2b0f      	cmp	r3, #15
 8004bd0:	d068      	beq.n	8004ca4 <dir_find+0x188>
 8004bd2:	f04f 33ff 	mov.w	r3, #4294967295
 8004bd6:	f04f 08ff 	mov.w	r8, #255	; 0xff
 8004bda:	6323      	str	r3, [r4, #48]	; 0x30
 8004bdc:	69e7      	ldr	r7, [r4, #28]
 8004bde:	b1d7      	cbz	r7, 8004c16 <dir_find+0xfa>
 8004be0:	6965      	ldr	r5, [r4, #20]
 8004be2:	4ba4      	ldr	r3, [pc, #656]	; (8004e74 <dir_find+0x358>)
 8004be4:	3520      	adds	r5, #32
 8004be6:	429d      	cmp	r5, r3
 8004be8:	d815      	bhi.n	8004c16 <dir_find+0xfa>
 8004bea:	6823      	ldr	r3, [r4, #0]
 8004bec:	899a      	ldrh	r2, [r3, #12]
 8004bee:	fbb5 f0f2 	udiv	r0, r5, r2
 8004bf2:	fb02 5210 	mls	r2, r2, r0, r5
 8004bf6:	b94a      	cbnz	r2, 8004c0c <dir_find+0xf0>
 8004bf8:	69a1      	ldr	r1, [r4, #24]
 8004bfa:	3701      	adds	r7, #1
 8004bfc:	61e7      	str	r7, [r4, #28]
 8004bfe:	2900      	cmp	r1, #0
 8004c00:	d164      	bne.n	8004ccc <dir_find+0x1b0>
 8004c02:	8919      	ldrh	r1, [r3, #8]
 8004c04:	ebb1 1f55 	cmp.w	r1, r5, lsr #5
 8004c08:	f240 80bd 	bls.w	8004d86 <dir_find+0x26a>
 8004c0c:	333c      	adds	r3, #60	; 0x3c
 8004c0e:	4413      	add	r3, r2
 8004c10:	6223      	str	r3, [r4, #32]
 8004c12:	6165      	str	r5, [r4, #20]
 8004c14:	e795      	b.n	8004b42 <dir_find+0x26>
 8004c16:	f04f 0b04 	mov.w	fp, #4
 8004c1a:	4658      	mov	r0, fp
 8004c1c:	b007      	add	sp, #28
 8004c1e:	e8bd 8ff0 	ldmia.w	sp!, {r4, r5, r6, r7, r8, r9, sl, fp, pc}
 8004c22:	2b0f      	cmp	r3, #15
 8004c24:	d03e      	beq.n	8004ca4 <dir_find+0x188>
 8004c26:	f1b8 0f00 	cmp.w	r8, #0
 8004c2a:	d061      	beq.n	8004cf0 <dir_find+0x1d4>
 8004c2c:	f894 302f 	ldrb.w	r3, [r4, #47]	; 0x2f
 8004c30:	07da      	lsls	r2, r3, #31
 8004c32:	d4ce      	bmi.n	8004bd2 <dir_find+0xb6>
 8004c34:	783a      	ldrb	r2, [r7, #0]
 8004c36:	f894 3024 	ldrb.w	r3, [r4, #36]	; 0x24
 8004c3a:	429a      	cmp	r2, r3
 8004c3c:	d1c9      	bne.n	8004bd2 <dir_find+0xb6>
 8004c3e:	787a      	ldrb	r2, [r7, #1]
 8004c40:	f894 3025 	ldrb.w	r3, [r4, #37]	; 0x25
 8004c44:	429a      	cmp	r2, r3
 8004c46:	d1c4      	bne.n	8004bd2 <dir_find+0xb6>
 8004c48:	78ba      	ldrb	r2, [r7, #2]
 8004c4a:	f894 3026 	ldrb.w	r3, [r4, #38]	; 0x26
 8004c4e:	429a      	cmp	r2, r3
 8004c50:	d1bf      	bne.n	8004bd2 <dir_find+0xb6>
 8004c52:	f894 2027 	ldrb.w	r2, [r4, #39]	; 0x27
 8004c56:	78fb      	ldrb	r3, [r7, #3]
 8004c58:	429a      	cmp	r2, r3
 8004c5a:	d1ba      	bne.n	8004bd2 <dir_find+0xb6>
 8004c5c:	793a      	ldrb	r2, [r7, #4]
 8004c5e:	f894 3028 	ldrb.w	r3, [r4, #40]	; 0x28
 8004c62:	429a      	cmp	r2, r3
 8004c64:	d1b5      	bne.n	8004bd2 <dir_find+0xb6>
 8004c66:	797a      	ldrb	r2, [r7, #5]
 8004c68:	f894 3029 	ldrb.w	r3, [r4, #41]	; 0x29
 8004c6c:	429a      	cmp	r2, r3
 8004c6e:	d1b0      	bne.n	8004bd2 <dir_find+0xb6>
 8004c70:	79ba      	ldrb	r2, [r7, #6]
 8004c72:	f894 302a 	ldrb.w	r3, [r4, #42]	; 0x2a
 8004c76:	429a      	cmp	r2, r3
 8004c78:	d1ab      	bne.n	8004bd2 <dir_find+0xb6>
 8004c7a:	79fa      	ldrb	r2, [r7, #7]
 8004c7c:	f894 302b 	ldrb.w	r3, [r4, #43]	; 0x2b
 8004c80:	429a      	cmp	r2, r3
 8004c82:	d1a6      	bne.n	8004bd2 <dir_find+0xb6>
 8004c84:	7a3a      	ldrb	r2, [r7, #8]
 8004c86:	f894 302c 	ldrb.w	r3, [r4, #44]	; 0x2c
 8004c8a:	429a      	cmp	r2, r3
 8004c8c:	d1a1      	bne.n	8004bd2 <dir_find+0xb6>
 8004c8e:	7a7a      	ldrb	r2, [r7, #9]
 8004c90:	f894 302d 	ldrb.w	r3, [r4, #45]	; 0x2d
 8004c94:	429a      	cmp	r2, r3
 8004c96:	d19c      	bne.n	8004bd2 <dir_find+0xb6>
 8004c98:	7aba      	ldrb	r2, [r7, #10]
 8004c9a:	f894 302e 	ldrb.w	r3, [r4, #46]	; 0x2e
 8004c9e:	429a      	cmp	r2, r3
 8004ca0:	d197      	bne.n	8004bd2 <dir_find+0xb6>
 8004ca2:	e784      	b.n	8004bae <dir_find+0x92>
 8004ca4:	f894 302f 	ldrb.w	r3, [r4, #47]	; 0x2f
 8004ca8:	065b      	lsls	r3, r3, #25
 8004caa:	d497      	bmi.n	8004bdc <dir_find+0xc0>
 8004cac:	0668      	lsls	r0, r5, #25
 8004cae:	d56f      	bpl.n	8004d90 <dir_find+0x274>
 8004cb0:	7b7a      	ldrb	r2, [r7, #13]
 8004cb2:	6963      	ldr	r3, [r4, #20]
 8004cb4:	f005 05bf 	and.w	r5, r5, #191	; 0xbf
 8004cb8:	9201      	str	r2, [sp, #4]
 8004cba:	6323      	str	r3, [r4, #48]	; 0x30
 8004cbc:	7b7b      	ldrb	r3, [r7, #13]
 8004cbe:	9a01      	ldr	r2, [sp, #4]
 8004cc0:	4293      	cmp	r3, r2
 8004cc2:	f000 8082 	beq.w	8004dca <dir_find+0x2ae>
 8004cc6:	f04f 08ff 	mov.w	r8, #255	; 0xff
 8004cca:	e787      	b.n	8004bdc <dir_find+0xc0>
 8004ccc:	f8b3 c00a 	ldrh.w	ip, [r3, #10]
 8004cd0:	f10c 3cff 	add.w	ip, ip, #4294967295
 8004cd4:	ea1c 0900 	ands.w	r9, ip, r0
 8004cd8:	d198      	bne.n	8004c0c <dir_find+0xf0>
 8004cda:	4618      	mov	r0, r3
 8004cdc:	9302      	str	r3, [sp, #8]
 8004cde:	f7ff fb25 	bl	800432c <get_fat.isra.9>
 8004ce2:	2801      	cmp	r0, #1
 8004ce4:	d96e      	bls.n	8004dc4 <dir_find+0x2a8>
 8004ce6:	1c43      	adds	r3, r0, #1
 8004ce8:	d157      	bne.n	8004d9a <dir_find+0x27e>
 8004cea:	f04f 0b01 	mov.w	fp, #1
 8004cee:	e75e      	b.n	8004bae <dir_find+0x92>
 8004cf0:	783a      	ldrb	r2, [r7, #0]
 8004cf2:	7879      	ldrb	r1, [r7, #1]
 8004cf4:	01d3      	lsls	r3, r2, #7
 8004cf6:	ea43 0352 	orr.w	r3, r3, r2, lsr #1
 8004cfa:	185a      	adds	r2, r3, r1
 8004cfc:	f3c2 0346 	ubfx	r3, r2, #1, #7
 8004d00:	ea43 13c2 	orr.w	r3, r3, r2, lsl #7
 8004d04:	78ba      	ldrb	r2, [r7, #2]
 8004d06:	b2db      	uxtb	r3, r3
 8004d08:	441a      	add	r2, r3
 8004d0a:	f3c2 0346 	ubfx	r3, r2, #1, #7
 8004d0e:	ea43 13c2 	orr.w	r3, r3, r2, lsl #7
 8004d12:	78fa      	ldrb	r2, [r7, #3]
 8004d14:	b2db      	uxtb	r3, r3
 8004d16:	441a      	add	r2, r3
 8004d18:	f3c2 0346 	ubfx	r3, r2, #1, #7
 8004d1c:	ea43 13c2 	orr.w	r3, r3, r2, lsl #7
 8004d20:	793a      	ldrb	r2, [r7, #4]
 8004d22:	b2db      	uxtb	r3, r3
 8004d24:	441a      	add	r2, r3
 8004d26:	f3c2 0346 	ubfx	r3, r2, #1, #7
 8004d2a:	ea43 13c2 	orr.w	r3, r3, r2, lsl #7
 8004d2e:	797a      	ldrb	r2, [r7, #5]
 8004d30:	b2db      	uxtb	r3, r3
 8004d32:	441a      	add	r2, r3
 8004d34:	f3c2 0346 	ubfx	r3, r2, #1, #7
 8004d38:	ea43 13c2 	orr.w	r3, r3, r2, lsl #7
 8004d3c:	79ba      	ldrb	r2, [r7, #6]
 8004d3e:	b2db      	uxtb	r3, r3
 8004d40:	441a      	add	r2, r3
 8004d42:	f3c2 0346 	ubfx	r3, r2, #1, #7
 8004d46:	ea43 13c2 	orr.w	r3, r3, r2, lsl #7
 8004d4a:	79fa      	ldrb	r2, [r7, #7]
 8004d4c:	b2db      	uxtb	r3, r3
 8004d4e:	441a      	add	r2, r3
 8004d50:	f3c2 0346 	ubfx	r3, r2, #1, #7
 8004d54:	ea43 13c2 	orr.w	r3, r3, r2, lsl #7
 8004d58:	7a3a      	ldrb	r2, [r7, #8]
 8004d5a:	b2db      	uxtb	r3, r3
 8004d5c:	441a      	add	r2, r3
 8004d5e:	f3c2 0346 	ubfx	r3, r2, #1, #7
 8004d62:	ea43 13c2 	orr.w	r3, r3, r2, lsl #7
 8004d66:	7a7a      	ldrb	r2, [r7, #9]
 8004d68:	b2db      	uxtb	r3, r3
 8004d6a:	4413      	add	r3, r2
 8004d6c:	f3c3 0246 	ubfx	r2, r3, #1, #7
 8004d70:	7ab9      	ldrb	r1, [r7, #10]
 8004d72:	ea42 13c3 	orr.w	r3, r2, r3, lsl #7
 8004d76:	440b      	add	r3, r1
 8004d78:	9a01      	ldr	r2, [sp, #4]
 8004d7a:	f003 03ff 	and.w	r3, r3, #255	; 0xff
 8004d7e:	429a      	cmp	r2, r3
 8004d80:	f47f af54 	bne.w	8004c2c <dir_find+0x110>
 8004d84:	e713      	b.n	8004bae <dir_find+0x92>
 8004d86:	2300      	movs	r3, #0
 8004d88:	f04f 0b04 	mov.w	fp, #4
 8004d8c:	61e3      	str	r3, [r4, #28]
 8004d8e:	e70e      	b.n	8004bae <dir_find+0x92>
 8004d90:	45a8      	cmp	r8, r5
 8004d92:	d093      	beq.n	8004cbc <dir_find+0x1a0>
 8004d94:	f04f 08ff 	mov.w	r8, #255	; 0xff
 8004d98:	e720      	b.n	8004bdc <dir_find+0xc0>
 8004d9a:	9b02      	ldr	r3, [sp, #8]
 8004d9c:	6a1a      	ldr	r2, [r3, #32]
 8004d9e:	4290      	cmp	r0, r2
 8004da0:	d2f1      	bcs.n	8004d86 <dir_find+0x26a>
 8004da2:	3a02      	subs	r2, #2
 8004da4:	1e81      	subs	r1, r0, #2
 8004da6:	4291      	cmp	r1, r2
 8004da8:	bf3b      	ittet	cc
 8004daa:	6b5a      	ldrcc	r2, [r3, #52]	; 0x34
 8004dac:	895f      	ldrhcc	r7, [r3, #10]
 8004dae:	464f      	movcs	r7, r9
 8004db0:	fb01 2707 	mlacc	r7, r1, r7, r2
 8004db4:	899a      	ldrh	r2, [r3, #12]
 8004db6:	61a0      	str	r0, [r4, #24]
 8004db8:	fbb5 f1f2 	udiv	r1, r5, r2
 8004dbc:	61e7      	str	r7, [r4, #28]
 8004dbe:	fb02 5211 	mls	r2, r2, r1, r5
 8004dc2:	e723      	b.n	8004c0c <dir_find+0xf0>
 8004dc4:	f04f 0b02 	mov.w	fp, #2
 8004dc8:	e6f1      	b.n	8004bae <dir_find+0x92>
 8004dca:	7efa      	ldrb	r2, [r7, #27]
 8004dcc:	7ebb      	ldrb	r3, [r7, #26]
 8004dce:	ea53 2302 	orrs.w	r3, r3, r2, lsl #8
 8004dd2:	f47f af78 	bne.w	8004cc6 <dir_find+0x1aa>
 8004dd6:	2201      	movs	r2, #1
 8004dd8:	f897 9000 	ldrb.w	r9, [r7]
 8004ddc:	6931      	ldr	r1, [r6, #16]
 8004dde:	f009 093f 	and.w	r9, r9, #63	; 0x3f
 8004de2:	f109 39ff 	add.w	r9, r9, #4294967295
 8004de6:	eb09 0349 	add.w	r3, r9, r9, lsl #1
 8004dea:	9104      	str	r1, [sp, #16]
 8004dec:	9505      	str	r5, [sp, #20]
 8004dee:	f8df a08c 	ldr.w	sl, [pc, #140]	; 8004e7c <dir_find+0x360>
 8004df2:	460d      	mov	r5, r1
 8004df4:	eb09 0983 	add.w	r9, r9, r3, lsl #2
 8004df8:	9602      	str	r6, [sp, #8]
 8004dfa:	4611      	mov	r1, r2
 8004dfc:	9403      	str	r4, [sp, #12]
 8004dfe:	e011      	b.n	8004e24 <dir_find+0x308>
 8004e00:	f1b9 0ffe 	cmp.w	r9, #254	; 0xfe
 8004e04:	d81e      	bhi.n	8004e44 <dir_find+0x328>
 8004e06:	4640      	mov	r0, r8
 8004e08:	f003 fa0e 	bl	8008228 <ff_wtoupper>
 8004e0c:	4606      	mov	r6, r0
 8004e0e:	f835 0019 	ldrh.w	r0, [r5, r9, lsl #1]
 8004e12:	f003 fa09 	bl	8008228 <ff_wtoupper>
 8004e16:	4286      	cmp	r6, r0
 8004e18:	d114      	bne.n	8004e44 <dir_find+0x328>
 8004e1a:	4641      	mov	r1, r8
 8004e1c:	46a1      	mov	r9, r4
 8004e1e:	4b16      	ldr	r3, [pc, #88]	; (8004e78 <dir_find+0x35c>)
 8004e20:	459a      	cmp	sl, r3
 8004e22:	d014      	beq.n	8004e4e <dir_find+0x332>
 8004e24:	f81a 3b01 	ldrb.w	r3, [sl], #1
 8004e28:	f109 0401 	add.w	r4, r9, #1
 8004e2c:	18f8      	adds	r0, r7, r3
 8004e2e:	7840      	ldrb	r0, [r0, #1]
 8004e30:	f817 8003 	ldrb.w	r8, [r7, r3]
 8004e34:	ea48 2800 	orr.w	r8, r8, r0, lsl #8
 8004e38:	2900      	cmp	r1, #0
 8004e3a:	d1e1      	bne.n	8004e00 <dir_find+0x2e4>
 8004e3c:	f64f 73ff 	movw	r3, #65535	; 0xffff
 8004e40:	4598      	cmp	r8, r3
 8004e42:	d0ec      	beq.n	8004e1e <dir_find+0x302>
 8004e44:	e9dd 6402 	ldrd	r6, r4, [sp, #8]
 8004e48:	f04f 08ff 	mov.w	r8, #255	; 0xff
 8004e4c:	e6c6      	b.n	8004bdc <dir_find+0xc0>
 8004e4e:	783b      	ldrb	r3, [r7, #0]
 8004e50:	460a      	mov	r2, r1
 8004e52:	0659      	lsls	r1, r3, #25
 8004e54:	9e02      	ldr	r6, [sp, #8]
 8004e56:	9d05      	ldr	r5, [sp, #20]
 8004e58:	9c03      	ldr	r4, [sp, #12]
 8004e5a:	d506      	bpl.n	8004e6a <dir_find+0x34e>
 8004e5c:	b12a      	cbz	r2, 8004e6a <dir_find+0x34e>
 8004e5e:	9b04      	ldr	r3, [sp, #16]
 8004e60:	f833 3019 	ldrh.w	r3, [r3, r9, lsl #1]
 8004e64:	2b00      	cmp	r3, #0
 8004e66:	f47f af2e 	bne.w	8004cc6 <dir_find+0x1aa>
 8004e6a:	3d01      	subs	r5, #1
 8004e6c:	fa5f f885 	uxtb.w	r8, r5
 8004e70:	e6b4      	b.n	8004bdc <dir_find+0xc0>
 8004e72:	bf00      	nop
 8004e74:	001fffff 	.word	0x001fffff
 8004e78:	0800a8d9 	.word	0x0800a8d9
 8004e7c:	0800a8cc 	.word	0x0800a8cc

08004e80 <follow_path>:
 8004e80:	e92d 4ff0 	stmdb	sp!, {r4, r5, r6, r7, r8, r9, sl, fp, lr}
 8004e84:	4607      	mov	r7, r0
 8004e86:	f8d0 b000 	ldr.w	fp, [r0]
 8004e8a:	b085      	sub	sp, #20
 8004e8c:	460d      	mov	r5, r1
 8004e8e:	f811 3b01 	ldrb.w	r3, [r1], #1
 8004e92:	2b2f      	cmp	r3, #47	; 0x2f
 8004e94:	d0fa      	beq.n	8004e8c <follow_path+0xc>
 8004e96:	2b5c      	cmp	r3, #92	; 0x5c
 8004e98:	d0f8      	beq.n	8004e8c <follow_path+0xc>
 8004e9a:	2100      	movs	r1, #0
 8004e9c:	60b9      	str	r1, [r7, #8]
 8004e9e:	7828      	ldrb	r0, [r5, #0]
 8004ea0:	281f      	cmp	r0, #31
 8004ea2:	f240 8137 	bls.w	8005114 <follow_path+0x294>
 8004ea6:	465b      	mov	r3, fp
 8004ea8:	9101      	str	r1, [sp, #4]
 8004eaa:	b280      	uxth	r0, r0
 8004eac:	281f      	cmp	r0, #31
 8004eae:	691e      	ldr	r6, [r3, #16]
 8004eb0:	d945      	bls.n	8004f3e <follow_path+0xbe>
 8004eb2:	282f      	cmp	r0, #47	; 0x2f
 8004eb4:	d02b      	beq.n	8004f0e <follow_path+0x8e>
 8004eb6:	285c      	cmp	r0, #92	; 0x5c
 8004eb8:	d029      	beq.n	8004f0e <follow_path+0x8e>
 8004eba:	f1a6 0902 	sub.w	r9, r6, #2
 8004ebe:	46a8      	mov	r8, r5
 8004ec0:	2401      	movs	r4, #1
 8004ec2:	e00f      	b.n	8004ee4 <follow_path+0x64>
 8004ec4:	f829 0f02 	strh.w	r0, [r9, #2]!
 8004ec8:	f818 0f01 	ldrb.w	r0, [r8, #1]!
 8004ecc:	1c63      	adds	r3, r4, #1
 8004ece:	281f      	cmp	r0, #31
 8004ed0:	f240 811c 	bls.w	800510c <follow_path+0x28c>
 8004ed4:	282f      	cmp	r0, #47	; 0x2f
 8004ed6:	d01c      	beq.n	8004f12 <follow_path+0x92>
 8004ed8:	285c      	cmp	r0, #92	; 0x5c
 8004eda:	d01a      	beq.n	8004f12 <follow_path+0x92>
 8004edc:	f5b3 7f80 	cmp.w	r3, #256	; 0x100
 8004ee0:	d011      	beq.n	8004f06 <follow_path+0x86>
 8004ee2:	461c      	mov	r4, r3
 8004ee4:	2101      	movs	r1, #1
 8004ee6:	f003 f97d 	bl	80081e4 <ff_convert>
 8004eea:	b160      	cbz	r0, 8004f06 <follow_path+0x86>
 8004eec:	287f      	cmp	r0, #127	; 0x7f
 8004eee:	d8e9      	bhi.n	8004ec4 <follow_path+0x44>
 8004ef0:	2822      	cmp	r0, #34	; 0x22
 8004ef2:	d008      	beq.n	8004f06 <follow_path+0x86>
 8004ef4:	232a      	movs	r3, #42	; 0x2a
 8004ef6:	4a97      	ldr	r2, [pc, #604]	; (8005154 <follow_path+0x2d4>)
 8004ef8:	e003      	b.n	8004f02 <follow_path+0x82>
 8004efa:	f812 3f01 	ldrb.w	r3, [r2, #1]!
 8004efe:	2b00      	cmp	r3, #0
 8004f00:	d0e0      	beq.n	8004ec4 <follow_path+0x44>
 8004f02:	4298      	cmp	r0, r3
 8004f04:	d1f9      	bne.n	8004efa <follow_path+0x7a>
 8004f06:	2006      	movs	r0, #6
 8004f08:	b005      	add	sp, #20
 8004f0a:	e8bd 8ff0 	ldmia.w	sp!, {r4, r5, r6, r7, r8, r9, sl, fp, pc}
 8004f0e:	2400      	movs	r4, #0
 8004f10:	2301      	movs	r3, #1
 8004f12:	442b      	add	r3, r5
 8004f14:	781a      	ldrb	r2, [r3, #0]
 8004f16:	461d      	mov	r5, r3
 8004f18:	2a2f      	cmp	r2, #47	; 0x2f
 8004f1a:	f103 0301 	add.w	r3, r3, #1
 8004f1e:	d0f9      	beq.n	8004f14 <follow_path+0x94>
 8004f20:	2a5c      	cmp	r2, #92	; 0x5c
 8004f22:	d0f7      	beq.n	8004f14 <follow_path+0x94>
 8004f24:	b15c      	cbz	r4, 8004f3e <follow_path+0xbe>
 8004f26:	f04f 0900 	mov.w	r9, #0
 8004f2a:	eb06 0244 	add.w	r2, r6, r4, lsl #1
 8004f2e:	f832 3d02 	ldrh.w	r3, [r2, #-2]!
 8004f32:	2b20      	cmp	r3, #32
 8004f34:	d001      	beq.n	8004f3a <follow_path+0xba>
 8004f36:	2b2e      	cmp	r3, #46	; 0x2e
 8004f38:	d107      	bne.n	8004f4a <follow_path+0xca>
 8004f3a:	3c01      	subs	r4, #1
 8004f3c:	d1f7      	bne.n	8004f2e <follow_path+0xae>
 8004f3e:	2300      	movs	r3, #0
 8004f40:	2006      	movs	r0, #6
 8004f42:	8033      	strh	r3, [r6, #0]
 8004f44:	b005      	add	sp, #20
 8004f46:	e8bd 8ff0 	ldmia.w	sp!, {r4, r5, r6, r7, r8, r9, sl, fp, pc}
 8004f4a:	2320      	movs	r3, #32
 8004f4c:	f04f 3120 	mov.w	r1, #538976288	; 0x20202020
 8004f50:	9a01      	ldr	r2, [sp, #4]
 8004f52:	f04f 0800 	mov.w	r8, #0
 8004f56:	f826 2014 	strh.w	r2, [r6, r4, lsl #1]
 8004f5a:	f887 302c 	strb.w	r3, [r7, #44]	; 0x2c
 8004f5e:	f887 302d 	strb.w	r3, [r7, #45]	; 0x2d
 8004f62:	f887 302e 	strb.w	r3, [r7, #46]	; 0x2e
 8004f66:	eb06 0244 	add.w	r2, r6, r4, lsl #1
 8004f6a:	6279      	str	r1, [r7, #36]	; 0x24
 8004f6c:	62b9      	str	r1, [r7, #40]	; 0x28
 8004f6e:	1eb3      	subs	r3, r6, #2
 8004f70:	e001      	b.n	8004f76 <follow_path+0xf6>
 8004f72:	f108 0801 	add.w	r8, r8, #1
 8004f76:	f833 0f02 	ldrh.w	r0, [r3, #2]!
 8004f7a:	2820      	cmp	r0, #32
 8004f7c:	d0f9      	beq.n	8004f72 <follow_path+0xf2>
 8004f7e:	282e      	cmp	r0, #46	; 0x2e
 8004f80:	d0f7      	beq.n	8004f72 <follow_path+0xf2>
 8004f82:	f1b8 0f00 	cmp.w	r8, #0
 8004f86:	d001      	beq.n	8004f8c <follow_path+0x10c>
 8004f88:	f049 0903 	orr.w	r9, r9, #3
 8004f8c:	4613      	mov	r3, r2
 8004f8e:	f833 2d02 	ldrh.w	r2, [r3, #-2]!
 8004f92:	2a2e      	cmp	r2, #46	; 0x2e
 8004f94:	d001      	beq.n	8004f9a <follow_path+0x11a>
 8004f96:	3c01      	subs	r4, #1
 8004f98:	d1f9      	bne.n	8004f8e <follow_path+0x10e>
 8004f9a:	2300      	movs	r3, #0
 8004f9c:	2208      	movs	r2, #8
 8004f9e:	469a      	mov	sl, r3
 8004fa0:	f108 0801 	add.w	r8, r8, #1
 8004fa4:	b340      	cbz	r0, 8004ff8 <follow_path+0x178>
 8004fa6:	2820      	cmp	r0, #32
 8004fa8:	d073      	beq.n	8005092 <follow_path+0x212>
 8004faa:	282e      	cmp	r0, #46	; 0x2e
 8004fac:	d076      	beq.n	800509c <follow_path+0x21c>
 8004fae:	4293      	cmp	r3, r2
 8004fb0:	d21a      	bcs.n	8004fe8 <follow_path+0x168>
 8004fb2:	45a0      	cmp	r8, r4
 8004fb4:	d074      	beq.n	80050a0 <follow_path+0x220>
 8004fb6:	287f      	cmp	r0, #127	; 0x7f
 8004fb8:	f200 808f 	bhi.w	80050da <follow_path+0x25a>
 8004fbc:	282b      	cmp	r0, #43	; 0x2b
 8004fbe:	f000 809d 	beq.w	80050fc <follow_path+0x27c>
 8004fc2:	212c      	movs	r1, #44	; 0x2c
 8004fc4:	f8df c194 	ldr.w	ip, [pc, #404]	; 800515c <follow_path+0x2dc>
 8004fc8:	4281      	cmp	r1, r0
 8004fca:	f000 8097 	beq.w	80050fc <follow_path+0x27c>
 8004fce:	f81c 1f01 	ldrb.w	r1, [ip, #1]!
 8004fd2:	2900      	cmp	r1, #0
 8004fd4:	d1f8      	bne.n	8004fc8 <follow_path+0x148>
 8004fd6:	f1a0 0141 	sub.w	r1, r0, #65	; 0x41
 8004fda:	2919      	cmp	r1, #25
 8004fdc:	f200 80a3 	bhi.w	8005126 <follow_path+0x2a6>
 8004fe0:	f04a 0a02 	orr.w	sl, sl, #2
 8004fe4:	b2c0      	uxtb	r0, r0
 8004fe6:	e08c      	b.n	8005102 <follow_path+0x282>
 8004fe8:	2a0b      	cmp	r2, #11
 8004fea:	f000 80a8 	beq.w	800513e <follow_path+0x2be>
 8004fee:	45a0      	cmp	r8, r4
 8004ff0:	d058      	beq.n	80050a4 <follow_path+0x224>
 8004ff2:	f049 0903 	orr.w	r9, r9, #3
 8004ff6:	d955      	bls.n	80050a4 <follow_path+0x224>
 8004ff8:	f897 3024 	ldrb.w	r3, [r7, #36]	; 0x24
 8004ffc:	2be5      	cmp	r3, #229	; 0xe5
 8004ffe:	bf04      	itt	eq
 8005000:	2305      	moveq	r3, #5
 8005002:	f887 3024 	strbeq.w	r3, [r7, #36]	; 0x24
 8005006:	2a08      	cmp	r2, #8
 8005008:	bf04      	itt	eq
 800500a:	ea4f 0a8a 	moveq.w	sl, sl, lsl #2
 800500e:	fa5f fa8a 	uxtbeq.w	sl, sl
 8005012:	f00a 030c 	and.w	r3, sl, #12
 8005016:	2b0c      	cmp	r3, #12
 8005018:	d04c      	beq.n	80050b4 <follow_path+0x234>
 800501a:	f00a 0a03 	and.w	sl, sl, #3
 800501e:	f1ba 0f03 	cmp.w	sl, #3
 8005022:	d047      	beq.n	80050b4 <follow_path+0x234>
 8005024:	f019 0f02 	tst.w	r9, #2
 8005028:	d108      	bne.n	800503c <follow_path+0x1bc>
 800502a:	f1ba 0f01 	cmp.w	sl, #1
 800502e:	bf08      	it	eq
 8005030:	f049 0910 	orreq.w	r9, r9, #16
 8005034:	2b04      	cmp	r3, #4
 8005036:	bf08      	it	eq
 8005038:	f049 0908 	orreq.w	r9, r9, #8
 800503c:	f887 902f 	strb.w	r9, [r7, #47]	; 0x2f
 8005040:	4638      	mov	r0, r7
 8005042:	f7ff fd6b 	bl	8004b1c <dir_find>
 8005046:	f897 302f 	ldrb.w	r3, [r7, #47]	; 0x2f
 800504a:	2800      	cmp	r0, #0
 800504c:	d13d      	bne.n	80050ca <follow_path+0x24a>
 800504e:	075a      	lsls	r2, r3, #29
 8005050:	f53f af5a 	bmi.w	8004f08 <follow_path+0x88>
 8005054:	79bb      	ldrb	r3, [r7, #6]
 8005056:	06db      	lsls	r3, r3, #27
 8005058:	d56f      	bpl.n	800513a <follow_path+0x2ba>
 800505a:	f8bb 100c 	ldrh.w	r1, [fp, #12]
 800505e:	6978      	ldr	r0, [r7, #20]
 8005060:	f10b 033c 	add.w	r3, fp, #60	; 0x3c
 8005064:	fbb0 f2f1 	udiv	r2, r0, r1
 8005068:	fb01 0212 	mls	r2, r1, r2, r0
 800506c:	f89b 1000 	ldrb.w	r1, [fp]
 8005070:	4413      	add	r3, r2
 8005072:	7ed8      	ldrb	r0, [r3, #27]
 8005074:	7e9a      	ldrb	r2, [r3, #26]
 8005076:	2903      	cmp	r1, #3
 8005078:	ea42 2200 	orr.w	r2, r2, r0, lsl #8
 800507c:	d105      	bne.n	800508a <follow_path+0x20a>
 800507e:	7d59      	ldrb	r1, [r3, #21]
 8005080:	7d1b      	ldrb	r3, [r3, #20]
 8005082:	ea43 2301 	orr.w	r3, r3, r1, lsl #8
 8005086:	ea42 4203 	orr.w	r2, r2, r3, lsl #16
 800508a:	60ba      	str	r2, [r7, #8]
 800508c:	7828      	ldrb	r0, [r5, #0]
 800508e:	683b      	ldr	r3, [r7, #0]
 8005090:	e70b      	b.n	8004eaa <follow_path+0x2a>
 8005092:	f049 0903 	orr.w	r9, r9, #3
 8005096:	f836 0018 	ldrh.w	r0, [r6, r8, lsl #1]
 800509a:	e781      	b.n	8004fa0 <follow_path+0x120>
 800509c:	45a0      	cmp	r8, r4
 800509e:	d1f8      	bne.n	8005092 <follow_path+0x212>
 80050a0:	2a0b      	cmp	r2, #11
 80050a2:	d04c      	beq.n	800513e <follow_path+0x2be>
 80050a4:	ea4f 0a8a 	mov.w	sl, sl, lsl #2
 80050a8:	fa5f fa8a 	uxtb.w	sl, sl
 80050ac:	46a0      	mov	r8, r4
 80050ae:	220b      	movs	r2, #11
 80050b0:	2308      	movs	r3, #8
 80050b2:	e7f0      	b.n	8005096 <follow_path+0x216>
 80050b4:	f049 0902 	orr.w	r9, r9, #2
 80050b8:	f887 902f 	strb.w	r9, [r7, #47]	; 0x2f
 80050bc:	4638      	mov	r0, r7
 80050be:	f7ff fd2d 	bl	8004b1c <dir_find>
 80050c2:	f897 302f 	ldrb.w	r3, [r7, #47]	; 0x2f
 80050c6:	2800      	cmp	r0, #0
 80050c8:	d0c1      	beq.n	800504e <follow_path+0x1ce>
 80050ca:	2804      	cmp	r0, #4
 80050cc:	f47f af1c 	bne.w	8004f08 <follow_path+0x88>
 80050d0:	f013 0f04 	tst.w	r3, #4
 80050d4:	bf08      	it	eq
 80050d6:	2005      	moveq	r0, #5
 80050d8:	e716      	b.n	8004f08 <follow_path+0x88>
 80050da:	2100      	movs	r1, #0
 80050dc:	e9cd 3202 	strd	r3, r2, [sp, #8]
 80050e0:	f003 f880 	bl	80081e4 <ff_convert>
 80050e4:	e9dd 3202 	ldrd	r3, r2, [sp, #8]
 80050e8:	f049 0902 	orr.w	r9, r9, #2
 80050ec:	b130      	cbz	r0, 80050fc <follow_path+0x27c>
 80050ee:	491a      	ldr	r1, [pc, #104]	; (8005158 <follow_path+0x2d8>)
 80050f0:	4408      	add	r0, r1
 80050f2:	f810 0c80 	ldrb.w	r0, [r0, #-128]
 80050f6:	2800      	cmp	r0, #0
 80050f8:	f47f af60 	bne.w	8004fbc <follow_path+0x13c>
 80050fc:	205f      	movs	r0, #95	; 0x5f
 80050fe:	f049 0903 	orr.w	r9, r9, #3
 8005102:	18f9      	adds	r1, r7, r3
 8005104:	f881 0024 	strb.w	r0, [r1, #36]	; 0x24
 8005108:	3301      	adds	r3, #1
 800510a:	e7c4      	b.n	8005096 <follow_path+0x216>
 800510c:	441d      	add	r5, r3
 800510e:	f04f 0904 	mov.w	r9, #4
 8005112:	e70a      	b.n	8004f2a <follow_path+0xaa>
 8005114:	2380      	movs	r3, #128	; 0x80
 8005116:	4638      	mov	r0, r7
 8005118:	f887 302f 	strb.w	r3, [r7, #47]	; 0x2f
 800511c:	b005      	add	sp, #20
 800511e:	e8bd 4ff0 	ldmia.w	sp!, {r4, r5, r6, r7, r8, r9, sl, fp, lr}
 8005122:	f7fe bb1f 	b.w	8003764 <dir_sdi>
 8005126:	f1a0 0161 	sub.w	r1, r0, #97	; 0x61
 800512a:	2919      	cmp	r1, #25
 800512c:	bf97      	itett	ls
 800512e:	3820      	subls	r0, #32
 8005130:	b2c0      	uxtbhi	r0, r0
 8005132:	b2c0      	uxtbls	r0, r0
 8005134:	f04a 0a01 	orrls.w	sl, sl, #1
 8005138:	e7e3      	b.n	8005102 <follow_path+0x282>
 800513a:	2005      	movs	r0, #5
 800513c:	e6e4      	b.n	8004f08 <follow_path+0x88>
 800513e:	f897 3024 	ldrb.w	r3, [r7, #36]	; 0x24
 8005142:	f049 0903 	orr.w	r9, r9, #3
 8005146:	2be5      	cmp	r3, #229	; 0xe5
 8005148:	f47f af63 	bne.w	8005012 <follow_path+0x192>
 800514c:	2305      	movs	r3, #5
 800514e:	f887 3024 	strb.w	r3, [r7, #36]	; 0x24
 8005152:	e75e      	b.n	8005012 <follow_path+0x192>
 8005154:	0800a911 	.word	0x0800a911
 8005158:	0800a84c 	.word	0x0800a84c
 800515c:	0800a91d 	.word	0x0800a91d

08005160 <dir_register>:
 8005160:	e92d 4ff0 	stmdb	sp!, {r4, r5, r6, r7, r8, r9, sl, fp, lr}
 8005164:	f890 302f 	ldrb.w	r3, [r0, #47]	; 0x2f
 8005168:	b08b      	sub	sp, #44	; 0x2c
 800516a:	f013 08a0 	ands.w	r8, r3, #160	; 0xa0
 800516e:	f040 82f0 	bne.w	8005752 <dir_register+0x5f2>
 8005172:	6803      	ldr	r3, [r0, #0]
 8005174:	f8d3 c010 	ldr.w	ip, [r3, #16]
 8005178:	9301      	str	r3, [sp, #4]
 800517a:	f8bc 3000 	ldrh.w	r3, [ip]
 800517e:	2b00      	cmp	r3, #0
 8005180:	f000 84f8 	beq.w	8005b74 <dir_register+0xa14>
 8005184:	4663      	mov	r3, ip
 8005186:	f833 2f02 	ldrh.w	r2, [r3, #2]!
 800518a:	f108 0801 	add.w	r8, r8, #1
 800518e:	2a00      	cmp	r2, #0
 8005190:	d1f9      	bne.n	8005186 <dir_register+0x26>
 8005192:	4683      	mov	fp, r0
 8005194:	4604      	mov	r4, r0
 8005196:	f85b 0f24 	ldr.w	r0, [fp, #36]!
 800519a:	ab07      	add	r3, sp, #28
 800519c:	f8db 1004 	ldr.w	r1, [fp, #4]
 80051a0:	f8db 2008 	ldr.w	r2, [fp, #8]
 80051a4:	c307      	stmia	r3!, {r0, r1, r2}
 80051a6:	f89d 7027 	ldrb.w	r7, [sp, #39]	; 0x27
 80051aa:	07fb      	lsls	r3, r7, #31
 80051ac:	d458      	bmi.n	8005260 <dir_register+0x100>
 80051ae:	07bb      	lsls	r3, r7, #30
 80051b0:	9e01      	ldr	r6, [sp, #4]
 80051b2:	f140 82cb 	bpl.w	800574c <dir_register+0x5ec>
 80051b6:	4bc2      	ldr	r3, [pc, #776]	; (80054c0 <dir_register+0x360>)
 80051b8:	f108 050c 	add.w	r5, r8, #12
 80051bc:	fba3 3505 	umull	r3, r5, r3, r5
 80051c0:	08ad      	lsrs	r5, r5, #2
 80051c2:	1c6b      	adds	r3, r5, #1
 80051c4:	9302      	str	r3, [sp, #8]
 80051c6:	2100      	movs	r1, #0
 80051c8:	4620      	mov	r0, r4
 80051ca:	f7fe facb 	bl	8003764 <dir_sdi>
 80051ce:	4603      	mov	r3, r0
 80051d0:	9000      	str	r0, [sp, #0]
 80051d2:	2800      	cmp	r0, #0
 80051d4:	f040 81d9 	bne.w	800558a <dir_register+0x42a>
 80051d8:	f106 053c 	add.w	r5, r6, #60	; 0x3c
 80051dc:	4681      	mov	r9, r0
 80051de:	46aa      	mov	sl, r5
 80051e0:	f8cd b00c 	str.w	fp, [sp, #12]
 80051e4:	f8dd b008 	ldr.w	fp, [sp, #8]
 80051e8:	69e5      	ldr	r5, [r4, #28]
 80051ea:	6bb7      	ldr	r7, [r6, #56]	; 0x38
 80051ec:	42bd      	cmp	r5, r7
 80051ee:	f000 81b9 	beq.w	8005564 <dir_register+0x404>
 80051f2:	78f3      	ldrb	r3, [r6, #3]
 80051f4:	7870      	ldrb	r0, [r6, #1]
 80051f6:	b313      	cbz	r3, 800523e <dir_register+0xde>
 80051f8:	2301      	movs	r3, #1
 80051fa:	463a      	mov	r2, r7
 80051fc:	4651      	mov	r1, sl
 80051fe:	f7fe f9e1 	bl	80035c4 <disk_write>
 8005202:	2800      	cmp	r0, #0
 8005204:	f040 82b7 	bne.w	8005776 <dir_register+0x616>
 8005208:	6af2      	ldr	r2, [r6, #44]	; 0x2c
 800520a:	6a73      	ldr	r3, [r6, #36]	; 0x24
 800520c:	1aba      	subs	r2, r7, r2
 800520e:	429a      	cmp	r2, r3
 8005210:	70f0      	strb	r0, [r6, #3]
 8005212:	7870      	ldrb	r0, [r6, #1]
 8005214:	d213      	bcs.n	800523e <dir_register+0xde>
 8005216:	f896 8002 	ldrb.w	r8, [r6, #2]
 800521a:	f1b8 0f01 	cmp.w	r8, #1
 800521e:	d802      	bhi.n	8005226 <dir_register+0xc6>
 8005220:	e00d      	b.n	800523e <dir_register+0xde>
 8005222:	6a73      	ldr	r3, [r6, #36]	; 0x24
 8005224:	7870      	ldrb	r0, [r6, #1]
 8005226:	441f      	add	r7, r3
 8005228:	f108 38ff 	add.w	r8, r8, #4294967295
 800522c:	463a      	mov	r2, r7
 800522e:	2301      	movs	r3, #1
 8005230:	4651      	mov	r1, sl
 8005232:	f7fe f9c7 	bl	80035c4 <disk_write>
 8005236:	f1b8 0f01 	cmp.w	r8, #1
 800523a:	d1f2      	bne.n	8005222 <dir_register+0xc2>
 800523c:	7870      	ldrb	r0, [r6, #1]
 800523e:	2301      	movs	r3, #1
 8005240:	462a      	mov	r2, r5
 8005242:	4651      	mov	r1, sl
 8005244:	f7fe f9b0 	bl	80035a8 <disk_read>
 8005248:	2800      	cmp	r0, #0
 800524a:	f000 818a 	beq.w	8005562 <dir_register+0x402>
 800524e:	f04f 33ff 	mov.w	r3, #4294967295
 8005252:	2201      	movs	r2, #1
 8005254:	63b3      	str	r3, [r6, #56]	; 0x38
 8005256:	9200      	str	r2, [sp, #0]
 8005258:	9800      	ldr	r0, [sp, #0]
 800525a:	b00b      	add	sp, #44	; 0x2c
 800525c:	e8bd 8ff0 	ldmia.w	sp!, {r4, r5, r6, r7, r8, r9, sl, fp, pc}
 8005260:	2340      	movs	r3, #64	; 0x40
 8005262:	2601      	movs	r6, #1
 8005264:	f04f 0920 	mov.w	r9, #32
 8005268:	9700      	str	r7, [sp, #0]
 800526a:	4d96      	ldr	r5, [pc, #600]	; (80054c4 <dir_register+0x364>)
 800526c:	9f01      	ldr	r7, [sp, #4]
 800526e:	f884 302f 	strb.w	r3, [r4, #47]	; 0x2f
 8005272:	9b08      	ldr	r3, [sp, #32]
 8005274:	f89d 0024 	ldrb.w	r0, [sp, #36]	; 0x24
 8005278:	f89d 1025 	ldrb.w	r1, [sp, #37]	; 0x25
 800527c:	62a3      	str	r3, [r4, #40]	; 0x28
 800527e:	9a07      	ldr	r2, [sp, #28]
 8005280:	f89d 3026 	ldrb.w	r3, [sp, #38]	; 0x26
 8005284:	2e05      	cmp	r6, #5
 8005286:	f884 002c 	strb.w	r0, [r4, #44]	; 0x2c
 800528a:	6262      	str	r2, [r4, #36]	; 0x24
 800528c:	f884 102d 	strb.w	r1, [r4, #45]	; 0x2d
 8005290:	f884 302e 	strb.w	r3, [r4, #46]	; 0x2e
 8005294:	f89d 001c 	ldrb.w	r0, [sp, #28]
 8005298:	f240 8180 	bls.w	800559c <dir_register+0x43c>
 800529c:	f1ac 0c02 	sub.w	ip, ip, #2
 80052a0:	4633      	mov	r3, r6
 80052a2:	e099      	b.n	80053d8 <dir_register+0x278>
 80052a4:	f002 0101 	and.w	r1, r2, #1
 80052a8:	eb01 0143 	add.w	r1, r1, r3, lsl #1
 80052ac:	f411 3f80 	tst.w	r1, #65536	; 0x10000
 80052b0:	ea4f 0352 	mov.w	r3, r2, lsr #1
 80052b4:	bf18      	it	ne
 80052b6:	4069      	eorne	r1, r5
 80052b8:	f003 0301 	and.w	r3, r3, #1
 80052bc:	eb03 0141 	add.w	r1, r3, r1, lsl #1
 80052c0:	f411 3f80 	tst.w	r1, #65536	; 0x10000
 80052c4:	ea4f 0392 	mov.w	r3, r2, lsr #2
 80052c8:	bf18      	it	ne
 80052ca:	4069      	eorne	r1, r5
 80052cc:	f003 0301 	and.w	r3, r3, #1
 80052d0:	eb03 0341 	add.w	r3, r3, r1, lsl #1
 80052d4:	f413 3f80 	tst.w	r3, #65536	; 0x10000
 80052d8:	ea4f 01d2 	mov.w	r1, r2, lsr #3
 80052dc:	bf18      	it	ne
 80052de:	406b      	eorne	r3, r5
 80052e0:	f001 0101 	and.w	r1, r1, #1
 80052e4:	eb01 0343 	add.w	r3, r1, r3, lsl #1
 80052e8:	f413 3f80 	tst.w	r3, #65536	; 0x10000
 80052ec:	ea4f 1112 	mov.w	r1, r2, lsr #4
 80052f0:	bf18      	it	ne
 80052f2:	406b      	eorne	r3, r5
 80052f4:	f001 0101 	and.w	r1, r1, #1
 80052f8:	eb01 0143 	add.w	r1, r1, r3, lsl #1
 80052fc:	f411 3f80 	tst.w	r1, #65536	; 0x10000
 8005300:	ea4f 1352 	mov.w	r3, r2, lsr #5
 8005304:	bf18      	it	ne
 8005306:	4069      	eorne	r1, r5
 8005308:	f003 0301 	and.w	r3, r3, #1
 800530c:	eb03 0141 	add.w	r1, r3, r1, lsl #1
 8005310:	f411 3f80 	tst.w	r1, #65536	; 0x10000
 8005314:	ea4f 1392 	mov.w	r3, r2, lsr #6
 8005318:	bf18      	it	ne
 800531a:	4069      	eorne	r1, r5
 800531c:	f003 0301 	and.w	r3, r3, #1
 8005320:	eb03 0341 	add.w	r3, r3, r1, lsl #1
 8005324:	f413 3f80 	tst.w	r3, #65536	; 0x10000
 8005328:	ea4f 11d2 	mov.w	r1, r2, lsr #7
 800532c:	bf18      	it	ne
 800532e:	406b      	eorne	r3, r5
 8005330:	f001 0101 	and.w	r1, r1, #1
 8005334:	eb01 0343 	add.w	r3, r1, r3, lsl #1
 8005338:	f413 3f80 	tst.w	r3, #65536	; 0x10000
 800533c:	ea4f 2112 	mov.w	r1, r2, lsr #8
 8005340:	bf18      	it	ne
 8005342:	406b      	eorne	r3, r5
 8005344:	f001 0101 	and.w	r1, r1, #1
 8005348:	eb01 0143 	add.w	r1, r1, r3, lsl #1
 800534c:	f411 3f80 	tst.w	r1, #65536	; 0x10000
 8005350:	ea4f 2352 	mov.w	r3, r2, lsr #9
 8005354:	bf18      	it	ne
 8005356:	4069      	eorne	r1, r5
 8005358:	f003 0301 	and.w	r3, r3, #1
 800535c:	eb03 0141 	add.w	r1, r3, r1, lsl #1
 8005360:	f411 3f80 	tst.w	r1, #65536	; 0x10000
 8005364:	ea4f 2392 	mov.w	r3, r2, lsr #10
 8005368:	bf18      	it	ne
 800536a:	4069      	eorne	r1, r5
 800536c:	f003 0301 	and.w	r3, r3, #1
 8005370:	eb03 0341 	add.w	r3, r3, r1, lsl #1
 8005374:	f413 3f80 	tst.w	r3, #65536	; 0x10000
 8005378:	ea4f 21d2 	mov.w	r1, r2, lsr #11
 800537c:	bf18      	it	ne
 800537e:	406b      	eorne	r3, r5
 8005380:	f001 0101 	and.w	r1, r1, #1
 8005384:	eb01 0343 	add.w	r3, r1, r3, lsl #1
 8005388:	f413 3f80 	tst.w	r3, #65536	; 0x10000
 800538c:	ea4f 3112 	mov.w	r1, r2, lsr #12
 8005390:	bf18      	it	ne
 8005392:	406b      	eorne	r3, r5
 8005394:	f001 0101 	and.w	r1, r1, #1
 8005398:	eb01 0143 	add.w	r1, r1, r3, lsl #1
 800539c:	f411 3f80 	tst.w	r1, #65536	; 0x10000
 80053a0:	ea4f 3352 	mov.w	r3, r2, lsr #13
 80053a4:	bf18      	it	ne
 80053a6:	4069      	eorne	r1, r5
 80053a8:	f003 0301 	and.w	r3, r3, #1
 80053ac:	eb03 0141 	add.w	r1, r3, r1, lsl #1
 80053b0:	f411 3f80 	tst.w	r1, #65536	; 0x10000
 80053b4:	ea4f 3392 	mov.w	r3, r2, lsr #14
 80053b8:	bf18      	it	ne
 80053ba:	4069      	eorne	r1, r5
 80053bc:	f003 0301 	and.w	r3, r3, #1
 80053c0:	eb03 0341 	add.w	r3, r3, r1, lsl #1
 80053c4:	03d9      	lsls	r1, r3, #15
 80053c6:	ea4f 32d2 	mov.w	r2, r2, lsr #15
 80053ca:	bf48      	it	mi
 80053cc:	406b      	eormi	r3, r5
 80053ce:	eb02 0343 	add.w	r3, r2, r3, lsl #1
 80053d2:	03da      	lsls	r2, r3, #15
 80053d4:	bf48      	it	mi
 80053d6:	406b      	eormi	r3, r5
 80053d8:	f83c 2f02 	ldrh.w	r2, [ip, #2]!
 80053dc:	2a00      	cmp	r2, #0
 80053de:	f47f af61 	bne.w	80052a4 <dir_register+0x144>
 80053e2:	f003 010f 	and.w	r1, r3, #15
 80053e6:	f101 0230 	add.w	r2, r1, #48	; 0x30
 80053ea:	2a39      	cmp	r2, #57	; 0x39
 80053ec:	bf88      	it	hi
 80053ee:	f101 0237 	addhi.w	r2, r1, #55	; 0x37
 80053f2:	f88d 201b 	strb.w	r2, [sp, #27]
 80053f6:	091a      	lsrs	r2, r3, #4
 80053f8:	f000 8179 	beq.w	80056ee <dir_register+0x58e>
 80053fc:	f002 020f 	and.w	r2, r2, #15
 8005400:	f102 0130 	add.w	r1, r2, #48	; 0x30
 8005404:	2939      	cmp	r1, #57	; 0x39
 8005406:	bf88      	it	hi
 8005408:	f102 0137 	addhi.w	r1, r2, #55	; 0x37
 800540c:	0a1a      	lsrs	r2, r3, #8
 800540e:	f88d 101a 	strb.w	r1, [sp, #26]
 8005412:	f000 8178 	beq.w	8005706 <dir_register+0x5a6>
 8005416:	f002 020f 	and.w	r2, r2, #15
 800541a:	f102 0130 	add.w	r1, r2, #48	; 0x30
 800541e:	2939      	cmp	r1, #57	; 0x39
 8005420:	bf88      	it	hi
 8005422:	f102 0137 	addhi.w	r1, r2, #55	; 0x37
 8005426:	0b1a      	lsrs	r2, r3, #12
 8005428:	f88d 1019 	strb.w	r1, [sp, #25]
 800542c:	f000 80b8 	beq.w	80055a0 <dir_register+0x440>
 8005430:	f002 020f 	and.w	r2, r2, #15
 8005434:	f102 0130 	add.w	r1, r2, #48	; 0x30
 8005438:	2939      	cmp	r1, #57	; 0x39
 800543a:	bf88      	it	hi
 800543c:	f102 0137 	addhi.w	r1, r2, #55	; 0x37
 8005440:	0c1a      	lsrs	r2, r3, #16
 8005442:	f88d 1018 	strb.w	r1, [sp, #24]
 8005446:	f000 816a 	beq.w	800571e <dir_register+0x5be>
 800544a:	f002 020f 	and.w	r2, r2, #15
 800544e:	f102 0130 	add.w	r1, r2, #48	; 0x30
 8005452:	2939      	cmp	r1, #57	; 0x39
 8005454:	bf88      	it	hi
 8005456:	f102 0137 	addhi.w	r1, r2, #55	; 0x37
 800545a:	0d1a      	lsrs	r2, r3, #20
 800545c:	f88d 1017 	strb.w	r1, [sp, #23]
 8005460:	f000 817d 	beq.w	800575e <dir_register+0x5fe>
 8005464:	f002 020f 	and.w	r2, r2, #15
 8005468:	f102 0130 	add.w	r1, r2, #48	; 0x30
 800546c:	2939      	cmp	r1, #57	; 0x39
 800546e:	bf88      	it	hi
 8005470:	f102 0137 	addhi.w	r1, r2, #55	; 0x37
 8005474:	0e1a      	lsrs	r2, r3, #24
 8005476:	f88d 1016 	strb.w	r1, [sp, #22]
 800547a:	f000 8182 	beq.w	8005782 <dir_register+0x622>
 800547e:	f002 020f 	and.w	r2, r2, #15
 8005482:	f102 0130 	add.w	r1, r2, #48	; 0x30
 8005486:	2939      	cmp	r1, #57	; 0x39
 8005488:	bf88      	it	hi
 800548a:	f102 0137 	addhi.w	r1, r2, #55	; 0x37
 800548e:	0f1b      	lsrs	r3, r3, #28
 8005490:	f88d 1015 	strb.w	r1, [sp, #21]
 8005494:	f000 8181 	beq.w	800579a <dir_register+0x63a>
 8005498:	b2db      	uxtb	r3, r3
 800549a:	f103 0230 	add.w	r2, r3, #48	; 0x30
 800549e:	2a39      	cmp	r2, #57	; 0x39
 80054a0:	bf88      	it	hi
 80054a2:	f103 0237 	addhi.w	r2, r3, #55	; 0x37
 80054a6:	2820      	cmp	r0, #32
 80054a8:	f88d 2014 	strb.w	r2, [sp, #20]
 80054ac:	bf18      	it	ne
 80054ae:	f04f 30ff 	movne.w	r0, #4294967295
 80054b2:	f000 8362 	beq.w	8005b7a <dir_register+0xa1a>
 80054b6:	f104 0125 	add.w	r1, r4, #37	; 0x25
 80054ba:	2200      	movs	r2, #0
 80054bc:	e00a      	b.n	80054d4 <dir_register+0x374>
 80054be:	bf00      	nop
 80054c0:	4ec4ec4f 	.word	0x4ec4ec4f
 80054c4:	00011021 	.word	0x00011021
 80054c8:	f89c e000 	ldrb.w	lr, [ip]
 80054cc:	f1be 0f20 	cmp.w	lr, #32
 80054d0:	d008      	beq.n	80054e4 <dir_register+0x384>
 80054d2:	461a      	mov	r2, r3
 80054d4:	1c53      	adds	r3, r2, #1
 80054d6:	4283      	cmp	r3, r0
 80054d8:	468c      	mov	ip, r1
 80054da:	f102 0a02 	add.w	sl, r2, #2
 80054de:	f101 0101 	add.w	r1, r1, #1
 80054e2:	d3f1      	bcc.n	80054c8 <dir_register+0x368>
 80054e4:	2807      	cmp	r0, #7
 80054e6:	bf96      	itet	ls
 80054e8:	217e      	movls	r1, #126	; 0x7e
 80054ea:	2120      	movhi	r1, #32
 80054ec:	3001      	addls	r0, #1
 80054ee:	f1ba 0f07 	cmp.w	sl, #7
 80054f2:	f88c 1000 	strb.w	r1, [ip]
 80054f6:	d828      	bhi.n	800554a <dir_register+0x3ea>
 80054f8:	2807      	cmp	r0, #7
 80054fa:	d95e      	bls.n	80055ba <dir_register+0x45a>
 80054fc:	3203      	adds	r2, #3
 80054fe:	2a08      	cmp	r2, #8
 8005500:	f80b 900a 	strb.w	r9, [fp, sl]
 8005504:	d021      	beq.n	800554a <dir_register+0x3ea>
 8005506:	1cd9      	adds	r1, r3, #3
 8005508:	2908      	cmp	r1, #8
 800550a:	f80b 9002 	strb.w	r9, [fp, r2]
 800550e:	d01c      	beq.n	800554a <dir_register+0x3ea>
 8005510:	1d1a      	adds	r2, r3, #4
 8005512:	2a08      	cmp	r2, #8
 8005514:	f80b 9001 	strb.w	r9, [fp, r1]
 8005518:	d017      	beq.n	800554a <dir_register+0x3ea>
 800551a:	445a      	add	r2, fp
 800551c:	1d59      	adds	r1, r3, #5
 800551e:	2908      	cmp	r1, #8
 8005520:	f882 9000 	strb.w	r9, [r2]
 8005524:	d011      	beq.n	800554a <dir_register+0x3ea>
 8005526:	1d9a      	adds	r2, r3, #6
 8005528:	2a08      	cmp	r2, #8
 800552a:	f80b 9001 	strb.w	r9, [fp, r1]
 800552e:	d00c      	beq.n	800554a <dir_register+0x3ea>
 8005530:	445a      	add	r2, fp
 8005532:	1dd9      	adds	r1, r3, #7
 8005534:	2908      	cmp	r1, #8
 8005536:	f882 9000 	strb.w	r9, [r2]
 800553a:	d006      	beq.n	800554a <dir_register+0x3ea>
 800553c:	2220      	movs	r2, #32
 800553e:	3301      	adds	r3, #1
 8005540:	f80b 2001 	strb.w	r2, [fp, r1]
 8005544:	bf08      	it	eq
 8005546:	f884 902b 	strbeq.w	r9, [r4, #43]	; 0x2b
 800554a:	4620      	mov	r0, r4
 800554c:	f7ff fae6 	bl	8004b1c <dir_find>
 8005550:	2800      	cmp	r0, #0
 8005552:	f040 80f0 	bne.w	8005736 <dir_register+0x5d6>
 8005556:	3601      	adds	r6, #1
 8005558:	2e64      	cmp	r6, #100	; 0x64
 800555a:	d019      	beq.n	8005590 <dir_register+0x430>
 800555c:	f8d7 c010 	ldr.w	ip, [r7, #16]
 8005560:	e687      	b.n	8005272 <dir_register+0x112>
 8005562:	63b5      	str	r5, [r6, #56]	; 0x38
 8005564:	6a23      	ldr	r3, [r4, #32]
 8005566:	781b      	ldrb	r3, [r3, #0]
 8005568:	2be5      	cmp	r3, #229	; 0xe5
 800556a:	f000 8087 	beq.w	800567c <dir_register+0x51c>
 800556e:	2b00      	cmp	r3, #0
 8005570:	f000 8084 	beq.w	800567c <dir_register+0x51c>
 8005574:	f04f 0900 	mov.w	r9, #0
 8005578:	2101      	movs	r1, #1
 800557a:	4620      	mov	r0, r4
 800557c:	f7ff f9e0 	bl	8004940 <dir_next>
 8005580:	2800      	cmp	r0, #0
 8005582:	f43f ae31 	beq.w	80051e8 <dir_register+0x88>
 8005586:	4603      	mov	r3, r0
 8005588:	9000      	str	r0, [sp, #0]
 800558a:	2b04      	cmp	r3, #4
 800558c:	f47f ae64 	bne.w	8005258 <dir_register+0xf8>
 8005590:	2307      	movs	r3, #7
 8005592:	9300      	str	r3, [sp, #0]
 8005594:	9800      	ldr	r0, [sp, #0]
 8005596:	b00b      	add	sp, #44	; 0x2c
 8005598:	e8bd 8ff0 	ldmia.w	sp!, {r4, r5, r6, r7, r8, r9, sl, fp, pc}
 800559c:	4633      	mov	r3, r6
 800559e:	e720      	b.n	80053e2 <dir_register+0x282>
 80055a0:	237e      	movs	r3, #126	; 0x7e
 80055a2:	2820      	cmp	r0, #32
 80055a4:	f88d 3018 	strb.w	r3, [sp, #24]
 80055a8:	bf18      	it	ne
 80055aa:	2004      	movne	r0, #4
 80055ac:	d183      	bne.n	80054b6 <dir_register+0x356>
 80055ae:	2005      	movs	r0, #5
 80055b0:	f884 3024 	strb.w	r3, [r4, #36]	; 0x24
 80055b4:	f04f 0a01 	mov.w	sl, #1
 80055b8:	2300      	movs	r3, #0
 80055ba:	aa0a      	add	r2, sp, #40	; 0x28
 80055bc:	4402      	add	r2, r0
 80055be:	f812 1c14 	ldrb.w	r1, [r2, #-20]
 80055c2:	1c9a      	adds	r2, r3, #2
 80055c4:	2a08      	cmp	r2, #8
 80055c6:	f80b 100a 	strb.w	r1, [fp, sl]
 80055ca:	f100 0001 	add.w	r0, r0, #1
 80055ce:	d0bc      	beq.n	800554a <dir_register+0x3ea>
 80055d0:	2808      	cmp	r0, #8
 80055d2:	d098      	beq.n	8005506 <dir_register+0x3a6>
 80055d4:	a90a      	add	r1, sp, #40	; 0x28
 80055d6:	4401      	add	r1, r0
 80055d8:	f811 cc14 	ldrb.w	ip, [r1, #-20]
 80055dc:	1cd9      	adds	r1, r3, #3
 80055de:	2908      	cmp	r1, #8
 80055e0:	f80b c002 	strb.w	ip, [fp, r2]
 80055e4:	f100 0201 	add.w	r2, r0, #1
 80055e8:	d0af      	beq.n	800554a <dir_register+0x3ea>
 80055ea:	2a07      	cmp	r2, #7
 80055ec:	d890      	bhi.n	8005510 <dir_register+0x3b0>
 80055ee:	f10d 0c28 	add.w	ip, sp, #40	; 0x28
 80055f2:	4462      	add	r2, ip
 80055f4:	f812 2c14 	ldrb.w	r2, [r2, #-20]
 80055f8:	f103 0c04 	add.w	ip, r3, #4
 80055fc:	f1bc 0f08 	cmp.w	ip, #8
 8005600:	f80b 2001 	strb.w	r2, [fp, r1]
 8005604:	f100 0e02 	add.w	lr, r0, #2
 8005608:	d09f      	beq.n	800554a <dir_register+0x3ea>
 800560a:	f1be 0f08 	cmp.w	lr, #8
 800560e:	f103 0105 	add.w	r1, r3, #5
 8005612:	eb0b 020c 	add.w	r2, fp, ip
 8005616:	d082      	beq.n	800551e <dir_register+0x3be>
 8005618:	aa0a      	add	r2, sp, #40	; 0x28
 800561a:	4496      	add	lr, r2
 800561c:	f81e ec14 	ldrb.w	lr, [lr, #-20]
 8005620:	2908      	cmp	r1, #8
 8005622:	f100 0203 	add.w	r2, r0, #3
 8005626:	f80b e00c 	strb.w	lr, [fp, ip]
 800562a:	d08e      	beq.n	800554a <dir_register+0x3ea>
 800562c:	2a08      	cmp	r2, #8
 800562e:	f43f af7a 	beq.w	8005526 <dir_register+0x3c6>
 8005632:	f10d 0c28 	add.w	ip, sp, #40	; 0x28
 8005636:	4462      	add	r2, ip
 8005638:	f812 2c14 	ldrb.w	r2, [r2, #-20]
 800563c:	f103 0c06 	add.w	ip, r3, #6
 8005640:	f1bc 0f08 	cmp.w	ip, #8
 8005644:	f80b 2001 	strb.w	r2, [fp, r1]
 8005648:	f100 0004 	add.w	r0, r0, #4
 800564c:	f43f af7d 	beq.w	800554a <dir_register+0x3ea>
 8005650:	2808      	cmp	r0, #8
 8005652:	f103 0107 	add.w	r1, r3, #7
 8005656:	eb0b 020c 	add.w	r2, fp, ip
 800565a:	f43f af6b 	beq.w	8005534 <dir_register+0x3d4>
 800565e:	aa0a      	add	r2, sp, #40	; 0x28
 8005660:	4402      	add	r2, r0
 8005662:	f812 2c14 	ldrb.w	r2, [r2, #-20]
 8005666:	2908      	cmp	r1, #8
 8005668:	f80b 200c 	strb.w	r2, [fp, ip]
 800566c:	f43f af6d 	beq.w	800554a <dir_register+0x3ea>
 8005670:	2806      	cmp	r0, #6
 8005672:	f47f af63 	bne.w	800553c <dir_register+0x3dc>
 8005676:	f89d 201b 	ldrb.w	r2, [sp, #27]
 800567a:	e760      	b.n	800553e <dir_register+0x3de>
 800567c:	f109 0901 	add.w	r9, r9, #1
 8005680:	45cb      	cmp	fp, r9
 8005682:	f47f af79 	bne.w	8005578 <dir_register+0x418>
 8005686:	e9dd 3b02 	ldrd	r3, fp, [sp, #8]
 800568a:	1e5d      	subs	r5, r3, #1
 800568c:	f040 80bd 	bne.w	800580a <dir_register+0x6aa>
 8005690:	9b01      	ldr	r3, [sp, #4]
 8005692:	69e7      	ldr	r7, [r4, #28]
 8005694:	6b9d      	ldr	r5, [r3, #56]	; 0x38
 8005696:	461a      	mov	r2, r3
 8005698:	42af      	cmp	r7, r5
 800569a:	f040 808a 	bne.w	80057b2 <dir_register+0x652>
 800569e:	2220      	movs	r2, #32
 80056a0:	2100      	movs	r1, #0
 80056a2:	6a20      	ldr	r0, [r4, #32]
 80056a4:	f005 f84f 	bl	800a746 <memset>
 80056a8:	6a23      	ldr	r3, [r4, #32]
 80056aa:	f104 0228 	add.w	r2, r4, #40	; 0x28
 80056ae:	4293      	cmp	r3, r2
 80056b0:	d203      	bcs.n	80056ba <dir_register+0x55a>
 80056b2:	1d1a      	adds	r2, r3, #4
 80056b4:	4593      	cmp	fp, r2
 80056b6:	f0c0 8269 	bcc.w	8005b8c <dir_register+0xa2c>
 80056ba:	6a62      	ldr	r2, [r4, #36]	; 0x24
 80056bc:	601a      	str	r2, [r3, #0]
 80056be:	6aa2      	ldr	r2, [r4, #40]	; 0x28
 80056c0:	605a      	str	r2, [r3, #4]
 80056c2:	f894 202c 	ldrb.w	r2, [r4, #44]	; 0x2c
 80056c6:	9800      	ldr	r0, [sp, #0]
 80056c8:	721a      	strb	r2, [r3, #8]
 80056ca:	f894 202d 	ldrb.w	r2, [r4, #45]	; 0x2d
 80056ce:	725a      	strb	r2, [r3, #9]
 80056d0:	f894 202e 	ldrb.w	r2, [r4, #46]	; 0x2e
 80056d4:	729a      	strb	r2, [r3, #10]
 80056d6:	2201      	movs	r2, #1
 80056d8:	f894 302f 	ldrb.w	r3, [r4, #47]	; 0x2f
 80056dc:	6a21      	ldr	r1, [r4, #32]
 80056de:	f003 0318 	and.w	r3, r3, #24
 80056e2:	730b      	strb	r3, [r1, #12]
 80056e4:	9b01      	ldr	r3, [sp, #4]
 80056e6:	70da      	strb	r2, [r3, #3]
 80056e8:	b00b      	add	sp, #44	; 0x2c
 80056ea:	e8bd 8ff0 	ldmia.w	sp!, {r4, r5, r6, r7, r8, r9, sl, fp, pc}
 80056ee:	237e      	movs	r3, #126	; 0x7e
 80056f0:	2820      	cmp	r0, #32
 80056f2:	f88d 301a 	strb.w	r3, [sp, #26]
 80056f6:	bf18      	it	ne
 80056f8:	2006      	movne	r0, #6
 80056fa:	f47f aedc 	bne.w	80054b6 <dir_register+0x356>
 80056fe:	f884 3024 	strb.w	r3, [r4, #36]	; 0x24
 8005702:	2007      	movs	r0, #7
 8005704:	e756      	b.n	80055b4 <dir_register+0x454>
 8005706:	237e      	movs	r3, #126	; 0x7e
 8005708:	2820      	cmp	r0, #32
 800570a:	f88d 3019 	strb.w	r3, [sp, #25]
 800570e:	bf18      	it	ne
 8005710:	2005      	movne	r0, #5
 8005712:	f47f aed0 	bne.w	80054b6 <dir_register+0x356>
 8005716:	f884 3024 	strb.w	r3, [r4, #36]	; 0x24
 800571a:	2006      	movs	r0, #6
 800571c:	e74a      	b.n	80055b4 <dir_register+0x454>
 800571e:	237e      	movs	r3, #126	; 0x7e
 8005720:	2820      	cmp	r0, #32
 8005722:	f88d 3017 	strb.w	r3, [sp, #23]
 8005726:	bf18      	it	ne
 8005728:	2003      	movne	r0, #3
 800572a:	f47f aec4 	bne.w	80054b6 <dir_register+0x356>
 800572e:	f884 3024 	strb.w	r3, [r4, #36]	; 0x24
 8005732:	2004      	movs	r0, #4
 8005734:	e73e      	b.n	80055b4 <dir_register+0x454>
 8005736:	2804      	cmp	r0, #4
 8005738:	9f00      	ldr	r7, [sp, #0]
 800573a:	9000      	str	r0, [sp, #0]
 800573c:	f47f ad8c 	bne.w	8005258 <dir_register+0xf8>
 8005740:	07bb      	lsls	r3, r7, #30
 8005742:	f884 702f 	strb.w	r7, [r4, #47]	; 0x2f
 8005746:	6826      	ldr	r6, [r4, #0]
 8005748:	f53f ad35 	bmi.w	80051b6 <dir_register+0x56>
 800574c:	2301      	movs	r3, #1
 800574e:	9302      	str	r3, [sp, #8]
 8005750:	e539      	b.n	80051c6 <dir_register+0x66>
 8005752:	2306      	movs	r3, #6
 8005754:	9300      	str	r3, [sp, #0]
 8005756:	9800      	ldr	r0, [sp, #0]
 8005758:	b00b      	add	sp, #44	; 0x2c
 800575a:	e8bd 8ff0 	ldmia.w	sp!, {r4, r5, r6, r7, r8, r9, sl, fp, pc}
 800575e:	237e      	movs	r3, #126	; 0x7e
 8005760:	2820      	cmp	r0, #32
 8005762:	f88d 3016 	strb.w	r3, [sp, #22]
 8005766:	bf18      	it	ne
 8005768:	2002      	movne	r0, #2
 800576a:	f47f aea4 	bne.w	80054b6 <dir_register+0x356>
 800576e:	f884 3024 	strb.w	r3, [r4, #36]	; 0x24
 8005772:	2003      	movs	r0, #3
 8005774:	e71e      	b.n	80055b4 <dir_register+0x454>
 8005776:	2301      	movs	r3, #1
 8005778:	9300      	str	r3, [sp, #0]
 800577a:	9800      	ldr	r0, [sp, #0]
 800577c:	b00b      	add	sp, #44	; 0x2c
 800577e:	e8bd 8ff0 	ldmia.w	sp!, {r4, r5, r6, r7, r8, r9, sl, fp, pc}
 8005782:	237e      	movs	r3, #126	; 0x7e
 8005784:	2820      	cmp	r0, #32
 8005786:	f88d 3015 	strb.w	r3, [sp, #21]
 800578a:	bf18      	it	ne
 800578c:	2001      	movne	r0, #1
 800578e:	f47f ae92 	bne.w	80054b6 <dir_register+0x356>
 8005792:	f884 3024 	strb.w	r3, [r4, #36]	; 0x24
 8005796:	2002      	movs	r0, #2
 8005798:	e70c      	b.n	80055b4 <dir_register+0x454>
 800579a:	217e      	movs	r1, #126	; 0x7e
 800579c:	2202      	movs	r2, #2
 800579e:	f89d c015 	ldrb.w	ip, [sp, #21]
 80057a2:	f88d 1014 	strb.w	r1, [sp, #20]
 80057a6:	f884 1024 	strb.w	r1, [r4, #36]	; 0x24
 80057aa:	4610      	mov	r0, r2
 80057ac:	f884 c025 	strb.w	ip, [r4, #37]	; 0x25
 80057b0:	e710      	b.n	80055d4 <dir_register+0x474>
 80057b2:	461e      	mov	r6, r3
 80057b4:	78db      	ldrb	r3, [r3, #3]
 80057b6:	f102 083c 	add.w	r8, r2, #60	; 0x3c
 80057ba:	7850      	ldrb	r0, [r2, #1]
 80057bc:	2b00      	cmp	r3, #0
 80057be:	f000 8110 	beq.w	80059e2 <dir_register+0x882>
 80057c2:	2301      	movs	r3, #1
 80057c4:	462a      	mov	r2, r5
 80057c6:	4641      	mov	r1, r8
 80057c8:	f7fd fefc 	bl	80035c4 <disk_write>
 80057cc:	2800      	cmp	r0, #0
 80057ce:	d1d2      	bne.n	8005776 <dir_register+0x616>
 80057d0:	6af2      	ldr	r2, [r6, #44]	; 0x2c
 80057d2:	6a73      	ldr	r3, [r6, #36]	; 0x24
 80057d4:	1aaa      	subs	r2, r5, r2
 80057d6:	429a      	cmp	r2, r3
 80057d8:	70f0      	strb	r0, [r6, #3]
 80057da:	4631      	mov	r1, r6
 80057dc:	7870      	ldrb	r0, [r6, #1]
 80057de:	f080 8100 	bcs.w	80059e2 <dir_register+0x882>
 80057e2:	78b6      	ldrb	r6, [r6, #2]
 80057e4:	2e01      	cmp	r6, #1
 80057e6:	f240 80fc 	bls.w	80059e2 <dir_register+0x882>
 80057ea:	4689      	mov	r9, r1
 80057ec:	441d      	add	r5, r3
 80057ee:	3e01      	subs	r6, #1
 80057f0:	462a      	mov	r2, r5
 80057f2:	2301      	movs	r3, #1
 80057f4:	4641      	mov	r1, r8
 80057f6:	f7fd fee5 	bl	80035c4 <disk_write>
 80057fa:	2e01      	cmp	r6, #1
 80057fc:	f000 80ef 	beq.w	80059de <dir_register+0x87e>
 8005800:	f8d9 3024 	ldr.w	r3, [r9, #36]	; 0x24
 8005804:	f899 0001 	ldrb.w	r0, [r9, #1]
 8005808:	e7f0      	b.n	80057ec <dir_register+0x68c>
 800580a:	6961      	ldr	r1, [r4, #20]
 800580c:	4620      	mov	r0, r4
 800580e:	eba1 1145 	sub.w	r1, r1, r5, lsl #5
 8005812:	f7fd ffa7 	bl	8003764 <dir_sdi>
 8005816:	2800      	cmp	r0, #0
 8005818:	f040 81b5 	bne.w	8005b86 <dir_register+0xa26>
 800581c:	f894 2024 	ldrb.w	r2, [r4, #36]	; 0x24
 8005820:	f894 1025 	ldrb.w	r1, [r4, #37]	; 0x25
 8005824:	01d3      	lsls	r3, r2, #7
 8005826:	ea43 0352 	orr.w	r3, r3, r2, lsr #1
 800582a:	185a      	adds	r2, r3, r1
 800582c:	f3c2 0346 	ubfx	r3, r2, #1, #7
 8005830:	ea43 13c2 	orr.w	r3, r3, r2, lsl #7
 8005834:	f894 2026 	ldrb.w	r2, [r4, #38]	; 0x26
 8005838:	b2db      	uxtb	r3, r3
 800583a:	441a      	add	r2, r3
 800583c:	f3c2 0346 	ubfx	r3, r2, #1, #7
 8005840:	ea43 13c2 	orr.w	r3, r3, r2, lsl #7
 8005844:	f8cd b00c 	str.w	fp, [sp, #12]
 8005848:	f894 2027 	ldrb.w	r2, [r4, #39]	; 0x27
 800584c:	f04f 0a01 	mov.w	sl, #1
 8005850:	46a3      	mov	fp, r4
 8005852:	b2db      	uxtb	r3, r3
 8005854:	441a      	add	r2, r3
 8005856:	f3c2 0346 	ubfx	r3, r2, #1, #7
 800585a:	ea43 13c2 	orr.w	r3, r3, r2, lsl #7
 800585e:	f894 2028 	ldrb.w	r2, [r4, #40]	; 0x28
 8005862:	b2db      	uxtb	r3, r3
 8005864:	441a      	add	r2, r3
 8005866:	f3c2 0346 	ubfx	r3, r2, #1, #7
 800586a:	ea43 13c2 	orr.w	r3, r3, r2, lsl #7
 800586e:	f894 2029 	ldrb.w	r2, [r4, #41]	; 0x29
 8005872:	b2db      	uxtb	r3, r3
 8005874:	441a      	add	r2, r3
 8005876:	f3c2 0346 	ubfx	r3, r2, #1, #7
 800587a:	ea43 13c2 	orr.w	r3, r3, r2, lsl #7
 800587e:	f894 202a 	ldrb.w	r2, [r4, #42]	; 0x2a
 8005882:	b2db      	uxtb	r3, r3
 8005884:	441a      	add	r2, r3
 8005886:	f3c2 0346 	ubfx	r3, r2, #1, #7
 800588a:	ea43 13c2 	orr.w	r3, r3, r2, lsl #7
 800588e:	f894 202b 	ldrb.w	r2, [r4, #43]	; 0x2b
 8005892:	b2db      	uxtb	r3, r3
 8005894:	441a      	add	r2, r3
 8005896:	f3c2 0346 	ubfx	r3, r2, #1, #7
 800589a:	ea43 13c2 	orr.w	r3, r3, r2, lsl #7
 800589e:	f894 202c 	ldrb.w	r2, [r4, #44]	; 0x2c
 80058a2:	b2db      	uxtb	r3, r3
 80058a4:	441a      	add	r2, r3
 80058a6:	f3c2 0346 	ubfx	r3, r2, #1, #7
 80058aa:	ea43 13c2 	orr.w	r3, r3, r2, lsl #7
 80058ae:	f894 202d 	ldrb.w	r2, [r4, #45]	; 0x2d
 80058b2:	b2db      	uxtb	r3, r3
 80058b4:	4413      	add	r3, r2
 80058b6:	f3c3 0246 	ubfx	r2, r3, #1, #7
 80058ba:	f894 102e 	ldrb.w	r1, [r4, #46]	; 0x2e
 80058be:	ea42 13c3 	orr.w	r3, r2, r3, lsl #7
 80058c2:	440b      	add	r3, r1
 80058c4:	9e01      	ldr	r6, [sp, #4]
 80058c6:	f003 03ff 	and.w	r3, r3, #255	; 0xff
 80058ca:	9302      	str	r3, [sp, #8]
 80058cc:	f106 093c 	add.w	r9, r6, #60	; 0x3c
 80058d0:	f8db 401c 	ldr.w	r4, [fp, #28]
 80058d4:	6bb7      	ldr	r7, [r6, #56]	; 0x38
 80058d6:	42bc      	cmp	r4, r7
 80058d8:	d01f      	beq.n	800591a <dir_register+0x7ba>
 80058da:	78f3      	ldrb	r3, [r6, #3]
 80058dc:	7870      	ldrb	r0, [r6, #1]
 80058de:	b19b      	cbz	r3, 8005908 <dir_register+0x7a8>
 80058e0:	2301      	movs	r3, #1
 80058e2:	463a      	mov	r2, r7
 80058e4:	4649      	mov	r1, r9
 80058e6:	f7fd fe6d 	bl	80035c4 <disk_write>
 80058ea:	2800      	cmp	r0, #0
 80058ec:	f47f af43 	bne.w	8005776 <dir_register+0x616>
 80058f0:	6af2      	ldr	r2, [r6, #44]	; 0x2c
 80058f2:	6a73      	ldr	r3, [r6, #36]	; 0x24
 80058f4:	1aba      	subs	r2, r7, r2
 80058f6:	429a      	cmp	r2, r3
 80058f8:	70f0      	strb	r0, [r6, #3]
 80058fa:	7870      	ldrb	r0, [r6, #1]
 80058fc:	d204      	bcs.n	8005908 <dir_register+0x7a8>
 80058fe:	f896 8002 	ldrb.w	r8, [r6, #2]
 8005902:	f1b8 0f01 	cmp.w	r8, #1
 8005906:	d85d      	bhi.n	80059c4 <dir_register+0x864>
 8005908:	2301      	movs	r3, #1
 800590a:	4622      	mov	r2, r4
 800590c:	4649      	mov	r1, r9
 800590e:	f7fd fe4b 	bl	80035a8 <disk_read>
 8005912:	2800      	cmp	r0, #0
 8005914:	f040 8126 	bne.w	8005b64 <dir_register+0xa04>
 8005918:	63b4      	str	r4, [r6, #56]	; 0x38
 800591a:	b2ec      	uxtb	r4, r5
 800591c:	1e62      	subs	r2, r4, #1
 800591e:	eb02 0742 	add.w	r7, r2, r2, lsl #1
 8005922:	f8db 3020 	ldr.w	r3, [fp, #32]
 8005926:	eb02 0287 	add.w	r2, r2, r7, lsl #2
 800592a:	9f02      	ldr	r7, [sp, #8]
 800592c:	6931      	ldr	r1, [r6, #16]
 800592e:	2000      	movs	r0, #0
 8005930:	735f      	strb	r7, [r3, #13]
 8005932:	f04f 070f 	mov.w	r7, #15
 8005936:	7318      	strb	r0, [r3, #12]
 8005938:	72df      	strb	r7, [r3, #11]
 800593a:	7698      	strb	r0, [r3, #26]
 800593c:	76d8      	strb	r0, [r3, #27]
 800593e:	f831 c012 	ldrh.w	ip, [r1, r2, lsl #1]
 8005942:	0057      	lsls	r7, r2, #1
 8005944:	ea4f 201c 	mov.w	r0, ip, lsr #8
 8005948:	f883 c001 	strb.w	ip, [r3, #1]
 800594c:	7098      	strb	r0, [r3, #2]
 800594e:	f1bc 0f00 	cmp.w	ip, #0
 8005952:	d151      	bne.n	80059f8 <dir_register+0x898>
 8005954:	22ff      	movs	r2, #255	; 0xff
 8005956:	70da      	strb	r2, [r3, #3]
 8005958:	711a      	strb	r2, [r3, #4]
 800595a:	22ff      	movs	r2, #255	; 0xff
 800595c:	715a      	strb	r2, [r3, #5]
 800595e:	719a      	strb	r2, [r3, #6]
 8005960:	22ff      	movs	r2, #255	; 0xff
 8005962:	71da      	strb	r2, [r3, #7]
 8005964:	721a      	strb	r2, [r3, #8]
 8005966:	22ff      	movs	r2, #255	; 0xff
 8005968:	725a      	strb	r2, [r3, #9]
 800596a:	729a      	strb	r2, [r3, #10]
 800596c:	22ff      	movs	r2, #255	; 0xff
 800596e:	739a      	strb	r2, [r3, #14]
 8005970:	73da      	strb	r2, [r3, #15]
 8005972:	22ff      	movs	r2, #255	; 0xff
 8005974:	741a      	strb	r2, [r3, #16]
 8005976:	745a      	strb	r2, [r3, #17]
 8005978:	22ff      	movs	r2, #255	; 0xff
 800597a:	749a      	strb	r2, [r3, #18]
 800597c:	74da      	strb	r2, [r3, #19]
 800597e:	22ff      	movs	r2, #255	; 0xff
 8005980:	751a      	strb	r2, [r3, #20]
 8005982:	755a      	strb	r2, [r3, #21]
 8005984:	22ff      	movs	r2, #255	; 0xff
 8005986:	759a      	strb	r2, [r3, #22]
 8005988:	75da      	strb	r2, [r3, #23]
 800598a:	22ff      	movs	r2, #255	; 0xff
 800598c:	761a      	strb	r2, [r3, #24]
 800598e:	765a      	strb	r2, [r3, #25]
 8005990:	22ff      	movs	r2, #255	; 0xff
 8005992:	771a      	strb	r2, [r3, #28]
 8005994:	775a      	strb	r2, [r3, #29]
 8005996:	22ff      	movs	r2, #255	; 0xff
 8005998:	779a      	strb	r2, [r3, #30]
 800599a:	77da      	strb	r2, [r3, #31]
 800599c:	f044 0440 	orr.w	r4, r4, #64	; 0x40
 80059a0:	701c      	strb	r4, [r3, #0]
 80059a2:	2100      	movs	r1, #0
 80059a4:	f886 a003 	strb.w	sl, [r6, #3]
 80059a8:	4658      	mov	r0, fp
 80059aa:	f7fe ffc9 	bl	8004940 <dir_next>
 80059ae:	2800      	cmp	r0, #0
 80059b0:	f040 80e9 	bne.w	8005b86 <dir_register+0xa26>
 80059b4:	3d01      	subs	r5, #1
 80059b6:	d18b      	bne.n	80058d0 <dir_register+0x770>
 80059b8:	465c      	mov	r4, fp
 80059ba:	f8dd b00c 	ldr.w	fp, [sp, #12]
 80059be:	e667      	b.n	8005690 <dir_register+0x530>
 80059c0:	6a73      	ldr	r3, [r6, #36]	; 0x24
 80059c2:	7870      	ldrb	r0, [r6, #1]
 80059c4:	441f      	add	r7, r3
 80059c6:	f108 38ff 	add.w	r8, r8, #4294967295
 80059ca:	463a      	mov	r2, r7
 80059cc:	2301      	movs	r3, #1
 80059ce:	4649      	mov	r1, r9
 80059d0:	f7fd fdf8 	bl	80035c4 <disk_write>
 80059d4:	f1b8 0f01 	cmp.w	r8, #1
 80059d8:	d1f2      	bne.n	80059c0 <dir_register+0x860>
 80059da:	7870      	ldrb	r0, [r6, #1]
 80059dc:	e794      	b.n	8005908 <dir_register+0x7a8>
 80059de:	9b01      	ldr	r3, [sp, #4]
 80059e0:	7858      	ldrb	r0, [r3, #1]
 80059e2:	4641      	mov	r1, r8
 80059e4:	2301      	movs	r3, #1
 80059e6:	463a      	mov	r2, r7
 80059e8:	f7fd fdde 	bl	80035a8 <disk_read>
 80059ec:	2800      	cmp	r0, #0
 80059ee:	f040 80b9 	bne.w	8005b64 <dir_register+0xa04>
 80059f2:	9b01      	ldr	r3, [sp, #4]
 80059f4:	639f      	str	r7, [r3, #56]	; 0x38
 80059f6:	e652      	b.n	800569e <dir_register+0x53e>
 80059f8:	f64f 70ff 	movw	r0, #65535	; 0xffff
 80059fc:	4584      	cmp	ip, r0
 80059fe:	d0a9      	beq.n	8005954 <dir_register+0x7f4>
 8005a00:	3201      	adds	r2, #1
 8005a02:	f831 c012 	ldrh.w	ip, [r1, r2, lsl #1]
 8005a06:	0052      	lsls	r2, r2, #1
 8005a08:	ea4f 2e1c 	mov.w	lr, ip, lsr #8
 8005a0c:	f883 c003 	strb.w	ip, [r3, #3]
 8005a10:	f883 e004 	strb.w	lr, [r3, #4]
 8005a14:	f1bc 0f00 	cmp.w	ip, #0
 8005a18:	d09f      	beq.n	800595a <dir_register+0x7fa>
 8005a1a:	4584      	cmp	ip, r0
 8005a1c:	d09d      	beq.n	800595a <dir_register+0x7fa>
 8005a1e:	440a      	add	r2, r1
 8005a20:	f8b2 c002 	ldrh.w	ip, [r2, #2]
 8005a24:	ea4f 2e1c 	mov.w	lr, ip, lsr #8
 8005a28:	f883 c005 	strb.w	ip, [r3, #5]
 8005a2c:	f883 e006 	strb.w	lr, [r3, #6]
 8005a30:	f1bc 0f00 	cmp.w	ip, #0
 8005a34:	d094      	beq.n	8005960 <dir_register+0x800>
 8005a36:	4584      	cmp	ip, r0
 8005a38:	d092      	beq.n	8005960 <dir_register+0x800>
 8005a3a:	f8b2 c004 	ldrh.w	ip, [r2, #4]
 8005a3e:	ea4f 2e1c 	mov.w	lr, ip, lsr #8
 8005a42:	f883 c007 	strb.w	ip, [r3, #7]
 8005a46:	f883 e008 	strb.w	lr, [r3, #8]
 8005a4a:	f1bc 0f00 	cmp.w	ip, #0
 8005a4e:	d08a      	beq.n	8005966 <dir_register+0x806>
 8005a50:	4584      	cmp	ip, r0
 8005a52:	d088      	beq.n	8005966 <dir_register+0x806>
 8005a54:	f8b2 c006 	ldrh.w	ip, [r2, #6]
 8005a58:	ea4f 2e1c 	mov.w	lr, ip, lsr #8
 8005a5c:	f883 c009 	strb.w	ip, [r3, #9]
 8005a60:	f883 e00a 	strb.w	lr, [r3, #10]
 8005a64:	f1bc 0f00 	cmp.w	ip, #0
 8005a68:	d080      	beq.n	800596c <dir_register+0x80c>
 8005a6a:	4584      	cmp	ip, r0
 8005a6c:	f43f af7e 	beq.w	800596c <dir_register+0x80c>
 8005a70:	f8b2 c008 	ldrh.w	ip, [r2, #8]
 8005a74:	ea4f 201c 	mov.w	r0, ip, lsr #8
 8005a78:	f883 c00e 	strb.w	ip, [r3, #14]
 8005a7c:	73d8      	strb	r0, [r3, #15]
 8005a7e:	f1bc 0f00 	cmp.w	ip, #0
 8005a82:	f43f af76 	beq.w	8005972 <dir_register+0x812>
 8005a86:	f64f 70ff 	movw	r0, #65535	; 0xffff
 8005a8a:	4584      	cmp	ip, r0
 8005a8c:	f43f af71 	beq.w	8005972 <dir_register+0x812>
 8005a90:	f8b2 c00a 	ldrh.w	ip, [r2, #10]
 8005a94:	ea4f 2e1c 	mov.w	lr, ip, lsr #8
 8005a98:	f883 c010 	strb.w	ip, [r3, #16]
 8005a9c:	f883 e011 	strb.w	lr, [r3, #17]
 8005aa0:	f1bc 0f00 	cmp.w	ip, #0
 8005aa4:	f43f af68 	beq.w	8005978 <dir_register+0x818>
 8005aa8:	4584      	cmp	ip, r0
 8005aaa:	f43f af65 	beq.w	8005978 <dir_register+0x818>
 8005aae:	f8b2 c00c 	ldrh.w	ip, [r2, #12]
 8005ab2:	ea4f 2e1c 	mov.w	lr, ip, lsr #8
 8005ab6:	f883 c012 	strb.w	ip, [r3, #18]
 8005aba:	f883 e013 	strb.w	lr, [r3, #19]
 8005abe:	f1bc 0f00 	cmp.w	ip, #0
 8005ac2:	f43f af5c 	beq.w	800597e <dir_register+0x81e>
 8005ac6:	4584      	cmp	ip, r0
 8005ac8:	f43f af59 	beq.w	800597e <dir_register+0x81e>
 8005acc:	f8b2 c00e 	ldrh.w	ip, [r2, #14]
 8005ad0:	ea4f 2e1c 	mov.w	lr, ip, lsr #8
 8005ad4:	f883 c014 	strb.w	ip, [r3, #20]
 8005ad8:	f883 e015 	strb.w	lr, [r3, #21]
 8005adc:	f1bc 0f00 	cmp.w	ip, #0
 8005ae0:	f43f af50 	beq.w	8005984 <dir_register+0x824>
 8005ae4:	4584      	cmp	ip, r0
 8005ae6:	f43f af4d 	beq.w	8005984 <dir_register+0x824>
 8005aea:	f8b2 c010 	ldrh.w	ip, [r2, #16]
 8005aee:	ea4f 2e1c 	mov.w	lr, ip, lsr #8
 8005af2:	f883 c016 	strb.w	ip, [r3, #22]
 8005af6:	f883 e017 	strb.w	lr, [r3, #23]
 8005afa:	f1bc 0f00 	cmp.w	ip, #0
 8005afe:	f43f af44 	beq.w	800598a <dir_register+0x82a>
 8005b02:	4584      	cmp	ip, r0
 8005b04:	f43f af41 	beq.w	800598a <dir_register+0x82a>
 8005b08:	8a50      	ldrh	r0, [r2, #18]
 8005b0a:	ea4f 2c10 	mov.w	ip, r0, lsr #8
 8005b0e:	7618      	strb	r0, [r3, #24]
 8005b10:	f883 c019 	strb.w	ip, [r3, #25]
 8005b14:	2800      	cmp	r0, #0
 8005b16:	f43f af3b 	beq.w	8005990 <dir_register+0x830>
 8005b1a:	f64f 7cff 	movw	ip, #65535	; 0xffff
 8005b1e:	4560      	cmp	r0, ip
 8005b20:	f43f af36 	beq.w	8005990 <dir_register+0x830>
 8005b24:	8a90      	ldrh	r0, [r2, #20]
 8005b26:	ea4f 2e10 	mov.w	lr, r0, lsr #8
 8005b2a:	7718      	strb	r0, [r3, #28]
 8005b2c:	f883 e01d 	strb.w	lr, [r3, #29]
 8005b30:	2800      	cmp	r0, #0
 8005b32:	f43f af30 	beq.w	8005996 <dir_register+0x836>
 8005b36:	4560      	cmp	r0, ip
 8005b38:	f43f af2d 	beq.w	8005996 <dir_register+0x836>
 8005b3c:	f64f 70fd 	movw	r0, #65533	; 0xfffd
 8005b40:	8ad2      	ldrh	r2, [r2, #22]
 8005b42:	f102 3cff 	add.w	ip, r2, #4294967295
 8005b46:	fa1f fc8c 	uxth.w	ip, ip
 8005b4a:	779a      	strb	r2, [r3, #30]
 8005b4c:	4584      	cmp	ip, r0
 8005b4e:	ea4f 2212 	mov.w	r2, r2, lsr #8
 8005b52:	77da      	strb	r2, [r3, #31]
 8005b54:	f63f af22 	bhi.w	800599c <dir_register+0x83c>
 8005b58:	4439      	add	r1, r7
 8005b5a:	8b4a      	ldrh	r2, [r1, #26]
 8005b5c:	2a00      	cmp	r2, #0
 8005b5e:	f43f af1d 	beq.w	800599c <dir_register+0x83c>
 8005b62:	e71d      	b.n	80059a0 <dir_register+0x840>
 8005b64:	2201      	movs	r2, #1
 8005b66:	f04f 33ff 	mov.w	r3, #4294967295
 8005b6a:	9200      	str	r2, [sp, #0]
 8005b6c:	9a01      	ldr	r2, [sp, #4]
 8005b6e:	6393      	str	r3, [r2, #56]	; 0x38
 8005b70:	f7ff bb72 	b.w	8005258 <dir_register+0xf8>
 8005b74:	4698      	mov	r8, r3
 8005b76:	f7ff bb0c 	b.w	8005192 <dir_register+0x32>
 8005b7a:	f242 0320 	movw	r3, #8224	; 0x2020
 8005b7e:	2202      	movs	r2, #2
 8005b80:	84a3      	strh	r3, [r4, #36]	; 0x24
 8005b82:	2300      	movs	r3, #0
 8005b84:	e4bf      	b.n	8005506 <dir_register+0x3a6>
 8005b86:	9000      	str	r0, [sp, #0]
 8005b88:	f7ff bb66 	b.w	8005258 <dir_register+0xf8>
 8005b8c:	f894 2024 	ldrb.w	r2, [r4, #36]	; 0x24
 8005b90:	701a      	strb	r2, [r3, #0]
 8005b92:	f894 2025 	ldrb.w	r2, [r4, #37]	; 0x25
 8005b96:	705a      	strb	r2, [r3, #1]
 8005b98:	f894 2026 	ldrb.w	r2, [r4, #38]	; 0x26
 8005b9c:	709a      	strb	r2, [r3, #2]
 8005b9e:	f894 2027 	ldrb.w	r2, [r4, #39]	; 0x27
 8005ba2:	70da      	strb	r2, [r3, #3]
 8005ba4:	f894 2028 	ldrb.w	r2, [r4, #40]	; 0x28
 8005ba8:	711a      	strb	r2, [r3, #4]
 8005baa:	f894 2029 	ldrb.w	r2, [r4, #41]	; 0x29
 8005bae:	715a      	strb	r2, [r3, #5]
 8005bb0:	f894 202a 	ldrb.w	r2, [r4, #42]	; 0x2a
 8005bb4:	719a      	strb	r2, [r3, #6]
 8005bb6:	f894 202b 	ldrb.w	r2, [r4, #43]	; 0x2b
 8005bba:	71da      	strb	r2, [r3, #7]
 8005bbc:	e581      	b.n	80056c2 <dir_register+0x562>
 8005bbe:	bf00      	nop

08005bc0 <f_mount>:
 8005bc0:	e92d 4ff0 	stmdb	sp!, {r4, r5, r6, r7, r8, r9, sl, fp, lr}
 8005bc4:	b089      	sub	sp, #36	; 0x24
 8005bc6:	2900      	cmp	r1, #0
 8005bc8:	d04c      	beq.n	8005c64 <f_mount+0xa4>
 8005bca:	460f      	mov	r7, r1
 8005bcc:	7809      	ldrb	r1, [r1, #0]
 8005bce:	4604      	mov	r4, r0
 8005bd0:	291f      	cmp	r1, #31
 8005bd2:	4616      	mov	r6, r2
 8005bd4:	d909      	bls.n	8005bea <f_mount+0x2a>
 8005bd6:	293a      	cmp	r1, #58	; 0x3a
 8005bd8:	d044      	beq.n	8005c64 <f_mount+0xa4>
 8005bda:	463a      	mov	r2, r7
 8005bdc:	e001      	b.n	8005be2 <f_mount+0x22>
 8005bde:	2b3a      	cmp	r3, #58	; 0x3a
 8005be0:	d039      	beq.n	8005c56 <f_mount+0x96>
 8005be2:	f812 3f01 	ldrb.w	r3, [r2, #1]!
 8005be6:	2b1f      	cmp	r3, #31
 8005be8:	d8f9      	bhi.n	8005bde <f_mount+0x1e>
 8005bea:	f04f 0800 	mov.w	r8, #0
 8005bee:	f8df 930c 	ldr.w	r9, [pc, #780]	; 8005efc <f_mount+0x33c>
 8005bf2:	f859 5028 	ldr.w	r5, [r9, r8, lsl #2]
 8005bf6:	b185      	cbz	r5, 8005c1a <f_mount+0x5a>
 8005bf8:	4bbb      	ldr	r3, [pc, #748]	; (8005ee8 <f_mount+0x328>)
 8005bfa:	6968      	ldr	r0, [r5, #20]
 8005bfc:	681a      	ldr	r2, [r3, #0]
 8005bfe:	4295      	cmp	r5, r2
 8005c00:	bf04      	itt	eq
 8005c02:	2200      	moveq	r2, #0
 8005c04:	601a      	streq	r2, [r3, #0]
 8005c06:	691a      	ldr	r2, [r3, #16]
 8005c08:	4295      	cmp	r5, r2
 8005c0a:	bf04      	itt	eq
 8005c0c:	2200      	moveq	r2, #0
 8005c0e:	611a      	streq	r2, [r3, #16]
 8005c10:	f002 fb66 	bl	80082e0 <ff_del_syncobj>
 8005c14:	b1d0      	cbz	r0, 8005c4c <f_mount+0x8c>
 8005c16:	2300      	movs	r3, #0
 8005c18:	702b      	strb	r3, [r5, #0]
 8005c1a:	b184      	cbz	r4, 8005c3e <f_mount+0x7e>
 8005c1c:	2500      	movs	r5, #0
 8005c1e:	4621      	mov	r1, r4
 8005c20:	fa5f f088 	uxtb.w	r0, r8
 8005c24:	f801 5b14 	strb.w	r5, [r1], #20
 8005c28:	f002 fb4a 	bl	80082c0 <ff_cre_syncobj>
 8005c2c:	b170      	cbz	r0, 8005c4c <f_mount+0x8c>
 8005c2e:	2e01      	cmp	r6, #1
 8005c30:	f849 4028 	str.w	r4, [r9, r8, lsl #2]
 8005c34:	d01b      	beq.n	8005c6e <f_mount+0xae>
 8005c36:	4628      	mov	r0, r5
 8005c38:	b009      	add	sp, #36	; 0x24
 8005c3a:	e8bd 8ff0 	ldmia.w	sp!, {r4, r5, r6, r7, r8, r9, sl, fp, pc}
 8005c3e:	4625      	mov	r5, r4
 8005c40:	4628      	mov	r0, r5
 8005c42:	f849 4028 	str.w	r4, [r9, r8, lsl #2]
 8005c46:	b009      	add	sp, #36	; 0x24
 8005c48:	e8bd 8ff0 	ldmia.w	sp!, {r4, r5, r6, r7, r8, r9, sl, fp, pc}
 8005c4c:	2502      	movs	r5, #2
 8005c4e:	4628      	mov	r0, r5
 8005c50:	b009      	add	sp, #36	; 0x24
 8005c52:	e8bd 8ff0 	ldmia.w	sp!, {r4, r5, r6, r7, r8, r9, sl, fp, pc}
 8005c56:	1c7b      	adds	r3, r7, #1
 8005c58:	429a      	cmp	r2, r3
 8005c5a:	f1a1 0830 	sub.w	r8, r1, #48	; 0x30
 8005c5e:	d101      	bne.n	8005c64 <f_mount+0xa4>
 8005c60:	2930      	cmp	r1, #48	; 0x30
 8005c62:	d0c4      	beq.n	8005bee <f_mount+0x2e>
 8005c64:	250b      	movs	r5, #11
 8005c66:	4628      	mov	r0, r5
 8005c68:	b009      	add	sp, #36	; 0x24
 8005c6a:	e8bd 8ff0 	ldmia.w	sp!, {r4, r5, r6, r7, r8, r9, sl, fp, pc}
 8005c6e:	7839      	ldrb	r1, [r7, #0]
 8005c70:	291f      	cmp	r1, #31
 8005c72:	d90b      	bls.n	8005c8c <f_mount+0xcc>
 8005c74:	293a      	cmp	r1, #58	; 0x3a
 8005c76:	bf18      	it	ne
 8005c78:	463a      	movne	r2, r7
 8005c7a:	d102      	bne.n	8005c82 <f_mount+0xc2>
 8005c7c:	e7f2      	b.n	8005c64 <f_mount+0xa4>
 8005c7e:	2b3a      	cmp	r3, #58	; 0x3a
 8005c80:	d018      	beq.n	8005cb4 <f_mount+0xf4>
 8005c82:	f812 3f01 	ldrb.w	r3, [r2, #1]!
 8005c86:	2b1f      	cmp	r3, #31
 8005c88:	d8f9      	bhi.n	8005c7e <f_mount+0xbe>
 8005c8a:	2500      	movs	r5, #0
 8005c8c:	b3b4      	cbz	r4, 8005cfc <f_mount+0x13c>
 8005c8e:	6960      	ldr	r0, [r4, #20]
 8005c90:	f002 fb2c 	bl	80082ec <ff_req_grant>
 8005c94:	b908      	cbnz	r0, 8005c9a <f_mount+0xda>
 8005c96:	250f      	movs	r5, #15
 8005c98:	e7cd      	b.n	8005c36 <f_mount+0x76>
 8005c9a:	7823      	ldrb	r3, [r4, #0]
 8005c9c:	b193      	cbz	r3, 8005cc4 <f_mount+0x104>
 8005c9e:	7860      	ldrb	r0, [r4, #1]
 8005ca0:	f7fd fc68 	bl	8003574 <disk_status>
 8005ca4:	f010 0001 	ands.w	r0, r0, #1
 8005ca8:	d10c      	bne.n	8005cc4 <f_mount+0x104>
 8005caa:	4605      	mov	r5, r0
 8005cac:	6960      	ldr	r0, [r4, #20]
 8005cae:	f002 fb27 	bl	8008300 <ff_rel_grant>
 8005cb2:	e7c0      	b.n	8005c36 <f_mount+0x76>
 8005cb4:	3701      	adds	r7, #1
 8005cb6:	42ba      	cmp	r2, r7
 8005cb8:	f1a1 0530 	sub.w	r5, r1, #48	; 0x30
 8005cbc:	d1d2      	bne.n	8005c64 <f_mount+0xa4>
 8005cbe:	2930      	cmp	r1, #48	; 0x30
 8005cc0:	d0e4      	beq.n	8005c8c <f_mount+0xcc>
 8005cc2:	e7cf      	b.n	8005c64 <f_mount+0xa4>
 8005cc4:	2300      	movs	r3, #0
 8005cc6:	b2e8      	uxtb	r0, r5
 8005cc8:	7023      	strb	r3, [r4, #0]
 8005cca:	7060      	strb	r0, [r4, #1]
 8005ccc:	f7fd fc5c 	bl	8003588 <disk_initialize>
 8005cd0:	07c3      	lsls	r3, r0, #31
 8005cd2:	d411      	bmi.n	8005cf8 <f_mount+0x138>
 8005cd4:	f104 020c 	add.w	r2, r4, #12
 8005cd8:	2102      	movs	r1, #2
 8005cda:	7860      	ldrb	r0, [r4, #1]
 8005cdc:	f7fd fc80 	bl	80035e0 <disk_ioctl>
 8005ce0:	b940      	cbnz	r0, 8005cf4 <f_mount+0x134>
 8005ce2:	89a3      	ldrh	r3, [r4, #12]
 8005ce4:	f5a3 7200 	sub.w	r2, r3, #512	; 0x200
 8005ce8:	f5b2 6f60 	cmp.w	r2, #3584	; 0xe00
 8005cec:	d802      	bhi.n	8005cf4 <f_mount+0x134>
 8005cee:	1e59      	subs	r1, r3, #1
 8005cf0:	4019      	ands	r1, r3
 8005cf2:	d005      	beq.n	8005d00 <f_mount+0x140>
 8005cf4:	2501      	movs	r5, #1
 8005cf6:	e7d9      	b.n	8005cac <f_mount+0xec>
 8005cf8:	2503      	movs	r5, #3
 8005cfa:	e7d7      	b.n	8005cac <f_mount+0xec>
 8005cfc:	250c      	movs	r5, #12
 8005cfe:	e79a      	b.n	8005c36 <f_mount+0x76>
 8005d00:	f04f 33ff 	mov.w	r3, #4294967295
 8005d04:	70e1      	strb	r1, [r4, #3]
 8005d06:	63a3      	str	r3, [r4, #56]	; 0x38
 8005d08:	4620      	mov	r0, r4
 8005d0a:	f7fd fc77 	bl	80035fc <move_window.part.6>
 8005d0e:	4605      	mov	r5, r0
 8005d10:	2800      	cmp	r0, #0
 8005d12:	d1ef      	bne.n	8005cf4 <f_mount+0x134>
 8005d14:	f64a 2355 	movw	r3, #43605	; 0xaa55
 8005d18:	f894 c23b 	ldrb.w	ip, [r4, #571]	; 0x23b
 8005d1c:	f894 023a 	ldrb.w	r0, [r4, #570]	; 0x23a
 8005d20:	ea40 220c 	orr.w	r2, r0, ip, lsl #8
 8005d24:	429a      	cmp	r2, r3
 8005d26:	f040 8167 	bne.w	8005ff8 <f_mount+0x438>
 8005d2a:	f894 103c 	ldrb.w	r1, [r4, #60]	; 0x3c
 8005d2e:	29e9      	cmp	r1, #233	; 0xe9
 8005d30:	d006      	beq.n	8005d40 <f_mount+0x180>
 8005d32:	6be3      	ldr	r3, [r4, #60]	; 0x3c
 8005d34:	4a6d      	ldr	r2, [pc, #436]	; (8005eec <f_mount+0x32c>)
 8005d36:	f003 13ff 	and.w	r3, r3, #16711935	; 0xff00ff
 8005d3a:	4293      	cmp	r3, r2
 8005d3c:	f040 80e0 	bne.w	8005f00 <f_mount+0x340>
 8005d40:	f8b4 7074 	ldrh.w	r7, [r4, #116]	; 0x74
 8005d44:	f894 2073 	ldrb.w	r2, [r4, #115]	; 0x73
 8005d48:	f894 3072 	ldrb.w	r3, [r4, #114]	; 0x72
 8005d4c:	ea42 2207 	orr.w	r2, r2, r7, lsl #8
 8005d50:	ea43 2302 	orr.w	r3, r3, r2, lsl #8
 8005d54:	4a66      	ldr	r2, [pc, #408]	; (8005ef0 <f_mount+0x330>)
 8005d56:	f023 437f 	bic.w	r3, r3, #4278190080	; 0xff000000
 8005d5a:	4293      	cmp	r3, r2
 8005d5c:	d00d      	beq.n	8005d7a <f_mount+0x1ba>
 8005d5e:	f8b4 7090 	ldrh.w	r7, [r4, #144]	; 0x90
 8005d62:	f894 208f 	ldrb.w	r2, [r4, #143]	; 0x8f
 8005d66:	f894 308e 	ldrb.w	r3, [r4, #142]	; 0x8e
 8005d6a:	ea42 2207 	orr.w	r2, r2, r7, lsl #8
 8005d6e:	4f61      	ldr	r7, [pc, #388]	; (8005ef4 <f_mount+0x334>)
 8005d70:	ea43 2302 	orr.w	r3, r3, r2, lsl #8
 8005d74:	42bb      	cmp	r3, r7
 8005d76:	f040 80c3 	bne.w	8005f00 <f_mount+0x340>
 8005d7a:	2700      	movs	r7, #0
 8005d7c:	f894 2048 	ldrb.w	r2, [r4, #72]	; 0x48
 8005d80:	f894 e047 	ldrb.w	lr, [r4, #71]	; 0x47
 8005d84:	89a3      	ldrh	r3, [r4, #12]
 8005d86:	ea4e 2e02 	orr.w	lr, lr, r2, lsl #8
 8005d8a:	4573      	cmp	r3, lr
 8005d8c:	f040 8134 	bne.w	8005ff8 <f_mount+0x438>
 8005d90:	f894 3053 	ldrb.w	r3, [r4, #83]	; 0x53
 8005d94:	f894 1052 	ldrb.w	r1, [r4, #82]	; 0x52
 8005d98:	ea51 2103 	orrs.w	r1, r1, r3, lsl #8
 8005d9c:	d109      	bne.n	8005db2 <f_mount+0x1f2>
 8005d9e:	f8b4 2062 	ldrh.w	r2, [r4, #98]	; 0x62
 8005da2:	f894 3061 	ldrb.w	r3, [r4, #97]	; 0x61
 8005da6:	f894 1060 	ldrb.w	r1, [r4, #96]	; 0x60
 8005daa:	ea43 2302 	orr.w	r3, r3, r2, lsl #8
 8005dae:	ea41 2103 	orr.w	r1, r1, r3, lsl #8
 8005db2:	f894 904c 	ldrb.w	r9, [r4, #76]	; 0x4c
 8005db6:	6261      	str	r1, [r4, #36]	; 0x24
 8005db8:	f109 33ff 	add.w	r3, r9, #4294967295
 8005dbc:	2b01      	cmp	r3, #1
 8005dbe:	f884 9002 	strb.w	r9, [r4, #2]
 8005dc2:	f200 8119 	bhi.w	8005ff8 <f_mount+0x438>
 8005dc6:	f894 a049 	ldrb.w	sl, [r4, #73]	; 0x49
 8005dca:	fb01 f909 	mul.w	r9, r1, r9
 8005dce:	fa1f f38a 	uxth.w	r3, sl
 8005dd2:	8163      	strh	r3, [r4, #10]
 8005dd4:	2b00      	cmp	r3, #0
 8005dd6:	f000 810f 	beq.w	8005ff8 <f_mount+0x438>
 8005dda:	f10a 33ff 	add.w	r3, sl, #4294967295
 8005dde:	ea13 0f0a 	tst.w	r3, sl
 8005de2:	f040 8109 	bne.w	8005ff8 <f_mount+0x438>
 8005de6:	f894 204e 	ldrb.w	r2, [r4, #78]	; 0x4e
 8005dea:	f894 804d 	ldrb.w	r8, [r4, #77]	; 0x4d
 8005dee:	ea4f 135e 	mov.w	r3, lr, lsr #5
 8005df2:	ea48 2802 	orr.w	r8, r8, r2, lsl #8
 8005df6:	fbb8 f2f3 	udiv	r2, r8, r3
 8005dfa:	fb03 8312 	mls	r3, r3, r2, r8
 8005dfe:	b29b      	uxth	r3, r3
 8005e00:	9203      	str	r2, [sp, #12]
 8005e02:	f8a4 8008 	strh.w	r8, [r4, #8]
 8005e06:	2b00      	cmp	r3, #0
 8005e08:	f040 80f6 	bne.w	8005ff8 <f_mount+0x438>
 8005e0c:	f894 2050 	ldrb.w	r2, [r4, #80]	; 0x50
 8005e10:	f894 304f 	ldrb.w	r3, [r4, #79]	; 0x4f
 8005e14:	ea53 2302 	orrs.w	r3, r3, r2, lsl #8
 8005e18:	9302      	str	r3, [sp, #8]
 8005e1a:	d10a      	bne.n	8005e32 <f_mount+0x272>
 8005e1c:	f8b4 205e 	ldrh.w	r2, [r4, #94]	; 0x5e
 8005e20:	f894 305d 	ldrb.w	r3, [r4, #93]	; 0x5d
 8005e24:	f894 b05c 	ldrb.w	fp, [r4, #92]	; 0x5c
 8005e28:	ea43 2302 	orr.w	r3, r3, r2, lsl #8
 8005e2c:	ea4b 2303 	orr.w	r3, fp, r3, lsl #8
 8005e30:	9302      	str	r3, [sp, #8]
 8005e32:	f894 b04b 	ldrb.w	fp, [r4, #75]	; 0x4b
 8005e36:	f894 204a 	ldrb.w	r2, [r4, #74]	; 0x4a
 8005e3a:	ea52 230b 	orrs.w	r3, r2, fp, lsl #8
 8005e3e:	9301      	str	r3, [sp, #4]
 8005e40:	f000 80da 	beq.w	8005ff8 <f_mount+0x438>
 8005e44:	9b03      	ldr	r3, [sp, #12]
 8005e46:	9a01      	ldr	r2, [sp, #4]
 8005e48:	4413      	add	r3, r2
 8005e4a:	469b      	mov	fp, r3
 8005e4c:	9b02      	ldr	r3, [sp, #8]
 8005e4e:	44cb      	add	fp, r9
 8005e50:	459b      	cmp	fp, r3
 8005e52:	f200 80d1 	bhi.w	8005ff8 <f_mount+0x438>
 8005e56:	eba3 030b 	sub.w	r3, r3, fp
 8005e5a:	fbb3 f3fa 	udiv	r3, r3, sl
 8005e5e:	2b00      	cmp	r3, #0
 8005e60:	f000 80ca 	beq.w	8005ff8 <f_mount+0x438>
 8005e64:	f64f 7af5 	movw	sl, #65525	; 0xfff5
 8005e68:	4553      	cmp	r3, sl
 8005e6a:	f200 81b0 	bhi.w	80061ce <f_mount+0x60e>
 8005e6e:	f640 7cf5 	movw	ip, #4085	; 0xff5
 8005e72:	9a01      	ldr	r2, [sp, #4]
 8005e74:	4563      	cmp	r3, ip
 8005e76:	443a      	add	r2, r7
 8005e78:	44bb      	add	fp, r7
 8005e7a:	f103 0002 	add.w	r0, r3, #2
 8005e7e:	f200 818a 	bhi.w	8006196 <f_mount+0x5d6>
 8005e82:	6220      	str	r0, [r4, #32]
 8005e84:	e9c4 720a 	strd	r7, r2, [r4, #40]	; 0x28
 8005e88:	f8c4 b034 	str.w	fp, [r4, #52]	; 0x34
 8005e8c:	f1b8 0f00 	cmp.w	r8, #0
 8005e90:	f000 80b2 	beq.w	8005ff8 <f_mount+0x438>
 8005e94:	f10e 33ff 	add.w	r3, lr, #4294967295
 8005e98:	f000 0701 	and.w	r7, r0, #1
 8005e9c:	443b      	add	r3, r7
 8005e9e:	eb00 0040 	add.w	r0, r0, r0, lsl #1
 8005ea2:	eb03 0350 	add.w	r3, r3, r0, lsr #1
 8005ea6:	fbb3 fefe 	udiv	lr, r3, lr
 8005eaa:	444a      	add	r2, r9
 8005eac:	458e      	cmp	lr, r1
 8005eae:	6322      	str	r2, [r4, #48]	; 0x30
 8005eb0:	f200 80a2 	bhi.w	8005ff8 <f_mount+0x438>
 8005eb4:	f04f 33ff 	mov.w	r3, #4294967295
 8005eb8:	2280      	movs	r2, #128	; 0x80
 8005eba:	e9c4 3306 	strd	r3, r3, [r4, #24]
 8005ebe:	7122      	strb	r2, [r4, #4]
 8005ec0:	490d      	ldr	r1, [pc, #52]	; (8005ef8 <f_mount+0x338>)
 8005ec2:	4b09      	ldr	r3, [pc, #36]	; (8005ee8 <f_mount+0x328>)
 8005ec4:	880a      	ldrh	r2, [r1, #0]
 8005ec6:	6818      	ldr	r0, [r3, #0]
 8005ec8:	3201      	adds	r2, #1
 8005eca:	b292      	uxth	r2, r2
 8005ecc:	42a0      	cmp	r0, r4
 8005ece:	800a      	strh	r2, [r1, #0]
 8005ed0:	80e2      	strh	r2, [r4, #6]
 8005ed2:	bf04      	itt	eq
 8005ed4:	2200      	moveq	r2, #0
 8005ed6:	601a      	streq	r2, [r3, #0]
 8005ed8:	691a      	ldr	r2, [r3, #16]
 8005eda:	7026      	strb	r6, [r4, #0]
 8005edc:	42a2      	cmp	r2, r4
 8005ede:	f47f aee5 	bne.w	8005cac <f_mount+0xec>
 8005ee2:	2200      	movs	r2, #0
 8005ee4:	611a      	str	r2, [r3, #16]
 8005ee6:	e6e1      	b.n	8005cac <f_mount+0xec>
 8005ee8:	2000028c 	.word	0x2000028c
 8005eec:	009000eb 	.word	0x009000eb
 8005ef0:	00544146 	.word	0x00544146
 8005ef4:	33544146 	.word	0x33544146
 8005ef8:	200002ac 	.word	0x200002ac
 8005efc:	20000288 	.word	0x20000288
 8005f00:	f894 71fe 	ldrb.w	r7, [r4, #510]	; 0x1fe
 8005f04:	b14f      	cbz	r7, 8005f1a <f_mount+0x35a>
 8005f06:	f8b4 2204 	ldrh.w	r2, [r4, #516]	; 0x204
 8005f0a:	f894 3203 	ldrb.w	r3, [r4, #515]	; 0x203
 8005f0e:	f894 7202 	ldrb.w	r7, [r4, #514]	; 0x202
 8005f12:	ea43 2302 	orr.w	r3, r3, r2, lsl #8
 8005f16:	ea47 2703 	orr.w	r7, r7, r3, lsl #8
 8005f1a:	f894 320e 	ldrb.w	r3, [r4, #526]	; 0x20e
 8005f1e:	b14b      	cbz	r3, 8005f34 <f_mount+0x374>
 8005f20:	f8b4 e214 	ldrh.w	lr, [r4, #532]	; 0x214
 8005f24:	f894 2213 	ldrb.w	r2, [r4, #531]	; 0x213
 8005f28:	f894 3212 	ldrb.w	r3, [r4, #530]	; 0x212
 8005f2c:	ea42 220e 	orr.w	r2, r2, lr, lsl #8
 8005f30:	ea43 2302 	orr.w	r3, r3, r2, lsl #8
 8005f34:	f894 221e 	ldrb.w	r2, [r4, #542]	; 0x21e
 8005f38:	9305      	str	r3, [sp, #20]
 8005f3a:	b14a      	cbz	r2, 8005f50 <f_mount+0x390>
 8005f3c:	f8b4 e224 	ldrh.w	lr, [r4, #548]	; 0x224
 8005f40:	f894 3223 	ldrb.w	r3, [r4, #547]	; 0x223
 8005f44:	f894 2222 	ldrb.w	r2, [r4, #546]	; 0x222
 8005f48:	ea43 230e 	orr.w	r3, r3, lr, lsl #8
 8005f4c:	ea42 2203 	orr.w	r2, r2, r3, lsl #8
 8005f50:	f894 322e 	ldrb.w	r3, [r4, #558]	; 0x22e
 8005f54:	9206      	str	r2, [sp, #24]
 8005f56:	b14b      	cbz	r3, 8005f6c <f_mount+0x3ac>
 8005f58:	f8b4 e234 	ldrh.w	lr, [r4, #564]	; 0x234
 8005f5c:	f894 2233 	ldrb.w	r2, [r4, #563]	; 0x233
 8005f60:	f894 3232 	ldrb.w	r3, [r4, #562]	; 0x232
 8005f64:	ea42 220e 	orr.w	r2, r2, lr, lsl #8
 8005f68:	ea43 2302 	orr.w	r3, r3, r2, lsl #8
 8005f6c:	9307      	str	r3, [sp, #28]
 8005f6e:	2f00      	cmp	r7, #0
 8005f70:	f040 80ce 	bne.w	8006110 <f_mount+0x550>
 8005f74:	9f05      	ldr	r7, [sp, #20]
 8005f76:	2f00      	cmp	r7, #0
 8005f78:	f040 8087 	bne.w	800608a <f_mount+0x4ca>
 8005f7c:	9f06      	ldr	r7, [sp, #24]
 8005f7e:	2f00      	cmp	r7, #0
 8005f80:	d143      	bne.n	800600a <f_mount+0x44a>
 8005f82:	9f07      	ldr	r7, [sp, #28]
 8005f84:	b3c7      	cbz	r7, 8005ff8 <f_mount+0x438>
 8005f86:	f04f 33ff 	mov.w	r3, #4294967295
 8005f8a:	2200      	movs	r2, #0
 8005f8c:	429f      	cmp	r7, r3
 8005f8e:	70e2      	strb	r2, [r4, #3]
 8005f90:	63a3      	str	r3, [r4, #56]	; 0x38
 8005f92:	d133      	bne.n	8005ffc <f_mount+0x43c>
 8005f94:	f64a 2355 	movw	r3, #43605	; 0xaa55
 8005f98:	f894 c23b 	ldrb.w	ip, [r4, #571]	; 0x23b
 8005f9c:	f894 023a 	ldrb.w	r0, [r4, #570]	; 0x23a
 8005fa0:	ea40 220c 	orr.w	r2, r0, ip, lsl #8
 8005fa4:	429a      	cmp	r2, r3
 8005fa6:	d127      	bne.n	8005ff8 <f_mount+0x438>
 8005fa8:	f894 303c 	ldrb.w	r3, [r4, #60]	; 0x3c
 8005fac:	2be9      	cmp	r3, #233	; 0xe9
 8005fae:	d005      	beq.n	8005fbc <f_mount+0x3fc>
 8005fb0:	6be3      	ldr	r3, [r4, #60]	; 0x3c
 8005fb2:	4ac7      	ldr	r2, [pc, #796]	; (80062d0 <f_mount+0x710>)
 8005fb4:	f003 13ff 	and.w	r3, r3, #16711935	; 0xff00ff
 8005fb8:	4293      	cmp	r3, r2
 8005fba:	d11d      	bne.n	8005ff8 <f_mount+0x438>
 8005fbc:	f8b4 1074 	ldrh.w	r1, [r4, #116]	; 0x74
 8005fc0:	f894 2073 	ldrb.w	r2, [r4, #115]	; 0x73
 8005fc4:	f894 3072 	ldrb.w	r3, [r4, #114]	; 0x72
 8005fc8:	ea42 2201 	orr.w	r2, r2, r1, lsl #8
 8005fcc:	ea43 2302 	orr.w	r3, r3, r2, lsl #8
 8005fd0:	4ac0      	ldr	r2, [pc, #768]	; (80062d4 <f_mount+0x714>)
 8005fd2:	f023 437f 	bic.w	r3, r3, #4278190080	; 0xff000000
 8005fd6:	4293      	cmp	r3, r2
 8005fd8:	f43f aed0 	beq.w	8005d7c <f_mount+0x1bc>
 8005fdc:	f8b4 1090 	ldrh.w	r1, [r4, #144]	; 0x90
 8005fe0:	f894 208f 	ldrb.w	r2, [r4, #143]	; 0x8f
 8005fe4:	f894 308e 	ldrb.w	r3, [r4, #142]	; 0x8e
 8005fe8:	ea42 2201 	orr.w	r2, r2, r1, lsl #8
 8005fec:	49ba      	ldr	r1, [pc, #744]	; (80062d8 <f_mount+0x718>)
 8005fee:	ea43 2302 	orr.w	r3, r3, r2, lsl #8
 8005ff2:	428b      	cmp	r3, r1
 8005ff4:	f43f aec2 	beq.w	8005d7c <f_mount+0x1bc>
 8005ff8:	250d      	movs	r5, #13
 8005ffa:	e657      	b.n	8005cac <f_mount+0xec>
 8005ffc:	4639      	mov	r1, r7
 8005ffe:	4620      	mov	r0, r4
 8006000:	f7fd fafc 	bl	80035fc <move_window.part.6>
 8006004:	2800      	cmp	r0, #0
 8006006:	d0c5      	beq.n	8005f94 <f_mount+0x3d4>
 8006008:	e674      	b.n	8005cf4 <f_mount+0x134>
 800600a:	f04f 33ff 	mov.w	r3, #4294967295
 800600e:	2200      	movs	r2, #0
 8006010:	429f      	cmp	r7, r3
 8006012:	70e2      	strb	r2, [r4, #3]
 8006014:	63a3      	str	r3, [r4, #56]	; 0x38
 8006016:	d005      	beq.n	8006024 <f_mount+0x464>
 8006018:	4639      	mov	r1, r7
 800601a:	4620      	mov	r0, r4
 800601c:	f7fd faee 	bl	80035fc <move_window.part.6>
 8006020:	2800      	cmp	r0, #0
 8006022:	d1ae      	bne.n	8005f82 <f_mount+0x3c2>
 8006024:	f64a 2355 	movw	r3, #43605	; 0xaa55
 8006028:	f894 c23b 	ldrb.w	ip, [r4, #571]	; 0x23b
 800602c:	f894 023a 	ldrb.w	r0, [r4, #570]	; 0x23a
 8006030:	ea40 220c 	orr.w	r2, r0, ip, lsl #8
 8006034:	429a      	cmp	r2, r3
 8006036:	d1a4      	bne.n	8005f82 <f_mount+0x3c2>
 8006038:	f894 303c 	ldrb.w	r3, [r4, #60]	; 0x3c
 800603c:	2be9      	cmp	r3, #233	; 0xe9
 800603e:	d005      	beq.n	800604c <f_mount+0x48c>
 8006040:	6be3      	ldr	r3, [r4, #60]	; 0x3c
 8006042:	4aa3      	ldr	r2, [pc, #652]	; (80062d0 <f_mount+0x710>)
 8006044:	f003 13ff 	and.w	r3, r3, #16711935	; 0xff00ff
 8006048:	4293      	cmp	r3, r2
 800604a:	d19a      	bne.n	8005f82 <f_mount+0x3c2>
 800604c:	f8b4 1074 	ldrh.w	r1, [r4, #116]	; 0x74
 8006050:	f894 2073 	ldrb.w	r2, [r4, #115]	; 0x73
 8006054:	f894 3072 	ldrb.w	r3, [r4, #114]	; 0x72
 8006058:	ea42 2201 	orr.w	r2, r2, r1, lsl #8
 800605c:	ea43 2302 	orr.w	r3, r3, r2, lsl #8
 8006060:	4a9c      	ldr	r2, [pc, #624]	; (80062d4 <f_mount+0x714>)
 8006062:	f023 437f 	bic.w	r3, r3, #4278190080	; 0xff000000
 8006066:	4293      	cmp	r3, r2
 8006068:	f43f ae88 	beq.w	8005d7c <f_mount+0x1bc>
 800606c:	f8b4 1090 	ldrh.w	r1, [r4, #144]	; 0x90
 8006070:	f894 208f 	ldrb.w	r2, [r4, #143]	; 0x8f
 8006074:	f894 308e 	ldrb.w	r3, [r4, #142]	; 0x8e
 8006078:	ea42 2201 	orr.w	r2, r2, r1, lsl #8
 800607c:	4996      	ldr	r1, [pc, #600]	; (80062d8 <f_mount+0x718>)
 800607e:	ea43 2302 	orr.w	r3, r3, r2, lsl #8
 8006082:	428b      	cmp	r3, r1
 8006084:	f43f ae7a 	beq.w	8005d7c <f_mount+0x1bc>
 8006088:	e77b      	b.n	8005f82 <f_mount+0x3c2>
 800608a:	f04f 33ff 	mov.w	r3, #4294967295
 800608e:	2200      	movs	r2, #0
 8006090:	429f      	cmp	r7, r3
 8006092:	70e2      	strb	r2, [r4, #3]
 8006094:	63a3      	str	r3, [r4, #56]	; 0x38
 8006096:	d006      	beq.n	80060a6 <f_mount+0x4e6>
 8006098:	4639      	mov	r1, r7
 800609a:	4620      	mov	r0, r4
 800609c:	f7fd faae 	bl	80035fc <move_window.part.6>
 80060a0:	2800      	cmp	r0, #0
 80060a2:	f47f af6b 	bne.w	8005f7c <f_mount+0x3bc>
 80060a6:	f64a 2355 	movw	r3, #43605	; 0xaa55
 80060aa:	f894 c23b 	ldrb.w	ip, [r4, #571]	; 0x23b
 80060ae:	f894 023a 	ldrb.w	r0, [r4, #570]	; 0x23a
 80060b2:	ea40 220c 	orr.w	r2, r0, ip, lsl #8
 80060b6:	429a      	cmp	r2, r3
 80060b8:	f47f af60 	bne.w	8005f7c <f_mount+0x3bc>
 80060bc:	f894 303c 	ldrb.w	r3, [r4, #60]	; 0x3c
 80060c0:	2be9      	cmp	r3, #233	; 0xe9
 80060c2:	d006      	beq.n	80060d2 <f_mount+0x512>
 80060c4:	6be3      	ldr	r3, [r4, #60]	; 0x3c
 80060c6:	4a82      	ldr	r2, [pc, #520]	; (80062d0 <f_mount+0x710>)
 80060c8:	f003 13ff 	and.w	r3, r3, #16711935	; 0xff00ff
 80060cc:	4293      	cmp	r3, r2
 80060ce:	f47f af55 	bne.w	8005f7c <f_mount+0x3bc>
 80060d2:	f8b4 1074 	ldrh.w	r1, [r4, #116]	; 0x74
 80060d6:	f894 2073 	ldrb.w	r2, [r4, #115]	; 0x73
 80060da:	f894 3072 	ldrb.w	r3, [r4, #114]	; 0x72
 80060de:	ea42 2201 	orr.w	r2, r2, r1, lsl #8
 80060e2:	ea43 2302 	orr.w	r3, r3, r2, lsl #8
 80060e6:	4a7b      	ldr	r2, [pc, #492]	; (80062d4 <f_mount+0x714>)
 80060e8:	f023 437f 	bic.w	r3, r3, #4278190080	; 0xff000000
 80060ec:	4293      	cmp	r3, r2
 80060ee:	f43f ae45 	beq.w	8005d7c <f_mount+0x1bc>
 80060f2:	f8b4 1090 	ldrh.w	r1, [r4, #144]	; 0x90
 80060f6:	f894 208f 	ldrb.w	r2, [r4, #143]	; 0x8f
 80060fa:	f894 308e 	ldrb.w	r3, [r4, #142]	; 0x8e
 80060fe:	ea42 2201 	orr.w	r2, r2, r1, lsl #8
 8006102:	4975      	ldr	r1, [pc, #468]	; (80062d8 <f_mount+0x718>)
 8006104:	ea43 2302 	orr.w	r3, r3, r2, lsl #8
 8006108:	428b      	cmp	r3, r1
 800610a:	f43f ae37 	beq.w	8005d7c <f_mount+0x1bc>
 800610e:	e735      	b.n	8005f7c <f_mount+0x3bc>
 8006110:	f04f 33ff 	mov.w	r3, #4294967295
 8006114:	2200      	movs	r2, #0
 8006116:	429f      	cmp	r7, r3
 8006118:	70e2      	strb	r2, [r4, #3]
 800611a:	63a3      	str	r3, [r4, #56]	; 0x38
 800611c:	d013      	beq.n	8006146 <f_mount+0x586>
 800611e:	4639      	mov	r1, r7
 8006120:	4620      	mov	r0, r4
 8006122:	f7fd fa6b 	bl	80035fc <move_window.part.6>
 8006126:	2800      	cmp	r0, #0
 8006128:	f47f af24 	bne.w	8005f74 <f_mount+0x3b4>
 800612c:	f64a 2355 	movw	r3, #43605	; 0xaa55
 8006130:	f894 c23b 	ldrb.w	ip, [r4, #571]	; 0x23b
 8006134:	f894 023a 	ldrb.w	r0, [r4, #570]	; 0x23a
 8006138:	ea40 220c 	orr.w	r2, r0, ip, lsl #8
 800613c:	429a      	cmp	r2, r3
 800613e:	f47f af19 	bne.w	8005f74 <f_mount+0x3b4>
 8006142:	f894 103c 	ldrb.w	r1, [r4, #60]	; 0x3c
 8006146:	29e9      	cmp	r1, #233	; 0xe9
 8006148:	d006      	beq.n	8006158 <f_mount+0x598>
 800614a:	6be3      	ldr	r3, [r4, #60]	; 0x3c
 800614c:	4a60      	ldr	r2, [pc, #384]	; (80062d0 <f_mount+0x710>)
 800614e:	f003 13ff 	and.w	r3, r3, #16711935	; 0xff00ff
 8006152:	4293      	cmp	r3, r2
 8006154:	f47f af0e 	bne.w	8005f74 <f_mount+0x3b4>
 8006158:	f8b4 1074 	ldrh.w	r1, [r4, #116]	; 0x74
 800615c:	f894 2073 	ldrb.w	r2, [r4, #115]	; 0x73
 8006160:	f894 3072 	ldrb.w	r3, [r4, #114]	; 0x72
 8006164:	ea42 2201 	orr.w	r2, r2, r1, lsl #8
 8006168:	ea43 2302 	orr.w	r3, r3, r2, lsl #8
 800616c:	4a59      	ldr	r2, [pc, #356]	; (80062d4 <f_mount+0x714>)
 800616e:	f023 437f 	bic.w	r3, r3, #4278190080	; 0xff000000
 8006172:	4293      	cmp	r3, r2
 8006174:	f43f ae02 	beq.w	8005d7c <f_mount+0x1bc>
 8006178:	f8b4 1090 	ldrh.w	r1, [r4, #144]	; 0x90
 800617c:	f894 208f 	ldrb.w	r2, [r4, #143]	; 0x8f
 8006180:	f894 308e 	ldrb.w	r3, [r4, #142]	; 0x8e
 8006184:	ea42 2201 	orr.w	r2, r2, r1, lsl #8
 8006188:	4953      	ldr	r1, [pc, #332]	; (80062d8 <f_mount+0x718>)
 800618a:	ea43 2302 	orr.w	r3, r3, r2, lsl #8
 800618e:	428b      	cmp	r3, r1
 8006190:	f43f adf4 	beq.w	8005d7c <f_mount+0x1bc>
 8006194:	e6ee      	b.n	8005f74 <f_mount+0x3b4>
 8006196:	6220      	str	r0, [r4, #32]
 8006198:	e9c4 720a 	strd	r7, r2, [r4, #40]	; 0x28
 800619c:	f8c4 b034 	str.w	fp, [r4, #52]	; 0x34
 80061a0:	f1b8 0f00 	cmp.w	r8, #0
 80061a4:	f43f af28 	beq.w	8005ff8 <f_mount+0x438>
 80061a8:	f10e 33ff 	add.w	r3, lr, #4294967295
 80061ac:	eb03 0040 	add.w	r0, r3, r0, lsl #1
 80061b0:	fbb0 fefe 	udiv	lr, r0, lr
 80061b4:	444a      	add	r2, r9
 80061b6:	458e      	cmp	lr, r1
 80061b8:	6322      	str	r2, [r4, #48]	; 0x30
 80061ba:	f63f af1d 	bhi.w	8005ff8 <f_mount+0x438>
 80061be:	f04f 33ff 	mov.w	r3, #4294967295
 80061c2:	2280      	movs	r2, #128	; 0x80
 80061c4:	e9c4 3306 	strd	r3, r3, [r4, #24]
 80061c8:	7122      	strb	r2, [r4, #4]
 80061ca:	2602      	movs	r6, #2
 80061cc:	e678      	b.n	8005ec0 <f_mount+0x300>
 80061ce:	9a01      	ldr	r2, [sp, #4]
 80061d0:	f894 9067 	ldrb.w	r9, [r4, #103]	; 0x67
 80061d4:	443a      	add	r2, r7
 80061d6:	62e2      	str	r2, [r4, #44]	; 0x2c
 80061d8:	f894 2066 	ldrb.w	r2, [r4, #102]	; 0x66
 80061dc:	3302      	adds	r3, #2
 80061de:	eb0b 0607 	add.w	r6, fp, r7
 80061e2:	ea52 2209 	orrs.w	r2, r2, r9, lsl #8
 80061e6:	6223      	str	r3, [r4, #32]
 80061e8:	6366      	str	r6, [r4, #52]	; 0x34
 80061ea:	62a7      	str	r7, [r4, #40]	; 0x28
 80061ec:	f47f af04 	bne.w	8005ff8 <f_mount+0x438>
 80061f0:	f1b8 0f00 	cmp.w	r8, #0
 80061f4:	f47f af00 	bne.w	8005ff8 <f_mount+0x438>
 80061f8:	f10e 32ff 	add.w	r2, lr, #4294967295
 80061fc:	eb02 0383 	add.w	r3, r2, r3, lsl #2
 8006200:	fbb3 fefe 	udiv	lr, r3, lr
 8006204:	f8b4 606a 	ldrh.w	r6, [r4, #106]	; 0x6a
 8006208:	f894 2069 	ldrb.w	r2, [r4, #105]	; 0x69
 800620c:	f894 3068 	ldrb.w	r3, [r4, #104]	; 0x68
 8006210:	ea42 2206 	orr.w	r2, r2, r6, lsl #8
 8006214:	ea43 2302 	orr.w	r3, r3, r2, lsl #8
 8006218:	4571      	cmp	r1, lr
 800621a:	6323      	str	r3, [r4, #48]	; 0x30
 800621c:	f4ff aeec 	bcc.w	8005ff8 <f_mount+0x438>
 8006220:	f04f 32ff 	mov.w	r2, #4294967295
 8006224:	2180      	movs	r1, #128	; 0x80
 8006226:	f894 606d 	ldrb.w	r6, [r4, #109]	; 0x6d
 800622a:	f894 306c 	ldrb.w	r3, [r4, #108]	; 0x6c
 800622e:	61e2      	str	r2, [r4, #28]
 8006230:	ea43 2306 	orr.w	r3, r3, r6, lsl #8
 8006234:	2b01      	cmp	r3, #1
 8006236:	61a2      	str	r2, [r4, #24]
 8006238:	7121      	strb	r1, [r4, #4]
 800623a:	d001      	beq.n	8006240 <f_mount+0x680>
 800623c:	2603      	movs	r6, #3
 800623e:	e63f      	b.n	8005ec0 <f_mount+0x300>
 8006240:	6ba3      	ldr	r3, [r4, #56]	; 0x38
 8006242:	1c79      	adds	r1, r7, #1
 8006244:	4299      	cmp	r1, r3
 8006246:	d138      	bne.n	80062ba <f_mount+0x6fa>
 8006248:	f64a 2355 	movw	r3, #43605	; 0xaa55
 800624c:	2200      	movs	r2, #0
 800624e:	ea40 200c 	orr.w	r0, r0, ip, lsl #8
 8006252:	4298      	cmp	r0, r3
 8006254:	7122      	strb	r2, [r4, #4]
 8006256:	d1f1      	bne.n	800623c <f_mount+0x67c>
 8006258:	8fe1      	ldrh	r1, [r4, #62]	; 0x3e
 800625a:	f894 203d 	ldrb.w	r2, [r4, #61]	; 0x3d
 800625e:	f894 303c 	ldrb.w	r3, [r4, #60]	; 0x3c
 8006262:	ea42 2201 	orr.w	r2, r2, r1, lsl #8
 8006266:	491d      	ldr	r1, [pc, #116]	; (80062dc <f_mount+0x71c>)
 8006268:	ea43 2302 	orr.w	r3, r3, r2, lsl #8
 800626c:	428b      	cmp	r3, r1
 800626e:	d1e5      	bne.n	800623c <f_mount+0x67c>
 8006270:	f8b4 1222 	ldrh.w	r1, [r4, #546]	; 0x222
 8006274:	f894 2221 	ldrb.w	r2, [r4, #545]	; 0x221
 8006278:	f894 3220 	ldrb.w	r3, [r4, #544]	; 0x220
 800627c:	ea42 2201 	orr.w	r2, r2, r1, lsl #8
 8006280:	4917      	ldr	r1, [pc, #92]	; (80062e0 <f_mount+0x720>)
 8006282:	ea43 2302 	orr.w	r3, r3, r2, lsl #8
 8006286:	428b      	cmp	r3, r1
 8006288:	d1d8      	bne.n	800623c <f_mount+0x67c>
 800628a:	f894 2225 	ldrb.w	r2, [r4, #549]	; 0x225
 800628e:	f894 3229 	ldrb.w	r3, [r4, #553]	; 0x229
 8006292:	f8b4 0226 	ldrh.w	r0, [r4, #550]	; 0x226
 8006296:	f8b4 122a 	ldrh.w	r1, [r4, #554]	; 0x22a
 800629a:	ea42 2000 	orr.w	r0, r2, r0, lsl #8
 800629e:	ea43 2101 	orr.w	r1, r3, r1, lsl #8
 80062a2:	f894 2224 	ldrb.w	r2, [r4, #548]	; 0x224
 80062a6:	f894 3228 	ldrb.w	r3, [r4, #552]	; 0x228
 80062aa:	ea42 2200 	orr.w	r2, r2, r0, lsl #8
 80062ae:	ea43 2301 	orr.w	r3, r3, r1, lsl #8
 80062b2:	e9c4 3206 	strd	r3, r2, [r4, #24]
 80062b6:	2603      	movs	r6, #3
 80062b8:	e602      	b.n	8005ec0 <f_mount+0x300>
 80062ba:	4620      	mov	r0, r4
 80062bc:	f7fd f99e 	bl	80035fc <move_window.part.6>
 80062c0:	2800      	cmp	r0, #0
 80062c2:	d1bb      	bne.n	800623c <f_mount+0x67c>
 80062c4:	f894 c23b 	ldrb.w	ip, [r4, #571]	; 0x23b
 80062c8:	f894 023a 	ldrb.w	r0, [r4, #570]	; 0x23a
 80062cc:	e7bc      	b.n	8006248 <f_mount+0x688>
 80062ce:	bf00      	nop
 80062d0:	009000eb 	.word	0x009000eb
 80062d4:	00544146 	.word	0x00544146
 80062d8:	33544146 	.word	0x33544146
 80062dc:	41615252 	.word	0x41615252
 80062e0:	61417272 	.word	0x61417272

080062e4 <f_open>:
 80062e4:	e92d 4ff0 	stmdb	sp!, {r4, r5, r6, r7, r8, r9, sl, fp, lr}
 80062e8:	f5ad 7d0f 	sub.w	sp, sp, #572	; 0x23c
 80062ec:	2800      	cmp	r0, #0
 80062ee:	f000 8196 	beq.w	800661e <f_open+0x33a>
 80062f2:	460e      	mov	r6, r1
 80062f4:	4605      	mov	r5, r0
 80062f6:	2900      	cmp	r1, #0
 80062f8:	f000 81ac 	beq.w	8006654 <f_open+0x370>
 80062fc:	7808      	ldrb	r0, [r1, #0]
 80062fe:	4617      	mov	r7, r2
 8006300:	281f      	cmp	r0, #31
 8006302:	d90b      	bls.n	800631c <f_open+0x38>
 8006304:	283a      	cmp	r0, #58	; 0x3a
 8006306:	f000 81a5 	beq.w	8006654 <f_open+0x370>
 800630a:	460b      	mov	r3, r1
 800630c:	e002      	b.n	8006314 <f_open+0x30>
 800630e:	2a3a      	cmp	r2, #58	; 0x3a
 8006310:	d015      	beq.n	800633e <f_open+0x5a>
 8006312:	460b      	mov	r3, r1
 8006314:	785a      	ldrb	r2, [r3, #1]
 8006316:	1c59      	adds	r1, r3, #1
 8006318:	2a1f      	cmp	r2, #31
 800631a:	d8f8      	bhi.n	800630e <f_open+0x2a>
 800631c:	f04f 0800 	mov.w	r8, #0
 8006320:	4bd4      	ldr	r3, [pc, #848]	; (8006674 <f_open+0x390>)
 8006322:	f853 4028 	ldr.w	r4, [r3, r8, lsl #2]
 8006326:	b1cc      	cbz	r4, 800635c <f_open+0x78>
 8006328:	6960      	ldr	r0, [r4, #20]
 800632a:	f001 ffdf 	bl	80082ec <ff_req_grant>
 800632e:	b9e0      	cbnz	r0, 800636a <f_open+0x86>
 8006330:	260f      	movs	r6, #15
 8006332:	6028      	str	r0, [r5, #0]
 8006334:	4630      	mov	r0, r6
 8006336:	f50d 7d0f 	add.w	sp, sp, #572	; 0x23c
 800633a:	e8bd 8ff0 	ldmia.w	sp!, {r4, r5, r6, r7, r8, r9, sl, fp, pc}
 800633e:	3601      	adds	r6, #1
 8006340:	42b1      	cmp	r1, r6
 8006342:	f1a0 0830 	sub.w	r8, r0, #48	; 0x30
 8006346:	f040 8185 	bne.w	8006654 <f_open+0x370>
 800634a:	2830      	cmp	r0, #48	; 0x30
 800634c:	f040 8182 	bne.w	8006654 <f_open+0x370>
 8006350:	1c9e      	adds	r6, r3, #2
 8006352:	4bc8      	ldr	r3, [pc, #800]	; (8006674 <f_open+0x390>)
 8006354:	f853 4028 	ldr.w	r4, [r3, r8, lsl #2]
 8006358:	2c00      	cmp	r4, #0
 800635a:	d1e5      	bne.n	8006328 <f_open+0x44>
 800635c:	260c      	movs	r6, #12
 800635e:	4630      	mov	r0, r6
 8006360:	602c      	str	r4, [r5, #0]
 8006362:	f50d 7d0f 	add.w	sp, sp, #572	; 0x23c
 8006366:	e8bd 8ff0 	ldmia.w	sp!, {r4, r5, r6, r7, r8, r9, sl, fp, pc}
 800636a:	7823      	ldrb	r3, [r4, #0]
 800636c:	f007 093e 	and.w	r9, r7, #62	; 0x3e
 8006370:	b17b      	cbz	r3, 8006392 <f_open+0xae>
 8006372:	7860      	ldrb	r0, [r4, #1]
 8006374:	f7fd f8fe 	bl	8003574 <disk_status>
 8006378:	07c3      	lsls	r3, r0, #31
 800637a:	d40a      	bmi.n	8006392 <f_open+0xae>
 800637c:	f1b9 0f00 	cmp.w	r9, #0
 8006380:	f000 811e 	beq.w	80065c0 <f_open+0x2dc>
 8006384:	0740      	lsls	r0, r0, #29
 8006386:	f140 811b 	bpl.w	80065c0 <f_open+0x2dc>
 800638a:	2300      	movs	r3, #0
 800638c:	260a      	movs	r6, #10
 800638e:	602b      	str	r3, [r5, #0]
 8006390:	e158      	b.n	8006644 <f_open+0x360>
 8006392:	f04f 0a00 	mov.w	sl, #0
 8006396:	fa5f f088 	uxtb.w	r0, r8
 800639a:	7060      	strb	r0, [r4, #1]
 800639c:	f884 a000 	strb.w	sl, [r4]
 80063a0:	f7fd f8f2 	bl	8003588 <disk_initialize>
 80063a4:	07c1      	lsls	r1, r0, #31
 80063a6:	f100 8183 	bmi.w	80066b0 <f_open+0x3cc>
 80063aa:	f1b9 0f00 	cmp.w	r9, #0
 80063ae:	d001      	beq.n	80063b4 <f_open+0xd0>
 80063b0:	0741      	lsls	r1, r0, #29
 80063b2:	d4ea      	bmi.n	800638a <f_open+0xa6>
 80063b4:	f104 020c 	add.w	r2, r4, #12
 80063b8:	2102      	movs	r1, #2
 80063ba:	7860      	ldrb	r0, [r4, #1]
 80063bc:	f7fd f910 	bl	80035e0 <disk_ioctl>
 80063c0:	2800      	cmp	r0, #0
 80063c2:	f040 813c 	bne.w	800663e <f_open+0x35a>
 80063c6:	89a3      	ldrh	r3, [r4, #12]
 80063c8:	f5a3 7200 	sub.w	r2, r3, #512	; 0x200
 80063cc:	f5b2 6f60 	cmp.w	r2, #3584	; 0xe00
 80063d0:	f200 8135 	bhi.w	800663e <f_open+0x35a>
 80063d4:	1e5a      	subs	r2, r3, #1
 80063d6:	ea12 0103 	ands.w	r1, r2, r3
 80063da:	f040 8130 	bne.w	800663e <f_open+0x35a>
 80063de:	f04f 33ff 	mov.w	r3, #4294967295
 80063e2:	70e1      	strb	r1, [r4, #3]
 80063e4:	63a3      	str	r3, [r4, #56]	; 0x38
 80063e6:	4620      	mov	r0, r4
 80063e8:	f7fd f908 	bl	80035fc <move_window.part.6>
 80063ec:	2800      	cmp	r0, #0
 80063ee:	f040 8126 	bne.w	800663e <f_open+0x35a>
 80063f2:	f64a 2255 	movw	r2, #43605	; 0xaa55
 80063f6:	f894 123b 	ldrb.w	r1, [r4, #571]	; 0x23b
 80063fa:	f894 323a 	ldrb.w	r3, [r4, #570]	; 0x23a
 80063fe:	ea43 2301 	orr.w	r3, r3, r1, lsl #8
 8006402:	4293      	cmp	r3, r2
 8006404:	f040 8325 	bne.w	8006a52 <f_open+0x76e>
 8006408:	f894 303c 	ldrb.w	r3, [r4, #60]	; 0x3c
 800640c:	2be9      	cmp	r3, #233	; 0xe9
 800640e:	d006      	beq.n	800641e <f_open+0x13a>
 8006410:	6be3      	ldr	r3, [r4, #60]	; 0x3c
 8006412:	4a99      	ldr	r2, [pc, #612]	; (8006678 <f_open+0x394>)
 8006414:	f003 13ff 	and.w	r3, r3, #16711935	; 0xff00ff
 8006418:	4293      	cmp	r3, r2
 800641a:	f040 8293 	bne.w	8006944 <f_open+0x660>
 800641e:	f8b4 1074 	ldrh.w	r1, [r4, #116]	; 0x74
 8006422:	f894 2073 	ldrb.w	r2, [r4, #115]	; 0x73
 8006426:	f894 3072 	ldrb.w	r3, [r4, #114]	; 0x72
 800642a:	ea42 2201 	orr.w	r2, r2, r1, lsl #8
 800642e:	ea43 2302 	orr.w	r3, r3, r2, lsl #8
 8006432:	4a92      	ldr	r2, [pc, #584]	; (800667c <f_open+0x398>)
 8006434:	f023 437f 	bic.w	r3, r3, #4278190080	; 0xff000000
 8006438:	4293      	cmp	r3, r2
 800643a:	d00d      	beq.n	8006458 <f_open+0x174>
 800643c:	f8b4 1090 	ldrh.w	r1, [r4, #144]	; 0x90
 8006440:	f894 208f 	ldrb.w	r2, [r4, #143]	; 0x8f
 8006444:	f894 308e 	ldrb.w	r3, [r4, #142]	; 0x8e
 8006448:	ea42 2201 	orr.w	r2, r2, r1, lsl #8
 800644c:	498c      	ldr	r1, [pc, #560]	; (8006680 <f_open+0x39c>)
 800644e:	ea43 2302 	orr.w	r3, r3, r2, lsl #8
 8006452:	428b      	cmp	r3, r1
 8006454:	f040 8276 	bne.w	8006944 <f_open+0x660>
 8006458:	f04f 0800 	mov.w	r8, #0
 800645c:	f894 2048 	ldrb.w	r2, [r4, #72]	; 0x48
 8006460:	f894 c047 	ldrb.w	ip, [r4, #71]	; 0x47
 8006464:	89a3      	ldrh	r3, [r4, #12]
 8006466:	ea4c 2c02 	orr.w	ip, ip, r2, lsl #8
 800646a:	4563      	cmp	r3, ip
 800646c:	f040 82f1 	bne.w	8006a52 <f_open+0x76e>
 8006470:	f894 0053 	ldrb.w	r0, [r4, #83]	; 0x53
 8006474:	f894 3052 	ldrb.w	r3, [r4, #82]	; 0x52
 8006478:	ea53 2300 	orrs.w	r3, r3, r0, lsl #8
 800647c:	f040 8325 	bne.w	8006aca <f_open+0x7e6>
 8006480:	f8b4 2062 	ldrh.w	r2, [r4, #98]	; 0x62
 8006484:	f894 3061 	ldrb.w	r3, [r4, #97]	; 0x61
 8006488:	f894 0060 	ldrb.w	r0, [r4, #96]	; 0x60
 800648c:	ea43 2302 	orr.w	r3, r3, r2, lsl #8
 8006490:	ea40 2003 	orr.w	r0, r0, r3, lsl #8
 8006494:	f894 904c 	ldrb.w	r9, [r4, #76]	; 0x4c
 8006498:	6260      	str	r0, [r4, #36]	; 0x24
 800649a:	f109 33ff 	add.w	r3, r9, #4294967295
 800649e:	2b01      	cmp	r3, #1
 80064a0:	f884 9002 	strb.w	r9, [r4, #2]
 80064a4:	f200 82d5 	bhi.w	8006a52 <f_open+0x76e>
 80064a8:	f894 a049 	ldrb.w	sl, [r4, #73]	; 0x49
 80064ac:	fa1f f38a 	uxth.w	r3, sl
 80064b0:	8163      	strh	r3, [r4, #10]
 80064b2:	2b00      	cmp	r3, #0
 80064b4:	f000 82cd 	beq.w	8006a52 <f_open+0x76e>
 80064b8:	f10a 33ff 	add.w	r3, sl, #4294967295
 80064bc:	ea13 0f0a 	tst.w	r3, sl
 80064c0:	f040 82c7 	bne.w	8006a52 <f_open+0x76e>
 80064c4:	f894 204e 	ldrb.w	r2, [r4, #78]	; 0x4e
 80064c8:	f894 e04d 	ldrb.w	lr, [r4, #77]	; 0x4d
 80064cc:	ea4f 135c 	mov.w	r3, ip, lsr #5
 80064d0:	ea4e 2e02 	orr.w	lr, lr, r2, lsl #8
 80064d4:	fbbe f1f3 	udiv	r1, lr, r3
 80064d8:	fb03 e311 	mls	r3, r3, r1, lr
 80064dc:	b29b      	uxth	r3, r3
 80064de:	f8a4 e008 	strh.w	lr, [r4, #8]
 80064e2:	2b00      	cmp	r3, #0
 80064e4:	f040 82b5 	bne.w	8006a52 <f_open+0x76e>
 80064e8:	f894 2050 	ldrb.w	r2, [r4, #80]	; 0x50
 80064ec:	f894 304f 	ldrb.w	r3, [r4, #79]	; 0x4f
 80064f0:	ea53 2302 	orrs.w	r3, r3, r2, lsl #8
 80064f4:	d109      	bne.n	800650a <f_open+0x226>
 80064f6:	f8b4 b05e 	ldrh.w	fp, [r4, #94]	; 0x5e
 80064fa:	f894 305d 	ldrb.w	r3, [r4, #93]	; 0x5d
 80064fe:	f894 205c 	ldrb.w	r2, [r4, #92]	; 0x5c
 8006502:	ea43 230b 	orr.w	r3, r3, fp, lsl #8
 8006506:	ea42 2303 	orr.w	r3, r2, r3, lsl #8
 800650a:	f894 b04b 	ldrb.w	fp, [r4, #75]	; 0x4b
 800650e:	f894 204a 	ldrb.w	r2, [r4, #74]	; 0x4a
 8006512:	ea52 220b 	orrs.w	r2, r2, fp, lsl #8
 8006516:	f000 829c 	beq.w	8006a52 <f_open+0x76e>
 800651a:	fb00 f909 	mul.w	r9, r0, r9
 800651e:	4411      	add	r1, r2
 8006520:	4449      	add	r1, r9
 8006522:	4299      	cmp	r1, r3
 8006524:	f200 8295 	bhi.w	8006a52 <f_open+0x76e>
 8006528:	1a5b      	subs	r3, r3, r1
 800652a:	fbb3 f3fa 	udiv	r3, r3, sl
 800652e:	2b00      	cmp	r3, #0
 8006530:	f000 828f 	beq.w	8006a52 <f_open+0x76e>
 8006534:	f64f 7af5 	movw	sl, #65525	; 0xfff5
 8006538:	4553      	cmp	r3, sl
 800653a:	f200 83d0 	bhi.w	8006cde <f_open+0x9fa>
 800653e:	f640 7af5 	movw	sl, #4085	; 0xff5
 8006542:	4553      	cmp	r3, sl
 8006544:	eb01 0b08 	add.w	fp, r1, r8
 8006548:	4442      	add	r2, r8
 800654a:	f103 0102 	add.w	r1, r3, #2
 800654e:	f200 83aa 	bhi.w	8006ca6 <f_open+0x9c2>
 8006552:	6221      	str	r1, [r4, #32]
 8006554:	e9c4 820a 	strd	r8, r2, [r4, #40]	; 0x28
 8006558:	f8c4 b034 	str.w	fp, [r4, #52]	; 0x34
 800655c:	f1be 0f00 	cmp.w	lr, #0
 8006560:	f000 8277 	beq.w	8006a52 <f_open+0x76e>
 8006564:	f001 0301 	and.w	r3, r1, #1
 8006568:	f10c 3eff 	add.w	lr, ip, #4294967295
 800656c:	eb01 0141 	add.w	r1, r1, r1, lsl #1
 8006570:	4473      	add	r3, lr
 8006572:	eb03 0351 	add.w	r3, r3, r1, lsr #1
 8006576:	fbb3 fcfc 	udiv	ip, r3, ip
 800657a:	444a      	add	r2, r9
 800657c:	4584      	cmp	ip, r0
 800657e:	6322      	str	r2, [r4, #48]	; 0x30
 8006580:	f200 8267 	bhi.w	8006a52 <f_open+0x76e>
 8006584:	f04f 33ff 	mov.w	r3, #4294967295
 8006588:	2280      	movs	r2, #128	; 0x80
 800658a:	e9c4 3306 	strd	r3, r3, [r4, #24]
 800658e:	2301      	movs	r3, #1
 8006590:	7122      	strb	r2, [r4, #4]
 8006592:	493c      	ldr	r1, [pc, #240]	; (8006684 <f_open+0x3a0>)
 8006594:	f8df 80f0 	ldr.w	r8, [pc, #240]	; 8006688 <f_open+0x3a4>
 8006598:	880a      	ldrh	r2, [r1, #0]
 800659a:	7023      	strb	r3, [r4, #0]
 800659c:	1c53      	adds	r3, r2, #1
 800659e:	f8d8 2000 	ldr.w	r2, [r8]
 80065a2:	b29b      	uxth	r3, r3
 80065a4:	42a2      	cmp	r2, r4
 80065a6:	800b      	strh	r3, [r1, #0]
 80065a8:	80e3      	strh	r3, [r4, #6]
 80065aa:	bf04      	itt	eq
 80065ac:	2300      	moveq	r3, #0
 80065ae:	f8c8 3000 	streq.w	r3, [r8]
 80065b2:	f8d8 3010 	ldr.w	r3, [r8, #16]
 80065b6:	42a3      	cmp	r3, r4
 80065b8:	d102      	bne.n	80065c0 <f_open+0x2dc>
 80065ba:	2300      	movs	r3, #0
 80065bc:	f8c8 3010 	str.w	r3, [r8, #16]
 80065c0:	ab0e      	add	r3, sp, #56	; 0x38
 80065c2:	4631      	mov	r1, r6
 80065c4:	6123      	str	r3, [r4, #16]
 80065c6:	a801      	add	r0, sp, #4
 80065c8:	9401      	str	r4, [sp, #4]
 80065ca:	f7fe fc59 	bl	8004e80 <follow_path>
 80065ce:	f007 093f 	and.w	r9, r7, #63	; 0x3f
 80065d2:	4606      	mov	r6, r0
 80065d4:	f007 031c 	and.w	r3, r7, #28
 80065d8:	2800      	cmp	r0, #0
 80065da:	d143      	bne.n	8006664 <f_open+0x380>
 80065dc:	f99d 2033 	ldrsb.w	r2, [sp, #51]	; 0x33
 80065e0:	2a00      	cmp	r2, #0
 80065e2:	f2c0 811d 	blt.w	8006820 <f_open+0x53c>
 80065e6:	f8df 80a0 	ldr.w	r8, [pc, #160]	; 8006688 <f_open+0x3a4>
 80065ea:	f029 0001 	bic.w	r0, r9, #1
 80065ee:	f8d8 2000 	ldr.w	r2, [r8]
 80065f2:	9901      	ldr	r1, [sp, #4]
 80065f4:	f8dd c00c 	ldr.w	ip, [sp, #12]
 80065f8:	f8dd e018 	ldr.w	lr, [sp, #24]
 80065fc:	2a00      	cmp	r2, #0
 80065fe:	f000 812a 	beq.w	8006856 <f_open+0x572>
 8006602:	428a      	cmp	r2, r1
 8006604:	d058      	beq.n	80066b8 <f_open+0x3d4>
 8006606:	f8d8 2010 	ldr.w	r2, [r8, #16]
 800660a:	2a00      	cmp	r2, #0
 800660c:	d06a      	beq.n	80066e4 <f_open+0x400>
 800660e:	4291      	cmp	r1, r2
 8006610:	d074      	beq.n	80066fc <f_open+0x418>
 8006612:	2b00      	cmp	r3, #0
 8006614:	d148      	bne.n	80066a8 <f_open+0x3c4>
 8006616:	2612      	movs	r6, #18
 8006618:	2300      	movs	r3, #0
 800661a:	602b      	str	r3, [r5, #0]
 800661c:	e012      	b.n	8006644 <f_open+0x360>
 800661e:	2609      	movs	r6, #9
 8006620:	4630      	mov	r0, r6
 8006622:	f50d 7d0f 	add.w	sp, sp, #572	; 0x23c
 8006626:	e8bd 8ff0 	ldmia.w	sp!, {r4, r5, r6, r7, r8, r9, sl, fp, pc}
 800662a:	441a      	add	r2, r3
 800662c:	622a      	str	r2, [r5, #32]
 800662e:	4651      	mov	r1, sl
 8006630:	7860      	ldrb	r0, [r4, #1]
 8006632:	2301      	movs	r3, #1
 8006634:	f7fc ffb8 	bl	80035a8 <disk_read>
 8006638:	2800      	cmp	r0, #0
 800663a:	f000 80ef 	beq.w	800681c <f_open+0x538>
 800663e:	2300      	movs	r3, #0
 8006640:	2601      	movs	r6, #1
 8006642:	602b      	str	r3, [r5, #0]
 8006644:	6960      	ldr	r0, [r4, #20]
 8006646:	f001 fe5b 	bl	8008300 <ff_rel_grant>
 800664a:	4630      	mov	r0, r6
 800664c:	f50d 7d0f 	add.w	sp, sp, #572	; 0x23c
 8006650:	e8bd 8ff0 	ldmia.w	sp!, {r4, r5, r6, r7, r8, r9, sl, fp, pc}
 8006654:	260b      	movs	r6, #11
 8006656:	2300      	movs	r3, #0
 8006658:	4630      	mov	r0, r6
 800665a:	602b      	str	r3, [r5, #0]
 800665c:	f50d 7d0f 	add.w	sp, sp, #572	; 0x23c
 8006660:	e8bd 8ff0 	ldmia.w	sp!, {r4, r5, r6, r7, r8, r9, sl, fp, pc}
 8006664:	b993      	cbnz	r3, 800668c <f_open+0x3a8>
 8006666:	2300      	movs	r3, #0
 8006668:	2e0c      	cmp	r6, #12
 800666a:	602b      	str	r3, [r5, #0]
 800666c:	f040 80cf 	bne.w	800680e <f_open+0x52a>
 8006670:	e660      	b.n	8006334 <f_open+0x50>
 8006672:	bf00      	nop
 8006674:	20000288 	.word	0x20000288
 8006678:	009000eb 	.word	0x009000eb
 800667c:	00544146 	.word	0x00544146
 8006680:	33544146 	.word	0x33544146
 8006684:	200002ac 	.word	0x200002ac
 8006688:	2000028c 	.word	0x2000028c
 800668c:	2804      	cmp	r0, #4
 800668e:	d1ea      	bne.n	8006666 <f_open+0x382>
 8006690:	f8df 86cc 	ldr.w	r8, [pc, #1740]	; 8006d60 <f_open+0xa7c>
 8006694:	f8d8 3000 	ldr.w	r3, [r8]
 8006698:	2b00      	cmp	r3, #0
 800669a:	f000 8107 	beq.w	80068ac <f_open+0x5c8>
 800669e:	f8d8 3010 	ldr.w	r3, [r8, #16]
 80066a2:	2b00      	cmp	r3, #0
 80066a4:	f000 8102 	beq.w	80068ac <f_open+0x5c8>
 80066a8:	2300      	movs	r3, #0
 80066aa:	2612      	movs	r6, #18
 80066ac:	602b      	str	r3, [r5, #0]
 80066ae:	e7c9      	b.n	8006644 <f_open+0x360>
 80066b0:	f8c5 a000 	str.w	sl, [r5]
 80066b4:	2603      	movs	r6, #3
 80066b6:	e7c5      	b.n	8006644 <f_open+0x360>
 80066b8:	f8d8 2004 	ldr.w	r2, [r8, #4]
 80066bc:	4562      	cmp	r2, ip
 80066be:	f000 81e9 	beq.w	8006a94 <f_open+0x7b0>
 80066c2:	f8d8 2010 	ldr.w	r2, [r8, #16]
 80066c6:	b16a      	cbz	r2, 80066e4 <f_open+0x400>
 80066c8:	428a      	cmp	r2, r1
 80066ca:	d1a2      	bne.n	8006612 <f_open+0x32e>
 80066cc:	f8d8 2014 	ldr.w	r2, [r8, #20]
 80066d0:	4594      	cmp	ip, r2
 80066d2:	d19e      	bne.n	8006612 <f_open+0x32e>
 80066d4:	2600      	movs	r6, #0
 80066d6:	f8d8 2018 	ldr.w	r2, [r8, #24]
 80066da:	4572      	cmp	r2, lr
 80066dc:	f000 82e1 	beq.w	8006ca2 <f_open+0x9be>
 80066e0:	2e00      	cmp	r6, #0
 80066e2:	d096      	beq.n	8006612 <f_open+0x32e>
 80066e4:	b17b      	cbz	r3, 8006706 <f_open+0x422>
 80066e6:	f89d 300a 	ldrb.w	r3, [sp, #10]
 80066ea:	f013 0311 	ands.w	r3, r3, #17
 80066ee:	d113      	bne.n	8006718 <f_open+0x434>
 80066f0:	077a      	lsls	r2, r7, #29
 80066f2:	f140 80ac 	bpl.w	800684e <f_open+0x56a>
 80066f6:	602b      	str	r3, [r5, #0]
 80066f8:	2608      	movs	r6, #8
 80066fa:	e7a3      	b.n	8006644 <f_open+0x360>
 80066fc:	f8d8 2014 	ldr.w	r2, [r8, #20]
 8006700:	4594      	cmp	ip, r2
 8006702:	d0e8      	beq.n	80066d6 <f_open+0x3f2>
 8006704:	e785      	b.n	8006612 <f_open+0x32e>
 8006706:	f89d 300a 	ldrb.w	r3, [sp, #10]
 800670a:	06da      	lsls	r2, r3, #27
 800670c:	f100 80b2 	bmi.w	8006874 <f_open+0x590>
 8006710:	07ba      	lsls	r2, r7, #30
 8006712:	d505      	bpl.n	8006720 <f_open+0x43c>
 8006714:	07db      	lsls	r3, r3, #31
 8006716:	d503      	bpl.n	8006720 <f_open+0x43c>
 8006718:	2300      	movs	r3, #0
 800671a:	2607      	movs	r6, #7
 800671c:	602b      	str	r3, [r5, #0]
 800671e:	e791      	b.n	8006644 <f_open+0x360>
 8006720:	073e      	lsls	r6, r7, #28
 8006722:	6ba3      	ldr	r3, [r4, #56]	; 0x38
 8006724:	d503      	bpl.n	800672e <f_open+0x44a>
 8006726:	f049 0940 	orr.w	r9, r9, #64	; 0x40
 800672a:	f029 0001 	bic.w	r0, r9, #1
 800672e:	f8d8 6000 	ldr.w	r6, [r8]
 8006732:	9a09      	ldr	r2, [sp, #36]	; 0x24
 8006734:	428e      	cmp	r6, r1
 8006736:	e9c5 3209 	strd	r3, r2, [r5, #36]	; 0x24
 800673a:	d07c      	beq.n	8006836 <f_open+0x552>
 800673c:	f8d8 7010 	ldr.w	r7, [r8, #16]
 8006740:	428f      	cmp	r7, r1
 8006742:	d00a      	beq.n	800675a <f_open+0x476>
 8006744:	2e00      	cmp	r6, #0
 8006746:	f000 8188 	beq.w	8006a5a <f_open+0x776>
 800674a:	2f00      	cmp	r7, #0
 800674c:	f000 81ba 	beq.w	8006ac4 <f_open+0x7e0>
 8006750:	2300      	movs	r3, #0
 8006752:	2602      	movs	r6, #2
 8006754:	612b      	str	r3, [r5, #16]
 8006756:	602b      	str	r3, [r5, #0]
 8006758:	e774      	b.n	8006644 <f_open+0x360>
 800675a:	f8d8 3014 	ldr.w	r3, [r8, #20]
 800675e:	4563      	cmp	r3, ip
 8006760:	d1f0      	bne.n	8006744 <f_open+0x460>
 8006762:	f8d8 3018 	ldr.w	r3, [r8, #24]
 8006766:	4573      	cmp	r3, lr
 8006768:	d1ec      	bne.n	8006744 <f_open+0x460>
 800676a:	2601      	movs	r6, #1
 800676c:	0133      	lsls	r3, r6, #4
 800676e:	eb08 0103 	add.w	r1, r8, r3
 8006772:	8989      	ldrh	r1, [r1, #12]
 8006774:	2800      	cmp	r0, #0
 8006776:	d156      	bne.n	8006826 <f_open+0x542>
 8006778:	3101      	adds	r1, #1
 800677a:	b289      	uxth	r1, r1
 800677c:	1c77      	adds	r7, r6, #1
 800677e:	612f      	str	r7, [r5, #16]
 8006780:	7820      	ldrb	r0, [r4, #0]
 8006782:	7ed6      	ldrb	r6, [r2, #27]
 8006784:	7e97      	ldrb	r7, [r2, #26]
 8006786:	4443      	add	r3, r8
 8006788:	2803      	cmp	r0, #3
 800678a:	8199      	strh	r1, [r3, #12]
 800678c:	ea47 2706 	orr.w	r7, r7, r6, lsl #8
 8006790:	d105      	bne.n	800679e <f_open+0x4ba>
 8006792:	7d51      	ldrb	r1, [r2, #21]
 8006794:	7d13      	ldrb	r3, [r2, #20]
 8006796:	ea43 2301 	orr.w	r3, r3, r1, lsl #8
 800679a:	ea47 4703 	orr.w	r7, r7, r3, lsl #16
 800679e:	2100      	movs	r1, #0
 80067a0:	60af      	str	r7, [r5, #8]
 80067a2:	8bd0      	ldrh	r0, [r2, #30]
 80067a4:	7f53      	ldrb	r3, [r2, #29]
 80067a6:	7f16      	ldrb	r6, [r2, #28]
 80067a8:	ea43 2300 	orr.w	r3, r3, r0, lsl #8
 80067ac:	88e2      	ldrh	r2, [r4, #6]
 80067ae:	ea46 2603 	orr.w	r6, r6, r3, lsl #8
 80067b2:	f105 0a30 	add.w	sl, r5, #48	; 0x30
 80067b6:	80aa      	strh	r2, [r5, #4]
 80067b8:	60ee      	str	r6, [r5, #12]
 80067ba:	602c      	str	r4, [r5, #0]
 80067bc:	62e9      	str	r1, [r5, #44]	; 0x2c
 80067be:	7569      	strb	r1, [r5, #21]
 80067c0:	6229      	str	r1, [r5, #32]
 80067c2:	61a9      	str	r1, [r5, #24]
 80067c4:	f885 9014 	strb.w	r9, [r5, #20]
 80067c8:	4650      	mov	r0, sl
 80067ca:	f44f 5280 	mov.w	r2, #4096	; 0x1000
 80067ce:	f003 ffba 	bl	800a746 <memset>
 80067d2:	f019 0f20 	tst.w	r9, #32
 80067d6:	d021      	beq.n	800681c <f_open+0x538>
 80067d8:	b306      	cbz	r6, 800681c <f_open+0x538>
 80067da:	89a3      	ldrh	r3, [r4, #12]
 80067dc:	f8b4 800a 	ldrh.w	r8, [r4, #10]
 80067e0:	61ae      	str	r6, [r5, #24]
 80067e2:	fb03 f808 	mul.w	r8, r3, r8
 80067e6:	45b0      	cmp	r8, r6
 80067e8:	d304      	bcc.n	80067f4 <f_open+0x510>
 80067ea:	e048      	b.n	800687e <f_open+0x59a>
 80067ec:	3001      	adds	r0, #1
 80067ee:	d020      	beq.n	8006832 <f_open+0x54e>
 80067f0:	45b0      	cmp	r8, r6
 80067f2:	d243      	bcs.n	800687c <f_open+0x598>
 80067f4:	4639      	mov	r1, r7
 80067f6:	6828      	ldr	r0, [r5, #0]
 80067f8:	f7fd fd98 	bl	800432c <get_fat.isra.9>
 80067fc:	2801      	cmp	r0, #1
 80067fe:	4607      	mov	r7, r0
 8006800:	eba6 0608 	sub.w	r6, r6, r8
 8006804:	d8f2      	bhi.n	80067ec <f_open+0x508>
 8006806:	2602      	movs	r6, #2
 8006808:	2300      	movs	r3, #0
 800680a:	61ef      	str	r7, [r5, #28]
 800680c:	602b      	str	r3, [r5, #0]
 800680e:	2e0b      	cmp	r6, #11
 8006810:	f43f ad90 	beq.w	8006334 <f_open+0x50>
 8006814:	2e0f      	cmp	r6, #15
 8006816:	f43f ad8d 	beq.w	8006334 <f_open+0x50>
 800681a:	e713      	b.n	8006644 <f_open+0x360>
 800681c:	2600      	movs	r6, #0
 800681e:	e711      	b.n	8006644 <f_open+0x360>
 8006820:	6028      	str	r0, [r5, #0]
 8006822:	2606      	movs	r6, #6
 8006824:	e70e      	b.n	8006644 <f_open+0x360>
 8006826:	2900      	cmp	r1, #0
 8006828:	d192      	bne.n	8006750 <f_open+0x46c>
 800682a:	f44f 7180 	mov.w	r1, #256	; 0x100
 800682e:	1c77      	adds	r7, r6, #1
 8006830:	e7a5      	b.n	800677e <f_open+0x49a>
 8006832:	2601      	movs	r6, #1
 8006834:	e7e8      	b.n	8006808 <f_open+0x524>
 8006836:	f8d8 3004 	ldr.w	r3, [r8, #4]
 800683a:	4563      	cmp	r3, ip
 800683c:	f47f af7e 	bne.w	800673c <f_open+0x458>
 8006840:	f8d8 3008 	ldr.w	r3, [r8, #8]
 8006844:	4573      	cmp	r3, lr
 8006846:	f47f af79 	bne.w	800673c <f_open+0x458>
 800684a:	2600      	movs	r6, #0
 800684c:	e78e      	b.n	800676c <f_open+0x488>
 800684e:	073e      	lsls	r6, r7, #28
 8006850:	d435      	bmi.n	80068be <f_open+0x5da>
 8006852:	6ba3      	ldr	r3, [r4, #56]	; 0x38
 8006854:	e76b      	b.n	800672e <f_open+0x44a>
 8006856:	f8d8 2010 	ldr.w	r2, [r8, #16]
 800685a:	2a00      	cmp	r2, #0
 800685c:	f43f af42 	beq.w	80066e4 <f_open+0x400>
 8006860:	4291      	cmp	r1, r2
 8006862:	f47f af3f 	bne.w	80066e4 <f_open+0x400>
 8006866:	f8d8 2014 	ldr.w	r2, [r8, #20]
 800686a:	4594      	cmp	ip, r2
 800686c:	f47f af3a 	bne.w	80066e4 <f_open+0x400>
 8006870:	2601      	movs	r6, #1
 8006872:	e730      	b.n	80066d6 <f_open+0x3f2>
 8006874:	2300      	movs	r3, #0
 8006876:	2604      	movs	r6, #4
 8006878:	602b      	str	r3, [r5, #0]
 800687a:	e6e3      	b.n	8006644 <f_open+0x360>
 800687c:	89a3      	ldrh	r3, [r4, #12]
 800687e:	fbb6 f2f3 	udiv	r2, r6, r3
 8006882:	fb03 6312 	mls	r3, r3, r2, r6
 8006886:	61ef      	str	r7, [r5, #28]
 8006888:	2b00      	cmp	r3, #0
 800688a:	d0c7      	beq.n	800681c <f_open+0x538>
 800688c:	6a23      	ldr	r3, [r4, #32]
 800688e:	3f02      	subs	r7, #2
 8006890:	3b02      	subs	r3, #2
 8006892:	429f      	cmp	r7, r3
 8006894:	d206      	bcs.n	80068a4 <f_open+0x5c0>
 8006896:	8963      	ldrh	r3, [r4, #10]
 8006898:	6b61      	ldr	r1, [r4, #52]	; 0x34
 800689a:	fb07 1303 	mla	r3, r7, r3, r1
 800689e:	2b00      	cmp	r3, #0
 80068a0:	f47f aec3 	bne.w	800662a <f_open+0x346>
 80068a4:	2300      	movs	r3, #0
 80068a6:	2602      	movs	r6, #2
 80068a8:	602b      	str	r3, [r5, #0]
 80068aa:	e6cb      	b.n	8006644 <f_open+0x360>
 80068ac:	a801      	add	r0, sp, #4
 80068ae:	f7fe fc57 	bl	8005160 <dir_register>
 80068b2:	f049 0908 	orr.w	r9, r9, #8
 80068b6:	4606      	mov	r6, r0
 80068b8:	2800      	cmp	r0, #0
 80068ba:	f47f aed4 	bne.w	8006666 <f_open+0x382>
 80068be:	f7fc fde7 	bl	8003490 <get_fattime>
 80068c2:	2720      	movs	r7, #32
 80068c4:	9b09      	ldr	r3, [sp, #36]	; 0x24
 80068c6:	f3c0 2107 	ubfx	r1, r0, #8, #8
 80068ca:	f3c0 4207 	ubfx	r2, r0, #16, #8
 80068ce:	b2c6      	uxtb	r6, r0
 80068d0:	0e00      	lsrs	r0, r0, #24
 80068d2:	73d9      	strb	r1, [r3, #15]
 80068d4:	739e      	strb	r6, [r3, #14]
 80068d6:	741a      	strb	r2, [r3, #16]
 80068d8:	7458      	strb	r0, [r3, #17]
 80068da:	9b09      	ldr	r3, [sp, #36]	; 0x24
 80068dc:	75d9      	strb	r1, [r3, #23]
 80068de:	759e      	strb	r6, [r3, #22]
 80068e0:	761a      	strb	r2, [r3, #24]
 80068e2:	7658      	strb	r0, [r3, #25]
 80068e4:	9b09      	ldr	r3, [sp, #36]	; 0x24
 80068e6:	72df      	strb	r7, [r3, #11]
 80068e8:	9b09      	ldr	r3, [sp, #36]	; 0x24
 80068ea:	7822      	ldrb	r2, [r4, #0]
 80068ec:	7ed9      	ldrb	r1, [r3, #27]
 80068ee:	7e9f      	ldrb	r7, [r3, #26]
 80068f0:	2a03      	cmp	r2, #3
 80068f2:	ea47 2701 	orr.w	r7, r7, r1, lsl #8
 80068f6:	f000 80de 	beq.w	8006ab6 <f_open+0x7d2>
 80068fa:	2200      	movs	r2, #0
 80068fc:	769a      	strb	r2, [r3, #26]
 80068fe:	76da      	strb	r2, [r3, #27]
 8006900:	7821      	ldrb	r1, [r4, #0]
 8006902:	2903      	cmp	r1, #3
 8006904:	f000 80d4 	beq.w	8006ab0 <f_open+0x7cc>
 8006908:	2200      	movs	r2, #0
 800690a:	2301      	movs	r3, #1
 800690c:	9909      	ldr	r1, [sp, #36]	; 0x24
 800690e:	61ca      	str	r2, [r1, #28]
 8006910:	70e3      	strb	r3, [r4, #3]
 8006912:	2f00      	cmp	r7, #0
 8006914:	f000 80bc 	beq.w	8006a90 <f_open+0x7ac>
 8006918:	4639      	mov	r1, r7
 800691a:	a801      	add	r0, sp, #4
 800691c:	f8d4 a038 	ldr.w	sl, [r4, #56]	; 0x38
 8006920:	f7fd fa3c 	bl	8003d9c <remove_chain>
 8006924:	4606      	mov	r6, r0
 8006926:	2800      	cmp	r0, #0
 8006928:	f47f ae9d 	bne.w	8006666 <f_open+0x382>
 800692c:	6ba3      	ldr	r3, [r4, #56]	; 0x38
 800692e:	3f01      	subs	r7, #1
 8006930:	459a      	cmp	sl, r3
 8006932:	f040 80a4 	bne.w	8006a7e <f_open+0x79a>
 8006936:	61a7      	str	r7, [r4, #24]
 8006938:	9901      	ldr	r1, [sp, #4]
 800693a:	f8dd c00c 	ldr.w	ip, [sp, #12]
 800693e:	f8dd e018 	ldr.w	lr, [sp, #24]
 8006942:	e6f0      	b.n	8006726 <f_open+0x442>
 8006944:	f894 31fe 	ldrb.w	r3, [r4, #510]	; 0x1fe
 8006948:	2b00      	cmp	r3, #0
 800694a:	f000 8191 	beq.w	8006c70 <f_open+0x98c>
 800694e:	f8b4 2204 	ldrh.w	r2, [r4, #516]	; 0x204
 8006952:	f894 3203 	ldrb.w	r3, [r4, #515]	; 0x203
 8006956:	f894 8202 	ldrb.w	r8, [r4, #514]	; 0x202
 800695a:	ea43 2302 	orr.w	r3, r3, r2, lsl #8
 800695e:	ea48 2803 	orr.w	r8, r8, r3, lsl #8
 8006962:	f894 320e 	ldrb.w	r3, [r4, #526]	; 0x20e
 8006966:	b14b      	cbz	r3, 800697c <f_open+0x698>
 8006968:	f8b4 1214 	ldrh.w	r1, [r4, #532]	; 0x214
 800696c:	f894 2213 	ldrb.w	r2, [r4, #531]	; 0x213
 8006970:	f894 3212 	ldrb.w	r3, [r4, #530]	; 0x212
 8006974:	ea42 2201 	orr.w	r2, r2, r1, lsl #8
 8006978:	ea43 2302 	orr.w	r3, r3, r2, lsl #8
 800697c:	930f      	str	r3, [sp, #60]	; 0x3c
 800697e:	f894 321e 	ldrb.w	r3, [r4, #542]	; 0x21e
 8006982:	b14b      	cbz	r3, 8006998 <f_open+0x6b4>
 8006984:	f8b4 1224 	ldrh.w	r1, [r4, #548]	; 0x224
 8006988:	f894 2223 	ldrb.w	r2, [r4, #547]	; 0x223
 800698c:	f894 3222 	ldrb.w	r3, [r4, #546]	; 0x222
 8006990:	ea42 2201 	orr.w	r2, r2, r1, lsl #8
 8006994:	ea43 2302 	orr.w	r3, r3, r2, lsl #8
 8006998:	9310      	str	r3, [sp, #64]	; 0x40
 800699a:	f894 322e 	ldrb.w	r3, [r4, #558]	; 0x22e
 800699e:	b14b      	cbz	r3, 80069b4 <f_open+0x6d0>
 80069a0:	f8b4 1234 	ldrh.w	r1, [r4, #564]	; 0x234
 80069a4:	f894 2233 	ldrb.w	r2, [r4, #563]	; 0x233
 80069a8:	f894 3232 	ldrb.w	r3, [r4, #562]	; 0x232
 80069ac:	ea42 2201 	orr.w	r2, r2, r1, lsl #8
 80069b0:	ea43 2302 	orr.w	r3, r3, r2, lsl #8
 80069b4:	9311      	str	r3, [sp, #68]	; 0x44
 80069b6:	f1b8 0f00 	cmp.w	r8, #0
 80069ba:	f040 810e 	bne.w	8006bda <f_open+0x8f6>
 80069be:	f8dd 803c 	ldr.w	r8, [sp, #60]	; 0x3c
 80069c2:	f1b8 0f00 	cmp.w	r8, #0
 80069c6:	f040 80c5 	bne.w	8006b54 <f_open+0x870>
 80069ca:	f8dd 8040 	ldr.w	r8, [sp, #64]	; 0x40
 80069ce:	f1b8 0f00 	cmp.w	r8, #0
 80069d2:	d17c      	bne.n	8006ace <f_open+0x7ea>
 80069d4:	f8dd 8044 	ldr.w	r8, [sp, #68]	; 0x44
 80069d8:	f1b8 0f00 	cmp.w	r8, #0
 80069dc:	d039      	beq.n	8006a52 <f_open+0x76e>
 80069de:	f04f 33ff 	mov.w	r3, #4294967295
 80069e2:	2200      	movs	r2, #0
 80069e4:	4598      	cmp	r8, r3
 80069e6:	70e2      	strb	r2, [r4, #3]
 80069e8:	63a3      	str	r3, [r4, #56]	; 0x38
 80069ea:	f040 8139 	bne.w	8006c60 <f_open+0x97c>
 80069ee:	f64a 2255 	movw	r2, #43605	; 0xaa55
 80069f2:	f894 123b 	ldrb.w	r1, [r4, #571]	; 0x23b
 80069f6:	f894 323a 	ldrb.w	r3, [r4, #570]	; 0x23a
 80069fa:	ea43 2301 	orr.w	r3, r3, r1, lsl #8
 80069fe:	4293      	cmp	r3, r2
 8006a00:	d127      	bne.n	8006a52 <f_open+0x76e>
 8006a02:	f894 303c 	ldrb.w	r3, [r4, #60]	; 0x3c
 8006a06:	2be9      	cmp	r3, #233	; 0xe9
 8006a08:	d005      	beq.n	8006a16 <f_open+0x732>
 8006a0a:	6be3      	ldr	r3, [r4, #60]	; 0x3c
 8006a0c:	4ad1      	ldr	r2, [pc, #836]	; (8006d54 <f_open+0xa70>)
 8006a0e:	f003 13ff 	and.w	r3, r3, #16711935	; 0xff00ff
 8006a12:	4293      	cmp	r3, r2
 8006a14:	d11d      	bne.n	8006a52 <f_open+0x76e>
 8006a16:	f8b4 1074 	ldrh.w	r1, [r4, #116]	; 0x74
 8006a1a:	f894 2073 	ldrb.w	r2, [r4, #115]	; 0x73
 8006a1e:	f894 3072 	ldrb.w	r3, [r4, #114]	; 0x72
 8006a22:	ea42 2201 	orr.w	r2, r2, r1, lsl #8
 8006a26:	ea43 2302 	orr.w	r3, r3, r2, lsl #8
 8006a2a:	4acb      	ldr	r2, [pc, #812]	; (8006d58 <f_open+0xa74>)
 8006a2c:	f023 437f 	bic.w	r3, r3, #4278190080	; 0xff000000
 8006a30:	4293      	cmp	r3, r2
 8006a32:	f43f ad13 	beq.w	800645c <f_open+0x178>
 8006a36:	f8b4 1090 	ldrh.w	r1, [r4, #144]	; 0x90
 8006a3a:	f894 208f 	ldrb.w	r2, [r4, #143]	; 0x8f
 8006a3e:	f894 308e 	ldrb.w	r3, [r4, #142]	; 0x8e
 8006a42:	ea42 2201 	orr.w	r2, r2, r1, lsl #8
 8006a46:	49c5      	ldr	r1, [pc, #788]	; (8006d5c <f_open+0xa78>)
 8006a48:	ea43 2302 	orr.w	r3, r3, r2, lsl #8
 8006a4c:	428b      	cmp	r3, r1
 8006a4e:	f43f ad05 	beq.w	800645c <f_open+0x178>
 8006a52:	2300      	movs	r3, #0
 8006a54:	260d      	movs	r6, #13
 8006a56:	602b      	str	r3, [r5, #0]
 8006a58:	e5f4      	b.n	8006644 <f_open+0x360>
 8006a5a:	2701      	movs	r7, #1
 8006a5c:	f04f 0a00 	mov.w	sl, #0
 8006a60:	0133      	lsls	r3, r6, #4
 8006a62:	4550      	cmp	r0, sl
 8006a64:	eb08 0003 	add.w	r0, r8, r3
 8006a68:	f848 1003 	str.w	r1, [r8, r3]
 8006a6c:	e9c0 ce01 	strd	ip, lr, [r0, #4]
 8006a70:	f8a0 a00c 	strh.w	sl, [r0, #12]
 8006a74:	bf14      	ite	ne
 8006a76:	f44f 7180 	movne.w	r1, #256	; 0x100
 8006a7a:	2101      	moveq	r1, #1
 8006a7c:	e67f      	b.n	800677e <f_open+0x49a>
 8006a7e:	4651      	mov	r1, sl
 8006a80:	4620      	mov	r0, r4
 8006a82:	f7fc fdbb 	bl	80035fc <move_window.part.6>
 8006a86:	61a7      	str	r7, [r4, #24]
 8006a88:	4606      	mov	r6, r0
 8006a8a:	2800      	cmp	r0, #0
 8006a8c:	f47f adeb 	bne.w	8006666 <f_open+0x382>
 8006a90:	6ba3      	ldr	r3, [r4, #56]	; 0x38
 8006a92:	e751      	b.n	8006938 <f_open+0x654>
 8006a94:	f8d8 2008 	ldr.w	r2, [r8, #8]
 8006a98:	4572      	cmp	r2, lr
 8006a9a:	f000 80eb 	beq.w	8006c74 <f_open+0x990>
 8006a9e:	f8d8 2010 	ldr.w	r2, [r8, #16]
 8006aa2:	2a00      	cmp	r2, #0
 8006aa4:	f43f ae1e 	beq.w	80066e4 <f_open+0x400>
 8006aa8:	4291      	cmp	r1, r2
 8006aaa:	f47f adb2 	bne.w	8006612 <f_open+0x32e>
 8006aae:	e60d      	b.n	80066cc <f_open+0x3e8>
 8006ab0:	751a      	strb	r2, [r3, #20]
 8006ab2:	755a      	strb	r2, [r3, #21]
 8006ab4:	e728      	b.n	8006908 <f_open+0x624>
 8006ab6:	7d59      	ldrb	r1, [r3, #21]
 8006ab8:	7d1a      	ldrb	r2, [r3, #20]
 8006aba:	ea42 2201 	orr.w	r2, r2, r1, lsl #8
 8006abe:	ea47 4702 	orr.w	r7, r7, r2, lsl #16
 8006ac2:	e71a      	b.n	80068fa <f_open+0x616>
 8006ac4:	2702      	movs	r7, #2
 8006ac6:	2601      	movs	r6, #1
 8006ac8:	e7c8      	b.n	8006a5c <f_open+0x778>
 8006aca:	4618      	mov	r0, r3
 8006acc:	e4e2      	b.n	8006494 <f_open+0x1b0>
 8006ace:	f04f 33ff 	mov.w	r3, #4294967295
 8006ad2:	2200      	movs	r2, #0
 8006ad4:	4598      	cmp	r8, r3
 8006ad6:	70e2      	strb	r2, [r4, #3]
 8006ad8:	63a3      	str	r3, [r4, #56]	; 0x38
 8006ada:	d006      	beq.n	8006aea <f_open+0x806>
 8006adc:	4641      	mov	r1, r8
 8006ade:	4620      	mov	r0, r4
 8006ae0:	f7fc fd8c 	bl	80035fc <move_window.part.6>
 8006ae4:	2800      	cmp	r0, #0
 8006ae6:	f47f af75 	bne.w	80069d4 <f_open+0x6f0>
 8006aea:	f64a 2255 	movw	r2, #43605	; 0xaa55
 8006aee:	f894 123b 	ldrb.w	r1, [r4, #571]	; 0x23b
 8006af2:	f894 323a 	ldrb.w	r3, [r4, #570]	; 0x23a
 8006af6:	ea43 2301 	orr.w	r3, r3, r1, lsl #8
 8006afa:	4293      	cmp	r3, r2
 8006afc:	f47f af6a 	bne.w	80069d4 <f_open+0x6f0>
 8006b00:	f894 303c 	ldrb.w	r3, [r4, #60]	; 0x3c
 8006b04:	2be9      	cmp	r3, #233	; 0xe9
 8006b06:	d006      	beq.n	8006b16 <f_open+0x832>
 8006b08:	6be3      	ldr	r3, [r4, #60]	; 0x3c
 8006b0a:	4a92      	ldr	r2, [pc, #584]	; (8006d54 <f_open+0xa70>)
 8006b0c:	f003 13ff 	and.w	r3, r3, #16711935	; 0xff00ff
 8006b10:	4293      	cmp	r3, r2
 8006b12:	f47f af5f 	bne.w	80069d4 <f_open+0x6f0>
 8006b16:	f8b4 1074 	ldrh.w	r1, [r4, #116]	; 0x74
 8006b1a:	f894 2073 	ldrb.w	r2, [r4, #115]	; 0x73
 8006b1e:	f894 3072 	ldrb.w	r3, [r4, #114]	; 0x72
 8006b22:	ea42 2201 	orr.w	r2, r2, r1, lsl #8
 8006b26:	ea43 2302 	orr.w	r3, r3, r2, lsl #8
 8006b2a:	4a8b      	ldr	r2, [pc, #556]	; (8006d58 <f_open+0xa74>)
 8006b2c:	f023 437f 	bic.w	r3, r3, #4278190080	; 0xff000000
 8006b30:	4293      	cmp	r3, r2
 8006b32:	f43f ac93 	beq.w	800645c <f_open+0x178>
 8006b36:	f8b4 1090 	ldrh.w	r1, [r4, #144]	; 0x90
 8006b3a:	f894 208f 	ldrb.w	r2, [r4, #143]	; 0x8f
 8006b3e:	f894 308e 	ldrb.w	r3, [r4, #142]	; 0x8e
 8006b42:	ea42 2201 	orr.w	r2, r2, r1, lsl #8
 8006b46:	4985      	ldr	r1, [pc, #532]	; (8006d5c <f_open+0xa78>)
 8006b48:	ea43 2302 	orr.w	r3, r3, r2, lsl #8
 8006b4c:	428b      	cmp	r3, r1
 8006b4e:	f43f ac85 	beq.w	800645c <f_open+0x178>
 8006b52:	e73f      	b.n	80069d4 <f_open+0x6f0>
 8006b54:	f04f 33ff 	mov.w	r3, #4294967295
 8006b58:	2200      	movs	r2, #0
 8006b5a:	4598      	cmp	r8, r3
 8006b5c:	70e2      	strb	r2, [r4, #3]
 8006b5e:	63a3      	str	r3, [r4, #56]	; 0x38
 8006b60:	d006      	beq.n	8006b70 <f_open+0x88c>
 8006b62:	4641      	mov	r1, r8
 8006b64:	4620      	mov	r0, r4
 8006b66:	f7fc fd49 	bl	80035fc <move_window.part.6>
 8006b6a:	2800      	cmp	r0, #0
 8006b6c:	f47f af2d 	bne.w	80069ca <f_open+0x6e6>
 8006b70:	f64a 2255 	movw	r2, #43605	; 0xaa55
 8006b74:	f894 123b 	ldrb.w	r1, [r4, #571]	; 0x23b
 8006b78:	f894 323a 	ldrb.w	r3, [r4, #570]	; 0x23a
 8006b7c:	ea43 2301 	orr.w	r3, r3, r1, lsl #8
 8006b80:	4293      	cmp	r3, r2
 8006b82:	f47f af22 	bne.w	80069ca <f_open+0x6e6>
 8006b86:	f894 303c 	ldrb.w	r3, [r4, #60]	; 0x3c
 8006b8a:	2be9      	cmp	r3, #233	; 0xe9
 8006b8c:	d006      	beq.n	8006b9c <f_open+0x8b8>
 8006b8e:	6be3      	ldr	r3, [r4, #60]	; 0x3c
 8006b90:	4a70      	ldr	r2, [pc, #448]	; (8006d54 <f_open+0xa70>)
 8006b92:	f003 13ff 	and.w	r3, r3, #16711935	; 0xff00ff
 8006b96:	4293      	cmp	r3, r2
 8006b98:	f47f af17 	bne.w	80069ca <f_open+0x6e6>
 8006b9c:	f8b4 1074 	ldrh.w	r1, [r4, #116]	; 0x74
 8006ba0:	f894 2073 	ldrb.w	r2, [r4, #115]	; 0x73
 8006ba4:	f894 3072 	ldrb.w	r3, [r4, #114]	; 0x72
 8006ba8:	ea42 2201 	orr.w	r2, r2, r1, lsl #8
 8006bac:	ea43 2302 	orr.w	r3, r3, r2, lsl #8
 8006bb0:	4a69      	ldr	r2, [pc, #420]	; (8006d58 <f_open+0xa74>)
 8006bb2:	f023 437f 	bic.w	r3, r3, #4278190080	; 0xff000000
 8006bb6:	4293      	cmp	r3, r2
 8006bb8:	f43f ac50 	beq.w	800645c <f_open+0x178>
 8006bbc:	f8b4 1090 	ldrh.w	r1, [r4, #144]	; 0x90
 8006bc0:	f894 208f 	ldrb.w	r2, [r4, #143]	; 0x8f
 8006bc4:	f894 308e 	ldrb.w	r3, [r4, #142]	; 0x8e
 8006bc8:	ea42 2201 	orr.w	r2, r2, r1, lsl #8
 8006bcc:	4963      	ldr	r1, [pc, #396]	; (8006d5c <f_open+0xa78>)
 8006bce:	ea43 2302 	orr.w	r3, r3, r2, lsl #8
 8006bd2:	428b      	cmp	r3, r1
 8006bd4:	f43f ac42 	beq.w	800645c <f_open+0x178>
 8006bd8:	e6f7      	b.n	80069ca <f_open+0x6e6>
 8006bda:	f04f 33ff 	mov.w	r3, #4294967295
 8006bde:	2200      	movs	r2, #0
 8006be0:	4598      	cmp	r8, r3
 8006be2:	70e2      	strb	r2, [r4, #3]
 8006be4:	63a3      	str	r3, [r4, #56]	; 0x38
 8006be6:	d011      	beq.n	8006c0c <f_open+0x928>
 8006be8:	4641      	mov	r1, r8
 8006bea:	4620      	mov	r0, r4
 8006bec:	f7fc fd06 	bl	80035fc <move_window.part.6>
 8006bf0:	2800      	cmp	r0, #0
 8006bf2:	f47f aee4 	bne.w	80069be <f_open+0x6da>
 8006bf6:	f64a 2255 	movw	r2, #43605	; 0xaa55
 8006bfa:	f894 123b 	ldrb.w	r1, [r4, #571]	; 0x23b
 8006bfe:	f894 323a 	ldrb.w	r3, [r4, #570]	; 0x23a
 8006c02:	ea43 2301 	orr.w	r3, r3, r1, lsl #8
 8006c06:	4293      	cmp	r3, r2
 8006c08:	f47f aed9 	bne.w	80069be <f_open+0x6da>
 8006c0c:	f894 303c 	ldrb.w	r3, [r4, #60]	; 0x3c
 8006c10:	2be9      	cmp	r3, #233	; 0xe9
 8006c12:	d006      	beq.n	8006c22 <f_open+0x93e>
 8006c14:	6be3      	ldr	r3, [r4, #60]	; 0x3c
 8006c16:	4a4f      	ldr	r2, [pc, #316]	; (8006d54 <f_open+0xa70>)
 8006c18:	f003 13ff 	and.w	r3, r3, #16711935	; 0xff00ff
 8006c1c:	4293      	cmp	r3, r2
 8006c1e:	f47f aece 	bne.w	80069be <f_open+0x6da>
 8006c22:	f8b4 1074 	ldrh.w	r1, [r4, #116]	; 0x74
 8006c26:	f894 2073 	ldrb.w	r2, [r4, #115]	; 0x73
 8006c2a:	f894 3072 	ldrb.w	r3, [r4, #114]	; 0x72
 8006c2e:	ea42 2201 	orr.w	r2, r2, r1, lsl #8
 8006c32:	ea43 2302 	orr.w	r3, r3, r2, lsl #8
 8006c36:	4a48      	ldr	r2, [pc, #288]	; (8006d58 <f_open+0xa74>)
 8006c38:	f023 437f 	bic.w	r3, r3, #4278190080	; 0xff000000
 8006c3c:	4293      	cmp	r3, r2
 8006c3e:	f43f ac0d 	beq.w	800645c <f_open+0x178>
 8006c42:	f8b4 1090 	ldrh.w	r1, [r4, #144]	; 0x90
 8006c46:	f894 208f 	ldrb.w	r2, [r4, #143]	; 0x8f
 8006c4a:	f894 308e 	ldrb.w	r3, [r4, #142]	; 0x8e
 8006c4e:	ea42 2201 	orr.w	r2, r2, r1, lsl #8
 8006c52:	4942      	ldr	r1, [pc, #264]	; (8006d5c <f_open+0xa78>)
 8006c54:	ea43 2302 	orr.w	r3, r3, r2, lsl #8
 8006c58:	428b      	cmp	r3, r1
 8006c5a:	f43f abff 	beq.w	800645c <f_open+0x178>
 8006c5e:	e6ae      	b.n	80069be <f_open+0x6da>
 8006c60:	4641      	mov	r1, r8
 8006c62:	4620      	mov	r0, r4
 8006c64:	f7fc fcca 	bl	80035fc <move_window.part.6>
 8006c68:	2800      	cmp	r0, #0
 8006c6a:	f43f aec0 	beq.w	80069ee <f_open+0x70a>
 8006c6e:	e4e6      	b.n	800663e <f_open+0x35a>
 8006c70:	4698      	mov	r8, r3
 8006c72:	e676      	b.n	8006962 <f_open+0x67e>
 8006c74:	4632      	mov	r2, r6
 8006c76:	b948      	cbnz	r0, 8006c8c <f_open+0x9a8>
 8006c78:	eb08 1202 	add.w	r2, r8, r2, lsl #4
 8006c7c:	8992      	ldrh	r2, [r2, #12]
 8006c7e:	f5b2 7f80 	cmp.w	r2, #256	; 0x100
 8006c82:	f47f ad2f 	bne.w	80066e4 <f_open+0x400>
 8006c86:	b94b      	cbnz	r3, 8006c9c <f_open+0x9b8>
 8006c88:	2610      	movs	r6, #16
 8006c8a:	e4c5      	b.n	8006618 <f_open+0x334>
 8006c8c:	b11b      	cbz	r3, 8006c96 <f_open+0x9b2>
 8006c8e:	2300      	movs	r3, #0
 8006c90:	2610      	movs	r6, #16
 8006c92:	602b      	str	r3, [r5, #0]
 8006c94:	e4d6      	b.n	8006644 <f_open+0x360>
 8006c96:	602b      	str	r3, [r5, #0]
 8006c98:	2610      	movs	r6, #16
 8006c9a:	e4d3      	b.n	8006644 <f_open+0x360>
 8006c9c:	6028      	str	r0, [r5, #0]
 8006c9e:	2610      	movs	r6, #16
 8006ca0:	e4d0      	b.n	8006644 <f_open+0x360>
 8006ca2:	2201      	movs	r2, #1
 8006ca4:	e7e7      	b.n	8006c76 <f_open+0x992>
 8006ca6:	6221      	str	r1, [r4, #32]
 8006ca8:	e9c4 820a 	strd	r8, r2, [r4, #40]	; 0x28
 8006cac:	f8c4 b034 	str.w	fp, [r4, #52]	; 0x34
 8006cb0:	f1be 0f00 	cmp.w	lr, #0
 8006cb4:	f43f aecd 	beq.w	8006a52 <f_open+0x76e>
 8006cb8:	f10c 33ff 	add.w	r3, ip, #4294967295
 8006cbc:	eb03 0141 	add.w	r1, r3, r1, lsl #1
 8006cc0:	fbb1 fcfc 	udiv	ip, r1, ip
 8006cc4:	444a      	add	r2, r9
 8006cc6:	4584      	cmp	ip, r0
 8006cc8:	6322      	str	r2, [r4, #48]	; 0x30
 8006cca:	f63f aec2 	bhi.w	8006a52 <f_open+0x76e>
 8006cce:	f04f 33ff 	mov.w	r3, #4294967295
 8006cd2:	2280      	movs	r2, #128	; 0x80
 8006cd4:	e9c4 3306 	strd	r3, r3, [r4, #24]
 8006cd8:	7122      	strb	r2, [r4, #4]
 8006cda:	2302      	movs	r3, #2
 8006cdc:	e459      	b.n	8006592 <f_open+0x2ae>
 8006cde:	f103 0902 	add.w	r9, r3, #2
 8006ce2:	f894 a067 	ldrb.w	sl, [r4, #103]	; 0x67
 8006ce6:	f894 3066 	ldrb.w	r3, [r4, #102]	; 0x66
 8006cea:	4442      	add	r2, r8
 8006cec:	4441      	add	r1, r8
 8006cee:	ea53 230a 	orrs.w	r3, r3, sl, lsl #8
 8006cf2:	f8c4 9020 	str.w	r9, [r4, #32]
 8006cf6:	62e2      	str	r2, [r4, #44]	; 0x2c
 8006cf8:	6361      	str	r1, [r4, #52]	; 0x34
 8006cfa:	f8c4 8028 	str.w	r8, [r4, #40]	; 0x28
 8006cfe:	f47f aea8 	bne.w	8006a52 <f_open+0x76e>
 8006d02:	f1be 0f00 	cmp.w	lr, #0
 8006d06:	f47f aea4 	bne.w	8006a52 <f_open+0x76e>
 8006d0a:	f10c 33ff 	add.w	r3, ip, #4294967295
 8006d0e:	eb03 0389 	add.w	r3, r3, r9, lsl #2
 8006d12:	fbb3 fcfc 	udiv	ip, r3, ip
 8006d16:	f8b4 106a 	ldrh.w	r1, [r4, #106]	; 0x6a
 8006d1a:	f894 2069 	ldrb.w	r2, [r4, #105]	; 0x69
 8006d1e:	f894 3068 	ldrb.w	r3, [r4, #104]	; 0x68
 8006d22:	ea42 2201 	orr.w	r2, r2, r1, lsl #8
 8006d26:	ea43 2302 	orr.w	r3, r3, r2, lsl #8
 8006d2a:	4584      	cmp	ip, r0
 8006d2c:	6323      	str	r3, [r4, #48]	; 0x30
 8006d2e:	f63f ae90 	bhi.w	8006a52 <f_open+0x76e>
 8006d32:	f04f 32ff 	mov.w	r2, #4294967295
 8006d36:	2180      	movs	r1, #128	; 0x80
 8006d38:	f894 006d 	ldrb.w	r0, [r4, #109]	; 0x6d
 8006d3c:	f894 306c 	ldrb.w	r3, [r4, #108]	; 0x6c
 8006d40:	61e2      	str	r2, [r4, #28]
 8006d42:	ea43 2300 	orr.w	r3, r3, r0, lsl #8
 8006d46:	2b01      	cmp	r3, #1
 8006d48:	61a2      	str	r2, [r4, #24]
 8006d4a:	7121      	strb	r1, [r4, #4]
 8006d4c:	d00a      	beq.n	8006d64 <f_open+0xa80>
 8006d4e:	2303      	movs	r3, #3
 8006d50:	e41f      	b.n	8006592 <f_open+0x2ae>
 8006d52:	bf00      	nop
 8006d54:	009000eb 	.word	0x009000eb
 8006d58:	00544146 	.word	0x00544146
 8006d5c:	33544146 	.word	0x33544146
 8006d60:	2000028c 	.word	0x2000028c
 8006d64:	6ba3      	ldr	r3, [r4, #56]	; 0x38
 8006d66:	f108 0101 	add.w	r1, r8, #1
 8006d6a:	4299      	cmp	r1, r3
 8006d6c:	d13d      	bne.n	8006dea <f_open+0xb06>
 8006d6e:	f64a 2255 	movw	r2, #43605	; 0xaa55
 8006d72:	2000      	movs	r0, #0
 8006d74:	f894 123b 	ldrb.w	r1, [r4, #571]	; 0x23b
 8006d78:	f894 323a 	ldrb.w	r3, [r4, #570]	; 0x23a
 8006d7c:	7120      	strb	r0, [r4, #4]
 8006d7e:	ea43 2301 	orr.w	r3, r3, r1, lsl #8
 8006d82:	4293      	cmp	r3, r2
 8006d84:	d1e3      	bne.n	8006d4e <f_open+0xa6a>
 8006d86:	8fe1      	ldrh	r1, [r4, #62]	; 0x3e
 8006d88:	f894 203d 	ldrb.w	r2, [r4, #61]	; 0x3d
 8006d8c:	f894 303c 	ldrb.w	r3, [r4, #60]	; 0x3c
 8006d90:	ea42 2201 	orr.w	r2, r2, r1, lsl #8
 8006d94:	4918      	ldr	r1, [pc, #96]	; (8006df8 <f_open+0xb14>)
 8006d96:	ea43 2302 	orr.w	r3, r3, r2, lsl #8
 8006d9a:	428b      	cmp	r3, r1
 8006d9c:	d1d7      	bne.n	8006d4e <f_open+0xa6a>
 8006d9e:	f8b4 1222 	ldrh.w	r1, [r4, #546]	; 0x222
 8006da2:	f894 2221 	ldrb.w	r2, [r4, #545]	; 0x221
 8006da6:	f894 3220 	ldrb.w	r3, [r4, #544]	; 0x220
 8006daa:	ea42 2201 	orr.w	r2, r2, r1, lsl #8
 8006dae:	4913      	ldr	r1, [pc, #76]	; (8006dfc <f_open+0xb18>)
 8006db0:	ea43 2302 	orr.w	r3, r3, r2, lsl #8
 8006db4:	428b      	cmp	r3, r1
 8006db6:	d1ca      	bne.n	8006d4e <f_open+0xa6a>
 8006db8:	f8b4 1226 	ldrh.w	r1, [r4, #550]	; 0x226
 8006dbc:	f894 2225 	ldrb.w	r2, [r4, #549]	; 0x225
 8006dc0:	f894 3229 	ldrb.w	r3, [r4, #553]	; 0x229
 8006dc4:	ea42 2201 	orr.w	r2, r2, r1, lsl #8
 8006dc8:	f8b4 022a 	ldrh.w	r0, [r4, #554]	; 0x22a
 8006dcc:	f894 1224 	ldrb.w	r1, [r4, #548]	; 0x224
 8006dd0:	ea41 2102 	orr.w	r1, r1, r2, lsl #8
 8006dd4:	ea43 2200 	orr.w	r2, r3, r0, lsl #8
 8006dd8:	f894 3228 	ldrb.w	r3, [r4, #552]	; 0x228
 8006ddc:	61e1      	str	r1, [r4, #28]
 8006dde:	ea43 2302 	orr.w	r3, r3, r2, lsl #8
 8006de2:	61a3      	str	r3, [r4, #24]
 8006de4:	2303      	movs	r3, #3
 8006de6:	f7ff bbd4 	b.w	8006592 <f_open+0x2ae>
 8006dea:	4620      	mov	r0, r4
 8006dec:	f7fc fc06 	bl	80035fc <move_window.part.6>
 8006df0:	2800      	cmp	r0, #0
 8006df2:	d0bc      	beq.n	8006d6e <f_open+0xa8a>
 8006df4:	e7ab      	b.n	8006d4e <f_open+0xa6a>
 8006df6:	bf00      	nop
 8006df8:	41615252 	.word	0x41615252
 8006dfc:	61417272 	.word	0x61417272

08006e00 <f_read>:
 8006e00:	e92d 4ff0 	stmdb	sp!, {r4, r5, r6, r7, r8, r9, sl, fp, lr}
 8006e04:	461f      	mov	r7, r3
 8006e06:	2300      	movs	r3, #0
 8006e08:	b089      	sub	sp, #36	; 0x24
 8006e0a:	603b      	str	r3, [r7, #0]
 8006e0c:	b150      	cbz	r0, 8006e24 <f_read+0x24>
 8006e0e:	6803      	ldr	r3, [r0, #0]
 8006e10:	4604      	mov	r4, r0
 8006e12:	b13b      	cbz	r3, 8006e24 <f_read+0x24>
 8006e14:	4689      	mov	r9, r1
 8006e16:	7819      	ldrb	r1, [r3, #0]
 8006e18:	b121      	cbz	r1, 8006e24 <f_read+0x24>
 8006e1a:	4693      	mov	fp, r2
 8006e1c:	8881      	ldrh	r1, [r0, #4]
 8006e1e:	88da      	ldrh	r2, [r3, #6]
 8006e20:	4291      	cmp	r1, r2
 8006e22:	d004      	beq.n	8006e2e <f_read+0x2e>
 8006e24:	2509      	movs	r5, #9
 8006e26:	4628      	mov	r0, r5
 8006e28:	b009      	add	sp, #36	; 0x24
 8006e2a:	e8bd 8ff0 	ldmia.w	sp!, {r4, r5, r6, r7, r8, r9, sl, fp, pc}
 8006e2e:	6958      	ldr	r0, [r3, #20]
 8006e30:	f001 fa5c 	bl	80082ec <ff_req_grant>
 8006e34:	b908      	cbnz	r0, 8006e3a <f_read+0x3a>
 8006e36:	250f      	movs	r5, #15
 8006e38:	e7f5      	b.n	8006e26 <f_read+0x26>
 8006e3a:	6823      	ldr	r3, [r4, #0]
 8006e3c:	7858      	ldrb	r0, [r3, #1]
 8006e3e:	f7fc fb99 	bl	8003574 <disk_status>
 8006e42:	07c1      	lsls	r1, r0, #31
 8006e44:	d506      	bpl.n	8006e54 <f_read+0x54>
 8006e46:	6823      	ldr	r3, [r4, #0]
 8006e48:	2b00      	cmp	r3, #0
 8006e4a:	d0eb      	beq.n	8006e24 <f_read+0x24>
 8006e4c:	6958      	ldr	r0, [r3, #20]
 8006e4e:	f001 fa57 	bl	8008300 <ff_rel_grant>
 8006e52:	e7e7      	b.n	8006e24 <f_read+0x24>
 8006e54:	7d65      	ldrb	r5, [r4, #21]
 8006e56:	6826      	ldr	r6, [r4, #0]
 8006e58:	b175      	cbz	r5, 8006e78 <f_read+0x78>
 8006e5a:	2e00      	cmp	r6, #0
 8006e5c:	d0e3      	beq.n	8006e26 <f_read+0x26>
 8006e5e:	2d0c      	cmp	r5, #12
 8006e60:	d0e1      	beq.n	8006e26 <f_read+0x26>
 8006e62:	2d0b      	cmp	r5, #11
 8006e64:	d0df      	beq.n	8006e26 <f_read+0x26>
 8006e66:	2d0f      	cmp	r5, #15
 8006e68:	d0dd      	beq.n	8006e26 <f_read+0x26>
 8006e6a:	6970      	ldr	r0, [r6, #20]
 8006e6c:	f001 fa48 	bl	8008300 <ff_rel_grant>
 8006e70:	4628      	mov	r0, r5
 8006e72:	b009      	add	sp, #36	; 0x24
 8006e74:	e8bd 8ff0 	ldmia.w	sp!, {r4, r5, r6, r7, r8, r9, sl, fp, pc}
 8006e78:	7d23      	ldrb	r3, [r4, #20]
 8006e7a:	07da      	lsls	r2, r3, #31
 8006e7c:	d407      	bmi.n	8006e8e <f_read+0x8e>
 8006e7e:	2e00      	cmp	r6, #0
 8006e80:	f000 8115 	beq.w	80070ae <f_read+0x2ae>
 8006e84:	6970      	ldr	r0, [r6, #20]
 8006e86:	f001 fa3b 	bl	8008300 <ff_rel_grant>
 8006e8a:	2507      	movs	r5, #7
 8006e8c:	e7cb      	b.n	8006e26 <f_read+0x26>
 8006e8e:	69a0      	ldr	r0, [r4, #24]
 8006e90:	68e2      	ldr	r2, [r4, #12]
 8006e92:	1a12      	subs	r2, r2, r0
 8006e94:	4593      	cmp	fp, r2
 8006e96:	bf28      	it	cs
 8006e98:	4693      	movcs	fp, r2
 8006e9a:	f1bb 0f00 	cmp.w	fp, #0
 8006e9e:	f000 81bd 	beq.w	800721c <f_read+0x41c>
 8006ea2:	f104 0330 	add.w	r3, r4, #48	; 0x30
 8006ea6:	9301      	str	r3, [sp, #4]
 8006ea8:	425b      	negs	r3, r3
 8006eaa:	f003 0303 	and.w	r3, r3, #3
 8006eae:	9304      	str	r3, [sp, #16]
 8006eb0:	89b1      	ldrh	r1, [r6, #12]
 8006eb2:	f104 0334 	add.w	r3, r4, #52	; 0x34
 8006eb6:	9305      	str	r3, [sp, #20]
 8006eb8:	9503      	str	r5, [sp, #12]
 8006eba:	fbb0 f2f1 	udiv	r2, r0, r1
 8006ebe:	fb01 0312 	mls	r3, r1, r2, r0
 8006ec2:	2b00      	cmp	r3, #0
 8006ec4:	d149      	bne.n	8006f5a <f_read+0x15a>
 8006ec6:	f8b6 a00a 	ldrh.w	sl, [r6, #10]
 8006eca:	f10a 3aff 	add.w	sl, sl, #4294967295
 8006ece:	ea1a 0a02 	ands.w	sl, sl, r2
 8006ed2:	f000 80c4 	beq.w	800705e <f_read+0x25e>
 8006ed6:	69e0      	ldr	r0, [r4, #28]
 8006ed8:	6a33      	ldr	r3, [r6, #32]
 8006eda:	3802      	subs	r0, #2
 8006edc:	3b02      	subs	r3, #2
 8006ede:	4298      	cmp	r0, r3
 8006ee0:	f080 80dd 	bcs.w	800709e <f_read+0x29e>
 8006ee4:	8973      	ldrh	r3, [r6, #10]
 8006ee6:	6b72      	ldr	r2, [r6, #52]	; 0x34
 8006ee8:	fb03 2000 	mla	r0, r3, r0, r2
 8006eec:	2800      	cmp	r0, #0
 8006eee:	f000 80d6 	beq.w	800709e <f_read+0x29e>
 8006ef2:	89b1      	ldrh	r1, [r6, #12]
 8006ef4:	eb0a 0800 	add.w	r8, sl, r0
 8006ef8:	fbbb f2f1 	udiv	r2, fp, r1
 8006efc:	9202      	str	r2, [sp, #8]
 8006efe:	b1a2      	cbz	r2, 8006f2a <f_read+0x12a>
 8006f00:	4452      	add	r2, sl
 8006f02:	429a      	cmp	r2, r3
 8006f04:	bf84      	itt	hi
 8006f06:	eba3 030a 	subhi.w	r3, r3, sl
 8006f0a:	9302      	strhi	r3, [sp, #8]
 8006f0c:	9b02      	ldr	r3, [sp, #8]
 8006f0e:	4642      	mov	r2, r8
 8006f10:	4649      	mov	r1, r9
 8006f12:	7870      	ldrb	r0, [r6, #1]
 8006f14:	f7fc fb48 	bl	80035a8 <disk_read>
 8006f18:	2800      	cmp	r0, #0
 8006f1a:	f000 80ca 	beq.w	80070b2 <f_read+0x2b2>
 8006f1e:	2501      	movs	r5, #1
 8006f20:	7565      	strb	r5, [r4, #21]
 8006f22:	6970      	ldr	r0, [r6, #20]
 8006f24:	f001 f9ec 	bl	8008300 <ff_rel_grant>
 8006f28:	e77d      	b.n	8006e26 <f_read+0x26>
 8006f2a:	6a22      	ldr	r2, [r4, #32]
 8006f2c:	4542      	cmp	r2, r8
 8006f2e:	d00d      	beq.n	8006f4c <f_read+0x14c>
 8006f30:	f994 3014 	ldrsb.w	r3, [r4, #20]
 8006f34:	7870      	ldrb	r0, [r6, #1]
 8006f36:	2b00      	cmp	r3, #0
 8006f38:	f2c0 80d7 	blt.w	80070ea <f_read+0x2ea>
 8006f3c:	2301      	movs	r3, #1
 8006f3e:	4642      	mov	r2, r8
 8006f40:	9901      	ldr	r1, [sp, #4]
 8006f42:	f7fc fb31 	bl	80035a8 <disk_read>
 8006f46:	2800      	cmp	r0, #0
 8006f48:	d1e9      	bne.n	8006f1e <f_read+0x11e>
 8006f4a:	89b1      	ldrh	r1, [r6, #12]
 8006f4c:	69a0      	ldr	r0, [r4, #24]
 8006f4e:	f8c4 8020 	str.w	r8, [r4, #32]
 8006f52:	fbb0 f3f1 	udiv	r3, r0, r1
 8006f56:	fb01 0313 	mls	r3, r1, r3, r0
 8006f5a:	1aca      	subs	r2, r1, r3
 8006f5c:	455a      	cmp	r2, fp
 8006f5e:	d804      	bhi.n	8006f6a <f_read+0x16a>
 8006f60:	2a00      	cmp	r2, #0
 8006f62:	f040 816e 	bne.w	8007242 <f_read+0x442>
 8006f66:	61a0      	str	r0, [r4, #24]
 8006f68:	e7a7      	b.n	8006eba <f_read+0xba>
 8006f6a:	2200      	movs	r2, #0
 8006f6c:	9202      	str	r2, [sp, #8]
 8006f6e:	9901      	ldr	r1, [sp, #4]
 8006f70:	1d1a      	adds	r2, r3, #4
 8006f72:	440a      	add	r2, r1
 8006f74:	18c8      	adds	r0, r1, r3
 8006f76:	f109 0104 	add.w	r1, r9, #4
 8006f7a:	4288      	cmp	r0, r1
 8006f7c:	bf38      	it	cc
 8006f7e:	4591      	cmpcc	r9, r2
 8006f80:	f0c0 80a8 	bcc.w	80070d4 <f_read+0x2d4>
 8006f84:	f1bb 0f0b 	cmp.w	fp, #11
 8006f88:	f240 80a4 	bls.w	80070d4 <f_read+0x2d4>
 8006f8c:	4242      	negs	r2, r0
 8006f8e:	f012 0203 	ands.w	r2, r2, #3
 8006f92:	f10b 3cff 	add.w	ip, fp, #4294967295
 8006f96:	f000 809a 	beq.w	80070ce <f_read+0x2ce>
 8006f9a:	7805      	ldrb	r5, [r0, #0]
 8006f9c:	2a01      	cmp	r2, #1
 8006f9e:	f100 0101 	add.w	r1, r0, #1
 8006fa2:	f889 5000 	strb.w	r5, [r9]
 8006fa6:	f109 0a01 	add.w	sl, r9, #1
 8006faa:	d07e      	beq.n	80070aa <f_read+0x2aa>
 8006fac:	7845      	ldrb	r5, [r0, #1]
 8006fae:	2a03      	cmp	r2, #3
 8006fb0:	f100 0102 	add.w	r1, r0, #2
 8006fb4:	f889 5001 	strb.w	r5, [r9, #1]
 8006fb8:	f109 0a02 	add.w	sl, r9, #2
 8006fbc:	f1ab 0c02 	sub.w	ip, fp, #2
 8006fc0:	d173      	bne.n	80070aa <f_read+0x2aa>
 8006fc2:	7881      	ldrb	r1, [r0, #2]
 8006fc4:	f109 0a03 	add.w	sl, r9, #3
 8006fc8:	f889 1002 	strb.w	r1, [r9, #2]
 8006fcc:	3003      	adds	r0, #3
 8006fce:	f1ab 0c03 	sub.w	ip, fp, #3
 8006fd2:	2100      	movs	r1, #0
 8006fd4:	9d01      	ldr	r5, [sp, #4]
 8006fd6:	4413      	add	r3, r2
 8006fd8:	ebab 0802 	sub.w	r8, fp, r2
 8006fdc:	442b      	add	r3, r5
 8006fde:	444a      	add	r2, r9
 8006fe0:	ea4f 0e98 	mov.w	lr, r8, lsr #2
 8006fe4:	f853 5b04 	ldr.w	r5, [r3], #4
 8006fe8:	3101      	adds	r1, #1
 8006fea:	458e      	cmp	lr, r1
 8006fec:	f842 5b04 	str.w	r5, [r2], #4
 8006ff0:	d8f8      	bhi.n	8006fe4 <f_read+0x1e4>
 8006ff2:	f028 0303 	bic.w	r3, r8, #3
 8006ff6:	4598      	cmp	r8, r3
 8006ff8:	ebac 0c03 	sub.w	ip, ip, r3
 8006ffc:	eb0a 0203 	add.w	r2, sl, r3
 8007000:	eb00 0103 	add.w	r1, r0, r3
 8007004:	d01b      	beq.n	800703e <f_read+0x23e>
 8007006:	5cc0      	ldrb	r0, [r0, r3]
 8007008:	f1bc 0f01 	cmp.w	ip, #1
 800700c:	f80a 0003 	strb.w	r0, [sl, r3]
 8007010:	d015      	beq.n	800703e <f_read+0x23e>
 8007012:	784b      	ldrb	r3, [r1, #1]
 8007014:	f1bc 0f02 	cmp.w	ip, #2
 8007018:	7053      	strb	r3, [r2, #1]
 800701a:	d010      	beq.n	800703e <f_read+0x23e>
 800701c:	788b      	ldrb	r3, [r1, #2]
 800701e:	f1bc 0f03 	cmp.w	ip, #3
 8007022:	7093      	strb	r3, [r2, #2]
 8007024:	d00b      	beq.n	800703e <f_read+0x23e>
 8007026:	78cb      	ldrb	r3, [r1, #3]
 8007028:	f1bc 0f04 	cmp.w	ip, #4
 800702c:	70d3      	strb	r3, [r2, #3]
 800702e:	d006      	beq.n	800703e <f_read+0x23e>
 8007030:	790b      	ldrb	r3, [r1, #4]
 8007032:	f1bc 0f05 	cmp.w	ip, #5
 8007036:	7113      	strb	r3, [r2, #4]
 8007038:	d001      	beq.n	800703e <f_read+0x23e>
 800703a:	794b      	ldrb	r3, [r1, #5]
 800703c:	7153      	strb	r3, [r2, #5]
 800703e:	44d9      	add	r9, fp
 8007040:	465b      	mov	r3, fp
 8007042:	69a0      	ldr	r0, [r4, #24]
 8007044:	f8dd b008 	ldr.w	fp, [sp, #8]
 8007048:	6839      	ldr	r1, [r7, #0]
 800704a:	4418      	add	r0, r3
 800704c:	4419      	add	r1, r3
 800704e:	61a0      	str	r0, [r4, #24]
 8007050:	6039      	str	r1, [r7, #0]
 8007052:	f1bb 0f00 	cmp.w	fp, #0
 8007056:	f000 80df 	beq.w	8007218 <f_read+0x418>
 800705a:	89b1      	ldrh	r1, [r6, #12]
 800705c:	e72d      	b.n	8006eba <f_read+0xba>
 800705e:	b938      	cbnz	r0, 8007070 <f_read+0x270>
 8007060:	68a0      	ldr	r0, [r4, #8]
 8007062:	2801      	cmp	r0, #1
 8007064:	d91b      	bls.n	800709e <f_read+0x29e>
 8007066:	1c43      	adds	r3, r0, #1
 8007068:	f43f af59 	beq.w	8006f1e <f_read+0x11e>
 800706c:	61e0      	str	r0, [r4, #28]
 800706e:	e733      	b.n	8006ed8 <f_read+0xd8>
 8007070:	6ae2      	ldr	r2, [r4, #44]	; 0x2c
 8007072:	6821      	ldr	r1, [r4, #0]
 8007074:	2a00      	cmp	r2, #0
 8007076:	d048      	beq.n	800710a <f_read+0x30a>
 8007078:	898b      	ldrh	r3, [r1, #12]
 800707a:	8949      	ldrh	r1, [r1, #10]
 800707c:	fbb0 f0f3 	udiv	r0, r0, r3
 8007080:	6853      	ldr	r3, [r2, #4]
 8007082:	fbb0 f0f1 	udiv	r0, r0, r1
 8007086:	3204      	adds	r2, #4
 8007088:	b14b      	cbz	r3, 800709e <f_read+0x29e>
 800708a:	4298      	cmp	r0, r3
 800708c:	d202      	bcs.n	8007094 <f_read+0x294>
 800708e:	e039      	b.n	8007104 <f_read+0x304>
 8007090:	4283      	cmp	r3, r0
 8007092:	d837      	bhi.n	8007104 <f_read+0x304>
 8007094:	1ac0      	subs	r0, r0, r3
 8007096:	f852 3f08 	ldr.w	r3, [r2, #8]!
 800709a:	2b00      	cmp	r3, #0
 800709c:	d1f8      	bne.n	8007090 <f_read+0x290>
 800709e:	2502      	movs	r5, #2
 80070a0:	7565      	strb	r5, [r4, #21]
 80070a2:	6970      	ldr	r0, [r6, #20]
 80070a4:	f001 f92c 	bl	8008300 <ff_rel_grant>
 80070a8:	e6bd      	b.n	8006e26 <f_read+0x26>
 80070aa:	4608      	mov	r0, r1
 80070ac:	e791      	b.n	8006fd2 <f_read+0x1d2>
 80070ae:	2507      	movs	r5, #7
 80070b0:	e6b9      	b.n	8006e26 <f_read+0x26>
 80070b2:	f994 3014 	ldrsb.w	r3, [r4, #20]
 80070b6:	89b1      	ldrh	r1, [r6, #12]
 80070b8:	2b00      	cmp	r3, #0
 80070ba:	9106      	str	r1, [sp, #24]
 80070bc:	db2a      	blt.n	8007114 <f_read+0x314>
 80070be:	9b02      	ldr	r3, [sp, #8]
 80070c0:	69a0      	ldr	r0, [r4, #24]
 80070c2:	fb03 f301 	mul.w	r3, r3, r1
 80070c6:	4499      	add	r9, r3
 80070c8:	ebab 0b03 	sub.w	fp, fp, r3
 80070cc:	e7bc      	b.n	8007048 <f_read+0x248>
 80070ce:	46ca      	mov	sl, r9
 80070d0:	46dc      	mov	ip, fp
 80070d2:	e77e      	b.n	8006fd2 <f_read+0x1d2>
 80070d4:	f109 33ff 	add.w	r3, r9, #4294967295
 80070d8:	eb00 010b 	add.w	r1, r0, fp
 80070dc:	f810 2b01 	ldrb.w	r2, [r0], #1
 80070e0:	4288      	cmp	r0, r1
 80070e2:	f803 2f01 	strb.w	r2, [r3, #1]!
 80070e6:	d1f9      	bne.n	80070dc <f_read+0x2dc>
 80070e8:	e7a9      	b.n	800703e <f_read+0x23e>
 80070ea:	2301      	movs	r3, #1
 80070ec:	9901      	ldr	r1, [sp, #4]
 80070ee:	f7fc fa69 	bl	80035c4 <disk_write>
 80070f2:	2800      	cmp	r0, #0
 80070f4:	f47f af13 	bne.w	8006f1e <f_read+0x11e>
 80070f8:	7d23      	ldrb	r3, [r4, #20]
 80070fa:	f003 037f 	and.w	r3, r3, #127	; 0x7f
 80070fe:	7523      	strb	r3, [r4, #20]
 8007100:	7870      	ldrb	r0, [r6, #1]
 8007102:	e71b      	b.n	8006f3c <f_read+0x13c>
 8007104:	6853      	ldr	r3, [r2, #4]
 8007106:	4418      	add	r0, r3
 8007108:	e7ab      	b.n	8007062 <f_read+0x262>
 800710a:	4608      	mov	r0, r1
 800710c:	69e1      	ldr	r1, [r4, #28]
 800710e:	f7fd f90d 	bl	800432c <get_fat.isra.9>
 8007112:	e7a6      	b.n	8007062 <f_read+0x262>
 8007114:	6a23      	ldr	r3, [r4, #32]
 8007116:	eba3 0808 	sub.w	r8, r3, r8
 800711a:	9b02      	ldr	r3, [sp, #8]
 800711c:	4598      	cmp	r8, r3
 800711e:	d2ce      	bcs.n	80070be <f_read+0x2be>
 8007120:	2900      	cmp	r1, #0
 8007122:	d0cc      	beq.n	80070be <f_read+0x2be>
 8007124:	fb01 f808 	mul.w	r8, r1, r8
 8007128:	9a01      	ldr	r2, [sp, #4]
 800712a:	f108 0304 	add.w	r3, r8, #4
 800712e:	9d05      	ldr	r5, [sp, #20]
 8007130:	444b      	add	r3, r9
 8007132:	eb09 0008 	add.w	r0, r9, r8
 8007136:	42a8      	cmp	r0, r5
 8007138:	bf38      	it	cc
 800713a:	429a      	cmpcc	r2, r3
 800713c:	4694      	mov	ip, r2
 800713e:	d374      	bcc.n	800722a <f_read+0x42a>
 8007140:	290b      	cmp	r1, #11
 8007142:	d972      	bls.n	800722a <f_read+0x42a>
 8007144:	9a04      	ldr	r2, [sp, #16]
 8007146:	f101 3aff 	add.w	sl, r1, #4294967295
 800714a:	4613      	mov	r3, r2
 800714c:	3303      	adds	r3, #3
 800714e:	4553      	cmp	r3, sl
 8007150:	46d6      	mov	lr, sl
 8007152:	d841      	bhi.n	80071d8 <f_read+0x3d8>
 8007154:	2a00      	cmp	r2, #0
 8007156:	d065      	beq.n	8007224 <f_read+0x424>
 8007158:	f894 3030 	ldrb.w	r3, [r4, #48]	; 0x30
 800715c:	2a01      	cmp	r2, #1
 800715e:	7003      	strb	r3, [r0, #0]
 8007160:	f100 0301 	add.w	r3, r0, #1
 8007164:	f104 0c31 	add.w	ip, r4, #49	; 0x31
 8007168:	9307      	str	r3, [sp, #28]
 800716a:	d015      	beq.n	8007198 <f_read+0x398>
 800716c:	f894 3031 	ldrb.w	r3, [r4, #49]	; 0x31
 8007170:	2a03      	cmp	r2, #3
 8007172:	7043      	strb	r3, [r0, #1]
 8007174:	f100 0302 	add.w	r3, r0, #2
 8007178:	f104 0c32 	add.w	ip, r4, #50	; 0x32
 800717c:	9307      	str	r3, [sp, #28]
 800717e:	f1a1 0a02 	sub.w	sl, r1, #2
 8007182:	d109      	bne.n	8007198 <f_read+0x398>
 8007184:	1cc2      	adds	r2, r0, #3
 8007186:	f894 3032 	ldrb.w	r3, [r4, #50]	; 0x32
 800718a:	9207      	str	r2, [sp, #28]
 800718c:	9a04      	ldr	r2, [sp, #16]
 800718e:	7083      	strb	r3, [r0, #2]
 8007190:	f104 0c33 	add.w	ip, r4, #51	; 0x33
 8007194:	f1a1 0a03 	sub.w	sl, r1, #3
 8007198:	1a8b      	subs	r3, r1, r2
 800719a:	4611      	mov	r1, r2
 800719c:	2000      	movs	r0, #0
 800719e:	469e      	mov	lr, r3
 80071a0:	4442      	add	r2, r8
 80071a2:	3130      	adds	r1, #48	; 0x30
 80071a4:	9d02      	ldr	r5, [sp, #8]
 80071a6:	444a      	add	r2, r9
 80071a8:	ea4f 0893 	mov.w	r8, r3, lsr #2
 80071ac:	4421      	add	r1, r4
 80071ae:	f851 3b04 	ldr.w	r3, [r1], #4
 80071b2:	3001      	adds	r0, #1
 80071b4:	4580      	cmp	r8, r0
 80071b6:	f842 3b04 	str.w	r3, [r2], #4
 80071ba:	d8f8      	bhi.n	80071ae <f_read+0x3ae>
 80071bc:	9a07      	ldr	r2, [sp, #28]
 80071be:	f02e 0103 	bic.w	r1, lr, #3
 80071c2:	9502      	str	r5, [sp, #8]
 80071c4:	440a      	add	r2, r1
 80071c6:	ebaa 0501 	sub.w	r5, sl, r1
 80071ca:	4571      	cmp	r1, lr
 80071cc:	9506      	str	r5, [sp, #24]
 80071ce:	4610      	mov	r0, r2
 80071d0:	448c      	add	ip, r1
 80071d2:	d01f      	beq.n	8007214 <f_read+0x414>
 80071d4:	f105 3eff 	add.w	lr, r5, #4294967295
 80071d8:	f89c 3000 	ldrb.w	r3, [ip]
 80071dc:	7003      	strb	r3, [r0, #0]
 80071de:	f1be 0f00 	cmp.w	lr, #0
 80071e2:	d017      	beq.n	8007214 <f_read+0x414>
 80071e4:	9a06      	ldr	r2, [sp, #24]
 80071e6:	f89c 3001 	ldrb.w	r3, [ip, #1]
 80071ea:	2a02      	cmp	r2, #2
 80071ec:	7043      	strb	r3, [r0, #1]
 80071ee:	d011      	beq.n	8007214 <f_read+0x414>
 80071f0:	f89c 3002 	ldrb.w	r3, [ip, #2]
 80071f4:	2a03      	cmp	r2, #3
 80071f6:	7083      	strb	r3, [r0, #2]
 80071f8:	d00c      	beq.n	8007214 <f_read+0x414>
 80071fa:	f89c 3003 	ldrb.w	r3, [ip, #3]
 80071fe:	2a04      	cmp	r2, #4
 8007200:	70c3      	strb	r3, [r0, #3]
 8007202:	d007      	beq.n	8007214 <f_read+0x414>
 8007204:	f89c 3004 	ldrb.w	r3, [ip, #4]
 8007208:	2a05      	cmp	r2, #5
 800720a:	7103      	strb	r3, [r0, #4]
 800720c:	d002      	beq.n	8007214 <f_read+0x414>
 800720e:	f89c 3005 	ldrb.w	r3, [ip, #5]
 8007212:	7143      	strb	r3, [r0, #5]
 8007214:	89b1      	ldrh	r1, [r6, #12]
 8007216:	e752      	b.n	80070be <f_read+0x2be>
 8007218:	9d03      	ldr	r5, [sp, #12]
 800721a:	e626      	b.n	8006e6a <f_read+0x6a>
 800721c:	2e00      	cmp	r6, #0
 800721e:	f43f ae02 	beq.w	8006e26 <f_read+0x26>
 8007222:	e622      	b.n	8006e6a <f_read+0x6a>
 8007224:	9007      	str	r0, [sp, #28]
 8007226:	468a      	mov	sl, r1
 8007228:	e7b6      	b.n	8007198 <f_read+0x398>
 800722a:	9b01      	ldr	r3, [sp, #4]
 800722c:	9d02      	ldr	r5, [sp, #8]
 800722e:	3801      	subs	r0, #1
 8007230:	440b      	add	r3, r1
 8007232:	f81c 2b01 	ldrb.w	r2, [ip], #1
 8007236:	4563      	cmp	r3, ip
 8007238:	f800 2f01 	strb.w	r2, [r0, #1]!
 800723c:	d1f9      	bne.n	8007232 <f_read+0x432>
 800723e:	9502      	str	r5, [sp, #8]
 8007240:	e7e8      	b.n	8007214 <f_read+0x414>
 8007242:	ebab 0102 	sub.w	r1, fp, r2
 8007246:	9102      	str	r1, [sp, #8]
 8007248:	4693      	mov	fp, r2
 800724a:	e690      	b.n	8006f6e <f_read+0x16e>

0800724c <f_write>:
 800724c:	e92d 4ff0 	stmdb	sp!, {r4, r5, r6, r7, r8, r9, sl, fp, lr}
 8007250:	4698      	mov	r8, r3
 8007252:	2300      	movs	r3, #0
 8007254:	b087      	sub	sp, #28
 8007256:	f8c8 3000 	str.w	r3, [r8]
 800725a:	b150      	cbz	r0, 8007272 <f_write+0x26>
 800725c:	6803      	ldr	r3, [r0, #0]
 800725e:	4604      	mov	r4, r0
 8007260:	b13b      	cbz	r3, 8007272 <f_write+0x26>
 8007262:	4616      	mov	r6, r2
 8007264:	781a      	ldrb	r2, [r3, #0]
 8007266:	b122      	cbz	r2, 8007272 <f_write+0x26>
 8007268:	468b      	mov	fp, r1
 800726a:	88da      	ldrh	r2, [r3, #6]
 800726c:	8881      	ldrh	r1, [r0, #4]
 800726e:	4291      	cmp	r1, r2
 8007270:	d004      	beq.n	800727c <f_write+0x30>
 8007272:	2509      	movs	r5, #9
 8007274:	4628      	mov	r0, r5
 8007276:	b007      	add	sp, #28
 8007278:	e8bd 8ff0 	ldmia.w	sp!, {r4, r5, r6, r7, r8, r9, sl, fp, pc}
 800727c:	6958      	ldr	r0, [r3, #20]
 800727e:	f001 f835 	bl	80082ec <ff_req_grant>
 8007282:	b908      	cbnz	r0, 8007288 <f_write+0x3c>
 8007284:	250f      	movs	r5, #15
 8007286:	e7f5      	b.n	8007274 <f_write+0x28>
 8007288:	6823      	ldr	r3, [r4, #0]
 800728a:	7858      	ldrb	r0, [r3, #1]
 800728c:	f7fc f972 	bl	8003574 <disk_status>
 8007290:	07c1      	lsls	r1, r0, #31
 8007292:	d506      	bpl.n	80072a2 <f_write+0x56>
 8007294:	6823      	ldr	r3, [r4, #0]
 8007296:	2b00      	cmp	r3, #0
 8007298:	d0eb      	beq.n	8007272 <f_write+0x26>
 800729a:	6958      	ldr	r0, [r3, #20]
 800729c:	f001 f830 	bl	8008300 <ff_rel_grant>
 80072a0:	e7e7      	b.n	8007272 <f_write+0x26>
 80072a2:	7d65      	ldrb	r5, [r4, #21]
 80072a4:	6827      	ldr	r7, [r4, #0]
 80072a6:	b14d      	cbz	r5, 80072bc <f_write+0x70>
 80072a8:	2f00      	cmp	r7, #0
 80072aa:	d0e3      	beq.n	8007274 <f_write+0x28>
 80072ac:	2d0c      	cmp	r5, #12
 80072ae:	d0e1      	beq.n	8007274 <f_write+0x28>
 80072b0:	2d0b      	cmp	r5, #11
 80072b2:	d0df      	beq.n	8007274 <f_write+0x28>
 80072b4:	2d0f      	cmp	r5, #15
 80072b6:	f040 8140 	bne.w	800753a <f_write+0x2ee>
 80072ba:	e7db      	b.n	8007274 <f_write+0x28>
 80072bc:	7d23      	ldrb	r3, [r4, #20]
 80072be:	079a      	lsls	r2, r3, #30
 80072c0:	d407      	bmi.n	80072d2 <f_write+0x86>
 80072c2:	2f00      	cmp	r7, #0
 80072c4:	f000 812b 	beq.w	800751e <f_write+0x2d2>
 80072c8:	6978      	ldr	r0, [r7, #20]
 80072ca:	f001 f819 	bl	8008300 <ff_rel_grant>
 80072ce:	2507      	movs	r5, #7
 80072d0:	e7d0      	b.n	8007274 <f_write+0x28>
 80072d2:	69a0      	ldr	r0, [r4, #24]
 80072d4:	42f0      	cmn	r0, r6
 80072d6:	bf28      	it	cs
 80072d8:	43c6      	mvncs	r6, r0
 80072da:	2e00      	cmp	r6, #0
 80072dc:	f000 81e8 	beq.w	80076b0 <f_write+0x464>
 80072e0:	f104 0330 	add.w	r3, r4, #48	; 0x30
 80072e4:	9300      	str	r3, [sp, #0]
 80072e6:	425b      	negs	r3, r3
 80072e8:	f003 0303 	and.w	r3, r3, #3
 80072ec:	9303      	str	r3, [sp, #12]
 80072ee:	f104 0334 	add.w	r3, r4, #52	; 0x34
 80072f2:	9304      	str	r3, [sp, #16]
 80072f4:	9502      	str	r5, [sp, #8]
 80072f6:	89ba      	ldrh	r2, [r7, #12]
 80072f8:	fbb0 f1f2 	udiv	r1, r0, r2
 80072fc:	fb02 0311 	mls	r3, r2, r1, r0
 8007300:	2b00      	cmp	r3, #0
 8007302:	d152      	bne.n	80073aa <f_write+0x15e>
 8007304:	f8b7 900a 	ldrh.w	r9, [r7, #10]
 8007308:	f109 39ff 	add.w	r9, r9, #4294967295
 800730c:	ea19 0901 	ands.w	r9, r9, r1
 8007310:	d10f      	bne.n	8007332 <f_write+0xe6>
 8007312:	2800      	cmp	r0, #0
 8007314:	f040 80d9 	bne.w	80074ca <f_write+0x27e>
 8007318:	68a0      	ldr	r0, [r4, #8]
 800731a:	2800      	cmp	r0, #0
 800731c:	f000 8101 	beq.w	8007522 <f_write+0x2d6>
 8007320:	2801      	cmp	r0, #1
 8007322:	f000 8142 	beq.w	80075aa <f_write+0x35e>
 8007326:	1c43      	adds	r3, r0, #1
 8007328:	d02c      	beq.n	8007384 <f_write+0x138>
 800732a:	68a3      	ldr	r3, [r4, #8]
 800732c:	61e0      	str	r0, [r4, #28]
 800732e:	b903      	cbnz	r3, 8007332 <f_write+0xe6>
 8007330:	60a0      	str	r0, [r4, #8]
 8007332:	f994 3014 	ldrsb.w	r3, [r4, #20]
 8007336:	2b00      	cmp	r3, #0
 8007338:	f2c0 80e3 	blt.w	8007502 <f_write+0x2b6>
 800733c:	69e5      	ldr	r5, [r4, #28]
 800733e:	6a3b      	ldr	r3, [r7, #32]
 8007340:	3d02      	subs	r5, #2
 8007342:	3b02      	subs	r3, #2
 8007344:	429d      	cmp	r5, r3
 8007346:	f080 8130 	bcs.w	80075aa <f_write+0x35e>
 800734a:	897b      	ldrh	r3, [r7, #10]
 800734c:	6b7a      	ldr	r2, [r7, #52]	; 0x34
 800734e:	fb03 2505 	mla	r5, r3, r5, r2
 8007352:	2d00      	cmp	r5, #0
 8007354:	f000 8129 	beq.w	80075aa <f_write+0x35e>
 8007358:	89ba      	ldrh	r2, [r7, #12]
 800735a:	444d      	add	r5, r9
 800735c:	fbb6 faf2 	udiv	sl, r6, r2
 8007360:	f1ba 0f00 	cmp.w	sl, #0
 8007364:	d014      	beq.n	8007390 <f_write+0x144>
 8007366:	eb09 020a 	add.w	r2, r9, sl
 800736a:	429a      	cmp	r2, r3
 800736c:	bf88      	it	hi
 800736e:	eba3 0a09 	subhi.w	sl, r3, r9
 8007372:	4653      	mov	r3, sl
 8007374:	462a      	mov	r2, r5
 8007376:	4659      	mov	r1, fp
 8007378:	7878      	ldrb	r0, [r7, #1]
 800737a:	f7fc f923 	bl	80035c4 <disk_write>
 800737e:	2800      	cmp	r0, #0
 8007380:	f000 80e2 	beq.w	8007548 <f_write+0x2fc>
 8007384:	2501      	movs	r5, #1
 8007386:	7565      	strb	r5, [r4, #21]
 8007388:	6978      	ldr	r0, [r7, #20]
 800738a:	f000 ffb9 	bl	8008300 <ff_rel_grant>
 800738e:	e771      	b.n	8007274 <f_write+0x28>
 8007390:	6a23      	ldr	r3, [r4, #32]
 8007392:	69a0      	ldr	r0, [r4, #24]
 8007394:	42ab      	cmp	r3, r5
 8007396:	d003      	beq.n	80073a0 <f_write+0x154>
 8007398:	68e3      	ldr	r3, [r4, #12]
 800739a:	4283      	cmp	r3, r0
 800739c:	f200 80f1 	bhi.w	8007582 <f_write+0x336>
 80073a0:	fbb0 f3f2 	udiv	r3, r0, r2
 80073a4:	fb02 0313 	mls	r3, r2, r3, r0
 80073a8:	6225      	str	r5, [r4, #32]
 80073aa:	1ad2      	subs	r2, r2, r3
 80073ac:	4296      	cmp	r6, r2
 80073ae:	d31b      	bcc.n	80073e8 <f_write+0x19c>
 80073b0:	2a00      	cmp	r2, #0
 80073b2:	f040 8184 	bne.w	80076be <f_write+0x472>
 80073b6:	7d23      	ldrb	r3, [r4, #20]
 80073b8:	f063 037f 	orn	r3, r3, #127	; 0x7f
 80073bc:	7523      	strb	r3, [r4, #20]
 80073be:	68e3      	ldr	r3, [r4, #12]
 80073c0:	4410      	add	r0, r2
 80073c2:	4283      	cmp	r3, r0
 80073c4:	bf38      	it	cc
 80073c6:	4603      	movcc	r3, r0
 80073c8:	4619      	mov	r1, r3
 80073ca:	f8d8 3000 	ldr.w	r3, [r8]
 80073ce:	61a0      	str	r0, [r4, #24]
 80073d0:	441a      	add	r2, r3
 80073d2:	60e1      	str	r1, [r4, #12]
 80073d4:	f8c8 2000 	str.w	r2, [r8]
 80073d8:	2e00      	cmp	r6, #0
 80073da:	d18c      	bne.n	80072f6 <f_write+0xaa>
 80073dc:	7d23      	ldrb	r3, [r4, #20]
 80073de:	9d02      	ldr	r5, [sp, #8]
 80073e0:	f043 0340 	orr.w	r3, r3, #64	; 0x40
 80073e4:	7523      	strb	r3, [r4, #20]
 80073e6:	e0a8      	b.n	800753a <f_write+0x2ee>
 80073e8:	2200      	movs	r2, #0
 80073ea:	9201      	str	r2, [sp, #4]
 80073ec:	9900      	ldr	r1, [sp, #0]
 80073ee:	1d1a      	adds	r2, r3, #4
 80073f0:	440a      	add	r2, r1
 80073f2:	18c8      	adds	r0, r1, r3
 80073f4:	f10b 0104 	add.w	r1, fp, #4
 80073f8:	4288      	cmp	r0, r1
 80073fa:	bf38      	it	cc
 80073fc:	4593      	cmpcc	fp, r2
 80073fe:	f0c0 80b6 	bcc.w	800756e <f_write+0x322>
 8007402:	2e0b      	cmp	r6, #11
 8007404:	f240 80b3 	bls.w	800756e <f_write+0x322>
 8007408:	f1cb 0200 	rsb	r2, fp, #0
 800740c:	f012 0203 	ands.w	r2, r2, #3
 8007410:	f106 3cff 	add.w	ip, r6, #4294967295
 8007414:	f000 80a8 	beq.w	8007568 <f_write+0x31c>
 8007418:	f89b 1000 	ldrb.w	r1, [fp]
 800741c:	2a01      	cmp	r2, #1
 800741e:	7001      	strb	r1, [r0, #0]
 8007420:	f10b 0a01 	add.w	sl, fp, #1
 8007424:	f100 0101 	add.w	r1, r0, #1
 8007428:	d069      	beq.n	80074fe <f_write+0x2b2>
 800742a:	f89b 1001 	ldrb.w	r1, [fp, #1]
 800742e:	2a03      	cmp	r2, #3
 8007430:	7041      	strb	r1, [r0, #1]
 8007432:	f10b 0a02 	add.w	sl, fp, #2
 8007436:	f100 0102 	add.w	r1, r0, #2
 800743a:	f1a6 0c02 	sub.w	ip, r6, #2
 800743e:	d15e      	bne.n	80074fe <f_write+0x2b2>
 8007440:	f89b 1002 	ldrb.w	r1, [fp, #2]
 8007444:	f10b 0a03 	add.w	sl, fp, #3
 8007448:	7081      	strb	r1, [r0, #2]
 800744a:	f1a6 0c03 	sub.w	ip, r6, #3
 800744e:	3003      	adds	r0, #3
 8007450:	2100      	movs	r1, #0
 8007452:	9d00      	ldr	r5, [sp, #0]
 8007454:	4413      	add	r3, r2
 8007456:	eba6 0902 	sub.w	r9, r6, r2
 800745a:	442b      	add	r3, r5
 800745c:	445a      	add	r2, fp
 800745e:	ea4f 0e99 	mov.w	lr, r9, lsr #2
 8007462:	f852 5b04 	ldr.w	r5, [r2], #4
 8007466:	3101      	adds	r1, #1
 8007468:	458e      	cmp	lr, r1
 800746a:	f843 5b04 	str.w	r5, [r3], #4
 800746e:	d8f8      	bhi.n	8007462 <f_write+0x216>
 8007470:	f029 0303 	bic.w	r3, r9, #3
 8007474:	4599      	cmp	r9, r3
 8007476:	ebac 0c03 	sub.w	ip, ip, r3
 800747a:	eb00 0203 	add.w	r2, r0, r3
 800747e:	eb0a 0103 	add.w	r1, sl, r3
 8007482:	d020      	beq.n	80074c6 <f_write+0x27a>
 8007484:	f81a 5003 	ldrb.w	r5, [sl, r3]
 8007488:	f1bc 0f01 	cmp.w	ip, #1
 800748c:	54c5      	strb	r5, [r0, r3]
 800748e:	d01a      	beq.n	80074c6 <f_write+0x27a>
 8007490:	784b      	ldrb	r3, [r1, #1]
 8007492:	f1bc 0f02 	cmp.w	ip, #2
 8007496:	7053      	strb	r3, [r2, #1]
 8007498:	d015      	beq.n	80074c6 <f_write+0x27a>
 800749a:	788b      	ldrb	r3, [r1, #2]
 800749c:	f1bc 0f03 	cmp.w	ip, #3
 80074a0:	7093      	strb	r3, [r2, #2]
 80074a2:	d010      	beq.n	80074c6 <f_write+0x27a>
 80074a4:	78cb      	ldrb	r3, [r1, #3]
 80074a6:	f1bc 0f04 	cmp.w	ip, #4
 80074aa:	70d3      	strb	r3, [r2, #3]
 80074ac:	d00b      	beq.n	80074c6 <f_write+0x27a>
 80074ae:	790b      	ldrb	r3, [r1, #4]
 80074b0:	f1bc 0f05 	cmp.w	ip, #5
 80074b4:	7113      	strb	r3, [r2, #4]
 80074b6:	d006      	beq.n	80074c6 <f_write+0x27a>
 80074b8:	794b      	ldrb	r3, [r1, #5]
 80074ba:	44b3      	add	fp, r6
 80074bc:	7153      	strb	r3, [r2, #5]
 80074be:	4632      	mov	r2, r6
 80074c0:	69a0      	ldr	r0, [r4, #24]
 80074c2:	9e01      	ldr	r6, [sp, #4]
 80074c4:	e777      	b.n	80073b6 <f_write+0x16a>
 80074c6:	44b3      	add	fp, r6
 80074c8:	e7f9      	b.n	80074be <f_write+0x272>
 80074ca:	6ae5      	ldr	r5, [r4, #44]	; 0x2c
 80074cc:	2d00      	cmp	r5, #0
 80074ce:	d067      	beq.n	80075a0 <f_write+0x354>
 80074d0:	6821      	ldr	r1, [r4, #0]
 80074d2:	686a      	ldr	r2, [r5, #4]
 80074d4:	898b      	ldrh	r3, [r1, #12]
 80074d6:	8949      	ldrh	r1, [r1, #10]
 80074d8:	fbb0 f0f3 	udiv	r0, r0, r3
 80074dc:	1d2b      	adds	r3, r5, #4
 80074de:	fbb0 f0f1 	udiv	r0, r0, r1
 80074e2:	2a00      	cmp	r2, #0
 80074e4:	f43f af7a 	beq.w	80073dc <f_write+0x190>
 80074e8:	4290      	cmp	r0, r2
 80074ea:	d202      	bcs.n	80074f2 <f_write+0x2a6>
 80074ec:	e055      	b.n	800759a <f_write+0x34e>
 80074ee:	4282      	cmp	r2, r0
 80074f0:	d853      	bhi.n	800759a <f_write+0x34e>
 80074f2:	1a80      	subs	r0, r0, r2
 80074f4:	f853 2f08 	ldr.w	r2, [r3, #8]!
 80074f8:	2a00      	cmp	r2, #0
 80074fa:	d1f8      	bne.n	80074ee <f_write+0x2a2>
 80074fc:	e76e      	b.n	80073dc <f_write+0x190>
 80074fe:	4608      	mov	r0, r1
 8007500:	e7a6      	b.n	8007450 <f_write+0x204>
 8007502:	2301      	movs	r3, #1
 8007504:	6a22      	ldr	r2, [r4, #32]
 8007506:	9900      	ldr	r1, [sp, #0]
 8007508:	7878      	ldrb	r0, [r7, #1]
 800750a:	f7fc f85b 	bl	80035c4 <disk_write>
 800750e:	2800      	cmp	r0, #0
 8007510:	f47f af38 	bne.w	8007384 <f_write+0x138>
 8007514:	7d23      	ldrb	r3, [r4, #20]
 8007516:	f003 037f 	and.w	r3, r3, #127	; 0x7f
 800751a:	7523      	strb	r3, [r4, #20]
 800751c:	e70e      	b.n	800733c <f_write+0xf0>
 800751e:	2507      	movs	r5, #7
 8007520:	e6a8      	b.n	8007274 <f_write+0x28>
 8007522:	4649      	mov	r1, r9
 8007524:	4620      	mov	r0, r4
 8007526:	f7fd f83f 	bl	80045a8 <create_chain>
 800752a:	2800      	cmp	r0, #0
 800752c:	f47f aef8 	bne.w	8007320 <f_write+0xd4>
 8007530:	7d23      	ldrb	r3, [r4, #20]
 8007532:	9d02      	ldr	r5, [sp, #8]
 8007534:	f043 0340 	orr.w	r3, r3, #64	; 0x40
 8007538:	7523      	strb	r3, [r4, #20]
 800753a:	6978      	ldr	r0, [r7, #20]
 800753c:	f000 fee0 	bl	8008300 <ff_rel_grant>
 8007540:	4628      	mov	r0, r5
 8007542:	b007      	add	sp, #28
 8007544:	e8bd 8ff0 	ldmia.w	sp!, {r4, r5, r6, r7, r8, r9, sl, fp, pc}
 8007548:	6a21      	ldr	r1, [r4, #32]
 800754a:	89bb      	ldrh	r3, [r7, #12]
 800754c:	1b4d      	subs	r5, r1, r5
 800754e:	4555      	cmp	r5, sl
 8007550:	d204      	bcs.n	800755c <f_write+0x310>
 8007552:	bb83      	cbnz	r3, 80075b6 <f_write+0x36a>
 8007554:	7d22      	ldrb	r2, [r4, #20]
 8007556:	f002 027f 	and.w	r2, r2, #127	; 0x7f
 800755a:	7522      	strb	r2, [r4, #20]
 800755c:	fb0a f203 	mul.w	r2, sl, r3
 8007560:	69a0      	ldr	r0, [r4, #24]
 8007562:	4493      	add	fp, r2
 8007564:	1ab6      	subs	r6, r6, r2
 8007566:	e72a      	b.n	80073be <f_write+0x172>
 8007568:	46da      	mov	sl, fp
 800756a:	46b4      	mov	ip, r6
 800756c:	e770      	b.n	8007450 <f_write+0x204>
 800756e:	465b      	mov	r3, fp
 8007570:	3801      	subs	r0, #1
 8007572:	44b3      	add	fp, r6
 8007574:	f813 2b01 	ldrb.w	r2, [r3], #1
 8007578:	455b      	cmp	r3, fp
 800757a:	f800 2f01 	strb.w	r2, [r0, #1]!
 800757e:	d1f9      	bne.n	8007574 <f_write+0x328>
 8007580:	e79d      	b.n	80074be <f_write+0x272>
 8007582:	2301      	movs	r3, #1
 8007584:	462a      	mov	r2, r5
 8007586:	9900      	ldr	r1, [sp, #0]
 8007588:	7878      	ldrb	r0, [r7, #1]
 800758a:	f7fc f80d 	bl	80035a8 <disk_read>
 800758e:	2800      	cmp	r0, #0
 8007590:	f47f aef8 	bne.w	8007384 <f_write+0x138>
 8007594:	89ba      	ldrh	r2, [r7, #12]
 8007596:	69a0      	ldr	r0, [r4, #24]
 8007598:	e702      	b.n	80073a0 <f_write+0x154>
 800759a:	685b      	ldr	r3, [r3, #4]
 800759c:	4418      	add	r0, r3
 800759e:	e7c4      	b.n	800752a <f_write+0x2de>
 80075a0:	69e1      	ldr	r1, [r4, #28]
 80075a2:	4620      	mov	r0, r4
 80075a4:	f7fd f800 	bl	80045a8 <create_chain>
 80075a8:	e7bf      	b.n	800752a <f_write+0x2de>
 80075aa:	2502      	movs	r5, #2
 80075ac:	7565      	strb	r5, [r4, #21]
 80075ae:	6978      	ldr	r0, [r7, #20]
 80075b0:	f000 fea6 	bl	8008300 <ff_rel_grant>
 80075b4:	e65e      	b.n	8007274 <f_write+0x28>
 80075b6:	fb05 f203 	mul.w	r2, r5, r3
 80075ba:	9904      	ldr	r1, [sp, #16]
 80075bc:	1d10      	adds	r0, r2, #4
 80075be:	9d00      	ldr	r5, [sp, #0]
 80075c0:	9205      	str	r2, [sp, #20]
 80075c2:	4458      	add	r0, fp
 80075c4:	445a      	add	r2, fp
 80075c6:	428a      	cmp	r2, r1
 80075c8:	bf38      	it	cc
 80075ca:	4285      	cmpcc	r5, r0
 80075cc:	46ae      	mov	lr, r5
 80075ce:	d362      	bcc.n	8007696 <f_write+0x44a>
 80075d0:	2b0b      	cmp	r3, #11
 80075d2:	d960      	bls.n	8007696 <f_write+0x44a>
 80075d4:	9903      	ldr	r1, [sp, #12]
 80075d6:	f103 39ff 	add.w	r9, r3, #4294967295
 80075da:	1cc8      	adds	r0, r1, #3
 80075dc:	4548      	cmp	r0, r9
 80075de:	464d      	mov	r5, r9
 80075e0:	d83c      	bhi.n	800765c <f_write+0x410>
 80075e2:	460d      	mov	r5, r1
 80075e4:	2900      	cmp	r1, #0
 80075e6:	d060      	beq.n	80076aa <f_write+0x45e>
 80075e8:	7810      	ldrb	r0, [r2, #0]
 80075ea:	1c51      	adds	r1, r2, #1
 80075ec:	2d01      	cmp	r5, #1
 80075ee:	9101      	str	r1, [sp, #4]
 80075f0:	f884 0030 	strb.w	r0, [r4, #48]	; 0x30
 80075f4:	f104 0e31 	add.w	lr, r4, #49	; 0x31
 80075f8:	d013      	beq.n	8007622 <f_write+0x3d6>
 80075fa:	7850      	ldrb	r0, [r2, #1]
 80075fc:	1c91      	adds	r1, r2, #2
 80075fe:	2d03      	cmp	r5, #3
 8007600:	9101      	str	r1, [sp, #4]
 8007602:	f884 0031 	strb.w	r0, [r4, #49]	; 0x31
 8007606:	f104 0e32 	add.w	lr, r4, #50	; 0x32
 800760a:	f1a3 0902 	sub.w	r9, r3, #2
 800760e:	d108      	bne.n	8007622 <f_write+0x3d6>
 8007610:	7890      	ldrb	r0, [r2, #2]
 8007612:	3203      	adds	r2, #3
 8007614:	9201      	str	r2, [sp, #4]
 8007616:	f884 0032 	strb.w	r0, [r4, #50]	; 0x32
 800761a:	f104 0e33 	add.w	lr, r4, #51	; 0x33
 800761e:	f1a3 0903 	sub.w	r9, r3, #3
 8007622:	2200      	movs	r2, #0
 8007624:	9803      	ldr	r0, [sp, #12]
 8007626:	eba3 0c00 	sub.w	ip, r3, r0
 800762a:	9b05      	ldr	r3, [sp, #20]
 800762c:	f100 0130 	add.w	r1, r0, #48	; 0x30
 8007630:	4403      	add	r3, r0
 8007632:	445b      	add	r3, fp
 8007634:	ea4f 059c 	mov.w	r5, ip, lsr #2
 8007638:	4421      	add	r1, r4
 800763a:	f853 0b04 	ldr.w	r0, [r3], #4
 800763e:	3201      	adds	r2, #1
 8007640:	4295      	cmp	r5, r2
 8007642:	f841 0b04 	str.w	r0, [r1], #4
 8007646:	d8f8      	bhi.n	800763a <f_write+0x3ee>
 8007648:	f02c 0103 	bic.w	r1, ip, #3
 800764c:	9a01      	ldr	r2, [sp, #4]
 800764e:	4561      	cmp	r1, ip
 8007650:	eba9 0301 	sub.w	r3, r9, r1
 8007654:	448e      	add	lr, r1
 8007656:	440a      	add	r2, r1
 8007658:	d01b      	beq.n	8007692 <f_write+0x446>
 800765a:	1e5d      	subs	r5, r3, #1
 800765c:	7811      	ldrb	r1, [r2, #0]
 800765e:	f88e 1000 	strb.w	r1, [lr]
 8007662:	b1b5      	cbz	r5, 8007692 <f_write+0x446>
 8007664:	7851      	ldrb	r1, [r2, #1]
 8007666:	2b02      	cmp	r3, #2
 8007668:	f88e 1001 	strb.w	r1, [lr, #1]
 800766c:	d011      	beq.n	8007692 <f_write+0x446>
 800766e:	7891      	ldrb	r1, [r2, #2]
 8007670:	2b03      	cmp	r3, #3
 8007672:	f88e 1002 	strb.w	r1, [lr, #2]
 8007676:	d00c      	beq.n	8007692 <f_write+0x446>
 8007678:	78d1      	ldrb	r1, [r2, #3]
 800767a:	2b04      	cmp	r3, #4
 800767c:	f88e 1003 	strb.w	r1, [lr, #3]
 8007680:	d007      	beq.n	8007692 <f_write+0x446>
 8007682:	7911      	ldrb	r1, [r2, #4]
 8007684:	2b05      	cmp	r3, #5
 8007686:	f88e 1004 	strb.w	r1, [lr, #4]
 800768a:	d002      	beq.n	8007692 <f_write+0x446>
 800768c:	7953      	ldrb	r3, [r2, #5]
 800768e:	f88e 3005 	strb.w	r3, [lr, #5]
 8007692:	89bb      	ldrh	r3, [r7, #12]
 8007694:	e75e      	b.n	8007554 <f_write+0x308>
 8007696:	4413      	add	r3, r2
 8007698:	f104 012f 	add.w	r1, r4, #47	; 0x2f
 800769c:	f812 0b01 	ldrb.w	r0, [r2], #1
 80076a0:	4293      	cmp	r3, r2
 80076a2:	f801 0f01 	strb.w	r0, [r1, #1]!
 80076a6:	d1f9      	bne.n	800769c <f_write+0x450>
 80076a8:	e7f3      	b.n	8007692 <f_write+0x446>
 80076aa:	9201      	str	r2, [sp, #4]
 80076ac:	4699      	mov	r9, r3
 80076ae:	e7b8      	b.n	8007622 <f_write+0x3d6>
 80076b0:	f043 0340 	orr.w	r3, r3, #64	; 0x40
 80076b4:	7523      	strb	r3, [r4, #20]
 80076b6:	2f00      	cmp	r7, #0
 80076b8:	f43f addc 	beq.w	8007274 <f_write+0x28>
 80076bc:	e73d      	b.n	800753a <f_write+0x2ee>
 80076be:	1ab1      	subs	r1, r6, r2
 80076c0:	9101      	str	r1, [sp, #4]
 80076c2:	4616      	mov	r6, r2
 80076c4:	e692      	b.n	80073ec <f_write+0x1a0>
 80076c6:	bf00      	nop

080076c8 <f_close>:
 80076c8:	e92d 47f0 	stmdb	sp!, {r4, r5, r6, r7, r8, r9, sl, lr}
 80076cc:	b138      	cbz	r0, 80076de <f_close+0x16>
 80076ce:	6803      	ldr	r3, [r0, #0]
 80076d0:	b12b      	cbz	r3, 80076de <f_close+0x16>
 80076d2:	781a      	ldrb	r2, [r3, #0]
 80076d4:	b11a      	cbz	r2, 80076de <f_close+0x16>
 80076d6:	8881      	ldrh	r1, [r0, #4]
 80076d8:	88da      	ldrh	r2, [r3, #6]
 80076da:	4291      	cmp	r1, r2
 80076dc:	d003      	beq.n	80076e6 <f_close+0x1e>
 80076de:	2509      	movs	r5, #9
 80076e0:	4628      	mov	r0, r5
 80076e2:	e8bd 87f0 	ldmia.w	sp!, {r4, r5, r6, r7, r8, r9, sl, pc}
 80076e6:	4604      	mov	r4, r0
 80076e8:	6958      	ldr	r0, [r3, #20]
 80076ea:	f000 fdff 	bl	80082ec <ff_req_grant>
 80076ee:	b918      	cbnz	r0, 80076f8 <f_close+0x30>
 80076f0:	250f      	movs	r5, #15
 80076f2:	4628      	mov	r0, r5
 80076f4:	e8bd 87f0 	ldmia.w	sp!, {r4, r5, r6, r7, r8, r9, sl, pc}
 80076f8:	6823      	ldr	r3, [r4, #0]
 80076fa:	7858      	ldrb	r0, [r3, #1]
 80076fc:	f7fb ff3a 	bl	8003574 <disk_status>
 8007700:	07c1      	lsls	r1, r0, #31
 8007702:	d506      	bpl.n	8007712 <f_close+0x4a>
 8007704:	6823      	ldr	r3, [r4, #0]
 8007706:	2b00      	cmp	r3, #0
 8007708:	d0e9      	beq.n	80076de <f_close+0x16>
 800770a:	6958      	ldr	r0, [r3, #20]
 800770c:	f000 fdf8 	bl	8008300 <ff_rel_grant>
 8007710:	e7e5      	b.n	80076de <f_close+0x16>
 8007712:	7d23      	ldrb	r3, [r4, #20]
 8007714:	6826      	ldr	r6, [r4, #0]
 8007716:	065a      	lsls	r2, r3, #25
 8007718:	d429      	bmi.n	800776e <f_close+0xa6>
 800771a:	2e00      	cmp	r6, #0
 800771c:	d0df      	beq.n	80076de <f_close+0x16>
 800771e:	6970      	ldr	r0, [r6, #20]
 8007720:	f000 fdee 	bl	8008300 <ff_rel_grant>
 8007724:	6823      	ldr	r3, [r4, #0]
 8007726:	2b00      	cmp	r3, #0
 8007728:	d0d9      	beq.n	80076de <f_close+0x16>
 800772a:	781a      	ldrb	r2, [r3, #0]
 800772c:	2a00      	cmp	r2, #0
 800772e:	d0d6      	beq.n	80076de <f_close+0x16>
 8007730:	88a1      	ldrh	r1, [r4, #4]
 8007732:	88da      	ldrh	r2, [r3, #6]
 8007734:	4291      	cmp	r1, r2
 8007736:	d1d2      	bne.n	80076de <f_close+0x16>
 8007738:	6958      	ldr	r0, [r3, #20]
 800773a:	f000 fdd7 	bl	80082ec <ff_req_grant>
 800773e:	2800      	cmp	r0, #0
 8007740:	d0d6      	beq.n	80076f0 <f_close+0x28>
 8007742:	6823      	ldr	r3, [r4, #0]
 8007744:	7858      	ldrb	r0, [r3, #1]
 8007746:	f7fb ff15 	bl	8003574 <disk_status>
 800774a:	f010 0001 	ands.w	r0, r0, #1
 800774e:	d1d9      	bne.n	8007704 <f_close+0x3c>
 8007750:	6923      	ldr	r3, [r4, #16]
 8007752:	6822      	ldr	r2, [r4, #0]
 8007754:	3b01      	subs	r3, #1
 8007756:	2b01      	cmp	r3, #1
 8007758:	f240 80a1 	bls.w	800789e <f_close+0x1d6>
 800775c:	2502      	movs	r5, #2
 800775e:	2a00      	cmp	r2, #0
 8007760:	d0be      	beq.n	80076e0 <f_close+0x18>
 8007762:	6950      	ldr	r0, [r2, #20]
 8007764:	f000 fdcc 	bl	8008300 <ff_rel_grant>
 8007768:	4628      	mov	r0, r5
 800776a:	e8bd 87f0 	ldmia.w	sp!, {r4, r5, r6, r7, r8, r9, sl, pc}
 800776e:	061b      	lsls	r3, r3, #24
 8007770:	f100 8088 	bmi.w	8007884 <f_close+0x1bc>
 8007774:	f7fb fe8c 	bl	8003490 <get_fattime>
 8007778:	f8d4 8024 	ldr.w	r8, [r4, #36]	; 0x24
 800777c:	6bb7      	ldr	r7, [r6, #56]	; 0x38
 800777e:	4605      	mov	r5, r0
 8007780:	45b8      	cmp	r8, r7
 8007782:	d037      	beq.n	80077f4 <f_close+0x12c>
 8007784:	78f3      	ldrb	r3, [r6, #3]
 8007786:	7870      	ldrb	r0, [r6, #1]
 8007788:	f106 093c 	add.w	r9, r6, #60	; 0x3c
 800778c:	b313      	cbz	r3, 80077d4 <f_close+0x10c>
 800778e:	2301      	movs	r3, #1
 8007790:	463a      	mov	r2, r7
 8007792:	4649      	mov	r1, r9
 8007794:	f7fb ff16 	bl	80035c4 <disk_write>
 8007798:	2800      	cmp	r0, #0
 800779a:	f040 8094 	bne.w	80078c6 <f_close+0x1fe>
 800779e:	6af2      	ldr	r2, [r6, #44]	; 0x2c
 80077a0:	6a73      	ldr	r3, [r6, #36]	; 0x24
 80077a2:	1aba      	subs	r2, r7, r2
 80077a4:	429a      	cmp	r2, r3
 80077a6:	70f0      	strb	r0, [r6, #3]
 80077a8:	7870      	ldrb	r0, [r6, #1]
 80077aa:	d213      	bcs.n	80077d4 <f_close+0x10c>
 80077ac:	f896 a002 	ldrb.w	sl, [r6, #2]
 80077b0:	f1ba 0f01 	cmp.w	sl, #1
 80077b4:	d802      	bhi.n	80077bc <f_close+0xf4>
 80077b6:	e00d      	b.n	80077d4 <f_close+0x10c>
 80077b8:	6a73      	ldr	r3, [r6, #36]	; 0x24
 80077ba:	7870      	ldrb	r0, [r6, #1]
 80077bc:	441f      	add	r7, r3
 80077be:	f10a 3aff 	add.w	sl, sl, #4294967295
 80077c2:	463a      	mov	r2, r7
 80077c4:	2301      	movs	r3, #1
 80077c6:	4649      	mov	r1, r9
 80077c8:	f7fb fefc 	bl	80035c4 <disk_write>
 80077cc:	f1ba 0f01 	cmp.w	sl, #1
 80077d0:	d1f2      	bne.n	80077b8 <f_close+0xf0>
 80077d2:	7870      	ldrb	r0, [r6, #1]
 80077d4:	4649      	mov	r1, r9
 80077d6:	2301      	movs	r3, #1
 80077d8:	4642      	mov	r2, r8
 80077da:	f7fb fee5 	bl	80035a8 <disk_read>
 80077de:	b138      	cbz	r0, 80077f0 <f_close+0x128>
 80077e0:	f04f 33ff 	mov.w	r3, #4294967295
 80077e4:	6970      	ldr	r0, [r6, #20]
 80077e6:	63b3      	str	r3, [r6, #56]	; 0x38
 80077e8:	f000 fd8a 	bl	8008300 <ff_rel_grant>
 80077ec:	2501      	movs	r5, #1
 80077ee:	e777      	b.n	80076e0 <f_close+0x18>
 80077f0:	f8c6 8038 	str.w	r8, [r6, #56]	; 0x38
 80077f4:	6aa3      	ldr	r3, [r4, #40]	; 0x28
 80077f6:	7ada      	ldrb	r2, [r3, #11]
 80077f8:	f042 0220 	orr.w	r2, r2, #32
 80077fc:	72da      	strb	r2, [r3, #11]
 80077fe:	68a2      	ldr	r2, [r4, #8]
 8007800:	6821      	ldr	r1, [r4, #0]
 8007802:	f3c2 2007 	ubfx	r0, r2, #8, #8
 8007806:	76d8      	strb	r0, [r3, #27]
 8007808:	769a      	strb	r2, [r3, #26]
 800780a:	7809      	ldrb	r1, [r1, #0]
 800780c:	2903      	cmp	r1, #3
 800780e:	d103      	bne.n	8007818 <f_close+0x150>
 8007810:	0c12      	lsrs	r2, r2, #16
 8007812:	0a11      	lsrs	r1, r2, #8
 8007814:	751a      	strb	r2, [r3, #20]
 8007816:	7559      	strb	r1, [r3, #21]
 8007818:	2100      	movs	r1, #0
 800781a:	2701      	movs	r7, #1
 800781c:	4608      	mov	r0, r1
 800781e:	68e2      	ldr	r2, [r4, #12]
 8007820:	759d      	strb	r5, [r3, #22]
 8007822:	ea4f 2c12 	mov.w	ip, r2, lsr #8
 8007826:	f362 0107 	bfi	r1, r2, #0, #8
 800782a:	f36c 210f 	bfi	r1, ip, #8, #8
 800782e:	ea4f 4c12 	mov.w	ip, r2, lsr #16
 8007832:	f36c 4117 	bfi	r1, ip, #16, #8
 8007836:	0e12      	lsrs	r2, r2, #24
 8007838:	f362 611f 	bfi	r1, r2, #24, #8
 800783c:	ea4f 2c15 	mov.w	ip, r5, lsr #8
 8007840:	0c2a      	lsrs	r2, r5, #16
 8007842:	0e2d      	lsrs	r5, r5, #24
 8007844:	7498      	strb	r0, [r3, #18]
 8007846:	74d8      	strb	r0, [r3, #19]
 8007848:	765d      	strb	r5, [r3, #25]
 800784a:	61d9      	str	r1, [r3, #28]
 800784c:	f883 c017 	strb.w	ip, [r3, #23]
 8007850:	761a      	strb	r2, [r3, #24]
 8007852:	4630      	mov	r0, r6
 8007854:	70f7      	strb	r7, [r6, #3]
 8007856:	f7fb ff0d 	bl	8003674 <sync_fs>
 800785a:	7d23      	ldrb	r3, [r4, #20]
 800785c:	280c      	cmp	r0, #12
 800785e:	f023 0340 	bic.w	r3, r3, #64	; 0x40
 8007862:	4605      	mov	r5, r0
 8007864:	7523      	strb	r3, [r4, #20]
 8007866:	f43f af3b 	beq.w	80076e0 <f_close+0x18>
 800786a:	280b      	cmp	r0, #11
 800786c:	f43f af38 	beq.w	80076e0 <f_close+0x18>
 8007870:	280f      	cmp	r0, #15
 8007872:	f43f af3d 	beq.w	80076f0 <f_close+0x28>
 8007876:	6970      	ldr	r0, [r6, #20]
 8007878:	f000 fd42 	bl	8008300 <ff_rel_grant>
 800787c:	2d00      	cmp	r5, #0
 800787e:	f43f af51 	beq.w	8007724 <f_close+0x5c>
 8007882:	e72d      	b.n	80076e0 <f_close+0x18>
 8007884:	2301      	movs	r3, #1
 8007886:	6a22      	ldr	r2, [r4, #32]
 8007888:	f104 0130 	add.w	r1, r4, #48	; 0x30
 800788c:	7870      	ldrb	r0, [r6, #1]
 800788e:	f7fb fe99 	bl	80035c4 <disk_write>
 8007892:	b9c0      	cbnz	r0, 80078c6 <f_close+0x1fe>
 8007894:	7d23      	ldrb	r3, [r4, #20]
 8007896:	f003 037f 	and.w	r3, r3, #127	; 0x7f
 800789a:	7523      	strb	r3, [r4, #20]
 800789c:	e76a      	b.n	8007774 <f_close+0xac>
 800789e:	4d0c      	ldr	r5, [pc, #48]	; (80078d0 <f_close+0x208>)
 80078a0:	011b      	lsls	r3, r3, #4
 80078a2:	18ee      	adds	r6, r5, r3
 80078a4:	89b1      	ldrh	r1, [r6, #12]
 80078a6:	f5b1 7f80 	cmp.w	r1, #256	; 0x100
 80078aa:	d008      	beq.n	80078be <f_close+0x1f6>
 80078ac:	b141      	cbz	r1, 80078c0 <f_close+0x1f8>
 80078ae:	3901      	subs	r1, #1
 80078b0:	b289      	uxth	r1, r1
 80078b2:	81b1      	strh	r1, [r6, #12]
 80078b4:	b121      	cbz	r1, 80078c0 <f_close+0x1f8>
 80078b6:	2300      	movs	r3, #0
 80078b8:	461d      	mov	r5, r3
 80078ba:	6023      	str	r3, [r4, #0]
 80078bc:	e74f      	b.n	800775e <f_close+0x96>
 80078be:	81b0      	strh	r0, [r6, #12]
 80078c0:	2100      	movs	r1, #0
 80078c2:	50e9      	str	r1, [r5, r3]
 80078c4:	e7f7      	b.n	80078b6 <f_close+0x1ee>
 80078c6:	6970      	ldr	r0, [r6, #20]
 80078c8:	f000 fd1a 	bl	8008300 <ff_rel_grant>
 80078cc:	2501      	movs	r5, #1
 80078ce:	e707      	b.n	80076e0 <f_close+0x18>
 80078d0:	2000028c 	.word	0x2000028c

080078d4 <f_mkfs>:
 80078d4:	2800      	cmp	r0, #0
 80078d6:	f000 8084 	beq.w	80079e2 <f_mkfs+0x10e>
 80078da:	e92d 4ff0 	stmdb	sp!, {r4, r5, r6, r7, r8, r9, sl, fp, lr}
 80078de:	f890 e000 	ldrb.w	lr, [r0]
 80078e2:	b091      	sub	sp, #68	; 0x44
 80078e4:	f1be 0f1f 	cmp.w	lr, #31
 80078e8:	d90a      	bls.n	8007900 <f_mkfs+0x2c>
 80078ea:	f1be 0f3a 	cmp.w	lr, #58	; 0x3a
 80078ee:	d06f      	beq.n	80079d0 <f_mkfs+0xfc>
 80078f0:	4684      	mov	ip, r0
 80078f2:	e001      	b.n	80078f8 <f_mkfs+0x24>
 80078f4:	2c3a      	cmp	r4, #58	; 0x3a
 80078f6:	d054      	beq.n	80079a2 <f_mkfs+0xce>
 80078f8:	f81c 4f01 	ldrb.w	r4, [ip, #1]!
 80078fc:	2c1f      	cmp	r4, #31
 80078fe:	d8f9      	bhi.n	80078f4 <f_mkfs+0x20>
 8007900:	2500      	movs	r5, #0
 8007902:	46a8      	mov	r8, r5
 8007904:	488b      	ldr	r0, [pc, #556]	; (8007b34 <f_mkfs+0x260>)
 8007906:	f850 0028 	ldr.w	r0, [r0, r8, lsl #2]
 800790a:	b108      	cbz	r0, 8007910 <f_mkfs+0x3c>
 800790c:	2400      	movs	r4, #0
 800790e:	7004      	strb	r4, [r0, #0]
 8007910:	4628      	mov	r0, r5
 8007912:	4617      	mov	r7, r2
 8007914:	461c      	mov	r4, r3
 8007916:	460e      	mov	r6, r1
 8007918:	f7fb fe36 	bl	8003588 <disk_initialize>
 800791c:	07c2      	lsls	r2, r0, #31
 800791e:	d44b      	bmi.n	80079b8 <f_mkfs+0xe4>
 8007920:	0743      	lsls	r3, r0, #29
 8007922:	d436      	bmi.n	8007992 <f_mkfs+0xbe>
 8007924:	aa0e      	add	r2, sp, #56	; 0x38
 8007926:	2103      	movs	r1, #3
 8007928:	4628      	mov	r0, r5
 800792a:	f7fb fe59 	bl	80035e0 <disk_ioctl>
 800792e:	2800      	cmp	r0, #0
 8007930:	d046      	beq.n	80079c0 <f_mkfs+0xec>
 8007932:	2301      	movs	r3, #1
 8007934:	930e      	str	r3, [sp, #56]	; 0x38
 8007936:	f10d 0236 	add.w	r2, sp, #54	; 0x36
 800793a:	2102      	movs	r1, #2
 800793c:	4628      	mov	r0, r5
 800793e:	f7fb fe4f 	bl	80035e0 <disk_ioctl>
 8007942:	bb50      	cbnz	r0, 800799a <f_mkfs+0xc6>
 8007944:	f8bd 8036 	ldrh.w	r8, [sp, #54]	; 0x36
 8007948:	f5a8 7300 	sub.w	r3, r8, #512	; 0x200
 800794c:	f5b3 6f60 	cmp.w	r3, #3584	; 0xe00
 8007950:	d823      	bhi.n	800799a <f_mkfs+0xc6>
 8007952:	f108 33ff 	add.w	r3, r8, #4294967295
 8007956:	ea13 0f08 	tst.w	r3, r8
 800795a:	d11e      	bne.n	800799a <f_mkfs+0xc6>
 800795c:	2f00      	cmp	r7, #0
 800795e:	d139      	bne.n	80079d4 <f_mkfs+0x100>
 8007960:	9b1a      	ldr	r3, [sp, #104]	; 0x68
 8007962:	fbb3 f3f8 	udiv	r3, r3, r8
 8007966:	9306      	str	r3, [sp, #24]
 8007968:	fb08 f303 	mul.w	r3, r8, r3
 800796c:	930a      	str	r3, [sp, #40]	; 0x28
 800796e:	b173      	cbz	r3, 800798e <f_mkfs+0xba>
 8007970:	aa0f      	add	r2, sp, #60	; 0x3c
 8007972:	2101      	movs	r1, #1
 8007974:	4628      	mov	r0, r5
 8007976:	f7fb fe33 	bl	80035e0 <disk_ioctl>
 800797a:	4603      	mov	r3, r0
 800797c:	b968      	cbnz	r0, 800799a <f_mkfs+0xc6>
 800797e:	f016 0208 	ands.w	r2, r6, #8
 8007982:	980f      	ldr	r0, [sp, #60]	; 0x3c
 8007984:	9208      	str	r2, [sp, #32]
 8007986:	d132      	bne.n	80079ee <f_mkfs+0x11a>
 8007988:	283e      	cmp	r0, #62	; 0x3e
 800798a:	f200 80bc 	bhi.w	8007b06 <f_mkfs+0x232>
 800798e:	200e      	movs	r0, #14
 8007990:	e000      	b.n	8007994 <f_mkfs+0xc0>
 8007992:	200a      	movs	r0, #10
 8007994:	b011      	add	sp, #68	; 0x44
 8007996:	e8bd 8ff0 	ldmia.w	sp!, {r4, r5, r6, r7, r8, r9, sl, fp, pc}
 800799a:	2001      	movs	r0, #1
 800799c:	b011      	add	sp, #68	; 0x44
 800799e:	e8bd 8ff0 	ldmia.w	sp!, {r4, r5, r6, r7, r8, r9, sl, fp, pc}
 80079a2:	3001      	adds	r0, #1
 80079a4:	4584      	cmp	ip, r0
 80079a6:	f1ae 0830 	sub.w	r8, lr, #48	; 0x30
 80079aa:	d111      	bne.n	80079d0 <f_mkfs+0xfc>
 80079ac:	f1be 0f30 	cmp.w	lr, #48	; 0x30
 80079b0:	d10e      	bne.n	80079d0 <f_mkfs+0xfc>
 80079b2:	fa5f f588 	uxtb.w	r5, r8
 80079b6:	e7a5      	b.n	8007904 <f_mkfs+0x30>
 80079b8:	2003      	movs	r0, #3
 80079ba:	b011      	add	sp, #68	; 0x44
 80079bc:	e8bd 8ff0 	ldmia.w	sp!, {r4, r5, r6, r7, r8, r9, sl, fp, pc}
 80079c0:	9a0e      	ldr	r2, [sp, #56]	; 0x38
 80079c2:	1e53      	subs	r3, r2, #1
 80079c4:	f5b3 4f00 	cmp.w	r3, #32768	; 0x8000
 80079c8:	d2b3      	bcs.n	8007932 <f_mkfs+0x5e>
 80079ca:	421a      	tst	r2, r3
 80079cc:	d0b3      	beq.n	8007936 <f_mkfs+0x62>
 80079ce:	e7b0      	b.n	8007932 <f_mkfs+0x5e>
 80079d0:	200b      	movs	r0, #11
 80079d2:	e7df      	b.n	8007994 <f_mkfs+0xc0>
 80079d4:	4547      	cmp	r7, r8
 80079d6:	d302      	bcc.n	80079de <f_mkfs+0x10a>
 80079d8:	f1b7 7f80 	cmp.w	r7, #16777216	; 0x1000000
 80079dc:	d903      	bls.n	80079e6 <f_mkfs+0x112>
 80079de:	2013      	movs	r0, #19
 80079e0:	e7d8      	b.n	8007994 <f_mkfs+0xc0>
 80079e2:	200b      	movs	r0, #11
 80079e4:	4770      	bx	lr
 80079e6:	1e7b      	subs	r3, r7, #1
 80079e8:	423b      	tst	r3, r7
 80079ea:	d1f8      	bne.n	80079de <f_mkfs+0x10a>
 80079ec:	e7b8      	b.n	8007960 <f_mkfs+0x8c>
 80079ee:	9302      	str	r3, [sp, #8]
 80079f0:	2320      	movs	r3, #32
 80079f2:	930b      	str	r3, [sp, #44]	; 0x2c
 80079f4:	2301      	movs	r3, #1
 80079f6:	9307      	str	r3, [sp, #28]
 80079f8:	287f      	cmp	r0, #127	; 0x7f
 80079fa:	900f      	str	r0, [sp, #60]	; 0x3c
 80079fc:	d9c7      	bls.n	800798e <f_mkfs+0xba>
 80079fe:	fbb7 f3f8 	udiv	r3, r7, r8
 8007a02:	2b80      	cmp	r3, #128	; 0x80
 8007a04:	9301      	str	r3, [sp, #4]
 8007a06:	d8ea      	bhi.n	80079de <f_mkfs+0x10a>
 8007a08:	f016 0202 	ands.w	r2, r6, #2
 8007a0c:	9209      	str	r2, [sp, #36]	; 0x24
 8007a0e:	f000 81ca 	beq.w	8007da6 <f_mkfs+0x4d2>
 8007a12:	f006 0207 	and.w	r2, r6, #7
 8007a16:	2a02      	cmp	r2, #2
 8007a18:	d002      	beq.n	8007a20 <f_mkfs+0x14c>
 8007a1a:	07f2      	lsls	r2, r6, #31
 8007a1c:	f100 81c6 	bmi.w	8007dac <f_mkfs+0x4d8>
 8007a20:	f8bd 2036 	ldrh.w	r2, [sp, #54]	; 0x36
 8007a24:	9b01      	ldr	r3, [sp, #4]
 8007a26:	2b00      	cmp	r3, #0
 8007a28:	f000 81e8 	beq.w	8007dfc <f_mkfs+0x528>
 8007a2c:	9901      	ldr	r1, [sp, #4]
 8007a2e:	9b01      	ldr	r3, [sp, #4]
 8007a30:	f8df c104 	ldr.w	ip, [pc, #260]	; 8007b38 <f_mkfs+0x264>
 8007a34:	fbb0 f6f3 	udiv	r6, r0, r3
 8007a38:	eb02 0786 	add.w	r7, r2, r6, lsl #2
 8007a3c:	f5a6 467f 	sub.w	r6, r6, #65280	; 0xff00
 8007a40:	3ef6      	subs	r6, #246	; 0xf6
 8007a42:	3707      	adds	r7, #7
 8007a44:	4566      	cmp	r6, ip
 8007a46:	fbb7 f7f2 	udiv	r7, r7, r2
 8007a4a:	d8a0      	bhi.n	800798e <f_mkfs+0xba>
 8007a4c:	9101      	str	r1, [sp, #4]
 8007a4e:	2100      	movs	r1, #0
 8007a50:	f04f 0b20 	mov.w	fp, #32
 8007a54:	f04f 0803 	mov.w	r8, #3
 8007a58:	461e      	mov	r6, r3
 8007a5a:	9b0e      	ldr	r3, [sp, #56]	; 0x38
 8007a5c:	f8dd 902c 	ldr.w	r9, [sp, #44]	; 0x2c
 8007a60:	9104      	str	r1, [sp, #16]
 8007a62:	9303      	str	r3, [sp, #12]
 8007a64:	eb07 0e01 	add.w	lr, r7, r1
 8007a68:	44ce      	add	lr, r9
 8007a6a:	f103 3cff 	add.w	ip, r3, #4294967295
 8007a6e:	44f4      	add	ip, lr
 8007a70:	f1c3 0a00 	rsb	sl, r3, #0
 8007a74:	ea0c 0c0a 	and.w	ip, ip, sl
 8007a78:	f1b8 0f03 	cmp.w	r8, #3
 8007a7c:	ebac 0c0e 	sub.w	ip, ip, lr
 8007a80:	9902      	ldr	r1, [sp, #8]
 8007a82:	d05b      	beq.n	8007b3c <f_mkfs+0x268>
 8007a84:	ebc1 1a06 	rsb	sl, r1, r6, lsl #4
 8007a88:	44d6      	add	lr, sl
 8007a8a:	4586      	cmp	lr, r0
 8007a8c:	4467      	add	r7, ip
 8007a8e:	f63f af7e 	bhi.w	800798e <f_mkfs+0xba>
 8007a92:	9b04      	ldr	r3, [sp, #16]
 8007a94:	eba0 0c0b 	sub.w	ip, r0, fp
 8007a98:	ebac 0c07 	sub.w	ip, ip, r7
 8007a9c:	ebac 0c03 	sub.w	ip, ip, r3
 8007aa0:	fbbc f3f6 	udiv	r3, ip, r6
 8007aa4:	f1b8 0f02 	cmp.w	r8, #2
 8007aa8:	9305      	str	r3, [sp, #20]
 8007aaa:	f040 819e 	bne.w	8007dea <f_mkfs+0x516>
 8007aae:	f64f 7cf5 	movw	ip, #65525	; 0xfff5
 8007ab2:	4563      	cmp	r3, ip
 8007ab4:	d933      	bls.n	8007b1e <f_mkfs+0x24a>
 8007ab6:	9b01      	ldr	r3, [sp, #4]
 8007ab8:	bb6b      	cbnz	r3, 8007b16 <f_mkfs+0x242>
 8007aba:	0076      	lsls	r6, r6, #1
 8007abc:	2e40      	cmp	r6, #64	; 0x40
 8007abe:	d906      	bls.n	8007ace <f_mkfs+0x1fa>
 8007ac0:	9b09      	ldr	r3, [sp, #36]	; 0x24
 8007ac2:	2b00      	cmp	r3, #0
 8007ac4:	f040 819a 	bne.w	8007dfc <f_mkfs+0x528>
 8007ac8:	2e80      	cmp	r6, #128	; 0x80
 8007aca:	f63f af60 	bhi.w	800798e <f_mkfs+0xba>
 8007ace:	9601      	str	r6, [sp, #4]
 8007ad0:	fbb0 f7f6 	udiv	r7, r0, r6
 8007ad4:	f640 7cf5 	movw	ip, #4085	; 0xff5
 8007ad8:	4567      	cmp	r7, ip
 8007ada:	f240 817d 	bls.w	8007dd8 <f_mkfs+0x504>
 8007ade:	f04f 0802 	mov.w	r8, #2
 8007ae2:	3702      	adds	r7, #2
 8007ae4:	007f      	lsls	r7, r7, #1
 8007ae6:	f44f 4c80 	mov.w	ip, #16384	; 0x4000
 8007aea:	fbbc f1f2 	udiv	r1, ip, r2
 8007aee:	f102 3eff 	add.w	lr, r2, #4294967295
 8007af2:	4477      	add	r7, lr
 8007af4:	fbb7 f7f2 	udiv	r7, r7, r2
 8007af8:	9104      	str	r1, [sp, #16]
 8007afa:	f04f 0b01 	mov.w	fp, #1
 8007afe:	f8dd 901c 	ldr.w	r9, [sp, #28]
 8007b02:	9b03      	ldr	r3, [sp, #12]
 8007b04:	e7ae      	b.n	8007a64 <f_mkfs+0x190>
 8007b06:	235f      	movs	r3, #95	; 0x5f
 8007b08:	930b      	str	r3, [sp, #44]	; 0x2c
 8007b0a:	2340      	movs	r3, #64	; 0x40
 8007b0c:	9307      	str	r3, [sp, #28]
 8007b0e:	233f      	movs	r3, #63	; 0x3f
 8007b10:	383f      	subs	r0, #63	; 0x3f
 8007b12:	9302      	str	r3, [sp, #8]
 8007b14:	e770      	b.n	80079f8 <f_mkfs+0x124>
 8007b16:	9909      	ldr	r1, [sp, #36]	; 0x24
 8007b18:	2900      	cmp	r1, #0
 8007b1a:	d183      	bne.n	8007a24 <f_mkfs+0x150>
 8007b1c:	e737      	b.n	800798e <f_mkfs+0xba>
 8007b1e:	f640 7cf5 	movw	ip, #4085	; 0xff5
 8007b22:	9905      	ldr	r1, [sp, #20]
 8007b24:	4561      	cmp	r1, ip
 8007b26:	d81e      	bhi.n	8007b66 <f_mkfs+0x292>
 8007b28:	9b01      	ldr	r3, [sp, #4]
 8007b2a:	2b00      	cmp	r3, #0
 8007b2c:	f47f af2f 	bne.w	800798e <f_mkfs+0xba>
 8007b30:	0076      	lsls	r6, r6, #1
 8007b32:	e7c9      	b.n	8007ac8 <f_mkfs+0x1f4>
 8007b34:	20000288 	.word	0x20000288
 8007b38:	0ffeffff 	.word	0x0ffeffff
 8007b3c:	ebc1 1106 	rsb	r1, r1, r6, lsl #4
 8007b40:	4471      	add	r1, lr
 8007b42:	4281      	cmp	r1, r0
 8007b44:	44e3      	add	fp, ip
 8007b46:	44e1      	add	r9, ip
 8007b48:	f63f af21 	bhi.w	800798e <f_mkfs+0xba>
 8007b4c:	9b04      	ldr	r3, [sp, #16]
 8007b4e:	eba0 010b 	sub.w	r1, r0, fp
 8007b52:	1bc9      	subs	r1, r1, r7
 8007b54:	1ac9      	subs	r1, r1, r3
 8007b56:	fbb1 f1f6 	udiv	r1, r1, r6
 8007b5a:	f64f 73f5 	movw	r3, #65525	; 0xfff5
 8007b5e:	4299      	cmp	r1, r3
 8007b60:	9105      	str	r1, [sp, #20]
 8007b62:	f240 8117 	bls.w	8007d94 <f_mkfs+0x4c0>
 8007b66:	4623      	mov	r3, r4
 8007b68:	f04f 0c00 	mov.w	ip, #0
 8007b6c:	18a1      	adds	r1, r4, r2
 8007b6e:	f803 cb01 	strb.w	ip, [r3], #1
 8007b72:	428b      	cmp	r3, r1
 8007b74:	d1fb      	bne.n	8007b6e <f_mkfs+0x29a>
 8007b76:	2300      	movs	r3, #0
 8007b78:	49c7      	ldr	r1, [pc, #796]	; (8007e98 <f_mkfs+0x5c4>)
 8007b7a:	f811 c003 	ldrb.w	ip, [r1, r3]
 8007b7e:	f804 c003 	strb.w	ip, [r4, r3]
 8007b82:	3301      	adds	r3, #1
 8007b84:	2b0b      	cmp	r3, #11
 8007b86:	d1f8      	bne.n	8007b7a <f_mkfs+0x2a6>
 8007b88:	f1b8 0f03 	cmp.w	r8, #3
 8007b8c:	bf14      	ite	ne
 8007b8e:	f04f 0c02 	movne.w	ip, #2
 8007b92:	f04f 0c00 	moveq.w	ip, #0
 8007b96:	2300      	movs	r3, #0
 8007b98:	2101      	movs	r1, #1
 8007b9a:	72e2      	strb	r2, [r4, #11]
 8007b9c:	f884 b00e 	strb.w	fp, [r4, #14]
 8007ba0:	0a12      	lsrs	r2, r2, #8
 8007ba2:	f3cb 2b07 	ubfx	fp, fp, #8, #8
 8007ba6:	f5b0 3f80 	cmp.w	r0, #65536	; 0x10000
 8007baa:	7463      	strb	r3, [r4, #17]
 8007bac:	7322      	strb	r2, [r4, #12]
 8007bae:	7366      	strb	r6, [r4, #13]
 8007bb0:	f884 b00f 	strb.w	fp, [r4, #15]
 8007bb4:	f884 c012 	strb.w	ip, [r4, #18]
 8007bb8:	7421      	strb	r1, [r4, #16]
 8007bba:	b2c3      	uxtb	r3, r0
 8007bbc:	f080 81ef 	bcs.w	8007f9e <f_mkfs+0x6ca>
 8007bc0:	f3c0 2007 	ubfx	r0, r0, #8, #8
 8007bc4:	7520      	strb	r0, [r4, #20]
 8007bc6:	74e3      	strb	r3, [r4, #19]
 8007bc8:	2300      	movs	r3, #0
 8007bca:	21f8      	movs	r1, #248	; 0xf8
 8007bcc:	4ab3      	ldr	r2, [pc, #716]	; (8007e9c <f_mkfs+0x5c8>)
 8007bce:	f89d b008 	ldrb.w	fp, [sp, #8]
 8007bd2:	f1b8 0f03 	cmp.w	r8, #3
 8007bd6:	7561      	strb	r1, [r4, #21]
 8007bd8:	7763      	strb	r3, [r4, #29]
 8007bda:	77a3      	strb	r3, [r4, #30]
 8007bdc:	77e3      	strb	r3, [r4, #31]
 8007bde:	61a2      	str	r2, [r4, #24]
 8007be0:	f884 b01c 	strb.w	fp, [r4, #28]
 8007be4:	fa5f fa87 	uxtb.w	sl, r7
 8007be8:	f000 815e 	beq.w	8007ea8 <f_mkfs+0x5d4>
 8007bec:	f7fb fc50 	bl	8003490 <get_fattime>
 8007bf0:	2129      	movs	r1, #41	; 0x29
 8007bf2:	f04f 0c80 	mov.w	ip, #128	; 0x80
 8007bf6:	0a03      	lsrs	r3, r0, #8
 8007bf8:	f884 3028 	strb.w	r3, [r4, #40]	; 0x28
 8007bfc:	0c03      	lsrs	r3, r0, #16
 8007bfe:	f884 0027 	strb.w	r0, [r4, #39]	; 0x27
 8007c02:	f884 3029 	strb.w	r3, [r4, #41]	; 0x29
 8007c06:	0e00      	lsrs	r0, r0, #24
 8007c08:	f3c7 2307 	ubfx	r3, r7, #8, #8
 8007c0c:	4aa4      	ldr	r2, [pc, #656]	; (8007ea0 <f_mkfs+0x5cc>)
 8007c0e:	f884 1026 	strb.w	r1, [r4, #38]	; 0x26
 8007c12:	75e3      	strb	r3, [r4, #23]
 8007c14:	f884 a016 	strb.w	sl, [r4, #22]
 8007c18:	f884 002a 	strb.w	r0, [r4, #42]	; 0x2a
 8007c1c:	f884 c024 	strb.w	ip, [r4, #36]	; 0x24
 8007c20:	f104 032a 	add.w	r3, r4, #42	; 0x2a
 8007c24:	f104 013d 	add.w	r1, r4, #61	; 0x3d
 8007c28:	f812 0f01 	ldrb.w	r0, [r2, #1]!
 8007c2c:	f803 0f01 	strb.w	r0, [r3, #1]!
 8007c30:	4299      	cmp	r1, r3
 8007c32:	d1f9      	bne.n	8007c28 <f_mkfs+0x354>
 8007c34:	2255      	movs	r2, #85	; 0x55
 8007c36:	23aa      	movs	r3, #170	; 0xaa
 8007c38:	f884 21fe 	strb.w	r2, [r4, #510]	; 0x1fe
 8007c3c:	f884 31ff 	strb.w	r3, [r4, #511]	; 0x1ff
 8007c40:	9a02      	ldr	r2, [sp, #8]
 8007c42:	2301      	movs	r3, #1
 8007c44:	4621      	mov	r1, r4
 8007c46:	4628      	mov	r0, r5
 8007c48:	f7fb fcbc 	bl	80035c4 <disk_write>
 8007c4c:	2800      	cmp	r0, #0
 8007c4e:	f47f aea4 	bne.w	800799a <f_mkfs+0xc6>
 8007c52:	4623      	mov	r3, r4
 8007c54:	2100      	movs	r1, #0
 8007c56:	9a0a      	ldr	r2, [sp, #40]	; 0x28
 8007c58:	4422      	add	r2, r4
 8007c5a:	f803 1b01 	strb.w	r1, [r3], #1
 8007c5e:	429a      	cmp	r2, r3
 8007c60:	d1fb      	bne.n	8007c5a <f_mkfs+0x386>
 8007c62:	f1b8 0f03 	cmp.w	r8, #3
 8007c66:	f000 81a6 	beq.w	8007fb6 <f_mkfs+0x6e2>
 8007c6a:	f1b8 0f01 	cmp.w	r8, #1
 8007c6e:	f04f 03ff 	mov.w	r3, #255	; 0xff
 8007c72:	bf14      	ite	ne
 8007c74:	21ff      	movne	r1, #255	; 0xff
 8007c76:	2100      	moveq	r1, #0
 8007c78:	22f8      	movs	r2, #248	; 0xf8
 8007c7a:	70e1      	strb	r1, [r4, #3]
 8007c7c:	7022      	strb	r2, [r4, #0]
 8007c7e:	7063      	strb	r3, [r4, #1]
 8007c80:	70a3      	strb	r3, [r4, #2]
 8007c82:	9b06      	ldr	r3, [sp, #24]
 8007c84:	464a      	mov	r2, r9
 8007c86:	42bb      	cmp	r3, r7
 8007c88:	bf28      	it	cs
 8007c8a:	463b      	movcs	r3, r7
 8007c8c:	4621      	mov	r1, r4
 8007c8e:	4628      	mov	r0, r5
 8007c90:	469a      	mov	sl, r3
 8007c92:	f7fb fc97 	bl	80035c4 <disk_write>
 8007c96:	2800      	cmp	r0, #0
 8007c98:	f47f ae7f 	bne.w	800799a <f_mkfs+0xc6>
 8007c9c:	4622      	mov	r2, r4
 8007c9e:	f8bd 3036 	ldrh.w	r3, [sp, #54]	; 0x36
 8007ca2:	f04f 0100 	mov.w	r1, #0
 8007ca6:	3b01      	subs	r3, #1
 8007ca8:	f802 1b01 	strb.w	r1, [r2], #1
 8007cac:	d1f9      	bne.n	8007ca2 <f_mkfs+0x3ce>
 8007cae:	ebb7 070a 	subs.w	r7, r7, sl
 8007cb2:	44d1      	add	r9, sl
 8007cb4:	d1e5      	bne.n	8007c82 <f_mkfs+0x3ae>
 8007cb6:	9f04      	ldr	r7, [sp, #16]
 8007cb8:	f1b8 0f03 	cmp.w	r8, #3
 8007cbc:	bf08      	it	eq
 8007cbe:	4637      	moveq	r7, r6
 8007cc0:	9b06      	ldr	r3, [sp, #24]
 8007cc2:	464a      	mov	r2, r9
 8007cc4:	42bb      	cmp	r3, r7
 8007cc6:	bf28      	it	cs
 8007cc8:	463b      	movcs	r3, r7
 8007cca:	4621      	mov	r1, r4
 8007ccc:	4628      	mov	r0, r5
 8007cce:	461e      	mov	r6, r3
 8007cd0:	f7fb fc78 	bl	80035c4 <disk_write>
 8007cd4:	44b1      	add	r9, r6
 8007cd6:	2800      	cmp	r0, #0
 8007cd8:	f47f ae5f 	bne.w	800799a <f_mkfs+0xc6>
 8007cdc:	1bbf      	subs	r7, r7, r6
 8007cde:	d1ef      	bne.n	8007cc0 <f_mkfs+0x3ec>
 8007ce0:	f1b8 0f03 	cmp.w	r8, #3
 8007ce4:	f000 8171 	beq.w	8007fca <f_mkfs+0x6f6>
 8007ce8:	9b0f      	ldr	r3, [sp, #60]	; 0x3c
 8007cea:	f5b3 3f80 	cmp.w	r3, #65536	; 0x10000
 8007cee:	f080 816e 	bcs.w	8007fce <f_mkfs+0x6fa>
 8007cf2:	f1b8 0f02 	cmp.w	r8, #2
 8007cf6:	bf14      	ite	ne
 8007cf8:	2301      	movne	r3, #1
 8007cfa:	2304      	moveq	r3, #4
 8007cfc:	9a08      	ldr	r2, [sp, #32]
 8007cfe:	2a00      	cmp	r2, #0
 8007d00:	d13f      	bne.n	8007d82 <f_mkfs+0x4ae>
 8007d02:	4621      	mov	r1, r4
 8007d04:	9808      	ldr	r0, [sp, #32]
 8007d06:	f8bd 2036 	ldrh.w	r2, [sp, #54]	; 0x36
 8007d0a:	3a01      	subs	r2, #1
 8007d0c:	f801 0b01 	strb.w	r0, [r1], #1
 8007d10:	d1fb      	bne.n	8007d0a <f_mkfs+0x436>
 8007d12:	f643 60c1 	movw	r0, #16065	; 0x3ec1
 8007d16:	990f      	ldr	r1, [sp, #60]	; 0x3c
 8007d18:	f884 31c2 	strb.w	r3, [r4, #450]	; 0x1c2
 8007d1c:	9b02      	ldr	r3, [sp, #8]
 8007d1e:	2755      	movs	r7, #85	; 0x55
 8007d20:	440b      	add	r3, r1
 8007d22:	fbb3 f3f0 	udiv	r3, r3, r0
 8007d26:	26aa      	movs	r6, #170	; 0xaa
 8007d28:	20fe      	movs	r0, #254	; 0xfe
 8007d2a:	f884 31c5 	strb.w	r3, [r4, #453]	; 0x1c5
 8007d2e:	089b      	lsrs	r3, r3, #2
 8007d30:	f043 033f 	orr.w	r3, r3, #63	; 0x3f
 8007d34:	f884 31c4 	strb.w	r3, [r4, #452]	; 0x1c4
 8007d38:	0a0b      	lsrs	r3, r1, #8
 8007d3a:	f884 31cb 	strb.w	r3, [r4, #459]	; 0x1cb
 8007d3e:	0e0b      	lsrs	r3, r1, #24
 8007d40:	f884 31cd 	strb.w	r3, [r4, #461]	; 0x1cd
 8007d44:	4b57      	ldr	r3, [pc, #348]	; (8007ea4 <f_mkfs+0x5d0>)
 8007d46:	ea4f 4c11 	mov.w	ip, r1, lsr #16
 8007d4a:	f884 11ca 	strb.w	r1, [r4, #458]	; 0x1ca
 8007d4e:	f884 01c3 	strb.w	r0, [r4, #451]	; 0x1c3
 8007d52:	f8c4 31be 	str.w	r3, [r4, #446]	; 0x1be
 8007d56:	f884 b1c6 	strb.w	fp, [r4, #454]	; 0x1c6
 8007d5a:	f884 21c7 	strb.w	r2, [r4, #455]	; 0x1c7
 8007d5e:	f884 21c8 	strb.w	r2, [r4, #456]	; 0x1c8
 8007d62:	f884 21c9 	strb.w	r2, [r4, #457]	; 0x1c9
 8007d66:	f884 c1cc 	strb.w	ip, [r4, #460]	; 0x1cc
 8007d6a:	f884 71fe 	strb.w	r7, [r4, #510]	; 0x1fe
 8007d6e:	f884 61ff 	strb.w	r6, [r4, #511]	; 0x1ff
 8007d72:	4621      	mov	r1, r4
 8007d74:	2301      	movs	r3, #1
 8007d76:	4628      	mov	r0, r5
 8007d78:	f7fb fc24 	bl	80035c4 <disk_write>
 8007d7c:	2800      	cmp	r0, #0
 8007d7e:	f47f ae0c 	bne.w	800799a <f_mkfs+0xc6>
 8007d82:	2200      	movs	r2, #0
 8007d84:	4628      	mov	r0, r5
 8007d86:	4611      	mov	r1, r2
 8007d88:	f7fb fc2a 	bl	80035e0 <disk_ioctl>
 8007d8c:	3000      	adds	r0, #0
 8007d8e:	bf18      	it	ne
 8007d90:	2001      	movne	r0, #1
 8007d92:	e5ff      	b.n	8007994 <f_mkfs+0xc0>
 8007d94:	9b01      	ldr	r3, [sp, #4]
 8007d96:	2b00      	cmp	r3, #0
 8007d98:	f47f adf9 	bne.w	800798e <f_mkfs+0xba>
 8007d9c:	0873      	lsrs	r3, r6, #1
 8007d9e:	9301      	str	r3, [sp, #4]
 8007da0:	f47f ae44 	bne.w	8007a2c <f_mkfs+0x158>
 8007da4:	e5f3      	b.n	800798e <f_mkfs+0xba>
 8007da6:	07f3      	lsls	r3, r6, #31
 8007da8:	f57f ae19 	bpl.w	80079de <f_mkfs+0x10a>
 8007dac:	9b01      	ldr	r3, [sp, #4]
 8007dae:	2b00      	cmp	r3, #0
 8007db0:	d16c      	bne.n	8007e8c <f_mkfs+0x5b8>
 8007db2:	0b02      	lsrs	r2, r0, #12
 8007db4:	d04b      	beq.n	8007e4e <f_mkfs+0x57a>
 8007db6:	2a03      	cmp	r2, #3
 8007db8:	d94f      	bls.n	8007e5a <f_mkfs+0x586>
 8007dba:	2a0f      	cmp	r2, #15
 8007dbc:	d92f      	bls.n	8007e1e <f_mkfs+0x54a>
 8007dbe:	2a3f      	cmp	r2, #63	; 0x3f
 8007dc0:	d939      	bls.n	8007e36 <f_mkfs+0x562>
 8007dc2:	2aff      	cmp	r2, #255	; 0xff
 8007dc4:	d931      	bls.n	8007e2a <f_mkfs+0x556>
 8007dc6:	f5b2 7f00 	cmp.w	r2, #512	; 0x200
 8007dca:	d33a      	bcc.n	8007e42 <f_mkfs+0x56e>
 8007dcc:	9b0e      	ldr	r3, [sp, #56]	; 0x38
 8007dce:	2640      	movs	r6, #64	; 0x40
 8007dd0:	9303      	str	r3, [sp, #12]
 8007dd2:	f8bd 2036 	ldrh.w	r2, [sp, #54]	; 0x36
 8007dd6:	e67b      	b.n	8007ad0 <f_mkfs+0x1fc>
 8007dd8:	f04f 0801 	mov.w	r8, #1
 8007ddc:	eb07 0747 	add.w	r7, r7, r7, lsl #1
 8007de0:	4447      	add	r7, r8
 8007de2:	fa27 f708 	lsr.w	r7, r7, r8
 8007de6:	3703      	adds	r7, #3
 8007de8:	e67d      	b.n	8007ae6 <f_mkfs+0x212>
 8007dea:	f640 73f5 	movw	r3, #4085	; 0xff5
 8007dee:	9905      	ldr	r1, [sp, #20]
 8007df0:	4299      	cmp	r1, r3
 8007df2:	f63f adcc 	bhi.w	800798e <f_mkfs+0xba>
 8007df6:	f04f 0801 	mov.w	r8, #1
 8007dfa:	e6b4      	b.n	8007b66 <f_mkfs+0x292>
 8007dfc:	0c41      	lsrs	r1, r0, #17
 8007dfe:	d042      	beq.n	8007e86 <f_mkfs+0x5b2>
 8007e00:	2901      	cmp	r1, #1
 8007e02:	d03c      	beq.n	8007e7e <f_mkfs+0x5aa>
 8007e04:	2903      	cmp	r1, #3
 8007e06:	d936      	bls.n	8007e76 <f_mkfs+0x5a2>
 8007e08:	2907      	cmp	r1, #7
 8007e0a:	d930      	bls.n	8007e6e <f_mkfs+0x59a>
 8007e0c:	290f      	cmp	r1, #15
 8007e0e:	d92a      	bls.n	8007e66 <f_mkfs+0x592>
 8007e10:	2920      	cmp	r1, #32
 8007e12:	bf34      	ite	cc
 8007e14:	2320      	movcc	r3, #32
 8007e16:	2340      	movcs	r3, #64	; 0x40
 8007e18:	2100      	movs	r1, #0
 8007e1a:	9301      	str	r3, [sp, #4]
 8007e1c:	e607      	b.n	8007a2e <f_mkfs+0x15a>
 8007e1e:	9b0e      	ldr	r3, [sp, #56]	; 0x38
 8007e20:	2604      	movs	r6, #4
 8007e22:	9303      	str	r3, [sp, #12]
 8007e24:	f8bd 2036 	ldrh.w	r2, [sp, #54]	; 0x36
 8007e28:	e652      	b.n	8007ad0 <f_mkfs+0x1fc>
 8007e2a:	9b0e      	ldr	r3, [sp, #56]	; 0x38
 8007e2c:	2610      	movs	r6, #16
 8007e2e:	9303      	str	r3, [sp, #12]
 8007e30:	f8bd 2036 	ldrh.w	r2, [sp, #54]	; 0x36
 8007e34:	e64c      	b.n	8007ad0 <f_mkfs+0x1fc>
 8007e36:	9b0e      	ldr	r3, [sp, #56]	; 0x38
 8007e38:	2608      	movs	r6, #8
 8007e3a:	9303      	str	r3, [sp, #12]
 8007e3c:	f8bd 2036 	ldrh.w	r2, [sp, #54]	; 0x36
 8007e40:	e646      	b.n	8007ad0 <f_mkfs+0x1fc>
 8007e42:	9b0e      	ldr	r3, [sp, #56]	; 0x38
 8007e44:	2620      	movs	r6, #32
 8007e46:	9303      	str	r3, [sp, #12]
 8007e48:	f8bd 2036 	ldrh.w	r2, [sp, #54]	; 0x36
 8007e4c:	e640      	b.n	8007ad0 <f_mkfs+0x1fc>
 8007e4e:	9b0e      	ldr	r3, [sp, #56]	; 0x38
 8007e50:	2601      	movs	r6, #1
 8007e52:	9303      	str	r3, [sp, #12]
 8007e54:	f8bd 2036 	ldrh.w	r2, [sp, #54]	; 0x36
 8007e58:	e63a      	b.n	8007ad0 <f_mkfs+0x1fc>
 8007e5a:	9b0e      	ldr	r3, [sp, #56]	; 0x38
 8007e5c:	2602      	movs	r6, #2
 8007e5e:	9303      	str	r3, [sp, #12]
 8007e60:	f8bd 2036 	ldrh.w	r2, [sp, #54]	; 0x36
 8007e64:	e634      	b.n	8007ad0 <f_mkfs+0x1fc>
 8007e66:	2310      	movs	r3, #16
 8007e68:	2100      	movs	r1, #0
 8007e6a:	9301      	str	r3, [sp, #4]
 8007e6c:	e5df      	b.n	8007a2e <f_mkfs+0x15a>
 8007e6e:	2308      	movs	r3, #8
 8007e70:	2100      	movs	r1, #0
 8007e72:	9301      	str	r3, [sp, #4]
 8007e74:	e5db      	b.n	8007a2e <f_mkfs+0x15a>
 8007e76:	2304      	movs	r3, #4
 8007e78:	2100      	movs	r1, #0
 8007e7a:	9301      	str	r3, [sp, #4]
 8007e7c:	e5d7      	b.n	8007a2e <f_mkfs+0x15a>
 8007e7e:	2302      	movs	r3, #2
 8007e80:	2100      	movs	r1, #0
 8007e82:	9301      	str	r3, [sp, #4]
 8007e84:	e5d3      	b.n	8007a2e <f_mkfs+0x15a>
 8007e86:	2301      	movs	r3, #1
 8007e88:	9301      	str	r3, [sp, #4]
 8007e8a:	e5d0      	b.n	8007a2e <f_mkfs+0x15a>
 8007e8c:	461e      	mov	r6, r3
 8007e8e:	9b0e      	ldr	r3, [sp, #56]	; 0x38
 8007e90:	f8bd 2036 	ldrh.w	r2, [sp, #54]	; 0x36
 8007e94:	9303      	str	r3, [sp, #12]
 8007e96:	e61b      	b.n	8007ad0 <f_mkfs+0x1fc>
 8007e98:	0800a8dc 	.word	0x0800a8dc
 8007e9c:	00ff003f 	.word	0x00ff003f
 8007ea0:	0800a8fb 	.word	0x0800a8fb
 8007ea4:	00010100 	.word	0x00010100
 8007ea8:	f7fb faf2 	bl	8003490 <get_fattime>
 8007eac:	2280      	movs	r2, #128	; 0x80
 8007eae:	2329      	movs	r3, #41	; 0x29
 8007eb0:	f04f 0c02 	mov.w	ip, #2
 8007eb4:	0a01      	lsrs	r1, r0, #8
 8007eb6:	f884 1044 	strb.w	r1, [r4, #68]	; 0x44
 8007eba:	0c01      	lsrs	r1, r0, #16
 8007ebc:	f884 1045 	strb.w	r1, [r4, #69]	; 0x45
 8007ec0:	4944      	ldr	r1, [pc, #272]	; (8007fd4 <f_mkfs+0x700>)
 8007ec2:	f884 0043 	strb.w	r0, [r4, #67]	; 0x43
 8007ec6:	0e00      	lsrs	r0, r0, #24
 8007ec8:	f884 0046 	strb.w	r0, [r4, #70]	; 0x46
 8007ecc:	f884 2040 	strb.w	r2, [r4, #64]	; 0x40
 8007ed0:	0a38      	lsrs	r0, r7, #8
 8007ed2:	0c3a      	lsrs	r2, r7, #16
 8007ed4:	f884 3042 	strb.w	r3, [r4, #66]	; 0x42
 8007ed8:	6321      	str	r1, [r4, #48]	; 0x30
 8007eda:	0e3b      	lsrs	r3, r7, #24
 8007edc:	493e      	ldr	r1, [pc, #248]	; (8007fd8 <f_mkfs+0x704>)
 8007ede:	f884 2026 	strb.w	r2, [r4, #38]	; 0x26
 8007ee2:	f884 3027 	strb.w	r3, [r4, #39]	; 0x27
 8007ee6:	f884 a024 	strb.w	sl, [r4, #36]	; 0x24
 8007eea:	f8c4 c02c 	str.w	ip, [r4, #44]	; 0x2c
 8007eee:	f884 0025 	strb.w	r0, [r4, #37]	; 0x25
 8007ef2:	f104 0346 	add.w	r3, r4, #70	; 0x46
 8007ef6:	f104 0259 	add.w	r2, r4, #89	; 0x59
 8007efa:	f811 0f01 	ldrb.w	r0, [r1, #1]!
 8007efe:	f803 0f01 	strb.w	r0, [r3, #1]!
 8007f02:	429a      	cmp	r2, r3
 8007f04:	d1f9      	bne.n	8007efa <f_mkfs+0x626>
 8007f06:	2255      	movs	r2, #85	; 0x55
 8007f08:	23aa      	movs	r3, #170	; 0xaa
 8007f0a:	f884 21fe 	strb.w	r2, [r4, #510]	; 0x1fe
 8007f0e:	f884 31ff 	strb.w	r3, [r4, #511]	; 0x1ff
 8007f12:	9a02      	ldr	r2, [sp, #8]
 8007f14:	2301      	movs	r3, #1
 8007f16:	4621      	mov	r1, r4
 8007f18:	4628      	mov	r0, r5
 8007f1a:	f7fb fb53 	bl	80035c4 <disk_write>
 8007f1e:	4682      	mov	sl, r0
 8007f20:	2800      	cmp	r0, #0
 8007f22:	f47f ad3a 	bne.w	800799a <f_mkfs+0xc6>
 8007f26:	9a02      	ldr	r2, [sp, #8]
 8007f28:	2301      	movs	r3, #1
 8007f2a:	3206      	adds	r2, #6
 8007f2c:	4621      	mov	r1, r4
 8007f2e:	4628      	mov	r0, r5
 8007f30:	f7fb fb48 	bl	80035c4 <disk_write>
 8007f34:	4622      	mov	r2, r4
 8007f36:	f8bd 3036 	ldrh.w	r3, [sp, #54]	; 0x36
 8007f3a:	3b01      	subs	r3, #1
 8007f3c:	f802 ab01 	strb.w	sl, [r2], #1
 8007f40:	d1fb      	bne.n	8007f3a <f_mkfs+0x666>
 8007f42:	f04f 0c02 	mov.w	ip, #2
 8007f46:	2055      	movs	r0, #85	; 0x55
 8007f48:	21aa      	movs	r1, #170	; 0xaa
 8007f4a:	9a05      	ldr	r2, [sp, #20]
 8007f4c:	f884 01fe 	strb.w	r0, [r4, #510]	; 0x1fe
 8007f50:	3a01      	subs	r2, #1
 8007f52:	ea4f 2e12 	mov.w	lr, r2, lsr #8
 8007f56:	f362 0307 	bfi	r3, r2, #0, #8
 8007f5a:	f36e 230f 	bfi	r3, lr, #8, #8
 8007f5e:	ea4f 4e12 	mov.w	lr, r2, lsr #16
 8007f62:	f36e 4317 	bfi	r3, lr, #16, #8
 8007f66:	0e12      	lsrs	r2, r2, #24
 8007f68:	f362 631f 	bfi	r3, r2, #24, #8
 8007f6c:	4a1b      	ldr	r2, [pc, #108]	; (8007fdc <f_mkfs+0x708>)
 8007f6e:	f8c4 31e8 	str.w	r3, [r4, #488]	; 0x1e8
 8007f72:	6022      	str	r2, [r4, #0]
 8007f74:	4b1a      	ldr	r3, [pc, #104]	; (8007fe0 <f_mkfs+0x70c>)
 8007f76:	9a02      	ldr	r2, [sp, #8]
 8007f78:	f884 11ff 	strb.w	r1, [r4, #511]	; 0x1ff
 8007f7c:	f8c4 31e4 	str.w	r3, [r4, #484]	; 0x1e4
 8007f80:	4621      	mov	r1, r4
 8007f82:	f8c4 c1ec 	str.w	ip, [r4, #492]	; 0x1ec
 8007f86:	2301      	movs	r3, #1
 8007f88:	3207      	adds	r2, #7
 8007f8a:	4628      	mov	r0, r5
 8007f8c:	f7fb fb1a 	bl	80035c4 <disk_write>
 8007f90:	9a07      	ldr	r2, [sp, #28]
 8007f92:	2301      	movs	r3, #1
 8007f94:	4621      	mov	r1, r4
 8007f96:	4628      	mov	r0, r5
 8007f98:	f7fb fb14 	bl	80035c4 <disk_write>
 8007f9c:	e659      	b.n	8007c52 <f_mkfs+0x37e>
 8007f9e:	0a02      	lsrs	r2, r0, #8
 8007fa0:	f884 3020 	strb.w	r3, [r4, #32]
 8007fa4:	0c03      	lsrs	r3, r0, #16
 8007fa6:	0e00      	lsrs	r0, r0, #24
 8007fa8:	f884 2021 	strb.w	r2, [r4, #33]	; 0x21
 8007fac:	f884 3022 	strb.w	r3, [r4, #34]	; 0x22
 8007fb0:	f884 0023 	strb.w	r0, [r4, #35]	; 0x23
 8007fb4:	e608      	b.n	8007bc8 <f_mkfs+0x2f4>
 8007fb6:	f06f 0107 	mvn.w	r1, #7
 8007fba:	f04f 32ff 	mov.w	r2, #4294967295
 8007fbe:	f06f 4370 	mvn.w	r3, #4026531840	; 0xf0000000
 8007fc2:	6021      	str	r1, [r4, #0]
 8007fc4:	6062      	str	r2, [r4, #4]
 8007fc6:	60a3      	str	r3, [r4, #8]
 8007fc8:	e65b      	b.n	8007c82 <f_mkfs+0x3ae>
 8007fca:	230c      	movs	r3, #12
 8007fcc:	e696      	b.n	8007cfc <f_mkfs+0x428>
 8007fce:	2306      	movs	r3, #6
 8007fd0:	e694      	b.n	8007cfc <f_mkfs+0x428>
 8007fd2:	bf00      	nop
 8007fd4:	00060001 	.word	0x00060001
 8007fd8:	0800a8e7 	.word	0x0800a8e7
 8007fdc:	41615252 	.word	0x41615252
 8007fe0:	61417272 	.word	0x61417272

08007fe4 <FATFS_LinkDriver>:
 8007fe4:	b4f0      	push	{r4, r5, r6, r7}
 8007fe6:	4b11      	ldr	r3, [pc, #68]	; (800802c <FATFS_LinkDriver+0x48>)
 8007fe8:	7a5c      	ldrb	r4, [r3, #9]
 8007fea:	b114      	cbz	r4, 8007ff2 <FATFS_LinkDriver+0xe>
 8007fec:	bcf0      	pop	{r4, r5, r6, r7}
 8007fee:	2001      	movs	r0, #1
 8007ff0:	4770      	bx	lr
 8007ff2:	273a      	movs	r7, #58	; 0x3a
 8007ff4:	262f      	movs	r6, #47	; 0x2f
 8007ff6:	f893 c009 	ldrb.w	ip, [r3, #9]
 8007ffa:	7a5d      	ldrb	r5, [r3, #9]
 8007ffc:	f004 02ff 	and.w	r2, r4, #255	; 0xff
 8008000:	eb03 0585 	add.w	r5, r3, r5, lsl #2
 8008004:	7a5c      	ldrb	r4, [r3, #9]
 8008006:	6068      	str	r0, [r5, #4]
 8008008:	7a58      	ldrb	r0, [r3, #9]
 800800a:	441c      	add	r4, r3
 800800c:	b2c0      	uxtb	r0, r0
 800800e:	7222      	strb	r2, [r4, #8]
 8008010:	1c44      	adds	r4, r0, #1
 8008012:	b2e4      	uxtb	r4, r4
 8008014:	725c      	strb	r4, [r3, #9]
 8008016:	f803 200c 	strb.w	r2, [r3, ip]
 800801a:	3030      	adds	r0, #48	; 0x30
 800801c:	7008      	strb	r0, [r1, #0]
 800801e:	704f      	strb	r7, [r1, #1]
 8008020:	4610      	mov	r0, r2
 8008022:	708e      	strb	r6, [r1, #2]
 8008024:	70ca      	strb	r2, [r1, #3]
 8008026:	bcf0      	pop	{r4, r5, r6, r7}
 8008028:	4770      	bx	lr
 800802a:	bf00      	nop
 800802c:	200002b0 	.word	0x200002b0

08008030 <SD_initialize>:
 * @brief  Initializes a Drive
 * @param  lun : not used
 * @retval DSTATUS: Operation status
 */
DSTATUS SD_initialize(BYTE lun)
{
 8008030:	b530      	push	{r4, r5, lr}
	Stat = STA_NOINIT;
 8008032:	2501      	movs	r5, #1
 8008034:	4c14      	ldr	r4, [pc, #80]	; (8008088 <SD_initialize+0x58>)
{
 8008036:	b085      	sub	sp, #20
	Stat = STA_NOINIT;
 8008038:	7025      	strb	r5, [r4, #0]
	/*
	 * check that the kernel has been started before continuing
	 * as the osMessage API will fail otherwise
	 */
	if (osKernelRunning())
 800803a:	f000 f969 	bl	8008310 <osKernelRunning>
 800803e:	b910      	cbnz	r0, 8008046 <SD_initialize+0x16>
		{
			osMessageQDef(SD_Queue, QUEUE_SIZE, uint16_t);
			SDQueueID = osMessageCreate(osMessageQ(SD_Queue), NULL);
		}
	}
	return Stat;
 8008040:	7820      	ldrb	r0, [r4, #0]
}
 8008042:	b005      	add	sp, #20
 8008044:	bd30      	pop	{r4, r5, pc}
		if (BSP_SD_Init() == MSD_OK)
 8008046:	f7fb fa71 	bl	800352c <BSP_SD_Init>
 800804a:	b180      	cbz	r0, 800806e <SD_initialize+0x3e>
		if (Stat != STA_NOINIT)
 800804c:	7823      	ldrb	r3, [r4, #0]
 800804e:	2b01      	cmp	r3, #1
 8008050:	d0f6      	beq.n	8008040 <SD_initialize+0x10>
			osMessageQDef(SD_Queue, QUEUE_SIZE, uint16_t);
 8008052:	466d      	mov	r5, sp
 8008054:	4b0d      	ldr	r3, [pc, #52]	; (800808c <SD_initialize+0x5c>)
 8008056:	cb0f      	ldmia	r3, {r0, r1, r2, r3}
 8008058:	e885 000f 	stmia.w	r5, {r0, r1, r2, r3}
			SDQueueID = osMessageCreate(osMessageQ(SD_Queue), NULL);
 800805c:	4628      	mov	r0, r5
 800805e:	2100      	movs	r1, #0
 8008060:	f000 fa20 	bl	80084a4 <osMessageCreate>
 8008064:	4b0a      	ldr	r3, [pc, #40]	; (8008090 <SD_initialize+0x60>)
 8008066:	6018      	str	r0, [r3, #0]
	return Stat;
 8008068:	7820      	ldrb	r0, [r4, #0]
}
 800806a:	b005      	add	sp, #20
 800806c:	bd30      	pop	{r4, r5, pc}
	Stat = STA_NOINIT;
 800806e:	7025      	strb	r5, [r4, #0]
	if (BSP_SD_GetCardState() == MSD_OK)
 8008070:	f7fb fa2e 	bl	80034d0 <BSP_SD_GetCardState>
 8008074:	b918      	cbnz	r0, 800807e <SD_initialize+0x4e>
		Stat &= ~STA_NOINIT;
 8008076:	7823      	ldrb	r3, [r4, #0]
 8008078:	f003 03fe 	and.w	r3, r3, #254	; 0xfe
 800807c:	7023      	strb	r3, [r4, #0]
	return Stat;
 800807e:	7823      	ldrb	r3, [r4, #0]
 8008080:	b2db      	uxtb	r3, r3
			Stat = SD_CheckStatus(lun);
 8008082:	7023      	strb	r3, [r4, #0]
 8008084:	e7e2      	b.n	800804c <SD_initialize+0x1c>
 8008086:	bf00      	nop
 8008088:	2000000c 	.word	0x2000000c
 800808c:	0800a7a8 	.word	0x0800a7a8
 8008090:	200002bc 	.word	0x200002bc

08008094 <SD_status>:
	Stat = STA_NOINIT;
 8008094:	2301      	movs	r3, #1
 * @brief  Gets Disk Status
 * @param  lun : not used
 * @retval DSTATUS: Operation status
 */
DSTATUS SD_status(BYTE lun)
{
 8008096:	b510      	push	{r4, lr}
	Stat = STA_NOINIT;
 8008098:	4c05      	ldr	r4, [pc, #20]	; (80080b0 <SD_status+0x1c>)
 800809a:	7023      	strb	r3, [r4, #0]
	if (BSP_SD_GetCardState() == MSD_OK)
 800809c:	f7fb fa18 	bl	80034d0 <BSP_SD_GetCardState>
 80080a0:	b918      	cbnz	r0, 80080aa <SD_status+0x16>
		Stat &= ~STA_NOINIT;
 80080a2:	7823      	ldrb	r3, [r4, #0]
 80080a4:	f003 03fe 	and.w	r3, r3, #254	; 0xfe
 80080a8:	7023      	strb	r3, [r4, #0]
	return Stat;
 80080aa:	7820      	ldrb	r0, [r4, #0]
	return SD_CheckStatus(lun);
}
 80080ac:	bd10      	pop	{r4, pc}
 80080ae:	bf00      	nop
 80080b0:	2000000c 	.word	0x2000000c

080080b4 <SD_write>:
 * @param  count: Number of sectors to write (1..128)
 * @retval DRESULT: Operation result
 */
#if _USE_WRITE == 1
DRESULT SD_write(BYTE lun, const BYTE *buff, DWORD sector, UINT count)
{
 80080b4:	b510      	push	{r4, lr}
   */
  alignedAddr = (uint32_t)buff &  ~0x1F;
  SCB_CleanDCache_by_Addr((uint32_t*)alignedAddr, count*BLOCKSIZE + ((uint32_t)buff - alignedAddr));
#endif

	if (BSP_SD_WriteBlocks_DMA((uint32_t*) buff, (uint32_t) (sector),
 80080b6:	4608      	mov	r0, r1
{
 80080b8:	b084      	sub	sp, #16
	if (BSP_SD_WriteBlocks_DMA((uint32_t*) buff, (uint32_t) (sector),
 80080ba:	4611      	mov	r1, r2
 80080bc:	461a      	mov	r2, r3
 80080be:	f7fb f9f9 	bl	80034b4 <BSP_SD_WriteBlocks_DMA>
 80080c2:	b110      	cbz	r0, 80080ca <SD_write+0x16>
	DRESULT res = RES_ERROR;
 80080c4:	2001      	movs	r0, #1
			}
		}
	}

	return res;
}
 80080c6:	b004      	add	sp, #16
 80080c8:	bd10      	pop	{r4, pc}
		event = osMessageGet(SDQueueID, SD_TIMEOUT);
 80080ca:	4b0e      	ldr	r3, [pc, #56]	; (8008104 <SD_write+0x50>)
 80080cc:	f247 5230 	movw	r2, #30000	; 0x7530
 80080d0:	6819      	ldr	r1, [r3, #0]
 80080d2:	a801      	add	r0, sp, #4
 80080d4:	f000 fa28 	bl	8008528 <osMessageGet>
		if (event.status == osEventMessage)
 80080d8:	9b01      	ldr	r3, [sp, #4]
 80080da:	2b10      	cmp	r3, #16
 80080dc:	d1f2      	bne.n	80080c4 <SD_write+0x10>
			if (event.value.v == WRITE_CPLT_MSG)
 80080de:	9b02      	ldr	r3, [sp, #8]
 80080e0:	2b02      	cmp	r3, #2
 80080e2:	d1ef      	bne.n	80080c4 <SD_write+0x10>
				timer = osKernelSysTick() + SD_TIMEOUT;
 80080e4:	f000 f91c 	bl	8008320 <osKernelSysTick>
 80080e8:	f500 44ea 	add.w	r4, r0, #29952	; 0x7500
 80080ec:	3430      	adds	r4, #48	; 0x30
 80080ee:	e003      	b.n	80080f8 <SD_write+0x44>
					if (BSP_SD_GetCardState() == SD_TRANSFER_OK)
 80080f0:	f7fb f9ee 	bl	80034d0 <BSP_SD_GetCardState>
 80080f4:	2800      	cmp	r0, #0
 80080f6:	d0e6      	beq.n	80080c6 <SD_write+0x12>
				while (timer > osKernelSysTick())
 80080f8:	f000 f912 	bl	8008320 <osKernelSysTick>
 80080fc:	4284      	cmp	r4, r0
 80080fe:	d8f7      	bhi.n	80080f0 <SD_write+0x3c>
 8008100:	e7e0      	b.n	80080c4 <SD_write+0x10>
 8008102:	bf00      	nop
 8008104:	200002bc 	.word	0x200002bc

08008108 <SD_ioctl>:
DRESULT SD_ioctl(BYTE lun, BYTE cmd, void *buff)
{
	DRESULT res = RES_ERROR;
	BSP_SD_CardInfo CardInfo;

	if (Stat & STA_NOINIT)
 8008108:	4b16      	ldr	r3, [pc, #88]	; (8008164 <SD_ioctl+0x5c>)
 800810a:	781b      	ldrb	r3, [r3, #0]
 800810c:	07db      	lsls	r3, r3, #31
 800810e:	d408      	bmi.n	8008122 <SD_ioctl+0x1a>
{
 8008110:	b510      	push	{r4, lr}
 8008112:	4614      	mov	r4, r2
 8008114:	b088      	sub	sp, #32
		return RES_NOTRDY;

	switch (cmd)
 8008116:	2903      	cmp	r1, #3
 8008118:	d821      	bhi.n	800815e <SD_ioctl+0x56>
 800811a:	e8df f001 	tbb	[pc, r1]
 800811e:	0704      	.short	0x0704
 8008120:	170f      	.short	0x170f
		return RES_NOTRDY;
 8008122:	2003      	movs	r0, #3
	default:
		res = RES_PARERR;
	}

	return res;
}
 8008124:	4770      	bx	lr
		res = RES_OK;
 8008126:	2000      	movs	r0, #0
}
 8008128:	b008      	add	sp, #32
 800812a:	bd10      	pop	{r4, pc}
		BSP_SD_GetCardInfo(&CardInfo);
 800812c:	4668      	mov	r0, sp
 800812e:	f7fb f9d9 	bl	80034e4 <BSP_SD_GetCardInfo>
		res = RES_OK;
 8008132:	2000      	movs	r0, #0
		*(DWORD*) buff = CardInfo.LogBlockNbr;
 8008134:	9b06      	ldr	r3, [sp, #24]
 8008136:	6023      	str	r3, [r4, #0]
}
 8008138:	b008      	add	sp, #32
 800813a:	bd10      	pop	{r4, pc}
		BSP_SD_GetCardInfo(&CardInfo);
 800813c:	4668      	mov	r0, sp
 800813e:	f7fb f9d1 	bl	80034e4 <BSP_SD_GetCardInfo>
		res = RES_OK;
 8008142:	2000      	movs	r0, #0
		*(WORD*) buff = CardInfo.LogBlockSize;
 8008144:	9b07      	ldr	r3, [sp, #28]
 8008146:	8023      	strh	r3, [r4, #0]
}
 8008148:	b008      	add	sp, #32
 800814a:	bd10      	pop	{r4, pc}
		BSP_SD_GetCardInfo(&CardInfo);
 800814c:	4668      	mov	r0, sp
 800814e:	f7fb f9c9 	bl	80034e4 <BSP_SD_GetCardInfo>
 8008152:	2000      	movs	r0, #0
		*(DWORD*) buff = CardInfo.LogBlockSize / SD_DEFAULT_BLOCK_SIZE;
 8008154:	9b07      	ldr	r3, [sp, #28]
 8008156:	0a5b      	lsrs	r3, r3, #9
 8008158:	6023      	str	r3, [r4, #0]
}
 800815a:	b008      	add	sp, #32
 800815c:	bd10      	pop	{r4, pc}
		res = RES_PARERR;
 800815e:	2004      	movs	r0, #4
}
 8008160:	b008      	add	sp, #32
 8008162:	bd10      	pop	{r4, pc}
 8008164:	2000000c 	.word	0x2000000c

08008168 <SD_read>:
{
 8008168:	b510      	push	{r4, lr}
	if (BSP_SD_ReadBlocks_DMA((uint32_t*) buff, (uint32_t) (sector),
 800816a:	4608      	mov	r0, r1
{
 800816c:	b084      	sub	sp, #16
	if (BSP_SD_ReadBlocks_DMA((uint32_t*) buff, (uint32_t) (sector),
 800816e:	4611      	mov	r1, r2
 8008170:	461a      	mov	r2, r3
 8008172:	f7fb f991 	bl	8003498 <BSP_SD_ReadBlocks_DMA>
 8008176:	b110      	cbz	r0, 800817e <SD_read+0x16>
	DRESULT res = RES_ERROR;
 8008178:	2001      	movs	r0, #1
}
 800817a:	b004      	add	sp, #16
 800817c:	bd10      	pop	{r4, pc}
		event = osMessageGet(SDQueueID, SD_TIMEOUT);
 800817e:	4b0e      	ldr	r3, [pc, #56]	; (80081b8 <SD_read+0x50>)
 8008180:	f247 5230 	movw	r2, #30000	; 0x7530
 8008184:	6819      	ldr	r1, [r3, #0]
 8008186:	a801      	add	r0, sp, #4
 8008188:	f000 f9ce 	bl	8008528 <osMessageGet>
		if (event.status == osEventMessage)
 800818c:	9b01      	ldr	r3, [sp, #4]
 800818e:	2b10      	cmp	r3, #16
 8008190:	d1f2      	bne.n	8008178 <SD_read+0x10>
			if (event.value.v == READ_CPLT_MSG)
 8008192:	9b02      	ldr	r3, [sp, #8]
 8008194:	2b01      	cmp	r3, #1
 8008196:	d1ef      	bne.n	8008178 <SD_read+0x10>
				timer = osKernelSysTick() + SD_TIMEOUT;
 8008198:	f000 f8c2 	bl	8008320 <osKernelSysTick>
 800819c:	f500 44ea 	add.w	r4, r0, #29952	; 0x7500
 80081a0:	3430      	adds	r4, #48	; 0x30
 80081a2:	e003      	b.n	80081ac <SD_read+0x44>
					if (BSP_SD_GetCardState() == SD_TRANSFER_OK)
 80081a4:	f7fb f994 	bl	80034d0 <BSP_SD_GetCardState>
 80081a8:	2800      	cmp	r0, #0
 80081aa:	d0e6      	beq.n	800817a <SD_read+0x12>
				while (timer > osKernelSysTick())
 80081ac:	f000 f8b8 	bl	8008320 <osKernelSysTick>
 80081b0:	4284      	cmp	r4, r0
 80081b2:	d8f7      	bhi.n	80081a4 <SD_read+0x3c>
 80081b4:	e7e0      	b.n	8008178 <SD_read+0x10>
 80081b6:	bf00      	nop
 80081b8:	200002bc 	.word	0x200002bc

080081bc <BSP_SD_WriteCpltCallback>:
{
	/*
	 * No need to add an "osKernelRunning()" check here, as the SD_initialize()
	 * is always called before any SD_Read()/SD_Write() call
	 */
	osMessagePut(SDQueueID, WRITE_CPLT_MSG, osWaitForever);
 80081bc:	4b03      	ldr	r3, [pc, #12]	; (80081cc <BSP_SD_WriteCpltCallback+0x10>)
 80081be:	f04f 32ff 	mov.w	r2, #4294967295
 80081c2:	6818      	ldr	r0, [r3, #0]
 80081c4:	2102      	movs	r1, #2
 80081c6:	f000 b983 	b.w	80084d0 <osMessagePut>
 80081ca:	bf00      	nop
 80081cc:	200002bc 	.word	0x200002bc

080081d0 <BSP_SD_ReadCpltCallback>:
{
	/*
	 * No need to add an "osKernelRunning()" check here, as the SD_initialize()
	 * is always called before any SD_Read()/SD_Write() call
	 */
	osMessagePut(SDQueueID, READ_CPLT_MSG, osWaitForever);
 80081d0:	4b03      	ldr	r3, [pc, #12]	; (80081e0 <BSP_SD_ReadCpltCallback+0x10>)
 80081d2:	f04f 32ff 	mov.w	r2, #4294967295
 80081d6:	6818      	ldr	r0, [r3, #0]
 80081d8:	2101      	movs	r1, #1
 80081da:	f000 b979 	b.w	80084d0 <osMessagePut>
 80081de:	bf00      	nop
 80081e0:	200002bc 	.word	0x200002bc

080081e4 <ff_convert>:
 80081e4:	287f      	cmp	r0, #127	; 0x7f
 80081e6:	d918      	bls.n	800821a <ff_convert+0x36>
 80081e8:	b981      	cbnz	r1, 800820c <ff_convert+0x28>
 80081ea:	b410      	push	{r4}
 80081ec:	4b0d      	ldr	r3, [pc, #52]	; (8008224 <ff_convert+0x40>)
 80081ee:	e001      	b.n	80081f4 <ff_convert+0x10>
 80081f0:	2980      	cmp	r1, #128	; 0x80
 80081f2:	d015      	beq.n	8008220 <ff_convert+0x3c>
 80081f4:	f833 2b02 	ldrh.w	r2, [r3], #2
 80081f8:	b28c      	uxth	r4, r1
 80081fa:	4282      	cmp	r2, r0
 80081fc:	f101 0101 	add.w	r1, r1, #1
 8008200:	d1f6      	bne.n	80081f0 <ff_convert+0xc>
 8008202:	f104 0080 	add.w	r0, r4, #128	; 0x80
 8008206:	b280      	uxth	r0, r0
 8008208:	bc10      	pop	{r4}
 800820a:	4770      	bx	lr
 800820c:	28ff      	cmp	r0, #255	; 0xff
 800820e:	d805      	bhi.n	800821c <ff_convert+0x38>
 8008210:	4b04      	ldr	r3, [pc, #16]	; (8008224 <ff_convert+0x40>)
 8008212:	3880      	subs	r0, #128	; 0x80
 8008214:	f833 0010 	ldrh.w	r0, [r3, r0, lsl #1]
 8008218:	4770      	bx	lr
 800821a:	4770      	bx	lr
 800821c:	2000      	movs	r0, #0
 800821e:	4770      	bx	lr
 8008220:	2000      	movs	r0, #0
 8008222:	e7f1      	b.n	8008208 <ff_convert+0x24>
 8008224:	0800a938 	.word	0x0800a938

08008228 <ff_wtoupper>:
 8008228:	4b23      	ldr	r3, [pc, #140]	; (80082b8 <ff_wtoupper+0x90>)
 800822a:	4a24      	ldr	r2, [pc, #144]	; (80082bc <ff_wtoupper+0x94>)
 800822c:	b470      	push	{r4, r5, r6}
 800822e:	f5b0 5f80 	cmp.w	r0, #4096	; 0x1000
 8008232:	bf28      	it	cs
 8008234:	4613      	movcs	r3, r2
 8008236:	3304      	adds	r3, #4
 8008238:	e00b      	b.n	8008252 <ff_wtoupper+0x2a>
 800823a:	4288      	cmp	r0, r1
 800823c:	d30e      	bcc.n	800825c <ff_wtoupper+0x34>
 800823e:	f833 2c02 	ldrh.w	r2, [r3, #-2]
 8008242:	b2d4      	uxtb	r4, r2
 8008244:	1865      	adds	r5, r4, r1
 8008246:	42a8      	cmp	r0, r5
 8008248:	ea4f 2212 	mov.w	r2, r2, lsr #8
 800824c:	db08      	blt.n	8008260 <ff_wtoupper+0x38>
 800824e:	3304      	adds	r3, #4
 8008250:	b17a      	cbz	r2, 8008272 <ff_wtoupper+0x4a>
 8008252:	f833 1c04 	ldrh.w	r1, [r3, #-4]
 8008256:	461e      	mov	r6, r3
 8008258:	2900      	cmp	r1, #0
 800825a:	d1ee      	bne.n	800823a <ff_wtoupper+0x12>
 800825c:	bc70      	pop	{r4, r5, r6}
 800825e:	4770      	bx	lr
 8008260:	2a08      	cmp	r2, #8
 8008262:	d8fb      	bhi.n	800825c <ff_wtoupper+0x34>
 8008264:	e8df f002 	tbb	[pc, r2]
 8008268:	1916100c 	.word	0x1916100c
 800826c:	25221f1c 	.word	0x25221f1c
 8008270:	08          	.byte	0x08
 8008271:	00          	.byte	0x00
 8008272:	eb06 0344 	add.w	r3, r6, r4, lsl #1
 8008276:	e7de      	b.n	8008236 <ff_wtoupper+0xe>
 8008278:	f5a0 50e3 	sub.w	r0, r0, #7264	; 0x1c60
 800827c:	b280      	uxth	r0, r0
 800827e:	e7ed      	b.n	800825c <ff_wtoupper+0x34>
 8008280:	1a41      	subs	r1, r0, r1
 8008282:	f833 0011 	ldrh.w	r0, [r3, r1, lsl #1]
 8008286:	e7e9      	b.n	800825c <ff_wtoupper+0x34>
 8008288:	1a41      	subs	r1, r0, r1
 800828a:	f001 0301 	and.w	r3, r1, #1
 800828e:	1ac0      	subs	r0, r0, r3
 8008290:	b280      	uxth	r0, r0
 8008292:	e7e3      	b.n	800825c <ff_wtoupper+0x34>
 8008294:	3810      	subs	r0, #16
 8008296:	b280      	uxth	r0, r0
 8008298:	e7e0      	b.n	800825c <ff_wtoupper+0x34>
 800829a:	3820      	subs	r0, #32
 800829c:	b280      	uxth	r0, r0
 800829e:	e7dd      	b.n	800825c <ff_wtoupper+0x34>
 80082a0:	3830      	subs	r0, #48	; 0x30
 80082a2:	b280      	uxth	r0, r0
 80082a4:	e7da      	b.n	800825c <ff_wtoupper+0x34>
 80082a6:	381a      	subs	r0, #26
 80082a8:	b280      	uxth	r0, r0
 80082aa:	e7d7      	b.n	800825c <ff_wtoupper+0x34>
 80082ac:	3008      	adds	r0, #8
 80082ae:	b280      	uxth	r0, r0
 80082b0:	e7d4      	b.n	800825c <ff_wtoupper+0x34>
 80082b2:	3850      	subs	r0, #80	; 0x50
 80082b4:	b280      	uxth	r0, r0
 80082b6:	e7d1      	b.n	800825c <ff_wtoupper+0x34>
 80082b8:	0800aa38 	.word	0x0800aa38
 80082bc:	0800ac2c 	.word	0x0800ac2c

080082c0 <ff_cre_syncobj>:
 80082c0:	2300      	movs	r3, #0
 80082c2:	b510      	push	{r4, lr}
 80082c4:	b082      	sub	sp, #8
 80082c6:	460c      	mov	r4, r1
 80082c8:	4668      	mov	r0, sp
 80082ca:	2101      	movs	r1, #1
 80082cc:	e9cd 3300 	strd	r3, r3, [sp]
 80082d0:	f000 f860 	bl	8008394 <osSemaphoreCreate>
 80082d4:	6020      	str	r0, [r4, #0]
 80082d6:	3000      	adds	r0, #0
 80082d8:	bf18      	it	ne
 80082da:	2001      	movne	r0, #1
 80082dc:	b002      	add	sp, #8
 80082de:	bd10      	pop	{r4, pc}

080082e0 <ff_del_syncobj>:
 80082e0:	b508      	push	{r3, lr}
 80082e2:	f000 f8d5 	bl	8008490 <osSemaphoreDelete>
 80082e6:	2001      	movs	r0, #1
 80082e8:	bd08      	pop	{r3, pc}
 80082ea:	bf00      	nop

080082ec <ff_req_grant>:
 80082ec:	b508      	push	{r3, lr}
 80082ee:	f44f 717a 	mov.w	r1, #1000	; 0x3e8
 80082f2:	f000 f879 	bl	80083e8 <osSemaphoreWait>
 80082f6:	fab0 f080 	clz	r0, r0
 80082fa:	0940      	lsrs	r0, r0, #5
 80082fc:	bd08      	pop	{r3, pc}
 80082fe:	bf00      	nop

08008300 <ff_rel_grant>:
 8008300:	f000 b89e 	b.w	8008440 <osSemaphoreRelease>

08008304 <osKernelStart>:
 8008304:	b508      	push	{r3, lr}
 8008306:	f001 fb63 	bl	80099d0 <vTaskStartScheduler>
 800830a:	2000      	movs	r0, #0
 800830c:	bd08      	pop	{r3, pc}
 800830e:	bf00      	nop

08008310 <osKernelRunning>:
 8008310:	b508      	push	{r3, lr}
 8008312:	f001 fe59 	bl	8009fc8 <xTaskGetSchedulerState>
 8008316:	f110 30ff 	adds.w	r0, r0, #4294967295
 800831a:	bf18      	it	ne
 800831c:	2001      	movne	r0, #1
 800831e:	bd08      	pop	{r3, pc}

08008320 <osKernelSysTick>:
 8008320:	f3ef 8305 	mrs	r3, IPSR
 8008324:	b90b      	cbnz	r3, 800832a <osKernelSysTick+0xa>
 8008326:	f001 bbbb 	b.w	8009aa0 <xTaskGetTickCount>
 800832a:	f001 bbbf 	b.w	8009aac <xTaskGetTickCountFromISR>
 800832e:	bf00      	nop

08008330 <osThreadCreate>:
 8008330:	b570      	push	{r4, r5, r6, lr}
 8008332:	6945      	ldr	r5, [r0, #20]
 8008334:	460b      	mov	r3, r1
 8008336:	e9d0 1600 	ldrd	r1, r6, [r0]
 800833a:	b086      	sub	sp, #24
 800833c:	6902      	ldr	r2, [r0, #16]
 800833e:	f9b0 4008 	ldrsh.w	r4, [r0, #8]
 8008342:	b16d      	cbz	r5, 8008360 <osThreadCreate+0x30>
 8008344:	6980      	ldr	r0, [r0, #24]
 8008346:	b158      	cbz	r0, 8008360 <osThreadCreate+0x30>
 8008348:	2c84      	cmp	r4, #132	; 0x84
 800834a:	bf0c      	ite	eq
 800834c:	2400      	moveq	r4, #0
 800834e:	3403      	addne	r4, #3
 8008350:	e9cd 5001 	strd	r5, r0, [sp, #4]
 8008354:	9400      	str	r4, [sp, #0]
 8008356:	4630      	mov	r0, r6
 8008358:	f001 fa5a 	bl	8009810 <xTaskCreateStatic>
 800835c:	b006      	add	sp, #24
 800835e:	bd70      	pop	{r4, r5, r6, pc}
 8008360:	2c84      	cmp	r4, #132	; 0x84
 8008362:	bf0c      	ite	eq
 8008364:	2400      	moveq	r4, #0
 8008366:	3403      	addne	r4, #3
 8008368:	ad05      	add	r5, sp, #20
 800836a:	b292      	uxth	r2, r2
 800836c:	9400      	str	r4, [sp, #0]
 800836e:	4630      	mov	r0, r6
 8008370:	9501      	str	r5, [sp, #4]
 8008372:	f001 fa85 	bl	8009880 <xTaskCreate>
 8008376:	2801      	cmp	r0, #1
 8008378:	bf14      	ite	ne
 800837a:	2000      	movne	r0, #0
 800837c:	9805      	ldreq	r0, [sp, #20]
 800837e:	b006      	add	sp, #24
 8008380:	bd70      	pop	{r4, r5, r6, pc}
 8008382:	bf00      	nop

08008384 <osDelay>:
 8008384:	b508      	push	{r3, lr}
 8008386:	2800      	cmp	r0, #0
 8008388:	bf08      	it	eq
 800838a:	2001      	moveq	r0, #1
 800838c:	f001 fccc 	bl	8009d28 <vTaskDelay>
 8008390:	2000      	movs	r0, #0
 8008392:	bd08      	pop	{r3, pc}

08008394 <osSemaphoreCreate>:
 8008394:	b530      	push	{r4, r5, lr}
 8008396:	6844      	ldr	r4, [r0, #4]
 8008398:	b083      	sub	sp, #12
 800839a:	b16c      	cbz	r4, 80083b8 <osSemaphoreCreate+0x24>
 800839c:	2901      	cmp	r1, #1
 800839e:	d11d      	bne.n	80083dc <osSemaphoreCreate+0x48>
 80083a0:	2503      	movs	r5, #3
 80083a2:	2200      	movs	r2, #0
 80083a4:	4608      	mov	r0, r1
 80083a6:	9500      	str	r5, [sp, #0]
 80083a8:	4623      	mov	r3, r4
 80083aa:	4611      	mov	r1, r2
 80083ac:	f000 f9da 	bl	8008764 <xQueueGenericCreateStatic>
 80083b0:	4605      	mov	r5, r0
 80083b2:	4628      	mov	r0, r5
 80083b4:	b003      	add	sp, #12
 80083b6:	bd30      	pop	{r4, r5, pc}
 80083b8:	2901      	cmp	r1, #1
 80083ba:	d113      	bne.n	80083e4 <osSemaphoreCreate+0x50>
 80083bc:	4608      	mov	r0, r1
 80083be:	2203      	movs	r2, #3
 80083c0:	4621      	mov	r1, r4
 80083c2:	f000 fa21 	bl	8008808 <xQueueGenericCreate>
 80083c6:	4605      	mov	r5, r0
 80083c8:	2800      	cmp	r0, #0
 80083ca:	d0f2      	beq.n	80083b2 <osSemaphoreCreate+0x1e>
 80083cc:	4623      	mov	r3, r4
 80083ce:	4622      	mov	r2, r4
 80083d0:	4621      	mov	r1, r4
 80083d2:	f000 fa63 	bl	800889c <xQueueGenericSend>
 80083d6:	4628      	mov	r0, r5
 80083d8:	b003      	add	sp, #12
 80083da:	bd30      	pop	{r4, r5, pc}
 80083dc:	2500      	movs	r5, #0
 80083de:	4628      	mov	r0, r5
 80083e0:	b003      	add	sp, #12
 80083e2:	bd30      	pop	{r4, r5, pc}
 80083e4:	4625      	mov	r5, r4
 80083e6:	e7e4      	b.n	80083b2 <osSemaphoreCreate+0x1e>

080083e8 <osSemaphoreWait>:
 80083e8:	b510      	push	{r4, lr}
 80083ea:	2400      	movs	r4, #0
 80083ec:	b082      	sub	sp, #8
 80083ee:	9401      	str	r4, [sp, #4]
 80083f0:	b300      	cbz	r0, 8008434 <osSemaphoreWait+0x4c>
 80083f2:	f3ef 8305 	mrs	r3, IPSR
 80083f6:	b933      	cbnz	r3, 8008406 <osSemaphoreWait+0x1e>
 80083f8:	f000 fe34 	bl	8009064 <xQueueSemaphoreTake>
 80083fc:	2801      	cmp	r0, #1
 80083fe:	d116      	bne.n	800842e <osSemaphoreWait+0x46>
 8008400:	2000      	movs	r0, #0
 8008402:	b002      	add	sp, #8
 8008404:	bd10      	pop	{r4, pc}
 8008406:	aa01      	add	r2, sp, #4
 8008408:	4621      	mov	r1, r4
 800840a:	f000 ffb5 	bl	8009378 <xQueueReceiveFromISR>
 800840e:	2801      	cmp	r0, #1
 8008410:	d10d      	bne.n	800842e <osSemaphoreWait+0x46>
 8008412:	9b01      	ldr	r3, [sp, #4]
 8008414:	2b00      	cmp	r3, #0
 8008416:	d0f3      	beq.n	8008400 <osSemaphoreWait+0x18>
 8008418:	f04f 5280 	mov.w	r2, #268435456	; 0x10000000
 800841c:	4b07      	ldr	r3, [pc, #28]	; (800843c <osSemaphoreWait+0x54>)
 800841e:	601a      	str	r2, [r3, #0]
 8008420:	f3bf 8f4f 	dsb	sy
 8008424:	f3bf 8f6f 	isb	sy
 8008428:	4620      	mov	r0, r4
 800842a:	b002      	add	sp, #8
 800842c:	bd10      	pop	{r4, pc}
 800842e:	20ff      	movs	r0, #255	; 0xff
 8008430:	b002      	add	sp, #8
 8008432:	bd10      	pop	{r4, pc}
 8008434:	2080      	movs	r0, #128	; 0x80
 8008436:	b002      	add	sp, #8
 8008438:	bd10      	pop	{r4, pc}
 800843a:	bf00      	nop
 800843c:	e000ed04 	.word	0xe000ed04

08008440 <osSemaphoreRelease>:
 8008440:	b510      	push	{r4, lr}
 8008442:	2400      	movs	r4, #0
 8008444:	b082      	sub	sp, #8
 8008446:	9401      	str	r4, [sp, #4]
 8008448:	f3ef 8305 	mrs	r3, IPSR
 800844c:	b14b      	cbz	r3, 8008462 <osSemaphoreRelease+0x22>
 800844e:	a901      	add	r1, sp, #4
 8008450:	f000 fc4e 	bl	8008cf0 <xQueueGiveFromISR>
 8008454:	2801      	cmp	r0, #1
 8008456:	d10a      	bne.n	800846e <osSemaphoreRelease+0x2e>
 8008458:	9b01      	ldr	r3, [sp, #4]
 800845a:	b95b      	cbnz	r3, 8008474 <osSemaphoreRelease+0x34>
 800845c:	2000      	movs	r0, #0
 800845e:	b002      	add	sp, #8
 8008460:	bd10      	pop	{r4, pc}
 8008462:	461a      	mov	r2, r3
 8008464:	4619      	mov	r1, r3
 8008466:	f000 fa19 	bl	800889c <xQueueGenericSend>
 800846a:	2801      	cmp	r0, #1
 800846c:	d0f6      	beq.n	800845c <osSemaphoreRelease+0x1c>
 800846e:	20ff      	movs	r0, #255	; 0xff
 8008470:	b002      	add	sp, #8
 8008472:	bd10      	pop	{r4, pc}
 8008474:	f04f 5280 	mov.w	r2, #268435456	; 0x10000000
 8008478:	4b04      	ldr	r3, [pc, #16]	; (800848c <osSemaphoreRelease+0x4c>)
 800847a:	601a      	str	r2, [r3, #0]
 800847c:	f3bf 8f4f 	dsb	sy
 8008480:	f3bf 8f6f 	isb	sy
 8008484:	4620      	mov	r0, r4
 8008486:	b002      	add	sp, #8
 8008488:	bd10      	pop	{r4, pc}
 800848a:	bf00      	nop
 800848c:	e000ed04 	.word	0xe000ed04

08008490 <osSemaphoreDelete>:
 8008490:	b510      	push	{r4, lr}
 8008492:	f3ef 8405 	mrs	r4, IPSR
 8008496:	b91c      	cbnz	r4, 80084a0 <osSemaphoreDelete+0x10>
 8008498:	f000 ffca 	bl	8009430 <vQueueDelete>
 800849c:	4620      	mov	r0, r4
 800849e:	bd10      	pop	{r4, pc}
 80084a0:	2082      	movs	r0, #130	; 0x82
 80084a2:	bd10      	pop	{r4, pc}

080084a4 <osMessageCreate>:
 80084a4:	b530      	push	{r4, r5, lr}
 80084a6:	e9d0 4100 	ldrd	r4, r1, [r0]
 80084aa:	6882      	ldr	r2, [r0, #8]
 80084ac:	b083      	sub	sp, #12
 80084ae:	b10a      	cbz	r2, 80084b4 <osMessageCreate+0x10>
 80084b0:	68c3      	ldr	r3, [r0, #12]
 80084b2:	b933      	cbnz	r3, 80084c2 <osMessageCreate+0x1e>
 80084b4:	4620      	mov	r0, r4
 80084b6:	2200      	movs	r2, #0
 80084b8:	b003      	add	sp, #12
 80084ba:	e8bd 4030 	ldmia.w	sp!, {r4, r5, lr}
 80084be:	f000 b9a3 	b.w	8008808 <xQueueGenericCreate>
 80084c2:	2500      	movs	r5, #0
 80084c4:	4620      	mov	r0, r4
 80084c6:	9500      	str	r5, [sp, #0]
 80084c8:	f000 f94c 	bl	8008764 <xQueueGenericCreateStatic>
 80084cc:	b003      	add	sp, #12
 80084ce:	bd30      	pop	{r4, r5, pc}

080084d0 <osMessagePut>:
 80084d0:	b510      	push	{r4, lr}
 80084d2:	2400      	movs	r4, #0
 80084d4:	b084      	sub	sp, #16
 80084d6:	9101      	str	r1, [sp, #4]
 80084d8:	42a2      	cmp	r2, r4
 80084da:	bf08      	it	eq
 80084dc:	2201      	moveq	r2, #1
 80084de:	9403      	str	r4, [sp, #12]
 80084e0:	f3ef 8305 	mrs	r3, IPSR
 80084e4:	b15b      	cbz	r3, 80084fe <osMessagePut+0x2e>
 80084e6:	4623      	mov	r3, r4
 80084e8:	aa03      	add	r2, sp, #12
 80084ea:	a901      	add	r1, sp, #4
 80084ec:	f000 fb68 	bl	8008bc0 <xQueueGenericSendFromISR>
 80084f0:	2801      	cmp	r0, #1
 80084f2:	d109      	bne.n	8008508 <osMessagePut+0x38>
 80084f4:	9b03      	ldr	r3, [sp, #12]
 80084f6:	b953      	cbnz	r3, 800850e <osMessagePut+0x3e>
 80084f8:	2000      	movs	r0, #0
 80084fa:	b004      	add	sp, #16
 80084fc:	bd10      	pop	{r4, pc}
 80084fe:	a901      	add	r1, sp, #4
 8008500:	f000 f9cc 	bl	800889c <xQueueGenericSend>
 8008504:	2801      	cmp	r0, #1
 8008506:	d0f7      	beq.n	80084f8 <osMessagePut+0x28>
 8008508:	20ff      	movs	r0, #255	; 0xff
 800850a:	b004      	add	sp, #16
 800850c:	bd10      	pop	{r4, pc}
 800850e:	f04f 5280 	mov.w	r2, #268435456	; 0x10000000
 8008512:	4b04      	ldr	r3, [pc, #16]	; (8008524 <osMessagePut+0x54>)
 8008514:	601a      	str	r2, [r3, #0]
 8008516:	f3bf 8f4f 	dsb	sy
 800851a:	f3bf 8f6f 	isb	sy
 800851e:	4620      	mov	r0, r4
 8008520:	b004      	add	sp, #16
 8008522:	bd10      	pop	{r4, pc}
 8008524:	e000ed04 	.word	0xe000ed04

08008528 <osMessageGet>:
 8008528:	2300      	movs	r3, #0
 800852a:	b530      	push	{r4, r5, lr}
 800852c:	b085      	sub	sp, #20
 800852e:	9103      	str	r1, [sp, #12]
 8008530:	4604      	mov	r4, r0
 8008532:	9302      	str	r3, [sp, #8]
 8008534:	b369      	cbz	r1, 8008592 <osMessageGet+0x6a>
 8008536:	9300      	str	r3, [sp, #0]
 8008538:	f3ef 8305 	mrs	r3, IPSR
 800853c:	b99b      	cbnz	r3, 8008566 <osMessageGet+0x3e>
 800853e:	4608      	mov	r0, r1
 8008540:	a902      	add	r1, sp, #8
 8008542:	4615      	mov	r5, r2
 8008544:	f000 fc2a 	bl	8008d9c <xQueueReceive>
 8008548:	2801      	cmp	r0, #1
 800854a:	d02d      	beq.n	80085a8 <osMessageGet+0x80>
 800854c:	2d00      	cmp	r5, #0
 800854e:	bf0c      	ite	eq
 8008550:	2300      	moveq	r3, #0
 8008552:	2340      	movne	r3, #64	; 0x40
 8008554:	9301      	str	r3, [sp, #4]
 8008556:	ab04      	add	r3, sp, #16
 8008558:	e913 0007 	ldmdb	r3, {r0, r1, r2}
 800855c:	e884 0007 	stmia.w	r4, {r0, r1, r2}
 8008560:	4620      	mov	r0, r4
 8008562:	b005      	add	sp, #20
 8008564:	bd30      	pop	{r4, r5, pc}
 8008566:	466a      	mov	r2, sp
 8008568:	4608      	mov	r0, r1
 800856a:	a902      	add	r1, sp, #8
 800856c:	f000 ff04 	bl	8009378 <xQueueReceiveFromISR>
 8008570:	2801      	cmp	r0, #1
 8008572:	bf0c      	ite	eq
 8008574:	2210      	moveq	r2, #16
 8008576:	2200      	movne	r2, #0
 8008578:	9b00      	ldr	r3, [sp, #0]
 800857a:	9201      	str	r2, [sp, #4]
 800857c:	2b00      	cmp	r3, #0
 800857e:	d0ea      	beq.n	8008556 <osMessageGet+0x2e>
 8008580:	f04f 5280 	mov.w	r2, #268435456	; 0x10000000
 8008584:	4b0a      	ldr	r3, [pc, #40]	; (80085b0 <osMessageGet+0x88>)
 8008586:	601a      	str	r2, [r3, #0]
 8008588:	f3bf 8f4f 	dsb	sy
 800858c:	f3bf 8f6f 	isb	sy
 8008590:	e7e1      	b.n	8008556 <osMessageGet+0x2e>
 8008592:	2280      	movs	r2, #128	; 0x80
 8008594:	ab04      	add	r3, sp, #16
 8008596:	f843 2d0c 	str.w	r2, [r3, #-12]!
 800859a:	e893 0007 	ldmia.w	r3, {r0, r1, r2}
 800859e:	e884 0007 	stmia.w	r4, {r0, r1, r2}
 80085a2:	4620      	mov	r0, r4
 80085a4:	b005      	add	sp, #20
 80085a6:	bd30      	pop	{r4, r5, pc}
 80085a8:	2310      	movs	r3, #16
 80085aa:	9301      	str	r3, [sp, #4]
 80085ac:	e7d3      	b.n	8008556 <osMessageGet+0x2e>
 80085ae:	bf00      	nop
 80085b0:	e000ed04 	.word	0xe000ed04

080085b4 <vListInitialise>:
 80085b4:	f04f 31ff 	mov.w	r1, #4294967295
 80085b8:	2200      	movs	r2, #0
 80085ba:	f100 0308 	add.w	r3, r0, #8
 80085be:	6081      	str	r1, [r0, #8]
 80085c0:	6002      	str	r2, [r0, #0]
 80085c2:	6043      	str	r3, [r0, #4]
 80085c4:	e9c0 3303 	strd	r3, r3, [r0, #12]
 80085c8:	4770      	bx	lr
 80085ca:	bf00      	nop

080085cc <vListInitialiseItem>:
 80085cc:	2300      	movs	r3, #0
 80085ce:	6103      	str	r3, [r0, #16]
 80085d0:	4770      	bx	lr
 80085d2:	bf00      	nop

080085d4 <vListInsertEnd>:
 80085d4:	6843      	ldr	r3, [r0, #4]
 80085d6:	b410      	push	{r4}
 80085d8:	689c      	ldr	r4, [r3, #8]
 80085da:	6802      	ldr	r2, [r0, #0]
 80085dc:	608c      	str	r4, [r1, #8]
 80085de:	689c      	ldr	r4, [r3, #8]
 80085e0:	3201      	adds	r2, #1
 80085e2:	604b      	str	r3, [r1, #4]
 80085e4:	6061      	str	r1, [r4, #4]
 80085e6:	6099      	str	r1, [r3, #8]
 80085e8:	bc10      	pop	{r4}
 80085ea:	6108      	str	r0, [r1, #16]
 80085ec:	6002      	str	r2, [r0, #0]
 80085ee:	4770      	bx	lr

080085f0 <vListInsert>:
 80085f0:	b430      	push	{r4, r5}
 80085f2:	680d      	ldr	r5, [r1, #0]
 80085f4:	1c6b      	adds	r3, r5, #1
 80085f6:	d011      	beq.n	800861c <vListInsert+0x2c>
 80085f8:	f100 0208 	add.w	r2, r0, #8
 80085fc:	e000      	b.n	8008600 <vListInsert+0x10>
 80085fe:	461a      	mov	r2, r3
 8008600:	6853      	ldr	r3, [r2, #4]
 8008602:	681c      	ldr	r4, [r3, #0]
 8008604:	42ac      	cmp	r4, r5
 8008606:	d9fa      	bls.n	80085fe <vListInsert+0xe>
 8008608:	6804      	ldr	r4, [r0, #0]
 800860a:	604b      	str	r3, [r1, #4]
 800860c:	3401      	adds	r4, #1
 800860e:	6099      	str	r1, [r3, #8]
 8008610:	608a      	str	r2, [r1, #8]
 8008612:	6051      	str	r1, [r2, #4]
 8008614:	6108      	str	r0, [r1, #16]
 8008616:	6004      	str	r4, [r0, #0]
 8008618:	bc30      	pop	{r4, r5}
 800861a:	4770      	bx	lr
 800861c:	6902      	ldr	r2, [r0, #16]
 800861e:	6853      	ldr	r3, [r2, #4]
 8008620:	e7f2      	b.n	8008608 <vListInsert+0x18>
 8008622:	bf00      	nop

08008624 <uxListRemove>:
 8008624:	6903      	ldr	r3, [r0, #16]
 8008626:	b410      	push	{r4}
 8008628:	e9d0 2101 	ldrd	r2, r1, [r0, #4]
 800862c:	685c      	ldr	r4, [r3, #4]
 800862e:	6091      	str	r1, [r2, #8]
 8008630:	6881      	ldr	r1, [r0, #8]
 8008632:	4284      	cmp	r4, r0
 8008634:	604a      	str	r2, [r1, #4]
 8008636:	bf08      	it	eq
 8008638:	6059      	streq	r1, [r3, #4]
 800863a:	2100      	movs	r1, #0
 800863c:	681a      	ldr	r2, [r3, #0]
 800863e:	6101      	str	r1, [r0, #16]
 8008640:	3a01      	subs	r2, #1
 8008642:	601a      	str	r2, [r3, #0]
 8008644:	6818      	ldr	r0, [r3, #0]
 8008646:	bc10      	pop	{r4}
 8008648:	4770      	bx	lr
 800864a:	bf00      	nop

0800864c <prvUnlockQueue>:
 800864c:	b570      	push	{r4, r5, r6, lr}
 800864e:	4605      	mov	r5, r0
 8008650:	f001 fe40 	bl	800a2d4 <vPortEnterCritical>
 8008654:	f895 4045 	ldrb.w	r4, [r5, #69]	; 0x45
 8008658:	b264      	sxtb	r4, r4
 800865a:	2c00      	cmp	r4, #0
 800865c:	dd16      	ble.n	800868c <prvUnlockQueue+0x40>
 800865e:	6a6b      	ldr	r3, [r5, #36]	; 0x24
 8008660:	b1a3      	cbz	r3, 800868c <prvUnlockQueue+0x40>
 8008662:	f105 0624 	add.w	r6, r5, #36	; 0x24
 8008666:	e005      	b.n	8008674 <prvUnlockQueue+0x28>
 8008668:	3c01      	subs	r4, #1
 800866a:	b2e3      	uxtb	r3, r4
 800866c:	b25c      	sxtb	r4, r3
 800866e:	b16b      	cbz	r3, 800868c <prvUnlockQueue+0x40>
 8008670:	6a6b      	ldr	r3, [r5, #36]	; 0x24
 8008672:	b15b      	cbz	r3, 800868c <prvUnlockQueue+0x40>
 8008674:	4630      	mov	r0, r6
 8008676:	f001 fc09 	bl	8009e8c <xTaskRemoveFromEventList>
 800867a:	2800      	cmp	r0, #0
 800867c:	d0f4      	beq.n	8008668 <prvUnlockQueue+0x1c>
 800867e:	3c01      	subs	r4, #1
 8008680:	f001 fc9c 	bl	8009fbc <vTaskMissedYield>
 8008684:	b2e3      	uxtb	r3, r4
 8008686:	b25c      	sxtb	r4, r3
 8008688:	2b00      	cmp	r3, #0
 800868a:	d1f1      	bne.n	8008670 <prvUnlockQueue+0x24>
 800868c:	23ff      	movs	r3, #255	; 0xff
 800868e:	f885 3045 	strb.w	r3, [r5, #69]	; 0x45
 8008692:	f001 fe41 	bl	800a318 <vPortExitCritical>
 8008696:	f001 fe1d 	bl	800a2d4 <vPortEnterCritical>
 800869a:	f895 4044 	ldrb.w	r4, [r5, #68]	; 0x44
 800869e:	b264      	sxtb	r4, r4
 80086a0:	2c00      	cmp	r4, #0
 80086a2:	dd16      	ble.n	80086d2 <prvUnlockQueue+0x86>
 80086a4:	692b      	ldr	r3, [r5, #16]
 80086a6:	b1a3      	cbz	r3, 80086d2 <prvUnlockQueue+0x86>
 80086a8:	f105 0610 	add.w	r6, r5, #16
 80086ac:	e005      	b.n	80086ba <prvUnlockQueue+0x6e>
 80086ae:	3c01      	subs	r4, #1
 80086b0:	b2e3      	uxtb	r3, r4
 80086b2:	b25c      	sxtb	r4, r3
 80086b4:	b16b      	cbz	r3, 80086d2 <prvUnlockQueue+0x86>
 80086b6:	692b      	ldr	r3, [r5, #16]
 80086b8:	b15b      	cbz	r3, 80086d2 <prvUnlockQueue+0x86>
 80086ba:	4630      	mov	r0, r6
 80086bc:	f001 fbe6 	bl	8009e8c <xTaskRemoveFromEventList>
 80086c0:	2800      	cmp	r0, #0
 80086c2:	d0f4      	beq.n	80086ae <prvUnlockQueue+0x62>
 80086c4:	3c01      	subs	r4, #1
 80086c6:	f001 fc79 	bl	8009fbc <vTaskMissedYield>
 80086ca:	b2e3      	uxtb	r3, r4
 80086cc:	b25c      	sxtb	r4, r3
 80086ce:	2b00      	cmp	r3, #0
 80086d0:	d1f1      	bne.n	80086b6 <prvUnlockQueue+0x6a>
 80086d2:	23ff      	movs	r3, #255	; 0xff
 80086d4:	f885 3044 	strb.w	r3, [r5, #68]	; 0x44
 80086d8:	e8bd 4070 	ldmia.w	sp!, {r4, r5, r6, lr}
 80086dc:	f001 be1c 	b.w	800a318 <vPortExitCritical>

080086e0 <xQueueGenericReset>:
 80086e0:	b1e8      	cbz	r0, 800871e <xQueueGenericReset+0x3e>
 80086e2:	b570      	push	{r4, r5, r6, lr}
 80086e4:	4604      	mov	r4, r0
 80086e6:	460d      	mov	r5, r1
 80086e8:	2600      	movs	r6, #0
 80086ea:	f001 fdf3 	bl	800a2d4 <vPortEnterCritical>
 80086ee:	e9d4 320f 	ldrd	r3, r2, [r4, #60]	; 0x3c
 80086f2:	20ff      	movs	r0, #255	; 0xff
 80086f4:	fb03 f302 	mul.w	r3, r3, r2
 80086f8:	6821      	ldr	r1, [r4, #0]
 80086fa:	1a9a      	subs	r2, r3, r2
 80086fc:	440a      	add	r2, r1
 80086fe:	440b      	add	r3, r1
 8008700:	63a6      	str	r6, [r4, #56]	; 0x38
 8008702:	60e2      	str	r2, [r4, #12]
 8008704:	f884 0044 	strb.w	r0, [r4, #68]	; 0x44
 8008708:	e9c4 3101 	strd	r3, r1, [r4, #4]
 800870c:	f884 0045 	strb.w	r0, [r4, #69]	; 0x45
 8008710:	b975      	cbnz	r5, 8008730 <xQueueGenericReset+0x50>
 8008712:	6923      	ldr	r3, [r4, #16]
 8008714:	b9ab      	cbnz	r3, 8008742 <xQueueGenericReset+0x62>
 8008716:	f001 fdff 	bl	800a318 <vPortExitCritical>
 800871a:	2001      	movs	r0, #1
 800871c:	bd70      	pop	{r4, r5, r6, pc}
 800871e:	f04f 0350 	mov.w	r3, #80	; 0x50
 8008722:	f383 8811 	msr	BASEPRI, r3
 8008726:	f3bf 8f6f 	isb	sy
 800872a:	f3bf 8f4f 	dsb	sy
 800872e:	e7fe      	b.n	800872e <xQueueGenericReset+0x4e>
 8008730:	f104 0010 	add.w	r0, r4, #16
 8008734:	f7ff ff3e 	bl	80085b4 <vListInitialise>
 8008738:	f104 0024 	add.w	r0, r4, #36	; 0x24
 800873c:	f7ff ff3a 	bl	80085b4 <vListInitialise>
 8008740:	e7e9      	b.n	8008716 <xQueueGenericReset+0x36>
 8008742:	f104 0010 	add.w	r0, r4, #16
 8008746:	f001 fba1 	bl	8009e8c <xTaskRemoveFromEventList>
 800874a:	2800      	cmp	r0, #0
 800874c:	d0e3      	beq.n	8008716 <xQueueGenericReset+0x36>
 800874e:	f04f 5280 	mov.w	r2, #268435456	; 0x10000000
 8008752:	4b03      	ldr	r3, [pc, #12]	; (8008760 <xQueueGenericReset+0x80>)
 8008754:	601a      	str	r2, [r3, #0]
 8008756:	f3bf 8f4f 	dsb	sy
 800875a:	f3bf 8f6f 	isb	sy
 800875e:	e7da      	b.n	8008716 <xQueueGenericReset+0x36>
 8008760:	e000ed04 	.word	0xe000ed04

08008764 <xQueueGenericCreateStatic>:
 8008764:	b940      	cbnz	r0, 8008778 <xQueueGenericCreateStatic+0x14>
 8008766:	f04f 0350 	mov.w	r3, #80	; 0x50
 800876a:	f383 8811 	msr	BASEPRI, r3
 800876e:	f3bf 8f6f 	isb	sy
 8008772:	f3bf 8f4f 	dsb	sy
 8008776:	e7fe      	b.n	8008776 <xQueueGenericCreateStatic+0x12>
 8008778:	b510      	push	{r4, lr}
 800877a:	461c      	mov	r4, r3
 800877c:	b082      	sub	sp, #8
 800877e:	b17b      	cbz	r3, 80087a0 <xQueueGenericCreateStatic+0x3c>
 8008780:	b36a      	cbz	r2, 80087de <xQueueGenericCreateStatic+0x7a>
 8008782:	b1b1      	cbz	r1, 80087b2 <xQueueGenericCreateStatic+0x4e>
 8008784:	2348      	movs	r3, #72	; 0x48
 8008786:	9301      	str	r3, [sp, #4]
 8008788:	9b01      	ldr	r3, [sp, #4]
 800878a:	2b48      	cmp	r3, #72	; 0x48
 800878c:	d01a      	beq.n	80087c4 <xQueueGenericCreateStatic+0x60>
 800878e:	f04f 0350 	mov.w	r3, #80	; 0x50
 8008792:	f383 8811 	msr	BASEPRI, r3
 8008796:	f3bf 8f6f 	isb	sy
 800879a:	f3bf 8f4f 	dsb	sy
 800879e:	e7fe      	b.n	800879e <xQueueGenericCreateStatic+0x3a>
 80087a0:	f04f 0350 	mov.w	r3, #80	; 0x50
 80087a4:	f383 8811 	msr	BASEPRI, r3
 80087a8:	f3bf 8f6f 	isb	sy
 80087ac:	f3bf 8f4f 	dsb	sy
 80087b0:	e7fe      	b.n	80087b0 <xQueueGenericCreateStatic+0x4c>
 80087b2:	f04f 0350 	mov.w	r3, #80	; 0x50
 80087b6:	f383 8811 	msr	BASEPRI, r3
 80087ba:	f3bf 8f6f 	isb	sy
 80087be:	f3bf 8f4f 	dsb	sy
 80087c2:	e7fe      	b.n	80087c2 <xQueueGenericCreateStatic+0x5e>
 80087c4:	2301      	movs	r3, #1
 80087c6:	f884 3046 	strb.w	r3, [r4, #70]	; 0x46
 80087ca:	e9c4 010f 	strd	r0, r1, [r4, #60]	; 0x3c
 80087ce:	6022      	str	r2, [r4, #0]
 80087d0:	2101      	movs	r1, #1
 80087d2:	4620      	mov	r0, r4
 80087d4:	f7ff ff84 	bl	80086e0 <xQueueGenericReset>
 80087d8:	4620      	mov	r0, r4
 80087da:	b002      	add	sp, #8
 80087dc:	bd10      	pop	{r4, pc}
 80087de:	b141      	cbz	r1, 80087f2 <xQueueGenericCreateStatic+0x8e>
 80087e0:	f04f 0350 	mov.w	r3, #80	; 0x50
 80087e4:	f383 8811 	msr	BASEPRI, r3
 80087e8:	f3bf 8f6f 	isb	sy
 80087ec:	f3bf 8f4f 	dsb	sy
 80087f0:	e7fe      	b.n	80087f0 <xQueueGenericCreateStatic+0x8c>
 80087f2:	2348      	movs	r3, #72	; 0x48
 80087f4:	9301      	str	r3, [sp, #4]
 80087f6:	9b01      	ldr	r3, [sp, #4]
 80087f8:	2b48      	cmp	r3, #72	; 0x48
 80087fa:	d1c8      	bne.n	800878e <xQueueGenericCreateStatic+0x2a>
 80087fc:	2301      	movs	r3, #1
 80087fe:	4622      	mov	r2, r4
 8008800:	f884 3046 	strb.w	r3, [r4, #70]	; 0x46
 8008804:	e7e1      	b.n	80087ca <xQueueGenericCreateStatic+0x66>
 8008806:	bf00      	nop

08008808 <xQueueGenericCreate>:
 8008808:	b940      	cbnz	r0, 800881c <xQueueGenericCreate+0x14>
 800880a:	f04f 0350 	mov.w	r3, #80	; 0x50
 800880e:	f383 8811 	msr	BASEPRI, r3
 8008812:	f3bf 8f6f 	isb	sy
 8008816:	f3bf 8f4f 	dsb	sy
 800881a:	e7fe      	b.n	800881a <xQueueGenericCreate+0x12>
 800881c:	b570      	push	{r4, r5, r6, lr}
 800881e:	4606      	mov	r6, r0
 8008820:	460d      	mov	r5, r1
 8008822:	b169      	cbz	r1, 8008840 <xQueueGenericCreate+0x38>
 8008824:	fb01 f000 	mul.w	r0, r1, r0
 8008828:	3048      	adds	r0, #72	; 0x48
 800882a:	f001 fe91 	bl	800a550 <pvPortMalloc>
 800882e:	4604      	mov	r4, r0
 8008830:	b380      	cbz	r0, 8008894 <xQueueGenericCreate+0x8c>
 8008832:	2200      	movs	r2, #0
 8008834:	f100 0348 	add.w	r3, r0, #72	; 0x48
 8008838:	f880 2046 	strb.w	r2, [r0, #70]	; 0x46
 800883c:	6003      	str	r3, [r0, #0]
 800883e:	e007      	b.n	8008850 <xQueueGenericCreate+0x48>
 8008840:	2048      	movs	r0, #72	; 0x48
 8008842:	f001 fe85 	bl	800a550 <pvPortMalloc>
 8008846:	4604      	mov	r4, r0
 8008848:	b320      	cbz	r0, 8008894 <xQueueGenericCreate+0x8c>
 800884a:	f884 5046 	strb.w	r5, [r4, #70]	; 0x46
 800884e:	6024      	str	r4, [r4, #0]
 8008850:	e9c4 650f 	strd	r6, r5, [r4, #60]	; 0x3c
 8008854:	f001 fd3e 	bl	800a2d4 <vPortEnterCritical>
 8008858:	e9d4 320f 	ldrd	r3, r2, [r4, #60]	; 0x3c
 800885c:	25ff      	movs	r5, #255	; 0xff
 800885e:	2000      	movs	r0, #0
 8008860:	fb03 f302 	mul.w	r3, r3, r2
 8008864:	6821      	ldr	r1, [r4, #0]
 8008866:	1a9a      	subs	r2, r3, r2
 8008868:	440a      	add	r2, r1
 800886a:	440b      	add	r3, r1
 800886c:	63a0      	str	r0, [r4, #56]	; 0x38
 800886e:	60e2      	str	r2, [r4, #12]
 8008870:	e9c4 3101 	strd	r3, r1, [r4, #4]
 8008874:	f104 0010 	add.w	r0, r4, #16
 8008878:	f884 5044 	strb.w	r5, [r4, #68]	; 0x44
 800887c:	f884 5045 	strb.w	r5, [r4, #69]	; 0x45
 8008880:	f7ff fe98 	bl	80085b4 <vListInitialise>
 8008884:	f104 0024 	add.w	r0, r4, #36	; 0x24
 8008888:	f7ff fe94 	bl	80085b4 <vListInitialise>
 800888c:	f001 fd44 	bl	800a318 <vPortExitCritical>
 8008890:	4620      	mov	r0, r4
 8008892:	bd70      	pop	{r4, r5, r6, pc}
 8008894:	2400      	movs	r4, #0
 8008896:	4620      	mov	r0, r4
 8008898:	bd70      	pop	{r4, r5, r6, pc}
 800889a:	bf00      	nop

0800889c <xQueueGenericSend>:
 800889c:	e92d 4ff0 	stmdb	sp!, {r4, r5, r6, r7, r8, r9, sl, fp, lr}
 80088a0:	b085      	sub	sp, #20
 80088a2:	9201      	str	r2, [sp, #4]
 80088a4:	2800      	cmp	r0, #0
 80088a6:	f000 8125 	beq.w	8008af4 <xQueueGenericSend+0x258>
 80088aa:	2900      	cmp	r1, #0
 80088ac:	f000 8115 	beq.w	8008ada <xQueueGenericSend+0x23e>
 80088b0:	2b02      	cmp	r3, #2
 80088b2:	d10b      	bne.n	80088cc <xQueueGenericSend+0x30>
 80088b4:	6bc2      	ldr	r2, [r0, #60]	; 0x3c
 80088b6:	2a01      	cmp	r2, #1
 80088b8:	d008      	beq.n	80088cc <xQueueGenericSend+0x30>
 80088ba:	f04f 0350 	mov.w	r3, #80	; 0x50
 80088be:	f383 8811 	msr	BASEPRI, r3
 80088c2:	f3bf 8f6f 	isb	sy
 80088c6:	f3bf 8f4f 	dsb	sy
 80088ca:	e7fe      	b.n	80088ca <xQueueGenericSend+0x2e>
 80088cc:	4604      	mov	r4, r0
 80088ce:	461f      	mov	r7, r3
 80088d0:	460e      	mov	r6, r1
 80088d2:	f001 fb79 	bl	8009fc8 <xTaskGetSchedulerState>
 80088d6:	2800      	cmp	r0, #0
 80088d8:	f040 80fc 	bne.w	8008ad4 <xQueueGenericSend+0x238>
 80088dc:	9b01      	ldr	r3, [sp, #4]
 80088de:	b143      	cbz	r3, 80088f2 <xQueueGenericSend+0x56>
 80088e0:	f04f 0350 	mov.w	r3, #80	; 0x50
 80088e4:	f383 8811 	msr	BASEPRI, r3
 80088e8:	f3bf 8f6f 	isb	sy
 80088ec:	f3bf 8f4f 	dsb	sy
 80088f0:	e7fe      	b.n	80088f0 <xQueueGenericSend+0x54>
 80088f2:	469a      	mov	sl, r3
 80088f4:	f001 fcee 	bl	800a2d4 <vPortEnterCritical>
 80088f8:	6ba2      	ldr	r2, [r4, #56]	; 0x38
 80088fa:	6be3      	ldr	r3, [r4, #60]	; 0x3c
 80088fc:	f04f 0800 	mov.w	r8, #0
 8008900:	429a      	cmp	r2, r3
 8008902:	f8df 92b8 	ldr.w	r9, [pc, #696]	; 8008bbc <xQueueGenericSend+0x320>
 8008906:	d375      	bcc.n	80089f4 <xQueueGenericSend+0x158>
 8008908:	2f02      	cmp	r7, #2
 800890a:	f000 80fc 	beq.w	8008b06 <xQueueGenericSend+0x26a>
 800890e:	9d01      	ldr	r5, [sp, #4]
 8008910:	2d00      	cmp	r5, #0
 8008912:	f000 814e 	beq.w	8008bb2 <xQueueGenericSend+0x316>
 8008916:	f1ba 0f00 	cmp.w	sl, #0
 800891a:	d102      	bne.n	8008922 <xQueueGenericSend+0x86>
 800891c:	a802      	add	r0, sp, #8
 800891e:	f001 fafb 	bl	8009f18 <vTaskInternalSetTimeOutState>
 8008922:	f001 fcf9 	bl	800a318 <vPortExitCritical>
 8008926:	f001 f8b3 	bl	8009a90 <vTaskSuspendAll>
 800892a:	f001 fcd3 	bl	800a2d4 <vPortEnterCritical>
 800892e:	f894 3044 	ldrb.w	r3, [r4, #68]	; 0x44
 8008932:	2bff      	cmp	r3, #255	; 0xff
 8008934:	bf08      	it	eq
 8008936:	f884 8044 	strbeq.w	r8, [r4, #68]	; 0x44
 800893a:	f894 3045 	ldrb.w	r3, [r4, #69]	; 0x45
 800893e:	2bff      	cmp	r3, #255	; 0xff
 8008940:	bf08      	it	eq
 8008942:	f884 8045 	strbeq.w	r8, [r4, #69]	; 0x45
 8008946:	f001 fce7 	bl	800a318 <vPortExitCritical>
 800894a:	a901      	add	r1, sp, #4
 800894c:	a802      	add	r0, sp, #8
 800894e:	f001 faef 	bl	8009f30 <xTaskCheckForTimeOut>
 8008952:	2800      	cmp	r0, #0
 8008954:	f040 8126 	bne.w	8008ba4 <xQueueGenericSend+0x308>
 8008958:	f001 fcbc 	bl	800a2d4 <vPortEnterCritical>
 800895c:	6ba2      	ldr	r2, [r4, #56]	; 0x38
 800895e:	6be3      	ldr	r3, [r4, #60]	; 0x3c
 8008960:	429a      	cmp	r2, r3
 8008962:	d06a      	beq.n	8008a3a <xQueueGenericSend+0x19e>
 8008964:	f001 fcd8 	bl	800a318 <vPortExitCritical>
 8008968:	f001 fcb4 	bl	800a2d4 <vPortEnterCritical>
 800896c:	f894 5045 	ldrb.w	r5, [r4, #69]	; 0x45
 8008970:	b26d      	sxtb	r5, r5
 8008972:	2d00      	cmp	r5, #0
 8008974:	dd11      	ble.n	800899a <xQueueGenericSend+0xfe>
 8008976:	6a63      	ldr	r3, [r4, #36]	; 0x24
 8008978:	b17b      	cbz	r3, 800899a <xQueueGenericSend+0xfe>
 800897a:	f104 0a24 	add.w	sl, r4, #36	; 0x24
 800897e:	e001      	b.n	8008984 <xQueueGenericSend+0xe8>
 8008980:	6a63      	ldr	r3, [r4, #36]	; 0x24
 8008982:	b153      	cbz	r3, 800899a <xQueueGenericSend+0xfe>
 8008984:	4650      	mov	r0, sl
 8008986:	f001 fa81 	bl	8009e8c <xTaskRemoveFromEventList>
 800898a:	b108      	cbz	r0, 8008990 <xQueueGenericSend+0xf4>
 800898c:	f001 fb16 	bl	8009fbc <vTaskMissedYield>
 8008990:	3d01      	subs	r5, #1
 8008992:	b2eb      	uxtb	r3, r5
 8008994:	b25d      	sxtb	r5, r3
 8008996:	2b00      	cmp	r3, #0
 8008998:	d1f2      	bne.n	8008980 <xQueueGenericSend+0xe4>
 800899a:	23ff      	movs	r3, #255	; 0xff
 800899c:	f884 3045 	strb.w	r3, [r4, #69]	; 0x45
 80089a0:	f001 fcba 	bl	800a318 <vPortExitCritical>
 80089a4:	f001 fc96 	bl	800a2d4 <vPortEnterCritical>
 80089a8:	f894 5044 	ldrb.w	r5, [r4, #68]	; 0x44
 80089ac:	b26d      	sxtb	r5, r5
 80089ae:	2d00      	cmp	r5, #0
 80089b0:	dd11      	ble.n	80089d6 <xQueueGenericSend+0x13a>
 80089b2:	6923      	ldr	r3, [r4, #16]
 80089b4:	b17b      	cbz	r3, 80089d6 <xQueueGenericSend+0x13a>
 80089b6:	f104 0a10 	add.w	sl, r4, #16
 80089ba:	e001      	b.n	80089c0 <xQueueGenericSend+0x124>
 80089bc:	6923      	ldr	r3, [r4, #16]
 80089be:	b153      	cbz	r3, 80089d6 <xQueueGenericSend+0x13a>
 80089c0:	4650      	mov	r0, sl
 80089c2:	f001 fa63 	bl	8009e8c <xTaskRemoveFromEventList>
 80089c6:	b108      	cbz	r0, 80089cc <xQueueGenericSend+0x130>
 80089c8:	f001 faf8 	bl	8009fbc <vTaskMissedYield>
 80089cc:	3d01      	subs	r5, #1
 80089ce:	b2eb      	uxtb	r3, r5
 80089d0:	b25d      	sxtb	r5, r3
 80089d2:	2b00      	cmp	r3, #0
 80089d4:	d1f2      	bne.n	80089bc <xQueueGenericSend+0x120>
 80089d6:	23ff      	movs	r3, #255	; 0xff
 80089d8:	f884 3044 	strb.w	r3, [r4, #68]	; 0x44
 80089dc:	f001 fc9c 	bl	800a318 <vPortExitCritical>
 80089e0:	f001 f918 	bl	8009c14 <xTaskResumeAll>
 80089e4:	f001 fc76 	bl	800a2d4 <vPortEnterCritical>
 80089e8:	6ba2      	ldr	r2, [r4, #56]	; 0x38
 80089ea:	6be3      	ldr	r3, [r4, #60]	; 0x3c
 80089ec:	f04f 0a01 	mov.w	sl, #1
 80089f0:	429a      	cmp	r2, r3
 80089f2:	d289      	bcs.n	8008908 <xQueueGenericSend+0x6c>
 80089f4:	6c22      	ldr	r2, [r4, #64]	; 0x40
 80089f6:	6ba5      	ldr	r5, [r4, #56]	; 0x38
 80089f8:	2a00      	cmp	r2, #0
 80089fa:	f000 8087 	beq.w	8008b0c <xQueueGenericSend+0x270>
 80089fe:	4631      	mov	r1, r6
 8008a00:	2f00      	cmp	r7, #0
 8008a02:	f040 80bb 	bne.w	8008b7c <xQueueGenericSend+0x2e0>
 8008a06:	68a0      	ldr	r0, [r4, #8]
 8008a08:	f001 fe92 	bl	800a730 <memcpy>
 8008a0c:	68a3      	ldr	r3, [r4, #8]
 8008a0e:	6c21      	ldr	r1, [r4, #64]	; 0x40
 8008a10:	6862      	ldr	r2, [r4, #4]
 8008a12:	440b      	add	r3, r1
 8008a14:	4293      	cmp	r3, r2
 8008a16:	f105 0501 	add.w	r5, r5, #1
 8008a1a:	60a3      	str	r3, [r4, #8]
 8008a1c:	d379      	bcc.n	8008b12 <xQueueGenericSend+0x276>
 8008a1e:	63a5      	str	r5, [r4, #56]	; 0x38
 8008a20:	6822      	ldr	r2, [r4, #0]
 8008a22:	6a63      	ldr	r3, [r4, #36]	; 0x24
 8008a24:	60a2      	str	r2, [r4, #8]
 8008a26:	2b00      	cmp	r3, #0
 8008a28:	d077      	beq.n	8008b1a <xQueueGenericSend+0x27e>
 8008a2a:	f104 0024 	add.w	r0, r4, #36	; 0x24
 8008a2e:	f001 fa2d 	bl	8009e8c <xTaskRemoveFromEventList>
 8008a32:	2800      	cmp	r0, #0
 8008a34:	f040 8082 	bne.w	8008b3c <xQueueGenericSend+0x2a0>
 8008a38:	e06f      	b.n	8008b1a <xQueueGenericSend+0x27e>
 8008a3a:	f104 0a10 	add.w	sl, r4, #16
 8008a3e:	f001 fc6b 	bl	800a318 <vPortExitCritical>
 8008a42:	4650      	mov	r0, sl
 8008a44:	9901      	ldr	r1, [sp, #4]
 8008a46:	f001 f9d1 	bl	8009dec <vTaskPlaceOnEventList>
 8008a4a:	f001 fc43 	bl	800a2d4 <vPortEnterCritical>
 8008a4e:	f894 5045 	ldrb.w	r5, [r4, #69]	; 0x45
 8008a52:	b26d      	sxtb	r5, r5
 8008a54:	2d00      	cmp	r5, #0
 8008a56:	dd11      	ble.n	8008a7c <xQueueGenericSend+0x1e0>
 8008a58:	6a63      	ldr	r3, [r4, #36]	; 0x24
 8008a5a:	b17b      	cbz	r3, 8008a7c <xQueueGenericSend+0x1e0>
 8008a5c:	f104 0b24 	add.w	fp, r4, #36	; 0x24
 8008a60:	e001      	b.n	8008a66 <xQueueGenericSend+0x1ca>
 8008a62:	6a63      	ldr	r3, [r4, #36]	; 0x24
 8008a64:	b153      	cbz	r3, 8008a7c <xQueueGenericSend+0x1e0>
 8008a66:	4658      	mov	r0, fp
 8008a68:	f001 fa10 	bl	8009e8c <xTaskRemoveFromEventList>
 8008a6c:	b108      	cbz	r0, 8008a72 <xQueueGenericSend+0x1d6>
 8008a6e:	f001 faa5 	bl	8009fbc <vTaskMissedYield>
 8008a72:	3d01      	subs	r5, #1
 8008a74:	b2eb      	uxtb	r3, r5
 8008a76:	b25d      	sxtb	r5, r3
 8008a78:	2b00      	cmp	r3, #0
 8008a7a:	d1f2      	bne.n	8008a62 <xQueueGenericSend+0x1c6>
 8008a7c:	23ff      	movs	r3, #255	; 0xff
 8008a7e:	f884 3045 	strb.w	r3, [r4, #69]	; 0x45
 8008a82:	f001 fc49 	bl	800a318 <vPortExitCritical>
 8008a86:	f001 fc25 	bl	800a2d4 <vPortEnterCritical>
 8008a8a:	f894 5044 	ldrb.w	r5, [r4, #68]	; 0x44
 8008a8e:	b26d      	sxtb	r5, r5
 8008a90:	2d00      	cmp	r5, #0
 8008a92:	dc0a      	bgt.n	8008aaa <xQueueGenericSend+0x20e>
 8008a94:	e00c      	b.n	8008ab0 <xQueueGenericSend+0x214>
 8008a96:	4650      	mov	r0, sl
 8008a98:	f001 f9f8 	bl	8009e8c <xTaskRemoveFromEventList>
 8008a9c:	b108      	cbz	r0, 8008aa2 <xQueueGenericSend+0x206>
 8008a9e:	f001 fa8d 	bl	8009fbc <vTaskMissedYield>
 8008aa2:	3d01      	subs	r5, #1
 8008aa4:	b2eb      	uxtb	r3, r5
 8008aa6:	b25d      	sxtb	r5, r3
 8008aa8:	b113      	cbz	r3, 8008ab0 <xQueueGenericSend+0x214>
 8008aaa:	6923      	ldr	r3, [r4, #16]
 8008aac:	2b00      	cmp	r3, #0
 8008aae:	d1f2      	bne.n	8008a96 <xQueueGenericSend+0x1fa>
 8008ab0:	23ff      	movs	r3, #255	; 0xff
 8008ab2:	f884 3044 	strb.w	r3, [r4, #68]	; 0x44
 8008ab6:	f001 fc2f 	bl	800a318 <vPortExitCritical>
 8008aba:	f001 f8ab 	bl	8009c14 <xTaskResumeAll>
 8008abe:	2800      	cmp	r0, #0
 8008ac0:	d190      	bne.n	80089e4 <xQueueGenericSend+0x148>
 8008ac2:	f04f 5380 	mov.w	r3, #268435456	; 0x10000000
 8008ac6:	f8c9 3000 	str.w	r3, [r9]
 8008aca:	f3bf 8f4f 	dsb	sy
 8008ace:	f3bf 8f6f 	isb	sy
 8008ad2:	e787      	b.n	80089e4 <xQueueGenericSend+0x148>
 8008ad4:	f04f 0a00 	mov.w	sl, #0
 8008ad8:	e70c      	b.n	80088f4 <xQueueGenericSend+0x58>
 8008ada:	6c02      	ldr	r2, [r0, #64]	; 0x40
 8008adc:	2a00      	cmp	r2, #0
 8008ade:	f43f aee7 	beq.w	80088b0 <xQueueGenericSend+0x14>
 8008ae2:	f04f 0350 	mov.w	r3, #80	; 0x50
 8008ae6:	f383 8811 	msr	BASEPRI, r3
 8008aea:	f3bf 8f6f 	isb	sy
 8008aee:	f3bf 8f4f 	dsb	sy
 8008af2:	e7fe      	b.n	8008af2 <xQueueGenericSend+0x256>
 8008af4:	f04f 0350 	mov.w	r3, #80	; 0x50
 8008af8:	f383 8811 	msr	BASEPRI, r3
 8008afc:	f3bf 8f6f 	isb	sy
 8008b00:	f3bf 8f4f 	dsb	sy
 8008b04:	e7fe      	b.n	8008b04 <xQueueGenericSend+0x268>
 8008b06:	6c22      	ldr	r2, [r4, #64]	; 0x40
 8008b08:	6ba5      	ldr	r5, [r4, #56]	; 0x38
 8008b0a:	bb02      	cbnz	r2, 8008b4e <xQueueGenericSend+0x2b2>
 8008b0c:	6826      	ldr	r6, [r4, #0]
 8008b0e:	3501      	adds	r5, #1
 8008b10:	b14e      	cbz	r6, 8008b26 <xQueueGenericSend+0x28a>
 8008b12:	63a5      	str	r5, [r4, #56]	; 0x38
 8008b14:	6a63      	ldr	r3, [r4, #36]	; 0x24
 8008b16:	2b00      	cmp	r3, #0
 8008b18:	d187      	bne.n	8008a2a <xQueueGenericSend+0x18e>
 8008b1a:	f001 fbfd 	bl	800a318 <vPortExitCritical>
 8008b1e:	2001      	movs	r0, #1
 8008b20:	b005      	add	sp, #20
 8008b22:	e8bd 8ff0 	ldmia.w	sp!, {r4, r5, r6, r7, r8, r9, sl, fp, pc}
 8008b26:	6860      	ldr	r0, [r4, #4]
 8008b28:	f001 fab4 	bl	800a094 <xTaskPriorityDisinherit>
 8008b2c:	63a5      	str	r5, [r4, #56]	; 0x38
 8008b2e:	6a63      	ldr	r3, [r4, #36]	; 0x24
 8008b30:	6066      	str	r6, [r4, #4]
 8008b32:	2b00      	cmp	r3, #0
 8008b34:	f47f af79 	bne.w	8008a2a <xQueueGenericSend+0x18e>
 8008b38:	2800      	cmp	r0, #0
 8008b3a:	d0ee      	beq.n	8008b1a <xQueueGenericSend+0x27e>
 8008b3c:	f04f 5280 	mov.w	r2, #268435456	; 0x10000000
 8008b40:	4b1e      	ldr	r3, [pc, #120]	; (8008bbc <xQueueGenericSend+0x320>)
 8008b42:	601a      	str	r2, [r3, #0]
 8008b44:	f3bf 8f4f 	dsb	sy
 8008b48:	f3bf 8f6f 	isb	sy
 8008b4c:	e7e5      	b.n	8008b1a <xQueueGenericSend+0x27e>
 8008b4e:	4631      	mov	r1, r6
 8008b50:	68e0      	ldr	r0, [r4, #12]
 8008b52:	f001 fded 	bl	800a730 <memcpy>
 8008b56:	6c23      	ldr	r3, [r4, #64]	; 0x40
 8008b58:	68e2      	ldr	r2, [r4, #12]
 8008b5a:	425b      	negs	r3, r3
 8008b5c:	6821      	ldr	r1, [r4, #0]
 8008b5e:	441a      	add	r2, r3
 8008b60:	4291      	cmp	r1, r2
 8008b62:	60e2      	str	r2, [r4, #12]
 8008b64:	d916      	bls.n	8008b94 <xQueueGenericSend+0x2f8>
 8008b66:	6862      	ldr	r2, [r4, #4]
 8008b68:	4413      	add	r3, r2
 8008b6a:	60e3      	str	r3, [r4, #12]
 8008b6c:	2f02      	cmp	r7, #2
 8008b6e:	d011      	beq.n	8008b94 <xQueueGenericSend+0x2f8>
 8008b70:	3501      	adds	r5, #1
 8008b72:	63a5      	str	r5, [r4, #56]	; 0x38
 8008b74:	6a63      	ldr	r3, [r4, #36]	; 0x24
 8008b76:	2b00      	cmp	r3, #0
 8008b78:	d0cf      	beq.n	8008b1a <xQueueGenericSend+0x27e>
 8008b7a:	e756      	b.n	8008a2a <xQueueGenericSend+0x18e>
 8008b7c:	68e0      	ldr	r0, [r4, #12]
 8008b7e:	f001 fdd7 	bl	800a730 <memcpy>
 8008b82:	6c23      	ldr	r3, [r4, #64]	; 0x40
 8008b84:	68e2      	ldr	r2, [r4, #12]
 8008b86:	425b      	negs	r3, r3
 8008b88:	6821      	ldr	r1, [r4, #0]
 8008b8a:	441a      	add	r2, r3
 8008b8c:	428a      	cmp	r2, r1
 8008b8e:	60e2      	str	r2, [r4, #12]
 8008b90:	d2ec      	bcs.n	8008b6c <xQueueGenericSend+0x2d0>
 8008b92:	e7e8      	b.n	8008b66 <xQueueGenericSend+0x2ca>
 8008b94:	2d00      	cmp	r5, #0
 8008b96:	d1bc      	bne.n	8008b12 <xQueueGenericSend+0x276>
 8008b98:	2301      	movs	r3, #1
 8008b9a:	63a3      	str	r3, [r4, #56]	; 0x38
 8008b9c:	6a63      	ldr	r3, [r4, #36]	; 0x24
 8008b9e:	2b00      	cmp	r3, #0
 8008ba0:	d0bb      	beq.n	8008b1a <xQueueGenericSend+0x27e>
 8008ba2:	e742      	b.n	8008a2a <xQueueGenericSend+0x18e>
 8008ba4:	4620      	mov	r0, r4
 8008ba6:	f7ff fd51 	bl	800864c <prvUnlockQueue>
 8008baa:	f001 f833 	bl	8009c14 <xTaskResumeAll>
 8008bae:	2000      	movs	r0, #0
 8008bb0:	e7b6      	b.n	8008b20 <xQueueGenericSend+0x284>
 8008bb2:	f001 fbb1 	bl	800a318 <vPortExitCritical>
 8008bb6:	4628      	mov	r0, r5
 8008bb8:	e7b2      	b.n	8008b20 <xQueueGenericSend+0x284>
 8008bba:	bf00      	nop
 8008bbc:	e000ed04 	.word	0xe000ed04

08008bc0 <xQueueGenericSendFromISR>:
 8008bc0:	2800      	cmp	r0, #0
 8008bc2:	d037      	beq.n	8008c34 <xQueueGenericSendFromISR+0x74>
 8008bc4:	e92d 47f0 	stmdb	sp!, {r4, r5, r6, r7, r8, r9, sl, lr}
 8008bc8:	b341      	cbz	r1, 8008c1c <xQueueGenericSendFromISR+0x5c>
 8008bca:	2b02      	cmp	r3, #2
 8008bcc:	d10b      	bne.n	8008be6 <xQueueGenericSendFromISR+0x26>
 8008bce:	6bc4      	ldr	r4, [r0, #60]	; 0x3c
 8008bd0:	2c01      	cmp	r4, #1
 8008bd2:	d008      	beq.n	8008be6 <xQueueGenericSendFromISR+0x26>
 8008bd4:	f04f 0350 	mov.w	r3, #80	; 0x50
 8008bd8:	f383 8811 	msr	BASEPRI, r3
 8008bdc:	f3bf 8f6f 	isb	sy
 8008be0:	f3bf 8f4f 	dsb	sy
 8008be4:	e7fe      	b.n	8008be4 <xQueueGenericSendFromISR+0x24>
 8008be6:	4604      	mov	r4, r0
 8008be8:	461f      	mov	r7, r3
 8008bea:	4691      	mov	r9, r2
 8008bec:	468a      	mov	sl, r1
 8008bee:	f001 fc59 	bl	800a4a4 <vPortValidateInterruptPriority>
 8008bf2:	f3ef 8811 	mrs	r8, BASEPRI
 8008bf6:	f04f 0350 	mov.w	r3, #80	; 0x50
 8008bfa:	f383 8811 	msr	BASEPRI, r3
 8008bfe:	f3bf 8f6f 	isb	sy
 8008c02:	f3bf 8f4f 	dsb	sy
 8008c06:	6ba2      	ldr	r2, [r4, #56]	; 0x38
 8008c08:	6be3      	ldr	r3, [r4, #60]	; 0x3c
 8008c0a:	429a      	cmp	r2, r3
 8008c0c:	d31b      	bcc.n	8008c46 <xQueueGenericSendFromISR+0x86>
 8008c0e:	2f02      	cmp	r7, #2
 8008c10:	d034      	beq.n	8008c7c <xQueueGenericSendFromISR+0xbc>
 8008c12:	2000      	movs	r0, #0
 8008c14:	f388 8811 	msr	BASEPRI, r8
 8008c18:	e8bd 87f0 	ldmia.w	sp!, {r4, r5, r6, r7, r8, r9, sl, pc}
 8008c1c:	6c04      	ldr	r4, [r0, #64]	; 0x40
 8008c1e:	2c00      	cmp	r4, #0
 8008c20:	d0d3      	beq.n	8008bca <xQueueGenericSendFromISR+0xa>
 8008c22:	f04f 0350 	mov.w	r3, #80	; 0x50
 8008c26:	f383 8811 	msr	BASEPRI, r3
 8008c2a:	f3bf 8f6f 	isb	sy
 8008c2e:	f3bf 8f4f 	dsb	sy
 8008c32:	e7fe      	b.n	8008c32 <xQueueGenericSendFromISR+0x72>
 8008c34:	f04f 0350 	mov.w	r3, #80	; 0x50
 8008c38:	f383 8811 	msr	BASEPRI, r3
 8008c3c:	f3bf 8f6f 	isb	sy
 8008c40:	f3bf 8f4f 	dsb	sy
 8008c44:	e7fe      	b.n	8008c44 <xQueueGenericSendFromISR+0x84>
 8008c46:	f894 5045 	ldrb.w	r5, [r4, #69]	; 0x45
 8008c4a:	6c22      	ldr	r2, [r4, #64]	; 0x40
 8008c4c:	b26d      	sxtb	r5, r5
 8008c4e:	6ba6      	ldr	r6, [r4, #56]	; 0x38
 8008c50:	b1da      	cbz	r2, 8008c8a <xQueueGenericSendFromISR+0xca>
 8008c52:	b36f      	cbz	r7, 8008cb0 <xQueueGenericSendFromISR+0xf0>
 8008c54:	4651      	mov	r1, sl
 8008c56:	68e0      	ldr	r0, [r4, #12]
 8008c58:	f001 fd6a 	bl	800a730 <memcpy>
 8008c5c:	6c23      	ldr	r3, [r4, #64]	; 0x40
 8008c5e:	68e2      	ldr	r2, [r4, #12]
 8008c60:	425b      	negs	r3, r3
 8008c62:	6821      	ldr	r1, [r4, #0]
 8008c64:	441a      	add	r2, r3
 8008c66:	428a      	cmp	r2, r1
 8008c68:	60e2      	str	r2, [r4, #12]
 8008c6a:	d202      	bcs.n	8008c72 <xQueueGenericSendFromISR+0xb2>
 8008c6c:	6862      	ldr	r2, [r4, #4]
 8008c6e:	4413      	add	r3, r2
 8008c70:	60e3      	str	r3, [r4, #12]
 8008c72:	2f02      	cmp	r7, #2
 8008c74:	d10f      	bne.n	8008c96 <xQueueGenericSendFromISR+0xd6>
 8008c76:	b176      	cbz	r6, 8008c96 <xQueueGenericSendFromISR+0xd6>
 8008c78:	3e01      	subs	r6, #1
 8008c7a:	e00c      	b.n	8008c96 <xQueueGenericSendFromISR+0xd6>
 8008c7c:	f894 5045 	ldrb.w	r5, [r4, #69]	; 0x45
 8008c80:	6c22      	ldr	r2, [r4, #64]	; 0x40
 8008c82:	b26d      	sxtb	r5, r5
 8008c84:	6ba6      	ldr	r6, [r4, #56]	; 0x38
 8008c86:	2a00      	cmp	r2, #0
 8008c88:	d1e4      	bne.n	8008c54 <xQueueGenericSendFromISR+0x94>
 8008c8a:	6827      	ldr	r7, [r4, #0]
 8008c8c:	b91f      	cbnz	r7, 8008c96 <xQueueGenericSendFromISR+0xd6>
 8008c8e:	6860      	ldr	r0, [r4, #4]
 8008c90:	f001 fa00 	bl	800a094 <xTaskPriorityDisinherit>
 8008c94:	6067      	str	r7, [r4, #4]
 8008c96:	3601      	adds	r6, #1
 8008c98:	1c6b      	adds	r3, r5, #1
 8008c9a:	63a6      	str	r6, [r4, #56]	; 0x38
 8008c9c:	d016      	beq.n	8008ccc <xQueueGenericSendFromISR+0x10c>
 8008c9e:	2001      	movs	r0, #1
 8008ca0:	182b      	adds	r3, r5, r0
 8008ca2:	b25b      	sxtb	r3, r3
 8008ca4:	f884 3045 	strb.w	r3, [r4, #69]	; 0x45
 8008ca8:	f388 8811 	msr	BASEPRI, r8
 8008cac:	e8bd 87f0 	ldmia.w	sp!, {r4, r5, r6, r7, r8, r9, sl, pc}
 8008cb0:	4651      	mov	r1, sl
 8008cb2:	68a0      	ldr	r0, [r4, #8]
 8008cb4:	f001 fd3c 	bl	800a730 <memcpy>
 8008cb8:	68a3      	ldr	r3, [r4, #8]
 8008cba:	6c21      	ldr	r1, [r4, #64]	; 0x40
 8008cbc:	6862      	ldr	r2, [r4, #4]
 8008cbe:	440b      	add	r3, r1
 8008cc0:	4293      	cmp	r3, r2
 8008cc2:	60a3      	str	r3, [r4, #8]
 8008cc4:	d3e7      	bcc.n	8008c96 <xQueueGenericSendFromISR+0xd6>
 8008cc6:	6823      	ldr	r3, [r4, #0]
 8008cc8:	60a3      	str	r3, [r4, #8]
 8008cca:	e7e4      	b.n	8008c96 <xQueueGenericSendFromISR+0xd6>
 8008ccc:	6a63      	ldr	r3, [r4, #36]	; 0x24
 8008cce:	b90b      	cbnz	r3, 8008cd4 <xQueueGenericSendFromISR+0x114>
 8008cd0:	2001      	movs	r0, #1
 8008cd2:	e79f      	b.n	8008c14 <xQueueGenericSendFromISR+0x54>
 8008cd4:	f104 0024 	add.w	r0, r4, #36	; 0x24
 8008cd8:	f001 f8d8 	bl	8009e8c <xTaskRemoveFromEventList>
 8008cdc:	2800      	cmp	r0, #0
 8008cde:	d0f7      	beq.n	8008cd0 <xQueueGenericSendFromISR+0x110>
 8008ce0:	f1b9 0f00 	cmp.w	r9, #0
 8008ce4:	d0f4      	beq.n	8008cd0 <xQueueGenericSendFromISR+0x110>
 8008ce6:	2001      	movs	r0, #1
 8008ce8:	f8c9 0000 	str.w	r0, [r9]
 8008cec:	e792      	b.n	8008c14 <xQueueGenericSendFromISR+0x54>
 8008cee:	bf00      	nop

08008cf0 <xQueueGiveFromISR>:
 8008cf0:	b370      	cbz	r0, 8008d50 <xQueueGiveFromISR+0x60>
 8008cf2:	6c03      	ldr	r3, [r0, #64]	; 0x40
 8008cf4:	b143      	cbz	r3, 8008d08 <xQueueGiveFromISR+0x18>
 8008cf6:	f04f 0350 	mov.w	r3, #80	; 0x50
 8008cfa:	f383 8811 	msr	BASEPRI, r3
 8008cfe:	f3bf 8f6f 	isb	sy
 8008d02:	f3bf 8f4f 	dsb	sy
 8008d06:	e7fe      	b.n	8008d06 <xQueueGiveFromISR+0x16>
 8008d08:	6803      	ldr	r3, [r0, #0]
 8008d0a:	b353      	cbz	r3, 8008d62 <xQueueGiveFromISR+0x72>
 8008d0c:	b570      	push	{r4, r5, r6, lr}
 8008d0e:	4604      	mov	r4, r0
 8008d10:	460d      	mov	r5, r1
 8008d12:	f001 fbc7 	bl	800a4a4 <vPortValidateInterruptPriority>
 8008d16:	f3ef 8611 	mrs	r6, BASEPRI
 8008d1a:	f04f 0350 	mov.w	r3, #80	; 0x50
 8008d1e:	f383 8811 	msr	BASEPRI, r3
 8008d22:	f3bf 8f6f 	isb	sy
 8008d26:	f3bf 8f4f 	dsb	sy
 8008d2a:	6ba2      	ldr	r2, [r4, #56]	; 0x38
 8008d2c:	6be3      	ldr	r3, [r4, #60]	; 0x3c
 8008d2e:	4293      	cmp	r3, r2
 8008d30:	d931      	bls.n	8008d96 <xQueueGiveFromISR+0xa6>
 8008d32:	f894 3045 	ldrb.w	r3, [r4, #69]	; 0x45
 8008d36:	3201      	adds	r2, #1
 8008d38:	b25b      	sxtb	r3, r3
 8008d3a:	63a2      	str	r2, [r4, #56]	; 0x38
 8008d3c:	1c5a      	adds	r2, r3, #1
 8008d3e:	d01c      	beq.n	8008d7a <xQueueGiveFromISR+0x8a>
 8008d40:	3301      	adds	r3, #1
 8008d42:	b25b      	sxtb	r3, r3
 8008d44:	f884 3045 	strb.w	r3, [r4, #69]	; 0x45
 8008d48:	2001      	movs	r0, #1
 8008d4a:	f386 8811 	msr	BASEPRI, r6
 8008d4e:	bd70      	pop	{r4, r5, r6, pc}
 8008d50:	f04f 0350 	mov.w	r3, #80	; 0x50
 8008d54:	f383 8811 	msr	BASEPRI, r3
 8008d58:	f3bf 8f6f 	isb	sy
 8008d5c:	f3bf 8f4f 	dsb	sy
 8008d60:	e7fe      	b.n	8008d60 <xQueueGiveFromISR+0x70>
 8008d62:	6843      	ldr	r3, [r0, #4]
 8008d64:	2b00      	cmp	r3, #0
 8008d66:	d0d1      	beq.n	8008d0c <xQueueGiveFromISR+0x1c>
 8008d68:	f04f 0350 	mov.w	r3, #80	; 0x50
 8008d6c:	f383 8811 	msr	BASEPRI, r3
 8008d70:	f3bf 8f6f 	isb	sy
 8008d74:	f3bf 8f4f 	dsb	sy
 8008d78:	e7fe      	b.n	8008d78 <xQueueGiveFromISR+0x88>
 8008d7a:	6a63      	ldr	r3, [r4, #36]	; 0x24
 8008d7c:	2b00      	cmp	r3, #0
 8008d7e:	d0e3      	beq.n	8008d48 <xQueueGiveFromISR+0x58>
 8008d80:	f104 0024 	add.w	r0, r4, #36	; 0x24
 8008d84:	f001 f882 	bl	8009e8c <xTaskRemoveFromEventList>
 8008d88:	2800      	cmp	r0, #0
 8008d8a:	d0dd      	beq.n	8008d48 <xQueueGiveFromISR+0x58>
 8008d8c:	2d00      	cmp	r5, #0
 8008d8e:	d0db      	beq.n	8008d48 <xQueueGiveFromISR+0x58>
 8008d90:	2001      	movs	r0, #1
 8008d92:	6028      	str	r0, [r5, #0]
 8008d94:	e7d9      	b.n	8008d4a <xQueueGiveFromISR+0x5a>
 8008d96:	2000      	movs	r0, #0
 8008d98:	e7d7      	b.n	8008d4a <xQueueGiveFromISR+0x5a>
 8008d9a:	bf00      	nop

08008d9c <xQueueReceive>:
 8008d9c:	e92d 47f0 	stmdb	sp!, {r4, r5, r6, r7, r8, r9, sl, lr}
 8008da0:	b084      	sub	sp, #16
 8008da2:	9201      	str	r2, [sp, #4]
 8008da4:	2800      	cmp	r0, #0
 8008da6:	f000 8143 	beq.w	8009030 <xQueueReceive+0x294>
 8008daa:	2900      	cmp	r1, #0
 8008dac:	f000 8133 	beq.w	8009016 <xQueueReceive+0x27a>
 8008db0:	4604      	mov	r4, r0
 8008db2:	460f      	mov	r7, r1
 8008db4:	f001 f908 	bl	8009fc8 <xTaskGetSchedulerState>
 8008db8:	b950      	cbnz	r0, 8008dd0 <xQueueReceive+0x34>
 8008dba:	9b01      	ldr	r3, [sp, #4]
 8008dbc:	b143      	cbz	r3, 8008dd0 <xQueueReceive+0x34>
 8008dbe:	f04f 0350 	mov.w	r3, #80	; 0x50
 8008dc2:	f383 8811 	msr	BASEPRI, r3
 8008dc6:	f3bf 8f6f 	isb	sy
 8008dca:	f3bf 8f4f 	dsb	sy
 8008dce:	e7fe      	b.n	8008dce <xQueueReceive+0x32>
 8008dd0:	f001 fa80 	bl	800a2d4 <vPortEnterCritical>
 8008dd4:	6ba5      	ldr	r5, [r4, #56]	; 0x38
 8008dd6:	2d00      	cmp	r5, #0
 8008dd8:	f040 80ba 	bne.w	8008f50 <xQueueReceive+0x1b4>
 8008ddc:	9b01      	ldr	r3, [sp, #4]
 8008dde:	2b00      	cmp	r3, #0
 8008de0:	d06a      	beq.n	8008eb8 <xQueueReceive+0x11c>
 8008de2:	a802      	add	r0, sp, #8
 8008de4:	46a8      	mov	r8, r5
 8008de6:	f001 f897 	bl	8009f18 <vTaskInternalSetTimeOutState>
 8008dea:	f8df 9274 	ldr.w	r9, [pc, #628]	; 8009060 <xQueueReceive+0x2c4>
 8008dee:	f104 0624 	add.w	r6, r4, #36	; 0x24
 8008df2:	f001 fa91 	bl	800a318 <vPortExitCritical>
 8008df6:	f000 fe4b 	bl	8009a90 <vTaskSuspendAll>
 8008dfa:	f001 fa6b 	bl	800a2d4 <vPortEnterCritical>
 8008dfe:	f894 3044 	ldrb.w	r3, [r4, #68]	; 0x44
 8008e02:	2bff      	cmp	r3, #255	; 0xff
 8008e04:	bf08      	it	eq
 8008e06:	f884 8044 	strbeq.w	r8, [r4, #68]	; 0x44
 8008e0a:	f894 3045 	ldrb.w	r3, [r4, #69]	; 0x45
 8008e0e:	2bff      	cmp	r3, #255	; 0xff
 8008e10:	bf08      	it	eq
 8008e12:	f884 8045 	strbeq.w	r8, [r4, #69]	; 0x45
 8008e16:	f001 fa7f 	bl	800a318 <vPortExitCritical>
 8008e1a:	a901      	add	r1, sp, #4
 8008e1c:	a802      	add	r0, sp, #8
 8008e1e:	f001 f887 	bl	8009f30 <xTaskCheckForTimeOut>
 8008e22:	2800      	cmp	r0, #0
 8008e24:	d14e      	bne.n	8008ec4 <xQueueReceive+0x128>
 8008e26:	f001 fa55 	bl	800a2d4 <vPortEnterCritical>
 8008e2a:	6ba3      	ldr	r3, [r4, #56]	; 0x38
 8008e2c:	2b00      	cmp	r3, #0
 8008e2e:	f000 80a8 	beq.w	8008f82 <xQueueReceive+0x1e6>
 8008e32:	f001 fa71 	bl	800a318 <vPortExitCritical>
 8008e36:	f001 fa4d 	bl	800a2d4 <vPortEnterCritical>
 8008e3a:	f894 5045 	ldrb.w	r5, [r4, #69]	; 0x45
 8008e3e:	b26d      	sxtb	r5, r5
 8008e40:	2d00      	cmp	r5, #0
 8008e42:	dc0a      	bgt.n	8008e5a <xQueueReceive+0xbe>
 8008e44:	e00c      	b.n	8008e60 <xQueueReceive+0xc4>
 8008e46:	4630      	mov	r0, r6
 8008e48:	f001 f820 	bl	8009e8c <xTaskRemoveFromEventList>
 8008e4c:	b108      	cbz	r0, 8008e52 <xQueueReceive+0xb6>
 8008e4e:	f001 f8b5 	bl	8009fbc <vTaskMissedYield>
 8008e52:	3d01      	subs	r5, #1
 8008e54:	b2eb      	uxtb	r3, r5
 8008e56:	b25d      	sxtb	r5, r3
 8008e58:	b113      	cbz	r3, 8008e60 <xQueueReceive+0xc4>
 8008e5a:	6a63      	ldr	r3, [r4, #36]	; 0x24
 8008e5c:	2b00      	cmp	r3, #0
 8008e5e:	d1f2      	bne.n	8008e46 <xQueueReceive+0xaa>
 8008e60:	23ff      	movs	r3, #255	; 0xff
 8008e62:	f884 3045 	strb.w	r3, [r4, #69]	; 0x45
 8008e66:	f001 fa57 	bl	800a318 <vPortExitCritical>
 8008e6a:	f001 fa33 	bl	800a2d4 <vPortEnterCritical>
 8008e6e:	f894 5044 	ldrb.w	r5, [r4, #68]	; 0x44
 8008e72:	b26d      	sxtb	r5, r5
 8008e74:	2d00      	cmp	r5, #0
 8008e76:	dd10      	ble.n	8008e9a <xQueueReceive+0xfe>
 8008e78:	6923      	ldr	r3, [r4, #16]
 8008e7a:	b173      	cbz	r3, 8008e9a <xQueueReceive+0xfe>
 8008e7c:	f104 0a10 	add.w	sl, r4, #16
 8008e80:	4650      	mov	r0, sl
 8008e82:	f001 f803 	bl	8009e8c <xTaskRemoveFromEventList>
 8008e86:	b108      	cbz	r0, 8008e8c <xQueueReceive+0xf0>
 8008e88:	f001 f898 	bl	8009fbc <vTaskMissedYield>
 8008e8c:	3d01      	subs	r5, #1
 8008e8e:	b2eb      	uxtb	r3, r5
 8008e90:	b25d      	sxtb	r5, r3
 8008e92:	b113      	cbz	r3, 8008e9a <xQueueReceive+0xfe>
 8008e94:	6923      	ldr	r3, [r4, #16]
 8008e96:	2b00      	cmp	r3, #0
 8008e98:	d1f2      	bne.n	8008e80 <xQueueReceive+0xe4>
 8008e9a:	23ff      	movs	r3, #255	; 0xff
 8008e9c:	f884 3044 	strb.w	r3, [r4, #68]	; 0x44
 8008ea0:	f001 fa3a 	bl	800a318 <vPortExitCritical>
 8008ea4:	f000 feb6 	bl	8009c14 <xTaskResumeAll>
 8008ea8:	f001 fa14 	bl	800a2d4 <vPortEnterCritical>
 8008eac:	6ba5      	ldr	r5, [r4, #56]	; 0x38
 8008eae:	2d00      	cmp	r5, #0
 8008eb0:	d14e      	bne.n	8008f50 <xQueueReceive+0x1b4>
 8008eb2:	9b01      	ldr	r3, [sp, #4]
 8008eb4:	2b00      	cmp	r3, #0
 8008eb6:	d19c      	bne.n	8008df2 <xQueueReceive+0x56>
 8008eb8:	f001 fa2e 	bl	800a318 <vPortExitCritical>
 8008ebc:	2000      	movs	r0, #0
 8008ebe:	b004      	add	sp, #16
 8008ec0:	e8bd 87f0 	ldmia.w	sp!, {r4, r5, r6, r7, r8, r9, sl, pc}
 8008ec4:	f001 fa06 	bl	800a2d4 <vPortEnterCritical>
 8008ec8:	f894 5045 	ldrb.w	r5, [r4, #69]	; 0x45
 8008ecc:	b26d      	sxtb	r5, r5
 8008ece:	2d00      	cmp	r5, #0
 8008ed0:	dc0a      	bgt.n	8008ee8 <xQueueReceive+0x14c>
 8008ed2:	e00c      	b.n	8008eee <xQueueReceive+0x152>
 8008ed4:	4630      	mov	r0, r6
 8008ed6:	f000 ffd9 	bl	8009e8c <xTaskRemoveFromEventList>
 8008eda:	b108      	cbz	r0, 8008ee0 <xQueueReceive+0x144>
 8008edc:	f001 f86e 	bl	8009fbc <vTaskMissedYield>
 8008ee0:	3d01      	subs	r5, #1
 8008ee2:	b2eb      	uxtb	r3, r5
 8008ee4:	b25d      	sxtb	r5, r3
 8008ee6:	b113      	cbz	r3, 8008eee <xQueueReceive+0x152>
 8008ee8:	6a63      	ldr	r3, [r4, #36]	; 0x24
 8008eea:	2b00      	cmp	r3, #0
 8008eec:	d1f2      	bne.n	8008ed4 <xQueueReceive+0x138>
 8008eee:	23ff      	movs	r3, #255	; 0xff
 8008ef0:	f884 3045 	strb.w	r3, [r4, #69]	; 0x45
 8008ef4:	f001 fa10 	bl	800a318 <vPortExitCritical>
 8008ef8:	f001 f9ec 	bl	800a2d4 <vPortEnterCritical>
 8008efc:	f894 5044 	ldrb.w	r5, [r4, #68]	; 0x44
 8008f00:	b26d      	sxtb	r5, r5
 8008f02:	2d00      	cmp	r5, #0
 8008f04:	dd11      	ble.n	8008f2a <xQueueReceive+0x18e>
 8008f06:	6923      	ldr	r3, [r4, #16]
 8008f08:	b17b      	cbz	r3, 8008f2a <xQueueReceive+0x18e>
 8008f0a:	f104 0a10 	add.w	sl, r4, #16
 8008f0e:	e001      	b.n	8008f14 <xQueueReceive+0x178>
 8008f10:	6923      	ldr	r3, [r4, #16]
 8008f12:	b153      	cbz	r3, 8008f2a <xQueueReceive+0x18e>
 8008f14:	4650      	mov	r0, sl
 8008f16:	f000 ffb9 	bl	8009e8c <xTaskRemoveFromEventList>
 8008f1a:	b108      	cbz	r0, 8008f20 <xQueueReceive+0x184>
 8008f1c:	f001 f84e 	bl	8009fbc <vTaskMissedYield>
 8008f20:	3d01      	subs	r5, #1
 8008f22:	b2eb      	uxtb	r3, r5
 8008f24:	b25d      	sxtb	r5, r3
 8008f26:	2b00      	cmp	r3, #0
 8008f28:	d1f2      	bne.n	8008f10 <xQueueReceive+0x174>
 8008f2a:	23ff      	movs	r3, #255	; 0xff
 8008f2c:	f884 3044 	strb.w	r3, [r4, #68]	; 0x44
 8008f30:	f001 f9f2 	bl	800a318 <vPortExitCritical>
 8008f34:	f000 fe6e 	bl	8009c14 <xTaskResumeAll>
 8008f38:	f001 f9cc 	bl	800a2d4 <vPortEnterCritical>
 8008f3c:	6ba3      	ldr	r3, [r4, #56]	; 0x38
 8008f3e:	2b00      	cmp	r3, #0
 8008f40:	d0ba      	beq.n	8008eb8 <xQueueReceive+0x11c>
 8008f42:	f001 f9e9 	bl	800a318 <vPortExitCritical>
 8008f46:	f001 f9c5 	bl	800a2d4 <vPortEnterCritical>
 8008f4a:	6ba5      	ldr	r5, [r4, #56]	; 0x38
 8008f4c:	2d00      	cmp	r5, #0
 8008f4e:	d0b0      	beq.n	8008eb2 <xQueueReceive+0x116>
 8008f50:	6c22      	ldr	r2, [r4, #64]	; 0x40
 8008f52:	b15a      	cbz	r2, 8008f6c <xQueueReceive+0x1d0>
 8008f54:	68e1      	ldr	r1, [r4, #12]
 8008f56:	6863      	ldr	r3, [r4, #4]
 8008f58:	4411      	add	r1, r2
 8008f5a:	4299      	cmp	r1, r3
 8008f5c:	60e1      	str	r1, [r4, #12]
 8008f5e:	d302      	bcc.n	8008f66 <xQueueReceive+0x1ca>
 8008f60:	6823      	ldr	r3, [r4, #0]
 8008f62:	4619      	mov	r1, r3
 8008f64:	60e3      	str	r3, [r4, #12]
 8008f66:	4638      	mov	r0, r7
 8008f68:	f001 fbe2 	bl	800a730 <memcpy>
 8008f6c:	3d01      	subs	r5, #1
 8008f6e:	63a5      	str	r5, [r4, #56]	; 0x38
 8008f70:	6923      	ldr	r3, [r4, #16]
 8008f72:	2b00      	cmp	r3, #0
 8008f74:	d165      	bne.n	8009042 <xQueueReceive+0x2a6>
 8008f76:	f001 f9cf 	bl	800a318 <vPortExitCritical>
 8008f7a:	2001      	movs	r0, #1
 8008f7c:	b004      	add	sp, #16
 8008f7e:	e8bd 87f0 	ldmia.w	sp!, {r4, r5, r6, r7, r8, r9, sl, pc}
 8008f82:	f001 f9c9 	bl	800a318 <vPortExitCritical>
 8008f86:	9901      	ldr	r1, [sp, #4]
 8008f88:	4630      	mov	r0, r6
 8008f8a:	f000 ff2f 	bl	8009dec <vTaskPlaceOnEventList>
 8008f8e:	f001 f9a1 	bl	800a2d4 <vPortEnterCritical>
 8008f92:	f894 5045 	ldrb.w	r5, [r4, #69]	; 0x45
 8008f96:	b26d      	sxtb	r5, r5
 8008f98:	2d00      	cmp	r5, #0
 8008f9a:	dc0a      	bgt.n	8008fb2 <xQueueReceive+0x216>
 8008f9c:	e00c      	b.n	8008fb8 <xQueueReceive+0x21c>
 8008f9e:	4630      	mov	r0, r6
 8008fa0:	f000 ff74 	bl	8009e8c <xTaskRemoveFromEventList>
 8008fa4:	b108      	cbz	r0, 8008faa <xQueueReceive+0x20e>
 8008fa6:	f001 f809 	bl	8009fbc <vTaskMissedYield>
 8008faa:	3d01      	subs	r5, #1
 8008fac:	b2eb      	uxtb	r3, r5
 8008fae:	b25d      	sxtb	r5, r3
 8008fb0:	b113      	cbz	r3, 8008fb8 <xQueueReceive+0x21c>
 8008fb2:	6a63      	ldr	r3, [r4, #36]	; 0x24
 8008fb4:	2b00      	cmp	r3, #0
 8008fb6:	d1f2      	bne.n	8008f9e <xQueueReceive+0x202>
 8008fb8:	23ff      	movs	r3, #255	; 0xff
 8008fba:	f884 3045 	strb.w	r3, [r4, #69]	; 0x45
 8008fbe:	f001 f9ab 	bl	800a318 <vPortExitCritical>
 8008fc2:	f001 f987 	bl	800a2d4 <vPortEnterCritical>
 8008fc6:	f894 5044 	ldrb.w	r5, [r4, #68]	; 0x44
 8008fca:	b26d      	sxtb	r5, r5
 8008fcc:	2d00      	cmp	r5, #0
 8008fce:	dd10      	ble.n	8008ff2 <xQueueReceive+0x256>
 8008fd0:	6923      	ldr	r3, [r4, #16]
 8008fd2:	b173      	cbz	r3, 8008ff2 <xQueueReceive+0x256>
 8008fd4:	f104 0a10 	add.w	sl, r4, #16
 8008fd8:	4650      	mov	r0, sl
 8008fda:	f000 ff57 	bl	8009e8c <xTaskRemoveFromEventList>
 8008fde:	b108      	cbz	r0, 8008fe4 <xQueueReceive+0x248>
 8008fe0:	f000 ffec 	bl	8009fbc <vTaskMissedYield>
 8008fe4:	3d01      	subs	r5, #1
 8008fe6:	b2eb      	uxtb	r3, r5
 8008fe8:	b25d      	sxtb	r5, r3
 8008fea:	b113      	cbz	r3, 8008ff2 <xQueueReceive+0x256>
 8008fec:	6923      	ldr	r3, [r4, #16]
 8008fee:	2b00      	cmp	r3, #0
 8008ff0:	d1f2      	bne.n	8008fd8 <xQueueReceive+0x23c>
 8008ff2:	23ff      	movs	r3, #255	; 0xff
 8008ff4:	f884 3044 	strb.w	r3, [r4, #68]	; 0x44
 8008ff8:	f001 f98e 	bl	800a318 <vPortExitCritical>
 8008ffc:	f000 fe0a 	bl	8009c14 <xTaskResumeAll>
 8009000:	2800      	cmp	r0, #0
 8009002:	d1a0      	bne.n	8008f46 <xQueueReceive+0x1aa>
 8009004:	f04f 5380 	mov.w	r3, #268435456	; 0x10000000
 8009008:	f8c9 3000 	str.w	r3, [r9]
 800900c:	f3bf 8f4f 	dsb	sy
 8009010:	f3bf 8f6f 	isb	sy
 8009014:	e797      	b.n	8008f46 <xQueueReceive+0x1aa>
 8009016:	6c03      	ldr	r3, [r0, #64]	; 0x40
 8009018:	2b00      	cmp	r3, #0
 800901a:	f43f aec9 	beq.w	8008db0 <xQueueReceive+0x14>
 800901e:	f04f 0350 	mov.w	r3, #80	; 0x50
 8009022:	f383 8811 	msr	BASEPRI, r3
 8009026:	f3bf 8f6f 	isb	sy
 800902a:	f3bf 8f4f 	dsb	sy
 800902e:	e7fe      	b.n	800902e <xQueueReceive+0x292>
 8009030:	f04f 0350 	mov.w	r3, #80	; 0x50
 8009034:	f383 8811 	msr	BASEPRI, r3
 8009038:	f3bf 8f6f 	isb	sy
 800903c:	f3bf 8f4f 	dsb	sy
 8009040:	e7fe      	b.n	8009040 <xQueueReceive+0x2a4>
 8009042:	f104 0010 	add.w	r0, r4, #16
 8009046:	f000 ff21 	bl	8009e8c <xTaskRemoveFromEventList>
 800904a:	2800      	cmp	r0, #0
 800904c:	d093      	beq.n	8008f76 <xQueueReceive+0x1da>
 800904e:	f04f 5280 	mov.w	r2, #268435456	; 0x10000000
 8009052:	4b03      	ldr	r3, [pc, #12]	; (8009060 <xQueueReceive+0x2c4>)
 8009054:	601a      	str	r2, [r3, #0]
 8009056:	f3bf 8f4f 	dsb	sy
 800905a:	f3bf 8f6f 	isb	sy
 800905e:	e78a      	b.n	8008f76 <xQueueReceive+0x1da>
 8009060:	e000ed04 	.word	0xe000ed04

08009064 <xQueueSemaphoreTake>:
 8009064:	e92d 43f0 	stmdb	sp!, {r4, r5, r6, r7, r8, r9, lr}
 8009068:	b085      	sub	sp, #20
 800906a:	9101      	str	r1, [sp, #4]
 800906c:	b150      	cbz	r0, 8009084 <xQueueSemaphoreTake+0x20>
 800906e:	6c05      	ldr	r5, [r0, #64]	; 0x40
 8009070:	b18d      	cbz	r5, 8009096 <xQueueSemaphoreTake+0x32>
 8009072:	f04f 0350 	mov.w	r3, #80	; 0x50
 8009076:	f383 8811 	msr	BASEPRI, r3
 800907a:	f3bf 8f6f 	isb	sy
 800907e:	f3bf 8f4f 	dsb	sy
 8009082:	e7fe      	b.n	8009082 <xQueueSemaphoreTake+0x1e>
 8009084:	f04f 0350 	mov.w	r3, #80	; 0x50
 8009088:	f383 8811 	msr	BASEPRI, r3
 800908c:	f3bf 8f6f 	isb	sy
 8009090:	f3bf 8f4f 	dsb	sy
 8009094:	e7fe      	b.n	8009094 <xQueueSemaphoreTake+0x30>
 8009096:	4604      	mov	r4, r0
 8009098:	f000 ff96 	bl	8009fc8 <xTaskGetSchedulerState>
 800909c:	b950      	cbnz	r0, 80090b4 <xQueueSemaphoreTake+0x50>
 800909e:	9d01      	ldr	r5, [sp, #4]
 80090a0:	b145      	cbz	r5, 80090b4 <xQueueSemaphoreTake+0x50>
 80090a2:	f04f 0350 	mov.w	r3, #80	; 0x50
 80090a6:	f383 8811 	msr	BASEPRI, r3
 80090aa:	f3bf 8f6f 	isb	sy
 80090ae:	f3bf 8f4f 	dsb	sy
 80090b2:	e7fe      	b.n	80090b2 <xQueueSemaphoreTake+0x4e>
 80090b4:	f001 f90e 	bl	800a2d4 <vPortEnterCritical>
 80090b8:	6ba3      	ldr	r3, [r4, #56]	; 0x38
 80090ba:	462e      	mov	r6, r5
 80090bc:	2700      	movs	r7, #0
 80090be:	f8df 82b4 	ldr.w	r8, [pc, #692]	; 8009374 <xQueueSemaphoreTake+0x310>
 80090c2:	2b00      	cmp	r3, #0
 80090c4:	f040 80b3 	bne.w	800922e <xQueueSemaphoreTake+0x1ca>
 80090c8:	9b01      	ldr	r3, [sp, #4]
 80090ca:	2b00      	cmp	r3, #0
 80090cc:	f000 8129 	beq.w	8009322 <xQueueSemaphoreTake+0x2be>
 80090d0:	b916      	cbnz	r6, 80090d8 <xQueueSemaphoreTake+0x74>
 80090d2:	a802      	add	r0, sp, #8
 80090d4:	f000 ff20 	bl	8009f18 <vTaskInternalSetTimeOutState>
 80090d8:	f001 f91e 	bl	800a318 <vPortExitCritical>
 80090dc:	f000 fcd8 	bl	8009a90 <vTaskSuspendAll>
 80090e0:	f001 f8f8 	bl	800a2d4 <vPortEnterCritical>
 80090e4:	f894 3044 	ldrb.w	r3, [r4, #68]	; 0x44
 80090e8:	2bff      	cmp	r3, #255	; 0xff
 80090ea:	bf08      	it	eq
 80090ec:	f884 7044 	strbeq.w	r7, [r4, #68]	; 0x44
 80090f0:	f894 3045 	ldrb.w	r3, [r4, #69]	; 0x45
 80090f4:	2bff      	cmp	r3, #255	; 0xff
 80090f6:	bf08      	it	eq
 80090f8:	f884 7045 	strbeq.w	r7, [r4, #69]	; 0x45
 80090fc:	f001 f90c 	bl	800a318 <vPortExitCritical>
 8009100:	a901      	add	r1, sp, #4
 8009102:	a802      	add	r0, sp, #8
 8009104:	f000 ff14 	bl	8009f30 <xTaskCheckForTimeOut>
 8009108:	2800      	cmp	r0, #0
 800910a:	d144      	bne.n	8009196 <xQueueSemaphoreTake+0x132>
 800910c:	f001 f8e2 	bl	800a2d4 <vPortEnterCritical>
 8009110:	6ba3      	ldr	r3, [r4, #56]	; 0x38
 8009112:	2b00      	cmp	r3, #0
 8009114:	f000 809d 	beq.w	8009252 <xQueueSemaphoreTake+0x1ee>
 8009118:	f001 f8fe 	bl	800a318 <vPortExitCritical>
 800911c:	f001 f8da 	bl	800a2d4 <vPortEnterCritical>
 8009120:	f894 6045 	ldrb.w	r6, [r4, #69]	; 0x45
 8009124:	b276      	sxtb	r6, r6
 8009126:	2e00      	cmp	r6, #0
 8009128:	dd10      	ble.n	800914c <xQueueSemaphoreTake+0xe8>
 800912a:	6a63      	ldr	r3, [r4, #36]	; 0x24
 800912c:	b173      	cbz	r3, 800914c <xQueueSemaphoreTake+0xe8>
 800912e:	f104 0924 	add.w	r9, r4, #36	; 0x24
 8009132:	4648      	mov	r0, r9
 8009134:	f000 feaa 	bl	8009e8c <xTaskRemoveFromEventList>
 8009138:	2800      	cmp	r0, #0
 800913a:	f040 8087 	bne.w	800924c <xQueueSemaphoreTake+0x1e8>
 800913e:	3e01      	subs	r6, #1
 8009140:	b2f3      	uxtb	r3, r6
 8009142:	b25e      	sxtb	r6, r3
 8009144:	b113      	cbz	r3, 800914c <xQueueSemaphoreTake+0xe8>
 8009146:	6a63      	ldr	r3, [r4, #36]	; 0x24
 8009148:	2b00      	cmp	r3, #0
 800914a:	d1f2      	bne.n	8009132 <xQueueSemaphoreTake+0xce>
 800914c:	23ff      	movs	r3, #255	; 0xff
 800914e:	f884 3045 	strb.w	r3, [r4, #69]	; 0x45
 8009152:	f001 f8e1 	bl	800a318 <vPortExitCritical>
 8009156:	f001 f8bd 	bl	800a2d4 <vPortEnterCritical>
 800915a:	f894 6044 	ldrb.w	r6, [r4, #68]	; 0x44
 800915e:	b276      	sxtb	r6, r6
 8009160:	2e00      	cmp	r6, #0
 8009162:	dd10      	ble.n	8009186 <xQueueSemaphoreTake+0x122>
 8009164:	6923      	ldr	r3, [r4, #16]
 8009166:	b173      	cbz	r3, 8009186 <xQueueSemaphoreTake+0x122>
 8009168:	f104 0910 	add.w	r9, r4, #16
 800916c:	4648      	mov	r0, r9
 800916e:	f000 fe8d 	bl	8009e8c <xTaskRemoveFromEventList>
 8009172:	2800      	cmp	r0, #0
 8009174:	f040 80bf 	bne.w	80092f6 <xQueueSemaphoreTake+0x292>
 8009178:	3e01      	subs	r6, #1
 800917a:	b2f3      	uxtb	r3, r6
 800917c:	b25e      	sxtb	r6, r3
 800917e:	b113      	cbz	r3, 8009186 <xQueueSemaphoreTake+0x122>
 8009180:	6923      	ldr	r3, [r4, #16]
 8009182:	2b00      	cmp	r3, #0
 8009184:	d1f2      	bne.n	800916c <xQueueSemaphoreTake+0x108>
 8009186:	23ff      	movs	r3, #255	; 0xff
 8009188:	f884 3044 	strb.w	r3, [r4, #68]	; 0x44
 800918c:	f001 f8c4 	bl	800a318 <vPortExitCritical>
 8009190:	f000 fd40 	bl	8009c14 <xTaskResumeAll>
 8009194:	e044      	b.n	8009220 <xQueueSemaphoreTake+0x1bc>
 8009196:	f001 f89d 	bl	800a2d4 <vPortEnterCritical>
 800919a:	f894 6045 	ldrb.w	r6, [r4, #69]	; 0x45
 800919e:	b276      	sxtb	r6, r6
 80091a0:	2e00      	cmp	r6, #0
 80091a2:	dd11      	ble.n	80091c8 <xQueueSemaphoreTake+0x164>
 80091a4:	6a63      	ldr	r3, [r4, #36]	; 0x24
 80091a6:	b17b      	cbz	r3, 80091c8 <xQueueSemaphoreTake+0x164>
 80091a8:	f104 0924 	add.w	r9, r4, #36	; 0x24
 80091ac:	e001      	b.n	80091b2 <xQueueSemaphoreTake+0x14e>
 80091ae:	6a63      	ldr	r3, [r4, #36]	; 0x24
 80091b0:	b153      	cbz	r3, 80091c8 <xQueueSemaphoreTake+0x164>
 80091b2:	4648      	mov	r0, r9
 80091b4:	f000 fe6a 	bl	8009e8c <xTaskRemoveFromEventList>
 80091b8:	b108      	cbz	r0, 80091be <xQueueSemaphoreTake+0x15a>
 80091ba:	f000 feff 	bl	8009fbc <vTaskMissedYield>
 80091be:	3e01      	subs	r6, #1
 80091c0:	b2f3      	uxtb	r3, r6
 80091c2:	b25e      	sxtb	r6, r3
 80091c4:	2b00      	cmp	r3, #0
 80091c6:	d1f2      	bne.n	80091ae <xQueueSemaphoreTake+0x14a>
 80091c8:	23ff      	movs	r3, #255	; 0xff
 80091ca:	f884 3045 	strb.w	r3, [r4, #69]	; 0x45
 80091ce:	f001 f8a3 	bl	800a318 <vPortExitCritical>
 80091d2:	f001 f87f 	bl	800a2d4 <vPortEnterCritical>
 80091d6:	f894 6044 	ldrb.w	r6, [r4, #68]	; 0x44
 80091da:	b276      	sxtb	r6, r6
 80091dc:	2e00      	cmp	r6, #0
 80091de:	dd11      	ble.n	8009204 <xQueueSemaphoreTake+0x1a0>
 80091e0:	6923      	ldr	r3, [r4, #16]
 80091e2:	b17b      	cbz	r3, 8009204 <xQueueSemaphoreTake+0x1a0>
 80091e4:	f104 0910 	add.w	r9, r4, #16
 80091e8:	e001      	b.n	80091ee <xQueueSemaphoreTake+0x18a>
 80091ea:	6923      	ldr	r3, [r4, #16]
 80091ec:	b153      	cbz	r3, 8009204 <xQueueSemaphoreTake+0x1a0>
 80091ee:	4648      	mov	r0, r9
 80091f0:	f000 fe4c 	bl	8009e8c <xTaskRemoveFromEventList>
 80091f4:	b108      	cbz	r0, 80091fa <xQueueSemaphoreTake+0x196>
 80091f6:	f000 fee1 	bl	8009fbc <vTaskMissedYield>
 80091fa:	3e01      	subs	r6, #1
 80091fc:	b2f3      	uxtb	r3, r6
 80091fe:	b25e      	sxtb	r6, r3
 8009200:	2b00      	cmp	r3, #0
 8009202:	d1f2      	bne.n	80091ea <xQueueSemaphoreTake+0x186>
 8009204:	23ff      	movs	r3, #255	; 0xff
 8009206:	f884 3044 	strb.w	r3, [r4, #68]	; 0x44
 800920a:	f001 f885 	bl	800a318 <vPortExitCritical>
 800920e:	f000 fd01 	bl	8009c14 <xTaskResumeAll>
 8009212:	f001 f85f 	bl	800a2d4 <vPortEnterCritical>
 8009216:	6ba3      	ldr	r3, [r4, #56]	; 0x38
 8009218:	2b00      	cmp	r3, #0
 800921a:	d07b      	beq.n	8009314 <xQueueSemaphoreTake+0x2b0>
 800921c:	f001 f87c 	bl	800a318 <vPortExitCritical>
 8009220:	f001 f858 	bl	800a2d4 <vPortEnterCritical>
 8009224:	6ba3      	ldr	r3, [r4, #56]	; 0x38
 8009226:	2601      	movs	r6, #1
 8009228:	2b00      	cmp	r3, #0
 800922a:	f43f af4d 	beq.w	80090c8 <xQueueSemaphoreTake+0x64>
 800922e:	6822      	ldr	r2, [r4, #0]
 8009230:	3b01      	subs	r3, #1
 8009232:	63a3      	str	r3, [r4, #56]	; 0x38
 8009234:	b912      	cbnz	r2, 800923c <xQueueSemaphoreTake+0x1d8>
 8009236:	f000 ffe7 	bl	800a208 <pvTaskIncrementMutexHeldCount>
 800923a:	6060      	str	r0, [r4, #4]
 800923c:	6923      	ldr	r3, [r4, #16]
 800923e:	2b00      	cmp	r3, #0
 8009240:	f040 8088 	bne.w	8009354 <xQueueSemaphoreTake+0x2f0>
 8009244:	f001 f868 	bl	800a318 <vPortExitCritical>
 8009248:	2501      	movs	r5, #1
 800924a:	e066      	b.n	800931a <xQueueSemaphoreTake+0x2b6>
 800924c:	f000 feb6 	bl	8009fbc <vTaskMissedYield>
 8009250:	e775      	b.n	800913e <xQueueSemaphoreTake+0xda>
 8009252:	f001 f861 	bl	800a318 <vPortExitCritical>
 8009256:	6823      	ldr	r3, [r4, #0]
 8009258:	2b00      	cmp	r3, #0
 800925a:	d052      	beq.n	8009302 <xQueueSemaphoreTake+0x29e>
 800925c:	f104 0924 	add.w	r9, r4, #36	; 0x24
 8009260:	4648      	mov	r0, r9
 8009262:	9901      	ldr	r1, [sp, #4]
 8009264:	f000 fdc2 	bl	8009dec <vTaskPlaceOnEventList>
 8009268:	f001 f834 	bl	800a2d4 <vPortEnterCritical>
 800926c:	f894 6045 	ldrb.w	r6, [r4, #69]	; 0x45
 8009270:	b276      	sxtb	r6, r6
 8009272:	2e00      	cmp	r6, #0
 8009274:	dc04      	bgt.n	8009280 <xQueueSemaphoreTake+0x21c>
 8009276:	e011      	b.n	800929c <xQueueSemaphoreTake+0x238>
 8009278:	3e01      	subs	r6, #1
 800927a:	b2f3      	uxtb	r3, r6
 800927c:	b25e      	sxtb	r6, r3
 800927e:	b16b      	cbz	r3, 800929c <xQueueSemaphoreTake+0x238>
 8009280:	6a63      	ldr	r3, [r4, #36]	; 0x24
 8009282:	b15b      	cbz	r3, 800929c <xQueueSemaphoreTake+0x238>
 8009284:	4648      	mov	r0, r9
 8009286:	f000 fe01 	bl	8009e8c <xTaskRemoveFromEventList>
 800928a:	2800      	cmp	r0, #0
 800928c:	d0f4      	beq.n	8009278 <xQueueSemaphoreTake+0x214>
 800928e:	3e01      	subs	r6, #1
 8009290:	f000 fe94 	bl	8009fbc <vTaskMissedYield>
 8009294:	b2f3      	uxtb	r3, r6
 8009296:	b25e      	sxtb	r6, r3
 8009298:	2b00      	cmp	r3, #0
 800929a:	d1f1      	bne.n	8009280 <xQueueSemaphoreTake+0x21c>
 800929c:	23ff      	movs	r3, #255	; 0xff
 800929e:	f884 3045 	strb.w	r3, [r4, #69]	; 0x45
 80092a2:	f001 f839 	bl	800a318 <vPortExitCritical>
 80092a6:	f001 f815 	bl	800a2d4 <vPortEnterCritical>
 80092aa:	f894 6044 	ldrb.w	r6, [r4, #68]	; 0x44
 80092ae:	b276      	sxtb	r6, r6
 80092b0:	2e00      	cmp	r6, #0
 80092b2:	dd0e      	ble.n	80092d2 <xQueueSemaphoreTake+0x26e>
 80092b4:	6923      	ldr	r3, [r4, #16]
 80092b6:	b163      	cbz	r3, 80092d2 <xQueueSemaphoreTake+0x26e>
 80092b8:	f104 0910 	add.w	r9, r4, #16
 80092bc:	4648      	mov	r0, r9
 80092be:	f000 fde5 	bl	8009e8c <xTaskRemoveFromEventList>
 80092c2:	b9d8      	cbnz	r0, 80092fc <xQueueSemaphoreTake+0x298>
 80092c4:	3e01      	subs	r6, #1
 80092c6:	b2f3      	uxtb	r3, r6
 80092c8:	b25e      	sxtb	r6, r3
 80092ca:	b113      	cbz	r3, 80092d2 <xQueueSemaphoreTake+0x26e>
 80092cc:	6923      	ldr	r3, [r4, #16]
 80092ce:	2b00      	cmp	r3, #0
 80092d0:	d1f4      	bne.n	80092bc <xQueueSemaphoreTake+0x258>
 80092d2:	23ff      	movs	r3, #255	; 0xff
 80092d4:	f884 3044 	strb.w	r3, [r4, #68]	; 0x44
 80092d8:	f001 f81e 	bl	800a318 <vPortExitCritical>
 80092dc:	f000 fc9a 	bl	8009c14 <xTaskResumeAll>
 80092e0:	2800      	cmp	r0, #0
 80092e2:	d19d      	bne.n	8009220 <xQueueSemaphoreTake+0x1bc>
 80092e4:	f04f 5380 	mov.w	r3, #268435456	; 0x10000000
 80092e8:	f8c8 3000 	str.w	r3, [r8]
 80092ec:	f3bf 8f4f 	dsb	sy
 80092f0:	f3bf 8f6f 	isb	sy
 80092f4:	e794      	b.n	8009220 <xQueueSemaphoreTake+0x1bc>
 80092f6:	f000 fe61 	bl	8009fbc <vTaskMissedYield>
 80092fa:	e73d      	b.n	8009178 <xQueueSemaphoreTake+0x114>
 80092fc:	f000 fe5e 	bl	8009fbc <vTaskMissedYield>
 8009300:	e7e0      	b.n	80092c4 <xQueueSemaphoreTake+0x260>
 8009302:	f000 ffe7 	bl	800a2d4 <vPortEnterCritical>
 8009306:	6860      	ldr	r0, [r4, #4]
 8009308:	f000 fe6e 	bl	8009fe8 <xTaskPriorityInherit>
 800930c:	4605      	mov	r5, r0
 800930e:	f001 f803 	bl	800a318 <vPortExitCritical>
 8009312:	e7a3      	b.n	800925c <xQueueSemaphoreTake+0x1f8>
 8009314:	f001 f800 	bl	800a318 <vPortExitCritical>
 8009318:	b96d      	cbnz	r5, 8009336 <xQueueSemaphoreTake+0x2d2>
 800931a:	4628      	mov	r0, r5
 800931c:	b005      	add	sp, #20
 800931e:	e8bd 83f0 	ldmia.w	sp!, {r4, r5, r6, r7, r8, r9, pc}
 8009322:	b1a5      	cbz	r5, 800934e <xQueueSemaphoreTake+0x2ea>
 8009324:	f04f 0350 	mov.w	r3, #80	; 0x50
 8009328:	f383 8811 	msr	BASEPRI, r3
 800932c:	f3bf 8f6f 	isb	sy
 8009330:	f3bf 8f4f 	dsb	sy
 8009334:	e7fe      	b.n	8009334 <xQueueSemaphoreTake+0x2d0>
 8009336:	f000 ffcd 	bl	800a2d4 <vPortEnterCritical>
 800933a:	6a61      	ldr	r1, [r4, #36]	; 0x24
 800933c:	b119      	cbz	r1, 8009346 <xQueueSemaphoreTake+0x2e2>
 800933e:	6b23      	ldr	r3, [r4, #48]	; 0x30
 8009340:	6819      	ldr	r1, [r3, #0]
 8009342:	f1c1 0107 	rsb	r1, r1, #7
 8009346:	6860      	ldr	r0, [r4, #4]
 8009348:	f000 ff00 	bl	800a14c <vTaskPriorityDisinheritAfterTimeout>
 800934c:	2500      	movs	r5, #0
 800934e:	f000 ffe3 	bl	800a318 <vPortExitCritical>
 8009352:	e7e2      	b.n	800931a <xQueueSemaphoreTake+0x2b6>
 8009354:	f104 0010 	add.w	r0, r4, #16
 8009358:	f000 fd98 	bl	8009e8c <xTaskRemoveFromEventList>
 800935c:	2800      	cmp	r0, #0
 800935e:	f43f af71 	beq.w	8009244 <xQueueSemaphoreTake+0x1e0>
 8009362:	f04f 5280 	mov.w	r2, #268435456	; 0x10000000
 8009366:	4b03      	ldr	r3, [pc, #12]	; (8009374 <xQueueSemaphoreTake+0x310>)
 8009368:	601a      	str	r2, [r3, #0]
 800936a:	f3bf 8f4f 	dsb	sy
 800936e:	f3bf 8f6f 	isb	sy
 8009372:	e767      	b.n	8009244 <xQueueSemaphoreTake+0x1e0>
 8009374:	e000ed04 	.word	0xe000ed04

08009378 <xQueueReceiveFromISR>:
 8009378:	e92d 43f8 	stmdb	sp!, {r3, r4, r5, r6, r7, r8, r9, lr}
 800937c:	b1b8      	cbz	r0, 80093ae <xQueueReceiveFromISR+0x36>
 800937e:	2900      	cmp	r1, #0
 8009380:	d038      	beq.n	80093f4 <xQueueReceiveFromISR+0x7c>
 8009382:	4604      	mov	r4, r0
 8009384:	4690      	mov	r8, r2
 8009386:	4689      	mov	r9, r1
 8009388:	f001 f88c 	bl	800a4a4 <vPortValidateInterruptPriority>
 800938c:	f3ef 8711 	mrs	r7, BASEPRI
 8009390:	f04f 0350 	mov.w	r3, #80	; 0x50
 8009394:	f383 8811 	msr	BASEPRI, r3
 8009398:	f3bf 8f6f 	isb	sy
 800939c:	f3bf 8f4f 	dsb	sy
 80093a0:	6ba5      	ldr	r5, [r4, #56]	; 0x38
 80093a2:	b96d      	cbnz	r5, 80093c0 <xQueueReceiveFromISR+0x48>
 80093a4:	4628      	mov	r0, r5
 80093a6:	f387 8811 	msr	BASEPRI, r7
 80093aa:	e8bd 83f8 	ldmia.w	sp!, {r3, r4, r5, r6, r7, r8, r9, pc}
 80093ae:	f04f 0350 	mov.w	r3, #80	; 0x50
 80093b2:	f383 8811 	msr	BASEPRI, r3
 80093b6:	f3bf 8f6f 	isb	sy
 80093ba:	f3bf 8f4f 	dsb	sy
 80093be:	e7fe      	b.n	80093be <xQueueReceiveFromISR+0x46>
 80093c0:	f894 6044 	ldrb.w	r6, [r4, #68]	; 0x44
 80093c4:	6c22      	ldr	r2, [r4, #64]	; 0x40
 80093c6:	b276      	sxtb	r6, r6
 80093c8:	b15a      	cbz	r2, 80093e2 <xQueueReceiveFromISR+0x6a>
 80093ca:	68e1      	ldr	r1, [r4, #12]
 80093cc:	6863      	ldr	r3, [r4, #4]
 80093ce:	4411      	add	r1, r2
 80093d0:	4299      	cmp	r1, r3
 80093d2:	60e1      	str	r1, [r4, #12]
 80093d4:	d302      	bcc.n	80093dc <xQueueReceiveFromISR+0x64>
 80093d6:	6823      	ldr	r3, [r4, #0]
 80093d8:	4619      	mov	r1, r3
 80093da:	60e3      	str	r3, [r4, #12]
 80093dc:	4648      	mov	r0, r9
 80093de:	f001 f9a7 	bl	800a730 <memcpy>
 80093e2:	3d01      	subs	r5, #1
 80093e4:	1c73      	adds	r3, r6, #1
 80093e6:	63a5      	str	r5, [r4, #56]	; 0x38
 80093e8:	d010      	beq.n	800940c <xQueueReceiveFromISR+0x94>
 80093ea:	1c73      	adds	r3, r6, #1
 80093ec:	b25b      	sxtb	r3, r3
 80093ee:	f884 3044 	strb.w	r3, [r4, #68]	; 0x44
 80093f2:	e00d      	b.n	8009410 <xQueueReceiveFromISR+0x98>
 80093f4:	6c03      	ldr	r3, [r0, #64]	; 0x40
 80093f6:	2b00      	cmp	r3, #0
 80093f8:	d0c3      	beq.n	8009382 <xQueueReceiveFromISR+0xa>
 80093fa:	f04f 0350 	mov.w	r3, #80	; 0x50
 80093fe:	f383 8811 	msr	BASEPRI, r3
 8009402:	f3bf 8f6f 	isb	sy
 8009406:	f3bf 8f4f 	dsb	sy
 800940a:	e7fe      	b.n	800940a <xQueueReceiveFromISR+0x92>
 800940c:	6923      	ldr	r3, [r4, #16]
 800940e:	b90b      	cbnz	r3, 8009414 <xQueueReceiveFromISR+0x9c>
 8009410:	2001      	movs	r0, #1
 8009412:	e7c8      	b.n	80093a6 <xQueueReceiveFromISR+0x2e>
 8009414:	f104 0010 	add.w	r0, r4, #16
 8009418:	f000 fd38 	bl	8009e8c <xTaskRemoveFromEventList>
 800941c:	2800      	cmp	r0, #0
 800941e:	d0f7      	beq.n	8009410 <xQueueReceiveFromISR+0x98>
 8009420:	f1b8 0f00 	cmp.w	r8, #0
 8009424:	d0f4      	beq.n	8009410 <xQueueReceiveFromISR+0x98>
 8009426:	2001      	movs	r0, #1
 8009428:	f8c8 0000 	str.w	r0, [r8]
 800942c:	e7bb      	b.n	80093a6 <xQueueReceiveFromISR+0x2e>
 800942e:	bf00      	nop

08009430 <vQueueDelete>:
 8009430:	b1f0      	cbz	r0, 8009470 <vQueueDelete+0x40>
 8009432:	4b23      	ldr	r3, [pc, #140]	; (80094c0 <vQueueDelete+0x90>)
 8009434:	685a      	ldr	r2, [r3, #4]
 8009436:	4290      	cmp	r0, r2
 8009438:	d032      	beq.n	80094a0 <vQueueDelete+0x70>
 800943a:	68da      	ldr	r2, [r3, #12]
 800943c:	4290      	cmp	r0, r2
 800943e:	d03c      	beq.n	80094ba <vQueueDelete+0x8a>
 8009440:	695a      	ldr	r2, [r3, #20]
 8009442:	4290      	cmp	r0, r2
 8009444:	d037      	beq.n	80094b6 <vQueueDelete+0x86>
 8009446:	69da      	ldr	r2, [r3, #28]
 8009448:	4290      	cmp	r0, r2
 800944a:	d032      	beq.n	80094b2 <vQueueDelete+0x82>
 800944c:	6a5a      	ldr	r2, [r3, #36]	; 0x24
 800944e:	4290      	cmp	r0, r2
 8009450:	d02d      	beq.n	80094ae <vQueueDelete+0x7e>
 8009452:	6ada      	ldr	r2, [r3, #44]	; 0x2c
 8009454:	4290      	cmp	r0, r2
 8009456:	d028      	beq.n	80094aa <vQueueDelete+0x7a>
 8009458:	6b5a      	ldr	r2, [r3, #52]	; 0x34
 800945a:	4290      	cmp	r0, r2
 800945c:	d013      	beq.n	8009486 <vQueueDelete+0x56>
 800945e:	6bda      	ldr	r2, [r3, #60]	; 0x3c
 8009460:	4290      	cmp	r0, r2
 8009462:	bf08      	it	eq
 8009464:	2207      	moveq	r2, #7
 8009466:	d00f      	beq.n	8009488 <vQueueDelete+0x58>
 8009468:	f890 3046 	ldrb.w	r3, [r0, #70]	; 0x46
 800946c:	b14b      	cbz	r3, 8009482 <vQueueDelete+0x52>
 800946e:	4770      	bx	lr
 8009470:	f04f 0350 	mov.w	r3, #80	; 0x50
 8009474:	f383 8811 	msr	BASEPRI, r3
 8009478:	f3bf 8f6f 	isb	sy
 800947c:	f3bf 8f4f 	dsb	sy
 8009480:	e7fe      	b.n	8009480 <vQueueDelete+0x50>
 8009482:	f001 b8f9 	b.w	800a678 <vPortFree>
 8009486:	2206      	movs	r2, #6
 8009488:	2100      	movs	r1, #0
 800948a:	b410      	push	{r4}
 800948c:	eb03 04c2 	add.w	r4, r3, r2, lsl #3
 8009490:	f843 1032 	str.w	r1, [r3, r2, lsl #3]
 8009494:	f890 3046 	ldrb.w	r3, [r0, #70]	; 0x46
 8009498:	6061      	str	r1, [r4, #4]
 800949a:	b11b      	cbz	r3, 80094a4 <vQueueDelete+0x74>
 800949c:	bc10      	pop	{r4}
 800949e:	4770      	bx	lr
 80094a0:	2200      	movs	r2, #0
 80094a2:	e7f1      	b.n	8009488 <vQueueDelete+0x58>
 80094a4:	bc10      	pop	{r4}
 80094a6:	f001 b8e7 	b.w	800a678 <vPortFree>
 80094aa:	2205      	movs	r2, #5
 80094ac:	e7ec      	b.n	8009488 <vQueueDelete+0x58>
 80094ae:	2204      	movs	r2, #4
 80094b0:	e7ea      	b.n	8009488 <vQueueDelete+0x58>
 80094b2:	2203      	movs	r2, #3
 80094b4:	e7e8      	b.n	8009488 <vQueueDelete+0x58>
 80094b6:	2202      	movs	r2, #2
 80094b8:	e7e6      	b.n	8009488 <vQueueDelete+0x58>
 80094ba:	2201      	movs	r2, #1
 80094bc:	e7e4      	b.n	8009488 <vQueueDelete+0x58>
 80094be:	bf00      	nop
 80094c0:	2000a2c0 	.word	0x2000a2c0

080094c4 <prvAddNewTaskToReadyList>:
 80094c4:	e92d 41f0 	stmdb	sp!, {r4, r5, r6, r7, r8, lr}
 80094c8:	4604      	mov	r4, r0
 80094ca:	f000 ff03 	bl	800a2d4 <vPortEnterCritical>
 80094ce:	4a33      	ldr	r2, [pc, #204]	; (800959c <prvAddNewTaskToReadyList+0xd8>)
 80094d0:	4d33      	ldr	r5, [pc, #204]	; (80095a0 <prvAddNewTaskToReadyList+0xdc>)
 80094d2:	6813      	ldr	r3, [r2, #0]
 80094d4:	3301      	adds	r3, #1
 80094d6:	6013      	str	r3, [r2, #0]
 80094d8:	682b      	ldr	r3, [r5, #0]
 80094da:	2b00      	cmp	r3, #0
 80094dc:	d031      	beq.n	8009542 <prvAddNewTaskToReadyList+0x7e>
 80094de:	4e31      	ldr	r6, [pc, #196]	; (80095a4 <prvAddNewTaskToReadyList+0xe0>)
 80094e0:	6ae0      	ldr	r0, [r4, #44]	; 0x2c
 80094e2:	6833      	ldr	r3, [r6, #0]
 80094e4:	b32b      	cbz	r3, 8009532 <prvAddNewTaskToReadyList+0x6e>
 80094e6:	f8df 80e8 	ldr.w	r8, [pc, #232]	; 80095d0 <prvAddNewTaskToReadyList+0x10c>
 80094ea:	2301      	movs	r3, #1
 80094ec:	492e      	ldr	r1, [pc, #184]	; (80095a8 <prvAddNewTaskToReadyList+0xe4>)
 80094ee:	4f2f      	ldr	r7, [pc, #188]	; (80095ac <prvAddNewTaskToReadyList+0xe8>)
 80094f0:	680a      	ldr	r2, [r1, #0]
 80094f2:	4083      	lsls	r3, r0
 80094f4:	4313      	orrs	r3, r2
 80094f6:	683a      	ldr	r2, [r7, #0]
 80094f8:	eb00 0080 	add.w	r0, r0, r0, lsl #2
 80094fc:	600b      	str	r3, [r1, #0]
 80094fe:	3201      	adds	r2, #1
 8009500:	eb08 0080 	add.w	r0, r8, r0, lsl #2
 8009504:	1d21      	adds	r1, r4, #4
 8009506:	603a      	str	r2, [r7, #0]
 8009508:	f7ff f864 	bl	80085d4 <vListInsertEnd>
 800950c:	f000 ff04 	bl	800a318 <vPortExitCritical>
 8009510:	6833      	ldr	r3, [r6, #0]
 8009512:	b163      	cbz	r3, 800952e <prvAddNewTaskToReadyList+0x6a>
 8009514:	682a      	ldr	r2, [r5, #0]
 8009516:	6ae3      	ldr	r3, [r4, #44]	; 0x2c
 8009518:	6ad2      	ldr	r2, [r2, #44]	; 0x2c
 800951a:	429a      	cmp	r2, r3
 800951c:	d207      	bcs.n	800952e <prvAddNewTaskToReadyList+0x6a>
 800951e:	f04f 5280 	mov.w	r2, #268435456	; 0x10000000
 8009522:	4b23      	ldr	r3, [pc, #140]	; (80095b0 <prvAddNewTaskToReadyList+0xec>)
 8009524:	601a      	str	r2, [r3, #0]
 8009526:	f3bf 8f4f 	dsb	sy
 800952a:	f3bf 8f6f 	isb	sy
 800952e:	e8bd 81f0 	ldmia.w	sp!, {r4, r5, r6, r7, r8, pc}
 8009532:	682b      	ldr	r3, [r5, #0]
 8009534:	f8df 8098 	ldr.w	r8, [pc, #152]	; 80095d0 <prvAddNewTaskToReadyList+0x10c>
 8009538:	6adb      	ldr	r3, [r3, #44]	; 0x2c
 800953a:	4283      	cmp	r3, r0
 800953c:	bf98      	it	ls
 800953e:	602c      	strls	r4, [r5, #0]
 8009540:	e7d3      	b.n	80094ea <prvAddNewTaskToReadyList+0x26>
 8009542:	602c      	str	r4, [r5, #0]
 8009544:	6813      	ldr	r3, [r2, #0]
 8009546:	2b01      	cmp	r3, #1
 8009548:	d004      	beq.n	8009554 <prvAddNewTaskToReadyList+0x90>
 800954a:	6ae0      	ldr	r0, [r4, #44]	; 0x2c
 800954c:	f8df 8080 	ldr.w	r8, [pc, #128]	; 80095d0 <prvAddNewTaskToReadyList+0x10c>
 8009550:	4e14      	ldr	r6, [pc, #80]	; (80095a4 <prvAddNewTaskToReadyList+0xe0>)
 8009552:	e7ca      	b.n	80094ea <prvAddNewTaskToReadyList+0x26>
 8009554:	f8df 8078 	ldr.w	r8, [pc, #120]	; 80095d0 <prvAddNewTaskToReadyList+0x10c>
 8009558:	4646      	mov	r6, r8
 800955a:	f108 078c 	add.w	r7, r8, #140	; 0x8c
 800955e:	4630      	mov	r0, r6
 8009560:	3614      	adds	r6, #20
 8009562:	f7ff f827 	bl	80085b4 <vListInitialise>
 8009566:	42b7      	cmp	r7, r6
 8009568:	d1f9      	bne.n	800955e <prvAddNewTaskToReadyList+0x9a>
 800956a:	4f12      	ldr	r7, [pc, #72]	; (80095b4 <prvAddNewTaskToReadyList+0xf0>)
 800956c:	4e12      	ldr	r6, [pc, #72]	; (80095b8 <prvAddNewTaskToReadyList+0xf4>)
 800956e:	4638      	mov	r0, r7
 8009570:	f7ff f820 	bl	80085b4 <vListInitialise>
 8009574:	4630      	mov	r0, r6
 8009576:	f7ff f81d 	bl	80085b4 <vListInitialise>
 800957a:	4810      	ldr	r0, [pc, #64]	; (80095bc <prvAddNewTaskToReadyList+0xf8>)
 800957c:	f7ff f81a 	bl	80085b4 <vListInitialise>
 8009580:	480f      	ldr	r0, [pc, #60]	; (80095c0 <prvAddNewTaskToReadyList+0xfc>)
 8009582:	f7ff f817 	bl	80085b4 <vListInitialise>
 8009586:	480f      	ldr	r0, [pc, #60]	; (80095c4 <prvAddNewTaskToReadyList+0x100>)
 8009588:	f7ff f814 	bl	80085b4 <vListInitialise>
 800958c:	4a0e      	ldr	r2, [pc, #56]	; (80095c8 <prvAddNewTaskToReadyList+0x104>)
 800958e:	4b0f      	ldr	r3, [pc, #60]	; (80095cc <prvAddNewTaskToReadyList+0x108>)
 8009590:	6017      	str	r7, [r2, #0]
 8009592:	6ae0      	ldr	r0, [r4, #44]	; 0x2c
 8009594:	601e      	str	r6, [r3, #0]
 8009596:	4e03      	ldr	r6, [pc, #12]	; (80095a4 <prvAddNewTaskToReadyList+0xe0>)
 8009598:	e7a7      	b.n	80094ea <prvAddNewTaskToReadyList+0x26>
 800959a:	bf00      	nop
 800959c:	20000358 	.word	0x20000358
 80095a0:	200002c0 	.word	0x200002c0
 80095a4:	200003b4 	.word	0x200003b4
 80095a8:	2000036c 	.word	0x2000036c
 80095ac:	20000368 	.word	0x20000368
 80095b0:	e000ed04 	.word	0xe000ed04
 80095b4:	20000370 	.word	0x20000370
 80095b8:	20000384 	.word	0x20000384
 80095bc:	200003a0 	.word	0x200003a0
 80095c0:	200003cc 	.word	0x200003cc
 80095c4:	200003b8 	.word	0x200003b8
 80095c8:	200002c4 	.word	0x200002c4
 80095cc:	200002c8 	.word	0x200002c8
 80095d0:	200002cc 	.word	0x200002cc

080095d4 <prvInitialiseNewTask.isra.2>:
 80095d4:	e92d 47f0 	stmdb	sp!, {r4, r5, r6, r7, r8, r9, sl, lr}
 80095d8:	9c0a      	ldr	r4, [sp, #40]	; 0x28
 80095da:	780e      	ldrb	r6, [r1, #0]
 80095dc:	f102 4280 	add.w	r2, r2, #1073741824	; 0x40000000
 80095e0:	6b25      	ldr	r5, [r4, #48]	; 0x30
 80095e2:	f884 6034 	strb.w	r6, [r4, #52]	; 0x34
 80095e6:	3a01      	subs	r2, #1
 80095e8:	780e      	ldrb	r6, [r1, #0]
 80095ea:	eb05 0582 	add.w	r5, r5, r2, lsl #2
 80095ee:	f025 0707 	bic.w	r7, r5, #7
 80095f2:	4681      	mov	r9, r0
 80095f4:	e9dd 5808 	ldrd	r5, r8, [sp, #32]
 80095f8:	469a      	mov	sl, r3
 80095fa:	2e00      	cmp	r6, #0
 80095fc:	d04d      	beq.n	800969a <prvInitialiseNewTask.isra.2+0xc6>
 80095fe:	784b      	ldrb	r3, [r1, #1]
 8009600:	f884 3035 	strb.w	r3, [r4, #53]	; 0x35
 8009604:	784b      	ldrb	r3, [r1, #1]
 8009606:	2b00      	cmp	r3, #0
 8009608:	d047      	beq.n	800969a <prvInitialiseNewTask.isra.2+0xc6>
 800960a:	788b      	ldrb	r3, [r1, #2]
 800960c:	f884 3036 	strb.w	r3, [r4, #54]	; 0x36
 8009610:	788b      	ldrb	r3, [r1, #2]
 8009612:	2b00      	cmp	r3, #0
 8009614:	d041      	beq.n	800969a <prvInitialiseNewTask.isra.2+0xc6>
 8009616:	78cb      	ldrb	r3, [r1, #3]
 8009618:	f884 3037 	strb.w	r3, [r4, #55]	; 0x37
 800961c:	78cb      	ldrb	r3, [r1, #3]
 800961e:	2b00      	cmp	r3, #0
 8009620:	d03b      	beq.n	800969a <prvInitialiseNewTask.isra.2+0xc6>
 8009622:	790b      	ldrb	r3, [r1, #4]
 8009624:	f884 3038 	strb.w	r3, [r4, #56]	; 0x38
 8009628:	790b      	ldrb	r3, [r1, #4]
 800962a:	2b00      	cmp	r3, #0
 800962c:	d035      	beq.n	800969a <prvInitialiseNewTask.isra.2+0xc6>
 800962e:	794b      	ldrb	r3, [r1, #5]
 8009630:	f884 3039 	strb.w	r3, [r4, #57]	; 0x39
 8009634:	794b      	ldrb	r3, [r1, #5]
 8009636:	2b00      	cmp	r3, #0
 8009638:	d02f      	beq.n	800969a <prvInitialiseNewTask.isra.2+0xc6>
 800963a:	798b      	ldrb	r3, [r1, #6]
 800963c:	f884 303a 	strb.w	r3, [r4, #58]	; 0x3a
 8009640:	798b      	ldrb	r3, [r1, #6]
 8009642:	b353      	cbz	r3, 800969a <prvInitialiseNewTask.isra.2+0xc6>
 8009644:	79cb      	ldrb	r3, [r1, #7]
 8009646:	f884 303b 	strb.w	r3, [r4, #59]	; 0x3b
 800964a:	79cb      	ldrb	r3, [r1, #7]
 800964c:	b32b      	cbz	r3, 800969a <prvInitialiseNewTask.isra.2+0xc6>
 800964e:	7a0b      	ldrb	r3, [r1, #8]
 8009650:	f884 303c 	strb.w	r3, [r4, #60]	; 0x3c
 8009654:	7a0b      	ldrb	r3, [r1, #8]
 8009656:	b303      	cbz	r3, 800969a <prvInitialiseNewTask.isra.2+0xc6>
 8009658:	7a4b      	ldrb	r3, [r1, #9]
 800965a:	f884 303d 	strb.w	r3, [r4, #61]	; 0x3d
 800965e:	7a4b      	ldrb	r3, [r1, #9]
 8009660:	b1db      	cbz	r3, 800969a <prvInitialiseNewTask.isra.2+0xc6>
 8009662:	7a8b      	ldrb	r3, [r1, #10]
 8009664:	f884 303e 	strb.w	r3, [r4, #62]	; 0x3e
 8009668:	7a8b      	ldrb	r3, [r1, #10]
 800966a:	b1b3      	cbz	r3, 800969a <prvInitialiseNewTask.isra.2+0xc6>
 800966c:	7acb      	ldrb	r3, [r1, #11]
 800966e:	f884 303f 	strb.w	r3, [r4, #63]	; 0x3f
 8009672:	7acb      	ldrb	r3, [r1, #11]
 8009674:	b18b      	cbz	r3, 800969a <prvInitialiseNewTask.isra.2+0xc6>
 8009676:	7b0b      	ldrb	r3, [r1, #12]
 8009678:	f884 3040 	strb.w	r3, [r4, #64]	; 0x40
 800967c:	7b0b      	ldrb	r3, [r1, #12]
 800967e:	b163      	cbz	r3, 800969a <prvInitialiseNewTask.isra.2+0xc6>
 8009680:	7b4b      	ldrb	r3, [r1, #13]
 8009682:	f884 3041 	strb.w	r3, [r4, #65]	; 0x41
 8009686:	7b4b      	ldrb	r3, [r1, #13]
 8009688:	b13b      	cbz	r3, 800969a <prvInitialiseNewTask.isra.2+0xc6>
 800968a:	7b8b      	ldrb	r3, [r1, #14]
 800968c:	f884 3042 	strb.w	r3, [r4, #66]	; 0x42
 8009690:	7b8b      	ldrb	r3, [r1, #14]
 8009692:	b113      	cbz	r3, 800969a <prvInitialiseNewTask.isra.2+0xc6>
 8009694:	7bcb      	ldrb	r3, [r1, #15]
 8009696:	f884 3043 	strb.w	r3, [r4, #67]	; 0x43
 800969a:	2d06      	cmp	r5, #6
 800969c:	bf28      	it	cs
 800969e:	2506      	movcs	r5, #6
 80096a0:	2600      	movs	r6, #0
 80096a2:	62e5      	str	r5, [r4, #44]	; 0x2c
 80096a4:	6465      	str	r5, [r4, #68]	; 0x44
 80096a6:	1d20      	adds	r0, r4, #4
 80096a8:	f884 6043 	strb.w	r6, [r4, #67]	; 0x43
 80096ac:	64a6      	str	r6, [r4, #72]	; 0x48
 80096ae:	f7fe ff8d 	bl	80085cc <vListInitialiseItem>
 80096b2:	f1c5 0507 	rsb	r5, r5, #7
 80096b6:	f104 0018 	add.w	r0, r4, #24
 80096ba:	f7fe ff87 	bl	80085cc <vListInitialiseItem>
 80096be:	64e6      	str	r6, [r4, #76]	; 0x4c
 80096c0:	61a5      	str	r5, [r4, #24]
 80096c2:	6124      	str	r4, [r4, #16]
 80096c4:	f884 6050 	strb.w	r6, [r4, #80]	; 0x50
 80096c8:	6264      	str	r4, [r4, #36]	; 0x24
 80096ca:	4652      	mov	r2, sl
 80096cc:	4649      	mov	r1, r9
 80096ce:	4638      	mov	r0, r7
 80096d0:	f000 fdd6 	bl	800a280 <pxPortInitialiseStack>
 80096d4:	6020      	str	r0, [r4, #0]
 80096d6:	f1b8 0f00 	cmp.w	r8, #0
 80096da:	d001      	beq.n	80096e0 <prvInitialiseNewTask.isra.2+0x10c>
 80096dc:	f8c8 4000 	str.w	r4, [r8]
 80096e0:	e8bd 87f0 	ldmia.w	sp!, {r4, r5, r6, r7, r8, r9, sl, pc}

080096e4 <prvAddCurrentTaskToDelayedList>:
 80096e4:	b5f8      	push	{r3, r4, r5, r6, r7, lr}
 80096e6:	4b1b      	ldr	r3, [pc, #108]	; (8009754 <prvAddCurrentTaskToDelayedList+0x70>)
 80096e8:	4e1b      	ldr	r6, [pc, #108]	; (8009758 <prvAddCurrentTaskToDelayedList+0x74>)
 80096ea:	681c      	ldr	r4, [r3, #0]
 80096ec:	6833      	ldr	r3, [r6, #0]
 80096ee:	4605      	mov	r5, r0
 80096f0:	1d18      	adds	r0, r3, #4
 80096f2:	460f      	mov	r7, r1
 80096f4:	f7fe ff96 	bl	8008624 <uxListRemove>
 80096f8:	b940      	cbnz	r0, 800970c <prvAddCurrentTaskToDelayedList+0x28>
 80096fa:	2201      	movs	r2, #1
 80096fc:	6833      	ldr	r3, [r6, #0]
 80096fe:	4917      	ldr	r1, [pc, #92]	; (800975c <prvAddCurrentTaskToDelayedList+0x78>)
 8009700:	6ad8      	ldr	r0, [r3, #44]	; 0x2c
 8009702:	680b      	ldr	r3, [r1, #0]
 8009704:	4082      	lsls	r2, r0
 8009706:	ea23 0302 	bic.w	r3, r3, r2
 800970a:	600b      	str	r3, [r1, #0]
 800970c:	1c6b      	adds	r3, r5, #1
 800970e:	d017      	beq.n	8009740 <prvAddCurrentTaskToDelayedList+0x5c>
 8009710:	6833      	ldr	r3, [r6, #0]
 8009712:	1964      	adds	r4, r4, r5
 8009714:	605c      	str	r4, [r3, #4]
 8009716:	d20b      	bcs.n	8009730 <prvAddCurrentTaskToDelayedList+0x4c>
 8009718:	4b11      	ldr	r3, [pc, #68]	; (8009760 <prvAddCurrentTaskToDelayedList+0x7c>)
 800971a:	6818      	ldr	r0, [r3, #0]
 800971c:	6831      	ldr	r1, [r6, #0]
 800971e:	3104      	adds	r1, #4
 8009720:	f7fe ff66 	bl	80085f0 <vListInsert>
 8009724:	4b0f      	ldr	r3, [pc, #60]	; (8009764 <prvAddCurrentTaskToDelayedList+0x80>)
 8009726:	681a      	ldr	r2, [r3, #0]
 8009728:	42a2      	cmp	r2, r4
 800972a:	bf88      	it	hi
 800972c:	601c      	strhi	r4, [r3, #0]
 800972e:	bdf8      	pop	{r3, r4, r5, r6, r7, pc}
 8009730:	4b0d      	ldr	r3, [pc, #52]	; (8009768 <prvAddCurrentTaskToDelayedList+0x84>)
 8009732:	6818      	ldr	r0, [r3, #0]
 8009734:	6831      	ldr	r1, [r6, #0]
 8009736:	e8bd 40f8 	ldmia.w	sp!, {r3, r4, r5, r6, r7, lr}
 800973a:	3104      	adds	r1, #4
 800973c:	f7fe bf58 	b.w	80085f0 <vListInsert>
 8009740:	2f00      	cmp	r7, #0
 8009742:	d0e5      	beq.n	8009710 <prvAddCurrentTaskToDelayedList+0x2c>
 8009744:	6831      	ldr	r1, [r6, #0]
 8009746:	4809      	ldr	r0, [pc, #36]	; (800976c <prvAddCurrentTaskToDelayedList+0x88>)
 8009748:	3104      	adds	r1, #4
 800974a:	e8bd 40f8 	ldmia.w	sp!, {r3, r4, r5, r6, r7, lr}
 800974e:	f7fe bf41 	b.w	80085d4 <vListInsertEnd>
 8009752:	bf00      	nop
 8009754:	200003e0 	.word	0x200003e0
 8009758:	200002c0 	.word	0x200002c0
 800975c:	2000036c 	.word	0x2000036c
 8009760:	200002c4 	.word	0x200002c4
 8009764:	20000398 	.word	0x20000398
 8009768:	200002c8 	.word	0x200002c8
 800976c:	200003b8 	.word	0x200003b8

08009770 <prvIdleTask>:
 8009770:	b580      	push	{r7, lr}
 8009772:	f04f 5780 	mov.w	r7, #268435456	; 0x10000000
 8009776:	f8df a08c 	ldr.w	sl, [pc, #140]	; 8009804 <prvIdleTask+0x94>
 800977a:	4e20      	ldr	r6, [pc, #128]	; (80097fc <prvIdleTask+0x8c>)
 800977c:	4d20      	ldr	r5, [pc, #128]	; (8009800 <prvIdleTask+0x90>)
 800977e:	f8df 9088 	ldr.w	r9, [pc, #136]	; 8009808 <prvIdleTask+0x98>
 8009782:	f8df 8088 	ldr.w	r8, [pc, #136]	; 800980c <prvIdleTask+0x9c>
 8009786:	682b      	ldr	r3, [r5, #0]
 8009788:	b343      	cbz	r3, 80097dc <prvIdleTask+0x6c>
 800978a:	f000 fda3 	bl	800a2d4 <vPortEnterCritical>
 800978e:	f8da 300c 	ldr.w	r3, [sl, #12]
 8009792:	68dc      	ldr	r4, [r3, #12]
 8009794:	1d20      	adds	r0, r4, #4
 8009796:	f7fe ff45 	bl	8008624 <uxListRemove>
 800979a:	6833      	ldr	r3, [r6, #0]
 800979c:	3b01      	subs	r3, #1
 800979e:	6033      	str	r3, [r6, #0]
 80097a0:	682b      	ldr	r3, [r5, #0]
 80097a2:	3b01      	subs	r3, #1
 80097a4:	602b      	str	r3, [r5, #0]
 80097a6:	f000 fdb7 	bl	800a318 <vPortExitCritical>
 80097aa:	f894 3051 	ldrb.w	r3, [r4, #81]	; 0x51
 80097ae:	b163      	cbz	r3, 80097ca <prvIdleTask+0x5a>
 80097b0:	2b01      	cmp	r3, #1
 80097b2:	d01e      	beq.n	80097f2 <prvIdleTask+0x82>
 80097b4:	2b02      	cmp	r3, #2
 80097b6:	d0e6      	beq.n	8009786 <prvIdleTask+0x16>
 80097b8:	f04f 0350 	mov.w	r3, #80	; 0x50
 80097bc:	f383 8811 	msr	BASEPRI, r3
 80097c0:	f3bf 8f6f 	isb	sy
 80097c4:	f3bf 8f4f 	dsb	sy
 80097c8:	e7fe      	b.n	80097c8 <prvIdleTask+0x58>
 80097ca:	6b20      	ldr	r0, [r4, #48]	; 0x30
 80097cc:	f000 ff54 	bl	800a678 <vPortFree>
 80097d0:	4620      	mov	r0, r4
 80097d2:	f000 ff51 	bl	800a678 <vPortFree>
 80097d6:	682b      	ldr	r3, [r5, #0]
 80097d8:	2b00      	cmp	r3, #0
 80097da:	d1d6      	bne.n	800978a <prvIdleTask+0x1a>
 80097dc:	f8d9 3000 	ldr.w	r3, [r9]
 80097e0:	2b01      	cmp	r3, #1
 80097e2:	d9d0      	bls.n	8009786 <prvIdleTask+0x16>
 80097e4:	f8c8 7000 	str.w	r7, [r8]
 80097e8:	f3bf 8f4f 	dsb	sy
 80097ec:	f3bf 8f6f 	isb	sy
 80097f0:	e7c9      	b.n	8009786 <prvIdleTask+0x16>
 80097f2:	4620      	mov	r0, r4
 80097f4:	f000 ff40 	bl	800a678 <vPortFree>
 80097f8:	e7c5      	b.n	8009786 <prvIdleTask+0x16>
 80097fa:	bf00      	nop
 80097fc:	20000358 	.word	0x20000358
 8009800:	2000035c 	.word	0x2000035c
 8009804:	200003cc 	.word	0x200003cc
 8009808:	200002cc 	.word	0x200002cc
 800980c:	e000ed04 	.word	0xe000ed04

08009810 <xTaskCreateStatic>:
 8009810:	b5f0      	push	{r4, r5, r6, r7, lr}
 8009812:	b087      	sub	sp, #28
 8009814:	e9dd 650c 	ldrd	r6, r5, [sp, #48]	; 0x30
 8009818:	9c0e      	ldr	r4, [sp, #56]	; 0x38
 800981a:	b1bd      	cbz	r5, 800984c <xTaskCreateStatic+0x3c>
 800981c:	b16c      	cbz	r4, 800983a <xTaskCreateStatic+0x2a>
 800981e:	2754      	movs	r7, #84	; 0x54
 8009820:	9704      	str	r7, [sp, #16]
 8009822:	9f04      	ldr	r7, [sp, #16]
 8009824:	2f54      	cmp	r7, #84	; 0x54
 8009826:	d01a      	beq.n	800985e <xTaskCreateStatic+0x4e>
 8009828:	f04f 0350 	mov.w	r3, #80	; 0x50
 800982c:	f383 8811 	msr	BASEPRI, r3
 8009830:	f3bf 8f6f 	isb	sy
 8009834:	f3bf 8f4f 	dsb	sy
 8009838:	e7fe      	b.n	8009838 <xTaskCreateStatic+0x28>
 800983a:	f04f 0350 	mov.w	r3, #80	; 0x50
 800983e:	f383 8811 	msr	BASEPRI, r3
 8009842:	f3bf 8f6f 	isb	sy
 8009846:	f3bf 8f4f 	dsb	sy
 800984a:	e7fe      	b.n	800984a <xTaskCreateStatic+0x3a>
 800984c:	f04f 0350 	mov.w	r3, #80	; 0x50
 8009850:	f383 8811 	msr	BASEPRI, r3
 8009854:	f3bf 8f6f 	isb	sy
 8009858:	f3bf 8f4f 	dsb	sy
 800985c:	e7fe      	b.n	800985c <xTaskCreateStatic+0x4c>
 800985e:	2702      	movs	r7, #2
 8009860:	6325      	str	r5, [r4, #48]	; 0x30
 8009862:	ad05      	add	r5, sp, #20
 8009864:	9402      	str	r4, [sp, #8]
 8009866:	9600      	str	r6, [sp, #0]
 8009868:	f884 7051 	strb.w	r7, [r4, #81]	; 0x51
 800986c:	9501      	str	r5, [sp, #4]
 800986e:	f7ff feb1 	bl	80095d4 <prvInitialiseNewTask.isra.2>
 8009872:	4620      	mov	r0, r4
 8009874:	f7ff fe26 	bl	80094c4 <prvAddNewTaskToReadyList>
 8009878:	9805      	ldr	r0, [sp, #20]
 800987a:	b007      	add	sp, #28
 800987c:	bdf0      	pop	{r4, r5, r6, r7, pc}
 800987e:	bf00      	nop

08009880 <xTaskCreate>:
 8009880:	e92d 47f0 	stmdb	sp!, {r4, r5, r6, r7, r8, r9, sl, lr}
 8009884:	ea4f 0a82 	mov.w	sl, r2, lsl #2
 8009888:	4680      	mov	r8, r0
 800988a:	4650      	mov	r0, sl
 800988c:	460d      	mov	r5, r1
 800988e:	4699      	mov	r9, r3
 8009890:	9f09      	ldr	r7, [sp, #36]	; 0x24
 8009892:	f000 fe5d 	bl	800a550 <pvPortMalloc>
 8009896:	2800      	cmp	r0, #0
 8009898:	f000 8096 	beq.w	80099c8 <xTaskCreate+0x148>
 800989c:	4606      	mov	r6, r0
 800989e:	2054      	movs	r0, #84	; 0x54
 80098a0:	f000 fe56 	bl	800a550 <pvPortMalloc>
 80098a4:	4604      	mov	r4, r0
 80098a6:	2800      	cmp	r0, #0
 80098a8:	f000 8087 	beq.w	80099ba <xTaskCreate+0x13a>
 80098ac:	2300      	movs	r3, #0
 80098ae:	6306      	str	r6, [r0, #48]	; 0x30
 80098b0:	f880 3051 	strb.w	r3, [r0, #81]	; 0x51
 80098b4:	782b      	ldrb	r3, [r5, #0]
 80098b6:	f1aa 0a04 	sub.w	sl, sl, #4
 80098ba:	f880 3034 	strb.w	r3, [r0, #52]	; 0x34
 80098be:	782b      	ldrb	r3, [r5, #0]
 80098c0:	4456      	add	r6, sl
 80098c2:	f026 0607 	bic.w	r6, r6, #7
 80098c6:	2b00      	cmp	r3, #0
 80098c8:	d04d      	beq.n	8009966 <xTaskCreate+0xe6>
 80098ca:	786b      	ldrb	r3, [r5, #1]
 80098cc:	f880 3035 	strb.w	r3, [r0, #53]	; 0x35
 80098d0:	786b      	ldrb	r3, [r5, #1]
 80098d2:	2b00      	cmp	r3, #0
 80098d4:	d047      	beq.n	8009966 <xTaskCreate+0xe6>
 80098d6:	78ab      	ldrb	r3, [r5, #2]
 80098d8:	f880 3036 	strb.w	r3, [r0, #54]	; 0x36
 80098dc:	78ab      	ldrb	r3, [r5, #2]
 80098de:	2b00      	cmp	r3, #0
 80098e0:	d041      	beq.n	8009966 <xTaskCreate+0xe6>
 80098e2:	78eb      	ldrb	r3, [r5, #3]
 80098e4:	f880 3037 	strb.w	r3, [r0, #55]	; 0x37
 80098e8:	78eb      	ldrb	r3, [r5, #3]
 80098ea:	2b00      	cmp	r3, #0
 80098ec:	d03b      	beq.n	8009966 <xTaskCreate+0xe6>
 80098ee:	792b      	ldrb	r3, [r5, #4]
 80098f0:	f880 3038 	strb.w	r3, [r0, #56]	; 0x38
 80098f4:	792b      	ldrb	r3, [r5, #4]
 80098f6:	2b00      	cmp	r3, #0
 80098f8:	d035      	beq.n	8009966 <xTaskCreate+0xe6>
 80098fa:	796b      	ldrb	r3, [r5, #5]
 80098fc:	f880 3039 	strb.w	r3, [r0, #57]	; 0x39
 8009900:	796b      	ldrb	r3, [r5, #5]
 8009902:	2b00      	cmp	r3, #0
 8009904:	d02f      	beq.n	8009966 <xTaskCreate+0xe6>
 8009906:	79ab      	ldrb	r3, [r5, #6]
 8009908:	f880 303a 	strb.w	r3, [r0, #58]	; 0x3a
 800990c:	79ab      	ldrb	r3, [r5, #6]
 800990e:	b353      	cbz	r3, 8009966 <xTaskCreate+0xe6>
 8009910:	79eb      	ldrb	r3, [r5, #7]
 8009912:	f880 303b 	strb.w	r3, [r0, #59]	; 0x3b
 8009916:	79eb      	ldrb	r3, [r5, #7]
 8009918:	b32b      	cbz	r3, 8009966 <xTaskCreate+0xe6>
 800991a:	7a2b      	ldrb	r3, [r5, #8]
 800991c:	f880 303c 	strb.w	r3, [r0, #60]	; 0x3c
 8009920:	7a2b      	ldrb	r3, [r5, #8]
 8009922:	b303      	cbz	r3, 8009966 <xTaskCreate+0xe6>
 8009924:	7a6b      	ldrb	r3, [r5, #9]
 8009926:	f880 303d 	strb.w	r3, [r0, #61]	; 0x3d
 800992a:	7a6b      	ldrb	r3, [r5, #9]
 800992c:	b1db      	cbz	r3, 8009966 <xTaskCreate+0xe6>
 800992e:	7aab      	ldrb	r3, [r5, #10]
 8009930:	f880 303e 	strb.w	r3, [r0, #62]	; 0x3e
 8009934:	7aab      	ldrb	r3, [r5, #10]
 8009936:	b1b3      	cbz	r3, 8009966 <xTaskCreate+0xe6>
 8009938:	7aeb      	ldrb	r3, [r5, #11]
 800993a:	f880 303f 	strb.w	r3, [r0, #63]	; 0x3f
 800993e:	7aeb      	ldrb	r3, [r5, #11]
 8009940:	b18b      	cbz	r3, 8009966 <xTaskCreate+0xe6>
 8009942:	7b2b      	ldrb	r3, [r5, #12]
 8009944:	f880 3040 	strb.w	r3, [r0, #64]	; 0x40
 8009948:	7b2b      	ldrb	r3, [r5, #12]
 800994a:	b163      	cbz	r3, 8009966 <xTaskCreate+0xe6>
 800994c:	7b6b      	ldrb	r3, [r5, #13]
 800994e:	f880 3041 	strb.w	r3, [r0, #65]	; 0x41
 8009952:	7b6b      	ldrb	r3, [r5, #13]
 8009954:	b13b      	cbz	r3, 8009966 <xTaskCreate+0xe6>
 8009956:	7bab      	ldrb	r3, [r5, #14]
 8009958:	f880 3042 	strb.w	r3, [r0, #66]	; 0x42
 800995c:	7bab      	ldrb	r3, [r5, #14]
 800995e:	b113      	cbz	r3, 8009966 <xTaskCreate+0xe6>
 8009960:	7beb      	ldrb	r3, [r5, #15]
 8009962:	f880 3043 	strb.w	r3, [r0, #67]	; 0x43
 8009966:	9d08      	ldr	r5, [sp, #32]
 8009968:	f04f 0a00 	mov.w	sl, #0
 800996c:	2d06      	cmp	r5, #6
 800996e:	bf28      	it	cs
 8009970:	2506      	movcs	r5, #6
 8009972:	1d20      	adds	r0, r4, #4
 8009974:	62e5      	str	r5, [r4, #44]	; 0x2c
 8009976:	6465      	str	r5, [r4, #68]	; 0x44
 8009978:	f884 a043 	strb.w	sl, [r4, #67]	; 0x43
 800997c:	f8c4 a048 	str.w	sl, [r4, #72]	; 0x48
 8009980:	f7fe fe24 	bl	80085cc <vListInitialiseItem>
 8009984:	f1c5 0507 	rsb	r5, r5, #7
 8009988:	f104 0018 	add.w	r0, r4, #24
 800998c:	f7fe fe1e 	bl	80085cc <vListInitialiseItem>
 8009990:	f8c4 a04c 	str.w	sl, [r4, #76]	; 0x4c
 8009994:	61a5      	str	r5, [r4, #24]
 8009996:	6124      	str	r4, [r4, #16]
 8009998:	f884 a050 	strb.w	sl, [r4, #80]	; 0x50
 800999c:	6264      	str	r4, [r4, #36]	; 0x24
 800999e:	464a      	mov	r2, r9
 80099a0:	4641      	mov	r1, r8
 80099a2:	4630      	mov	r0, r6
 80099a4:	f000 fc6c 	bl	800a280 <pxPortInitialiseStack>
 80099a8:	6020      	str	r0, [r4, #0]
 80099aa:	b107      	cbz	r7, 80099ae <xTaskCreate+0x12e>
 80099ac:	603c      	str	r4, [r7, #0]
 80099ae:	4620      	mov	r0, r4
 80099b0:	f7ff fd88 	bl	80094c4 <prvAddNewTaskToReadyList>
 80099b4:	2001      	movs	r0, #1
 80099b6:	e8bd 87f0 	ldmia.w	sp!, {r4, r5, r6, r7, r8, r9, sl, pc}
 80099ba:	4630      	mov	r0, r6
 80099bc:	f000 fe5c 	bl	800a678 <vPortFree>
 80099c0:	f04f 30ff 	mov.w	r0, #4294967295
 80099c4:	e8bd 87f0 	ldmia.w	sp!, {r4, r5, r6, r7, r8, r9, sl, pc}
 80099c8:	f04f 30ff 	mov.w	r0, #4294967295
 80099cc:	e7f3      	b.n	80099b6 <xTaskCreate+0x136>
 80099ce:	bf00      	nop

080099d0 <vTaskStartScheduler>:
 80099d0:	b530      	push	{r4, r5, lr}
 80099d2:	2400      	movs	r4, #0
 80099d4:	b08b      	sub	sp, #44	; 0x2c
 80099d6:	aa07      	add	r2, sp, #28
 80099d8:	a906      	add	r1, sp, #24
 80099da:	a805      	add	r0, sp, #20
 80099dc:	e9cd 4405 	strd	r4, r4, [sp, #20]
 80099e0:	f7f6 fd78 	bl	80004d4 <vApplicationGetIdleTaskMemory>
 80099e4:	e9dd 5305 	ldrd	r5, r3, [sp, #20]
 80099e8:	b1c3      	cbz	r3, 8009a1c <vTaskStartScheduler+0x4c>
 80099ea:	b175      	cbz	r5, 8009a0a <vTaskStartScheduler+0x3a>
 80099ec:	2254      	movs	r2, #84	; 0x54
 80099ee:	9208      	str	r2, [sp, #32]
 80099f0:	9908      	ldr	r1, [sp, #32]
 80099f2:	9a07      	ldr	r2, [sp, #28]
 80099f4:	2954      	cmp	r1, #84	; 0x54
 80099f6:	d01a      	beq.n	8009a2e <vTaskStartScheduler+0x5e>
 80099f8:	f04f 0350 	mov.w	r3, #80	; 0x50
 80099fc:	f383 8811 	msr	BASEPRI, r3
 8009a00:	f3bf 8f6f 	isb	sy
 8009a04:	f3bf 8f4f 	dsb	sy
 8009a08:	e7fe      	b.n	8009a08 <vTaskStartScheduler+0x38>
 8009a0a:	f04f 0350 	mov.w	r3, #80	; 0x50
 8009a0e:	f383 8811 	msr	BASEPRI, r3
 8009a12:	f3bf 8f6f 	isb	sy
 8009a16:	f3bf 8f4f 	dsb	sy
 8009a1a:	e7fe      	b.n	8009a1a <vTaskStartScheduler+0x4a>
 8009a1c:	f04f 0350 	mov.w	r3, #80	; 0x50
 8009a20:	f383 8811 	msr	BASEPRI, r3
 8009a24:	f3bf 8f6f 	isb	sy
 8009a28:	f3bf 8f4f 	dsb	sy
 8009a2c:	e7fe      	b.n	8009a2c <vTaskStartScheduler+0x5c>
 8009a2e:	2002      	movs	r0, #2
 8009a30:	a909      	add	r1, sp, #36	; 0x24
 8009a32:	632b      	str	r3, [r5, #48]	; 0x30
 8009a34:	f885 0051 	strb.w	r0, [r5, #81]	; 0x51
 8009a38:	4623      	mov	r3, r4
 8009a3a:	e9cd 4100 	strd	r4, r1, [sp]
 8009a3e:	480f      	ldr	r0, [pc, #60]	; (8009a7c <vTaskStartScheduler+0xac>)
 8009a40:	490f      	ldr	r1, [pc, #60]	; (8009a80 <vTaskStartScheduler+0xb0>)
 8009a42:	9502      	str	r5, [sp, #8]
 8009a44:	f7ff fdc6 	bl	80095d4 <prvInitialiseNewTask.isra.2>
 8009a48:	4628      	mov	r0, r5
 8009a4a:	f7ff fd3b 	bl	80094c4 <prvAddNewTaskToReadyList>
 8009a4e:	9b09      	ldr	r3, [sp, #36]	; 0x24
 8009a50:	b193      	cbz	r3, 8009a78 <vTaskStartScheduler+0xa8>
 8009a52:	f04f 0350 	mov.w	r3, #80	; 0x50
 8009a56:	f383 8811 	msr	BASEPRI, r3
 8009a5a:	f3bf 8f6f 	isb	sy
 8009a5e:	f3bf 8f4f 	dsb	sy
 8009a62:	f04f 35ff 	mov.w	r5, #4294967295
 8009a66:	2101      	movs	r1, #1
 8009a68:	4806      	ldr	r0, [pc, #24]	; (8009a84 <vTaskStartScheduler+0xb4>)
 8009a6a:	4a07      	ldr	r2, [pc, #28]	; (8009a88 <vTaskStartScheduler+0xb8>)
 8009a6c:	4b07      	ldr	r3, [pc, #28]	; (8009a8c <vTaskStartScheduler+0xbc>)
 8009a6e:	6005      	str	r5, [r0, #0]
 8009a70:	6011      	str	r1, [r2, #0]
 8009a72:	601c      	str	r4, [r3, #0]
 8009a74:	f000 fcba 	bl	800a3ec <xPortStartScheduler>
 8009a78:	b00b      	add	sp, #44	; 0x2c
 8009a7a:	bd30      	pop	{r4, r5, pc}
 8009a7c:	08009771 	.word	0x08009771
 8009a80:	0800ace8 	.word	0x0800ace8
 8009a84:	20000398 	.word	0x20000398
 8009a88:	200003b4 	.word	0x200003b4
 8009a8c:	200003e0 	.word	0x200003e0

08009a90 <vTaskSuspendAll>:
 8009a90:	4a02      	ldr	r2, [pc, #8]	; (8009a9c <vTaskSuspendAll+0xc>)
 8009a92:	6813      	ldr	r3, [r2, #0]
 8009a94:	3301      	adds	r3, #1
 8009a96:	6013      	str	r3, [r2, #0]
 8009a98:	4770      	bx	lr
 8009a9a:	bf00      	nop
 8009a9c:	20000364 	.word	0x20000364

08009aa0 <xTaskGetTickCount>:
 8009aa0:	4b01      	ldr	r3, [pc, #4]	; (8009aa8 <xTaskGetTickCount+0x8>)
 8009aa2:	6818      	ldr	r0, [r3, #0]
 8009aa4:	4770      	bx	lr
 8009aa6:	bf00      	nop
 8009aa8:	200003e0 	.word	0x200003e0

08009aac <xTaskGetTickCountFromISR>:
 8009aac:	b508      	push	{r3, lr}
 8009aae:	f000 fcf9 	bl	800a4a4 <vPortValidateInterruptPriority>
 8009ab2:	4b01      	ldr	r3, [pc, #4]	; (8009ab8 <xTaskGetTickCountFromISR+0xc>)
 8009ab4:	6818      	ldr	r0, [r3, #0]
 8009ab6:	bd08      	pop	{r3, pc}
 8009ab8:	200003e0 	.word	0x200003e0

08009abc <xTaskIncrementTick>:
 8009abc:	e92d 4ff8 	stmdb	sp!, {r3, r4, r5, r6, r7, r8, r9, sl, fp, lr}
 8009ac0:	4b49      	ldr	r3, [pc, #292]	; (8009be8 <xTaskIncrementTick+0x12c>)
 8009ac2:	681b      	ldr	r3, [r3, #0]
 8009ac4:	b9cb      	cbnz	r3, 8009afa <xTaskIncrementTick+0x3e>
 8009ac6:	4b49      	ldr	r3, [pc, #292]	; (8009bec <xTaskIncrementTick+0x130>)
 8009ac8:	681e      	ldr	r6, [r3, #0]
 8009aca:	3601      	adds	r6, #1
 8009acc:	601e      	str	r6, [r3, #0]
 8009ace:	b30e      	cbz	r6, 8009b14 <xTaskIncrementTick+0x58>
 8009ad0:	f8df b138 	ldr.w	fp, [pc, #312]	; 8009c0c <xTaskIncrementTick+0x150>
 8009ad4:	f8db 2000 	ldr.w	r2, [fp]
 8009ad8:	2500      	movs	r5, #0
 8009ada:	42b2      	cmp	r2, r6
 8009adc:	d928      	bls.n	8009b30 <xTaskIncrementTick+0x74>
 8009ade:	4f44      	ldr	r7, [pc, #272]	; (8009bf0 <xTaskIncrementTick+0x134>)
 8009ae0:	f8df 812c 	ldr.w	r8, [pc, #300]	; 8009c10 <xTaskIncrementTick+0x154>
 8009ae4:	f8d8 3000 	ldr.w	r3, [r8]
 8009ae8:	6adb      	ldr	r3, [r3, #44]	; 0x2c
 8009aea:	eb03 0383 	add.w	r3, r3, r3, lsl #2
 8009aee:	009b      	lsls	r3, r3, #2
 8009af0:	58fb      	ldr	r3, [r7, r3]
 8009af2:	2b02      	cmp	r3, #2
 8009af4:	bf28      	it	cs
 8009af6:	2501      	movcs	r5, #1
 8009af8:	e004      	b.n	8009b04 <xTaskIncrementTick+0x48>
 8009afa:	2500      	movs	r5, #0
 8009afc:	4a3d      	ldr	r2, [pc, #244]	; (8009bf4 <xTaskIncrementTick+0x138>)
 8009afe:	6813      	ldr	r3, [r2, #0]
 8009b00:	3301      	adds	r3, #1
 8009b02:	6013      	str	r3, [r2, #0]
 8009b04:	4b3c      	ldr	r3, [pc, #240]	; (8009bf8 <xTaskIncrementTick+0x13c>)
 8009b06:	681b      	ldr	r3, [r3, #0]
 8009b08:	2b00      	cmp	r3, #0
 8009b0a:	bf0c      	ite	eq
 8009b0c:	4628      	moveq	r0, r5
 8009b0e:	2001      	movne	r0, #1
 8009b10:	e8bd 8ff8 	ldmia.w	sp!, {r3, r4, r5, r6, r7, r8, r9, sl, fp, pc}
 8009b14:	4c39      	ldr	r4, [pc, #228]	; (8009bfc <xTaskIncrementTick+0x140>)
 8009b16:	6823      	ldr	r3, [r4, #0]
 8009b18:	681b      	ldr	r3, [r3, #0]
 8009b1a:	2b00      	cmp	r3, #0
 8009b1c:	d047      	beq.n	8009bae <xTaskIncrementTick+0xf2>
 8009b1e:	f04f 0350 	mov.w	r3, #80	; 0x50
 8009b22:	f383 8811 	msr	BASEPRI, r3
 8009b26:	f3bf 8f6f 	isb	sy
 8009b2a:	f3bf 8f4f 	dsb	sy
 8009b2e:	e7fe      	b.n	8009b2e <xTaskIncrementTick+0x72>
 8009b30:	4c32      	ldr	r4, [pc, #200]	; (8009bfc <xTaskIncrementTick+0x140>)
 8009b32:	4f2f      	ldr	r7, [pc, #188]	; (8009bf0 <xTaskIncrementTick+0x134>)
 8009b34:	f8df 80d8 	ldr.w	r8, [pc, #216]	; 8009c10 <xTaskIncrementTick+0x154>
 8009b38:	e02d      	b.n	8009b96 <xTaskIncrementTick+0xda>
 8009b3a:	6822      	ldr	r2, [r4, #0]
 8009b3c:	68d2      	ldr	r2, [r2, #12]
 8009b3e:	f8d2 900c 	ldr.w	r9, [r2, #12]
 8009b42:	f8d9 1004 	ldr.w	r1, [r9, #4]
 8009b46:	f109 0a04 	add.w	sl, r9, #4
 8009b4a:	428e      	cmp	r6, r1
 8009b4c:	d32c      	bcc.n	8009ba8 <xTaskIncrementTick+0xec>
 8009b4e:	4650      	mov	r0, sl
 8009b50:	f7fe fd68 	bl	8008624 <uxListRemove>
 8009b54:	f8d9 1028 	ldr.w	r1, [r9, #40]	; 0x28
 8009b58:	f109 0018 	add.w	r0, r9, #24
 8009b5c:	b109      	cbz	r1, 8009b62 <xTaskIncrementTick+0xa6>
 8009b5e:	f7fe fd61 	bl	8008624 <uxListRemove>
 8009b62:	2101      	movs	r1, #1
 8009b64:	4a26      	ldr	r2, [pc, #152]	; (8009c00 <xTaskIncrementTick+0x144>)
 8009b66:	f8d9 002c 	ldr.w	r0, [r9, #44]	; 0x2c
 8009b6a:	6813      	ldr	r3, [r2, #0]
 8009b6c:	fa01 fc00 	lsl.w	ip, r1, r0
 8009b70:	eb00 0080 	add.w	r0, r0, r0, lsl #2
 8009b74:	4651      	mov	r1, sl
 8009b76:	eb07 0080 	add.w	r0, r7, r0, lsl #2
 8009b7a:	ea4c 0c03 	orr.w	ip, ip, r3
 8009b7e:	f8c2 c000 	str.w	ip, [r2]
 8009b82:	f7fe fd27 	bl	80085d4 <vListInsertEnd>
 8009b86:	f8d8 0000 	ldr.w	r0, [r8]
 8009b8a:	f8d9 102c 	ldr.w	r1, [r9, #44]	; 0x2c
 8009b8e:	6ac2      	ldr	r2, [r0, #44]	; 0x2c
 8009b90:	4291      	cmp	r1, r2
 8009b92:	bf28      	it	cs
 8009b94:	2501      	movcs	r5, #1
 8009b96:	6822      	ldr	r2, [r4, #0]
 8009b98:	6812      	ldr	r2, [r2, #0]
 8009b9a:	2a00      	cmp	r2, #0
 8009b9c:	d1cd      	bne.n	8009b3a <xTaskIncrementTick+0x7e>
 8009b9e:	f04f 32ff 	mov.w	r2, #4294967295
 8009ba2:	f8cb 2000 	str.w	r2, [fp]
 8009ba6:	e79d      	b.n	8009ae4 <xTaskIncrementTick+0x28>
 8009ba8:	f8cb 1000 	str.w	r1, [fp]
 8009bac:	e79a      	b.n	8009ae4 <xTaskIncrementTick+0x28>
 8009bae:	4b15      	ldr	r3, [pc, #84]	; (8009c04 <xTaskIncrementTick+0x148>)
 8009bb0:	6821      	ldr	r1, [r4, #0]
 8009bb2:	6818      	ldr	r0, [r3, #0]
 8009bb4:	4a14      	ldr	r2, [pc, #80]	; (8009c08 <xTaskIncrementTick+0x14c>)
 8009bb6:	6020      	str	r0, [r4, #0]
 8009bb8:	6019      	str	r1, [r3, #0]
 8009bba:	6813      	ldr	r3, [r2, #0]
 8009bbc:	3301      	adds	r3, #1
 8009bbe:	6013      	str	r3, [r2, #0]
 8009bc0:	6823      	ldr	r3, [r4, #0]
 8009bc2:	681b      	ldr	r3, [r3, #0]
 8009bc4:	b933      	cbnz	r3, 8009bd4 <xTaskIncrementTick+0x118>
 8009bc6:	f04f 32ff 	mov.w	r2, #4294967295
 8009bca:	f8df b040 	ldr.w	fp, [pc, #64]	; 8009c0c <xTaskIncrementTick+0x150>
 8009bce:	f8cb 2000 	str.w	r2, [fp]
 8009bd2:	e77f      	b.n	8009ad4 <xTaskIncrementTick+0x18>
 8009bd4:	6822      	ldr	r2, [r4, #0]
 8009bd6:	f8df b034 	ldr.w	fp, [pc, #52]	; 8009c0c <xTaskIncrementTick+0x150>
 8009bda:	68d2      	ldr	r2, [r2, #12]
 8009bdc:	68d2      	ldr	r2, [r2, #12]
 8009bde:	6852      	ldr	r2, [r2, #4]
 8009be0:	f8cb 2000 	str.w	r2, [fp]
 8009be4:	e776      	b.n	8009ad4 <xTaskIncrementTick+0x18>
 8009be6:	bf00      	nop
 8009be8:	20000364 	.word	0x20000364
 8009bec:	200003e0 	.word	0x200003e0
 8009bf0:	200002cc 	.word	0x200002cc
 8009bf4:	20000360 	.word	0x20000360
 8009bf8:	200003e4 	.word	0x200003e4
 8009bfc:	200002c4 	.word	0x200002c4
 8009c00:	2000036c 	.word	0x2000036c
 8009c04:	200002c8 	.word	0x200002c8
 8009c08:	2000039c 	.word	0x2000039c
 8009c0c:	20000398 	.word	0x20000398
 8009c10:	200002c0 	.word	0x200002c0

08009c14 <xTaskResumeAll>:
 8009c14:	e92d 4ff8 	stmdb	sp!, {r3, r4, r5, r6, r7, r8, r9, sl, fp, lr}
 8009c18:	4c38      	ldr	r4, [pc, #224]	; (8009cfc <xTaskResumeAll+0xe8>)
 8009c1a:	6823      	ldr	r3, [r4, #0]
 8009c1c:	b943      	cbnz	r3, 8009c30 <xTaskResumeAll+0x1c>
 8009c1e:	f04f 0350 	mov.w	r3, #80	; 0x50
 8009c22:	f383 8811 	msr	BASEPRI, r3
 8009c26:	f3bf 8f6f 	isb	sy
 8009c2a:	f3bf 8f4f 	dsb	sy
 8009c2e:	e7fe      	b.n	8009c2e <xTaskResumeAll+0x1a>
 8009c30:	f000 fb50 	bl	800a2d4 <vPortEnterCritical>
 8009c34:	6823      	ldr	r3, [r4, #0]
 8009c36:	3b01      	subs	r3, #1
 8009c38:	6023      	str	r3, [r4, #0]
 8009c3a:	6824      	ldr	r4, [r4, #0]
 8009c3c:	bb7c      	cbnz	r4, 8009c9e <xTaskResumeAll+0x8a>
 8009c3e:	4b30      	ldr	r3, [pc, #192]	; (8009d00 <xTaskResumeAll+0xec>)
 8009c40:	681b      	ldr	r3, [r3, #0]
 8009c42:	b363      	cbz	r3, 8009c9e <xTaskResumeAll+0x8a>
 8009c44:	4d2f      	ldr	r5, [pc, #188]	; (8009d04 <xTaskResumeAll+0xf0>)
 8009c46:	f8df a0d4 	ldr.w	sl, [pc, #212]	; 8009d1c <xTaskResumeAll+0x108>
 8009c4a:	4e2f      	ldr	r6, [pc, #188]	; (8009d08 <xTaskResumeAll+0xf4>)
 8009c4c:	f8df 90d0 	ldr.w	r9, [pc, #208]	; 8009d20 <xTaskResumeAll+0x10c>
 8009c50:	f8df b0d0 	ldr.w	fp, [pc, #208]	; 8009d24 <xTaskResumeAll+0x110>
 8009c54:	f8da 3000 	ldr.w	r3, [sl]
 8009c58:	b33b      	cbz	r3, 8009caa <xTaskResumeAll+0x96>
 8009c5a:	2701      	movs	r7, #1
 8009c5c:	f8da 300c 	ldr.w	r3, [sl, #12]
 8009c60:	68dc      	ldr	r4, [r3, #12]
 8009c62:	f104 0804 	add.w	r8, r4, #4
 8009c66:	f104 0018 	add.w	r0, r4, #24
 8009c6a:	f7fe fcdb 	bl	8008624 <uxListRemove>
 8009c6e:	4640      	mov	r0, r8
 8009c70:	f7fe fcd8 	bl	8008624 <uxListRemove>
 8009c74:	6ae0      	ldr	r0, [r4, #44]	; 0x2c
 8009c76:	6832      	ldr	r2, [r6, #0]
 8009c78:	fa07 f300 	lsl.w	r3, r7, r0
 8009c7c:	eb00 0080 	add.w	r0, r0, r0, lsl #2
 8009c80:	4313      	orrs	r3, r2
 8009c82:	4641      	mov	r1, r8
 8009c84:	eb09 0080 	add.w	r0, r9, r0, lsl #2
 8009c88:	6033      	str	r3, [r6, #0]
 8009c8a:	f7fe fca3 	bl	80085d4 <vListInsertEnd>
 8009c8e:	f8db 3000 	ldr.w	r3, [fp]
 8009c92:	6ae2      	ldr	r2, [r4, #44]	; 0x2c
 8009c94:	6adb      	ldr	r3, [r3, #44]	; 0x2c
 8009c96:	429a      	cmp	r2, r3
 8009c98:	d3dc      	bcc.n	8009c54 <xTaskResumeAll+0x40>
 8009c9a:	602f      	str	r7, [r5, #0]
 8009c9c:	e7da      	b.n	8009c54 <xTaskResumeAll+0x40>
 8009c9e:	2400      	movs	r4, #0
 8009ca0:	f000 fb3a 	bl	800a318 <vPortExitCritical>
 8009ca4:	4620      	mov	r0, r4
 8009ca6:	e8bd 8ff8 	ldmia.w	sp!, {r3, r4, r5, r6, r7, r8, r9, sl, fp, pc}
 8009caa:	b13c      	cbz	r4, 8009cbc <xTaskResumeAll+0xa8>
 8009cac:	4b17      	ldr	r3, [pc, #92]	; (8009d0c <xTaskResumeAll+0xf8>)
 8009cae:	681a      	ldr	r2, [r3, #0]
 8009cb0:	6812      	ldr	r2, [r2, #0]
 8009cb2:	b9da      	cbnz	r2, 8009cec <xTaskResumeAll+0xd8>
 8009cb4:	f04f 32ff 	mov.w	r2, #4294967295
 8009cb8:	4b15      	ldr	r3, [pc, #84]	; (8009d10 <xTaskResumeAll+0xfc>)
 8009cba:	601a      	str	r2, [r3, #0]
 8009cbc:	4e15      	ldr	r6, [pc, #84]	; (8009d14 <xTaskResumeAll+0x100>)
 8009cbe:	6834      	ldr	r4, [r6, #0]
 8009cc0:	b13c      	cbz	r4, 8009cd2 <xTaskResumeAll+0xbe>
 8009cc2:	2701      	movs	r7, #1
 8009cc4:	f7ff fefa 	bl	8009abc <xTaskIncrementTick>
 8009cc8:	b100      	cbz	r0, 8009ccc <xTaskResumeAll+0xb8>
 8009cca:	602f      	str	r7, [r5, #0]
 8009ccc:	3c01      	subs	r4, #1
 8009cce:	d1f9      	bne.n	8009cc4 <xTaskResumeAll+0xb0>
 8009cd0:	6034      	str	r4, [r6, #0]
 8009cd2:	682b      	ldr	r3, [r5, #0]
 8009cd4:	2b00      	cmp	r3, #0
 8009cd6:	d0e2      	beq.n	8009c9e <xTaskResumeAll+0x8a>
 8009cd8:	f04f 5280 	mov.w	r2, #268435456	; 0x10000000
 8009cdc:	4b0e      	ldr	r3, [pc, #56]	; (8009d18 <xTaskResumeAll+0x104>)
 8009cde:	601a      	str	r2, [r3, #0]
 8009ce0:	f3bf 8f4f 	dsb	sy
 8009ce4:	f3bf 8f6f 	isb	sy
 8009ce8:	2401      	movs	r4, #1
 8009cea:	e7d9      	b.n	8009ca0 <xTaskResumeAll+0x8c>
 8009cec:	681a      	ldr	r2, [r3, #0]
 8009cee:	4b08      	ldr	r3, [pc, #32]	; (8009d10 <xTaskResumeAll+0xfc>)
 8009cf0:	68d2      	ldr	r2, [r2, #12]
 8009cf2:	68d2      	ldr	r2, [r2, #12]
 8009cf4:	6852      	ldr	r2, [r2, #4]
 8009cf6:	601a      	str	r2, [r3, #0]
 8009cf8:	e7e0      	b.n	8009cbc <xTaskResumeAll+0xa8>
 8009cfa:	bf00      	nop
 8009cfc:	20000364 	.word	0x20000364
 8009d00:	20000358 	.word	0x20000358
 8009d04:	200003e4 	.word	0x200003e4
 8009d08:	2000036c 	.word	0x2000036c
 8009d0c:	200002c4 	.word	0x200002c4
 8009d10:	20000398 	.word	0x20000398
 8009d14:	20000360 	.word	0x20000360
 8009d18:	e000ed04 	.word	0xe000ed04
 8009d1c:	200003a0 	.word	0x200003a0
 8009d20:	200002cc 	.word	0x200002cc
 8009d24:	200002c0 	.word	0x200002c0

08009d28 <vTaskDelay>:
 8009d28:	b508      	push	{r3, lr}
 8009d2a:	b198      	cbz	r0, 8009d54 <vTaskDelay+0x2c>
 8009d2c:	4b0e      	ldr	r3, [pc, #56]	; (8009d68 <vTaskDelay+0x40>)
 8009d2e:	6819      	ldr	r1, [r3, #0]
 8009d30:	b141      	cbz	r1, 8009d44 <vTaskDelay+0x1c>
 8009d32:	f04f 0350 	mov.w	r3, #80	; 0x50
 8009d36:	f383 8811 	msr	BASEPRI, r3
 8009d3a:	f3bf 8f6f 	isb	sy
 8009d3e:	f3bf 8f4f 	dsb	sy
 8009d42:	e7fe      	b.n	8009d42 <vTaskDelay+0x1a>
 8009d44:	681a      	ldr	r2, [r3, #0]
 8009d46:	3201      	adds	r2, #1
 8009d48:	601a      	str	r2, [r3, #0]
 8009d4a:	f7ff fccb 	bl	80096e4 <prvAddCurrentTaskToDelayedList>
 8009d4e:	f7ff ff61 	bl	8009c14 <xTaskResumeAll>
 8009d52:	b938      	cbnz	r0, 8009d64 <vTaskDelay+0x3c>
 8009d54:	f04f 5280 	mov.w	r2, #268435456	; 0x10000000
 8009d58:	4b04      	ldr	r3, [pc, #16]	; (8009d6c <vTaskDelay+0x44>)
 8009d5a:	601a      	str	r2, [r3, #0]
 8009d5c:	f3bf 8f4f 	dsb	sy
 8009d60:	f3bf 8f6f 	isb	sy
 8009d64:	bd08      	pop	{r3, pc}
 8009d66:	bf00      	nop
 8009d68:	20000364 	.word	0x20000364
 8009d6c:	e000ed04 	.word	0xe000ed04

08009d70 <vTaskSwitchContext>:
 8009d70:	4b19      	ldr	r3, [pc, #100]	; (8009dd8 <vTaskSwitchContext+0x68>)
 8009d72:	681b      	ldr	r3, [r3, #0]
 8009d74:	b9e3      	cbnz	r3, 8009db0 <vTaskSwitchContext+0x40>
 8009d76:	4919      	ldr	r1, [pc, #100]	; (8009ddc <vTaskSwitchContext+0x6c>)
 8009d78:	4a19      	ldr	r2, [pc, #100]	; (8009de0 <vTaskSwitchContext+0x70>)
 8009d7a:	b410      	push	{r4}
 8009d7c:	600b      	str	r3, [r1, #0]
 8009d7e:	6813      	ldr	r3, [r2, #0]
 8009d80:	fab3 f383 	clz	r3, r3
 8009d84:	b2db      	uxtb	r3, r3
 8009d86:	f1c3 031f 	rsb	r3, r3, #31
 8009d8a:	4816      	ldr	r0, [pc, #88]	; (8009de4 <vTaskSwitchContext+0x74>)
 8009d8c:	eb03 0283 	add.w	r2, r3, r3, lsl #2
 8009d90:	0092      	lsls	r2, r2, #2
 8009d92:	5881      	ldr	r1, [r0, r2]
 8009d94:	1884      	adds	r4, r0, r2
 8009d96:	b179      	cbz	r1, 8009db8 <vTaskSwitchContext+0x48>
 8009d98:	6861      	ldr	r1, [r4, #4]
 8009d9a:	3208      	adds	r2, #8
 8009d9c:	6849      	ldr	r1, [r1, #4]
 8009d9e:	4402      	add	r2, r0
 8009da0:	4291      	cmp	r1, r2
 8009da2:	6061      	str	r1, [r4, #4]
 8009da4:	d011      	beq.n	8009dca <vTaskSwitchContext+0x5a>
 8009da6:	68ca      	ldr	r2, [r1, #12]
 8009da8:	4b0f      	ldr	r3, [pc, #60]	; (8009de8 <vTaskSwitchContext+0x78>)
 8009daa:	bc10      	pop	{r4}
 8009dac:	601a      	str	r2, [r3, #0]
 8009dae:	4770      	bx	lr
 8009db0:	2201      	movs	r2, #1
 8009db2:	4b0a      	ldr	r3, [pc, #40]	; (8009ddc <vTaskSwitchContext+0x6c>)
 8009db4:	601a      	str	r2, [r3, #0]
 8009db6:	4770      	bx	lr
 8009db8:	f04f 0350 	mov.w	r3, #80	; 0x50
 8009dbc:	f383 8811 	msr	BASEPRI, r3
 8009dc0:	f3bf 8f6f 	isb	sy
 8009dc4:	f3bf 8f4f 	dsb	sy
 8009dc8:	e7fe      	b.n	8009dc8 <vTaskSwitchContext+0x58>
 8009dca:	2214      	movs	r2, #20
 8009dcc:	fb02 0303 	mla	r3, r2, r3, r0
 8009dd0:	6849      	ldr	r1, [r1, #4]
 8009dd2:	6059      	str	r1, [r3, #4]
 8009dd4:	e7e7      	b.n	8009da6 <vTaskSwitchContext+0x36>
 8009dd6:	bf00      	nop
 8009dd8:	20000364 	.word	0x20000364
 8009ddc:	200003e4 	.word	0x200003e4
 8009de0:	2000036c 	.word	0x2000036c
 8009de4:	200002cc 	.word	0x200002cc
 8009de8:	200002c0 	.word	0x200002c0

08009dec <vTaskPlaceOnEventList>:
 8009dec:	b940      	cbnz	r0, 8009e00 <vTaskPlaceOnEventList+0x14>
 8009dee:	f04f 0350 	mov.w	r3, #80	; 0x50
 8009df2:	f383 8811 	msr	BASEPRI, r3
 8009df6:	f3bf 8f6f 	isb	sy
 8009dfa:	f3bf 8f4f 	dsb	sy
 8009dfe:	e7fe      	b.n	8009dfe <vTaskPlaceOnEventList+0x12>
 8009e00:	b570      	push	{r4, r5, r6, lr}
 8009e02:	4d1b      	ldr	r5, [pc, #108]	; (8009e70 <vTaskPlaceOnEventList+0x84>)
 8009e04:	460c      	mov	r4, r1
 8009e06:	6829      	ldr	r1, [r5, #0]
 8009e08:	3118      	adds	r1, #24
 8009e0a:	f7fe fbf1 	bl	80085f0 <vListInsert>
 8009e0e:	4b19      	ldr	r3, [pc, #100]	; (8009e74 <vTaskPlaceOnEventList+0x88>)
 8009e10:	681e      	ldr	r6, [r3, #0]
 8009e12:	6828      	ldr	r0, [r5, #0]
 8009e14:	3004      	adds	r0, #4
 8009e16:	f7fe fc05 	bl	8008624 <uxListRemove>
 8009e1a:	b940      	cbnz	r0, 8009e2e <vTaskPlaceOnEventList+0x42>
 8009e1c:	2201      	movs	r2, #1
 8009e1e:	682b      	ldr	r3, [r5, #0]
 8009e20:	4915      	ldr	r1, [pc, #84]	; (8009e78 <vTaskPlaceOnEventList+0x8c>)
 8009e22:	6ad8      	ldr	r0, [r3, #44]	; 0x2c
 8009e24:	680b      	ldr	r3, [r1, #0]
 8009e26:	4082      	lsls	r2, r0
 8009e28:	ea23 0302 	bic.w	r3, r3, r2
 8009e2c:	600b      	str	r3, [r1, #0]
 8009e2e:	1c63      	adds	r3, r4, #1
 8009e30:	d00f      	beq.n	8009e52 <vTaskPlaceOnEventList+0x66>
 8009e32:	682b      	ldr	r3, [r5, #0]
 8009e34:	19a4      	adds	r4, r4, r6
 8009e36:	605c      	str	r4, [r3, #4]
 8009e38:	d212      	bcs.n	8009e60 <vTaskPlaceOnEventList+0x74>
 8009e3a:	4b10      	ldr	r3, [pc, #64]	; (8009e7c <vTaskPlaceOnEventList+0x90>)
 8009e3c:	6818      	ldr	r0, [r3, #0]
 8009e3e:	6829      	ldr	r1, [r5, #0]
 8009e40:	3104      	adds	r1, #4
 8009e42:	f7fe fbd5 	bl	80085f0 <vListInsert>
 8009e46:	4b0e      	ldr	r3, [pc, #56]	; (8009e80 <vTaskPlaceOnEventList+0x94>)
 8009e48:	681a      	ldr	r2, [r3, #0]
 8009e4a:	4294      	cmp	r4, r2
 8009e4c:	bf38      	it	cc
 8009e4e:	601c      	strcc	r4, [r3, #0]
 8009e50:	bd70      	pop	{r4, r5, r6, pc}
 8009e52:	6829      	ldr	r1, [r5, #0]
 8009e54:	480b      	ldr	r0, [pc, #44]	; (8009e84 <vTaskPlaceOnEventList+0x98>)
 8009e56:	3104      	adds	r1, #4
 8009e58:	e8bd 4070 	ldmia.w	sp!, {r4, r5, r6, lr}
 8009e5c:	f7fe bbba 	b.w	80085d4 <vListInsertEnd>
 8009e60:	4b09      	ldr	r3, [pc, #36]	; (8009e88 <vTaskPlaceOnEventList+0x9c>)
 8009e62:	6818      	ldr	r0, [r3, #0]
 8009e64:	6829      	ldr	r1, [r5, #0]
 8009e66:	e8bd 4070 	ldmia.w	sp!, {r4, r5, r6, lr}
 8009e6a:	3104      	adds	r1, #4
 8009e6c:	f7fe bbc0 	b.w	80085f0 <vListInsert>
 8009e70:	200002c0 	.word	0x200002c0
 8009e74:	200003e0 	.word	0x200003e0
 8009e78:	2000036c 	.word	0x2000036c
 8009e7c:	200002c4 	.word	0x200002c4
 8009e80:	20000398 	.word	0x20000398
 8009e84:	200003b8 	.word	0x200003b8
 8009e88:	200002c8 	.word	0x200002c8

08009e8c <xTaskRemoveFromEventList>:
 8009e8c:	b5f8      	push	{r3, r4, r5, r6, r7, lr}
 8009e8e:	68c3      	ldr	r3, [r0, #12]
 8009e90:	68dc      	ldr	r4, [r3, #12]
 8009e92:	b354      	cbz	r4, 8009eea <xTaskRemoveFromEventList+0x5e>
 8009e94:	f104 0518 	add.w	r5, r4, #24
 8009e98:	4628      	mov	r0, r5
 8009e9a:	f7fe fbc3 	bl	8008624 <uxListRemove>
 8009e9e:	4b18      	ldr	r3, [pc, #96]	; (8009f00 <xTaskRemoveFromEventList+0x74>)
 8009ea0:	681b      	ldr	r3, [r3, #0]
 8009ea2:	b9eb      	cbnz	r3, 8009ee0 <xTaskRemoveFromEventList+0x54>
 8009ea4:	1d26      	adds	r6, r4, #4
 8009ea6:	4630      	mov	r0, r6
 8009ea8:	f7fe fbbc 	bl	8008624 <uxListRemove>
 8009eac:	2301      	movs	r3, #1
 8009eae:	4d15      	ldr	r5, [pc, #84]	; (8009f04 <xTaskRemoveFromEventList+0x78>)
 8009eb0:	6ae2      	ldr	r2, [r4, #44]	; 0x2c
 8009eb2:	682f      	ldr	r7, [r5, #0]
 8009eb4:	4814      	ldr	r0, [pc, #80]	; (8009f08 <xTaskRemoveFromEventList+0x7c>)
 8009eb6:	4093      	lsls	r3, r2
 8009eb8:	eb02 0282 	add.w	r2, r2, r2, lsl #2
 8009ebc:	433b      	orrs	r3, r7
 8009ebe:	4631      	mov	r1, r6
 8009ec0:	eb00 0082 	add.w	r0, r0, r2, lsl #2
 8009ec4:	602b      	str	r3, [r5, #0]
 8009ec6:	f7fe fb85 	bl	80085d4 <vListInsertEnd>
 8009eca:	4b10      	ldr	r3, [pc, #64]	; (8009f0c <xTaskRemoveFromEventList+0x80>)
 8009ecc:	6ae2      	ldr	r2, [r4, #44]	; 0x2c
 8009ece:	681b      	ldr	r3, [r3, #0]
 8009ed0:	6adb      	ldr	r3, [r3, #44]	; 0x2c
 8009ed2:	429a      	cmp	r2, r3
 8009ed4:	d912      	bls.n	8009efc <xTaskRemoveFromEventList+0x70>
 8009ed6:	2301      	movs	r3, #1
 8009ed8:	4a0d      	ldr	r2, [pc, #52]	; (8009f10 <xTaskRemoveFromEventList+0x84>)
 8009eda:	4618      	mov	r0, r3
 8009edc:	6013      	str	r3, [r2, #0]
 8009ede:	bdf8      	pop	{r3, r4, r5, r6, r7, pc}
 8009ee0:	4629      	mov	r1, r5
 8009ee2:	480c      	ldr	r0, [pc, #48]	; (8009f14 <xTaskRemoveFromEventList+0x88>)
 8009ee4:	f7fe fb76 	bl	80085d4 <vListInsertEnd>
 8009ee8:	e7ef      	b.n	8009eca <xTaskRemoveFromEventList+0x3e>
 8009eea:	f04f 0350 	mov.w	r3, #80	; 0x50
 8009eee:	f383 8811 	msr	BASEPRI, r3
 8009ef2:	f3bf 8f6f 	isb	sy
 8009ef6:	f3bf 8f4f 	dsb	sy
 8009efa:	e7fe      	b.n	8009efa <xTaskRemoveFromEventList+0x6e>
 8009efc:	2000      	movs	r0, #0
 8009efe:	bdf8      	pop	{r3, r4, r5, r6, r7, pc}
 8009f00:	20000364 	.word	0x20000364
 8009f04:	2000036c 	.word	0x2000036c
 8009f08:	200002cc 	.word	0x200002cc
 8009f0c:	200002c0 	.word	0x200002c0
 8009f10:	200003e4 	.word	0x200003e4
 8009f14:	200003a0 	.word	0x200003a0

08009f18 <vTaskInternalSetTimeOutState>:
 8009f18:	4a03      	ldr	r2, [pc, #12]	; (8009f28 <vTaskInternalSetTimeOutState+0x10>)
 8009f1a:	4b04      	ldr	r3, [pc, #16]	; (8009f2c <vTaskInternalSetTimeOutState+0x14>)
 8009f1c:	6812      	ldr	r2, [r2, #0]
 8009f1e:	681b      	ldr	r3, [r3, #0]
 8009f20:	e9c0 2300 	strd	r2, r3, [r0]
 8009f24:	4770      	bx	lr
 8009f26:	bf00      	nop
 8009f28:	2000039c 	.word	0x2000039c
 8009f2c:	200003e0 	.word	0x200003e0

08009f30 <xTaskCheckForTimeOut>:
 8009f30:	b5f8      	push	{r3, r4, r5, r6, r7, lr}
 8009f32:	b340      	cbz	r0, 8009f86 <xTaskCheckForTimeOut+0x56>
 8009f34:	b1f1      	cbz	r1, 8009f74 <xTaskCheckForTimeOut+0x44>
 8009f36:	460d      	mov	r5, r1
 8009f38:	4604      	mov	r4, r0
 8009f3a:	f000 f9cb 	bl	800a2d4 <vPortEnterCritical>
 8009f3e:	f8df c078 	ldr.w	ip, [pc, #120]	; 8009fb8 <xTaskCheckForTimeOut+0x88>
 8009f42:	682b      	ldr	r3, [r5, #0]
 8009f44:	6867      	ldr	r7, [r4, #4]
 8009f46:	f8dc 6000 	ldr.w	r6, [ip]
 8009f4a:	1c59      	adds	r1, r3, #1
 8009f4c:	eba6 0207 	sub.w	r2, r6, r7
 8009f50:	d022      	beq.n	8009f98 <xTaskCheckForTimeOut+0x68>
 8009f52:	4818      	ldr	r0, [pc, #96]	; (8009fb4 <xTaskCheckForTimeOut+0x84>)
 8009f54:	6821      	ldr	r1, [r4, #0]
 8009f56:	f8d0 e000 	ldr.w	lr, [r0]
 8009f5a:	4571      	cmp	r1, lr
 8009f5c:	d001      	beq.n	8009f62 <xTaskCheckForTimeOut+0x32>
 8009f5e:	42b7      	cmp	r7, r6
 8009f60:	d925      	bls.n	8009fae <xTaskCheckForTimeOut+0x7e>
 8009f62:	4293      	cmp	r3, r2
 8009f64:	d81a      	bhi.n	8009f9c <xTaskCheckForTimeOut+0x6c>
 8009f66:	2300      	movs	r3, #0
 8009f68:	2601      	movs	r6, #1
 8009f6a:	602b      	str	r3, [r5, #0]
 8009f6c:	f000 f9d4 	bl	800a318 <vPortExitCritical>
 8009f70:	4630      	mov	r0, r6
 8009f72:	bdf8      	pop	{r3, r4, r5, r6, r7, pc}
 8009f74:	f04f 0350 	mov.w	r3, #80	; 0x50
 8009f78:	f383 8811 	msr	BASEPRI, r3
 8009f7c:	f3bf 8f6f 	isb	sy
 8009f80:	f3bf 8f4f 	dsb	sy
 8009f84:	e7fe      	b.n	8009f84 <xTaskCheckForTimeOut+0x54>
 8009f86:	f04f 0350 	mov.w	r3, #80	; 0x50
 8009f8a:	f383 8811 	msr	BASEPRI, r3
 8009f8e:	f3bf 8f6f 	isb	sy
 8009f92:	f3bf 8f4f 	dsb	sy
 8009f96:	e7fe      	b.n	8009f96 <xTaskCheckForTimeOut+0x66>
 8009f98:	2600      	movs	r6, #0
 8009f9a:	e7e7      	b.n	8009f6c <xTaskCheckForTimeOut+0x3c>
 8009f9c:	6800      	ldr	r0, [r0, #0]
 8009f9e:	f8dc 1000 	ldr.w	r1, [ip]
 8009fa2:	1a9b      	subs	r3, r3, r2
 8009fa4:	602b      	str	r3, [r5, #0]
 8009fa6:	2600      	movs	r6, #0
 8009fa8:	e9c4 0100 	strd	r0, r1, [r4]
 8009fac:	e7de      	b.n	8009f6c <xTaskCheckForTimeOut+0x3c>
 8009fae:	2601      	movs	r6, #1
 8009fb0:	e7dc      	b.n	8009f6c <xTaskCheckForTimeOut+0x3c>
 8009fb2:	bf00      	nop
 8009fb4:	2000039c 	.word	0x2000039c
 8009fb8:	200003e0 	.word	0x200003e0

08009fbc <vTaskMissedYield>:
 8009fbc:	2201      	movs	r2, #1
 8009fbe:	4b01      	ldr	r3, [pc, #4]	; (8009fc4 <vTaskMissedYield+0x8>)
 8009fc0:	601a      	str	r2, [r3, #0]
 8009fc2:	4770      	bx	lr
 8009fc4:	200003e4 	.word	0x200003e4

08009fc8 <xTaskGetSchedulerState>:
 8009fc8:	4b05      	ldr	r3, [pc, #20]	; (8009fe0 <xTaskGetSchedulerState+0x18>)
 8009fca:	681b      	ldr	r3, [r3, #0]
 8009fcc:	b133      	cbz	r3, 8009fdc <xTaskGetSchedulerState+0x14>
 8009fce:	4b05      	ldr	r3, [pc, #20]	; (8009fe4 <xTaskGetSchedulerState+0x1c>)
 8009fd0:	681b      	ldr	r3, [r3, #0]
 8009fd2:	2b00      	cmp	r3, #0
 8009fd4:	bf0c      	ite	eq
 8009fd6:	2002      	moveq	r0, #2
 8009fd8:	2000      	movne	r0, #0
 8009fda:	4770      	bx	lr
 8009fdc:	2001      	movs	r0, #1
 8009fde:	4770      	bx	lr
 8009fe0:	200003b4 	.word	0x200003b4
 8009fe4:	20000364 	.word	0x20000364

08009fe8 <xTaskPriorityInherit>:
 8009fe8:	e92d 41f0 	stmdb	sp!, {r4, r5, r6, r7, r8, lr}
 8009fec:	4607      	mov	r7, r0
 8009fee:	b1c8      	cbz	r0, 800a024 <xTaskPriorityInherit+0x3c>
 8009ff0:	4d25      	ldr	r5, [pc, #148]	; (800a088 <xTaskPriorityInherit+0xa0>)
 8009ff2:	6ac2      	ldr	r2, [r0, #44]	; 0x2c
 8009ff4:	6829      	ldr	r1, [r5, #0]
 8009ff6:	6ac9      	ldr	r1, [r1, #44]	; 0x2c
 8009ff8:	428a      	cmp	r2, r1
 8009ffa:	d215      	bcs.n	800a028 <xTaskPriorityInherit+0x40>
 8009ffc:	6981      	ldr	r1, [r0, #24]
 8009ffe:	2900      	cmp	r1, #0
 800a000:	db04      	blt.n	800a00c <xTaskPriorityInherit+0x24>
 800a002:	6829      	ldr	r1, [r5, #0]
 800a004:	6ac9      	ldr	r1, [r1, #44]	; 0x2c
 800a006:	f1c1 0107 	rsb	r1, r1, #7
 800a00a:	6181      	str	r1, [r0, #24]
 800a00c:	4e1f      	ldr	r6, [pc, #124]	; (800a08c <xTaskPriorityInherit+0xa4>)
 800a00e:	eb02 0282 	add.w	r2, r2, r2, lsl #2
 800a012:	6979      	ldr	r1, [r7, #20]
 800a014:	eb06 0282 	add.w	r2, r6, r2, lsl #2
 800a018:	4291      	cmp	r1, r2
 800a01a:	d00e      	beq.n	800a03a <xTaskPriorityInherit+0x52>
 800a01c:	2001      	movs	r0, #1
 800a01e:	682a      	ldr	r2, [r5, #0]
 800a020:	6ad2      	ldr	r2, [r2, #44]	; 0x2c
 800a022:	62fa      	str	r2, [r7, #44]	; 0x2c
 800a024:	e8bd 81f0 	ldmia.w	sp!, {r4, r5, r6, r7, r8, pc}
 800a028:	682a      	ldr	r2, [r5, #0]
 800a02a:	6c40      	ldr	r0, [r0, #68]	; 0x44
 800a02c:	6ad3      	ldr	r3, [r2, #44]	; 0x2c
 800a02e:	4298      	cmp	r0, r3
 800a030:	bf2c      	ite	cs
 800a032:	2000      	movcs	r0, #0
 800a034:	2001      	movcc	r0, #1
 800a036:	e8bd 81f0 	ldmia.w	sp!, {r4, r5, r6, r7, r8, pc}
 800a03a:	f107 0804 	add.w	r8, r7, #4
 800a03e:	4640      	mov	r0, r8
 800a040:	f7fe faf0 	bl	8008624 <uxListRemove>
 800a044:	b968      	cbnz	r0, 800a062 <xTaskPriorityInherit+0x7a>
 800a046:	6af9      	ldr	r1, [r7, #44]	; 0x2c
 800a048:	eb01 0381 	add.w	r3, r1, r1, lsl #2
 800a04c:	009b      	lsls	r3, r3, #2
 800a04e:	58f3      	ldr	r3, [r6, r3]
 800a050:	b93b      	cbnz	r3, 800a062 <xTaskPriorityInherit+0x7a>
 800a052:	2301      	movs	r3, #1
 800a054:	4a0e      	ldr	r2, [pc, #56]	; (800a090 <xTaskPriorityInherit+0xa8>)
 800a056:	408b      	lsls	r3, r1
 800a058:	6811      	ldr	r1, [r2, #0]
 800a05a:	ea21 0103 	bic.w	r1, r1, r3
 800a05e:	6011      	str	r1, [r2, #0]
 800a060:	e000      	b.n	800a064 <xTaskPriorityInherit+0x7c>
 800a062:	4a0b      	ldr	r2, [pc, #44]	; (800a090 <xTaskPriorityInherit+0xa8>)
 800a064:	2401      	movs	r4, #1
 800a066:	682b      	ldr	r3, [r5, #0]
 800a068:	6815      	ldr	r5, [r2, #0]
 800a06a:	6ad8      	ldr	r0, [r3, #44]	; 0x2c
 800a06c:	4641      	mov	r1, r8
 800a06e:	62f8      	str	r0, [r7, #44]	; 0x2c
 800a070:	fa04 f300 	lsl.w	r3, r4, r0
 800a074:	eb00 0080 	add.w	r0, r0, r0, lsl #2
 800a078:	eb06 0080 	add.w	r0, r6, r0, lsl #2
 800a07c:	432b      	orrs	r3, r5
 800a07e:	6013      	str	r3, [r2, #0]
 800a080:	f7fe faa8 	bl	80085d4 <vListInsertEnd>
 800a084:	4620      	mov	r0, r4
 800a086:	e7cd      	b.n	800a024 <xTaskPriorityInherit+0x3c>
 800a088:	200002c0 	.word	0x200002c0
 800a08c:	200002cc 	.word	0x200002cc
 800a090:	2000036c 	.word	0x2000036c

0800a094 <xTaskPriorityDisinherit>:
 800a094:	b168      	cbz	r0, 800a0b2 <xTaskPriorityDisinherit+0x1e>
 800a096:	b5f8      	push	{r3, r4, r5, r6, r7, lr}
 800a098:	4b29      	ldr	r3, [pc, #164]	; (800a140 <xTaskPriorityDisinherit+0xac>)
 800a09a:	681b      	ldr	r3, [r3, #0]
 800a09c:	4283      	cmp	r3, r0
 800a09e:	d00a      	beq.n	800a0b6 <xTaskPriorityDisinherit+0x22>
 800a0a0:	f04f 0350 	mov.w	r3, #80	; 0x50
 800a0a4:	f383 8811 	msr	BASEPRI, r3
 800a0a8:	f3bf 8f6f 	isb	sy
 800a0ac:	f3bf 8f4f 	dsb	sy
 800a0b0:	e7fe      	b.n	800a0b0 <xTaskPriorityDisinherit+0x1c>
 800a0b2:	2000      	movs	r0, #0
 800a0b4:	4770      	bx	lr
 800a0b6:	6c9b      	ldr	r3, [r3, #72]	; 0x48
 800a0b8:	b943      	cbnz	r3, 800a0cc <xTaskPriorityDisinherit+0x38>
 800a0ba:	f04f 0350 	mov.w	r3, #80	; 0x50
 800a0be:	f383 8811 	msr	BASEPRI, r3
 800a0c2:	f3bf 8f6f 	isb	sy
 800a0c6:	f3bf 8f4f 	dsb	sy
 800a0ca:	e7fe      	b.n	800a0ca <xTaskPriorityDisinherit+0x36>
 800a0cc:	6ac1      	ldr	r1, [r0, #44]	; 0x2c
 800a0ce:	6c42      	ldr	r2, [r0, #68]	; 0x44
 800a0d0:	3b01      	subs	r3, #1
 800a0d2:	4291      	cmp	r1, r2
 800a0d4:	6483      	str	r3, [r0, #72]	; 0x48
 800a0d6:	d000      	beq.n	800a0da <xTaskPriorityDisinherit+0x46>
 800a0d8:	b10b      	cbz	r3, 800a0de <xTaskPriorityDisinherit+0x4a>
 800a0da:	2000      	movs	r0, #0
 800a0dc:	bdf8      	pop	{r3, r4, r5, r6, r7, pc}
 800a0de:	1d07      	adds	r7, r0, #4
 800a0e0:	4604      	mov	r4, r0
 800a0e2:	4638      	mov	r0, r7
 800a0e4:	f7fe fa9e 	bl	8008624 <uxListRemove>
 800a0e8:	b1b8      	cbz	r0, 800a11a <xTaskPriorityDisinherit+0x86>
 800a0ea:	4816      	ldr	r0, [pc, #88]	; (800a144 <xTaskPriorityDisinherit+0xb0>)
 800a0ec:	4b16      	ldr	r3, [pc, #88]	; (800a148 <xTaskPriorityDisinherit+0xb4>)
 800a0ee:	2501      	movs	r5, #1
 800a0f0:	f04f 0c14 	mov.w	ip, #20
 800a0f4:	6c62      	ldr	r2, [r4, #68]	; 0x44
 800a0f6:	f8d3 e000 	ldr.w	lr, [r3]
 800a0fa:	fa05 f602 	lsl.w	r6, r5, r2
 800a0fe:	4639      	mov	r1, r7
 800a100:	f1c2 0707 	rsb	r7, r2, #7
 800a104:	ea46 060e 	orr.w	r6, r6, lr
 800a108:	fb0c 0002 	mla	r0, ip, r2, r0
 800a10c:	62e2      	str	r2, [r4, #44]	; 0x2c
 800a10e:	61a7      	str	r7, [r4, #24]
 800a110:	601e      	str	r6, [r3, #0]
 800a112:	f7fe fa5f 	bl	80085d4 <vListInsertEnd>
 800a116:	4628      	mov	r0, r5
 800a118:	bdf8      	pop	{r3, r4, r5, r6, r7, pc}
 800a11a:	2314      	movs	r3, #20
 800a11c:	6ae5      	ldr	r5, [r4, #44]	; 0x2c
 800a11e:	4809      	ldr	r0, [pc, #36]	; (800a144 <xTaskPriorityDisinherit+0xb0>)
 800a120:	fb03 f305 	mul.w	r3, r3, r5
 800a124:	58c3      	ldr	r3, [r0, r3]
 800a126:	b10b      	cbz	r3, 800a12c <xTaskPriorityDisinherit+0x98>
 800a128:	4b07      	ldr	r3, [pc, #28]	; (800a148 <xTaskPriorityDisinherit+0xb4>)
 800a12a:	e7e0      	b.n	800a0ee <xTaskPriorityDisinherit+0x5a>
 800a12c:	2201      	movs	r2, #1
 800a12e:	4b06      	ldr	r3, [pc, #24]	; (800a148 <xTaskPriorityDisinherit+0xb4>)
 800a130:	fa02 f505 	lsl.w	r5, r2, r5
 800a134:	681a      	ldr	r2, [r3, #0]
 800a136:	ea22 0205 	bic.w	r2, r2, r5
 800a13a:	601a      	str	r2, [r3, #0]
 800a13c:	e7d7      	b.n	800a0ee <xTaskPriorityDisinherit+0x5a>
 800a13e:	bf00      	nop
 800a140:	200002c0 	.word	0x200002c0
 800a144:	200002cc 	.word	0x200002cc
 800a148:	2000036c 	.word	0x2000036c

0800a14c <vTaskPriorityDisinheritAfterTimeout>:
 800a14c:	b1a8      	cbz	r0, 800a17a <vTaskPriorityDisinheritAfterTimeout+0x2e>
 800a14e:	b5f8      	push	{r3, r4, r5, r6, r7, lr}
 800a150:	6c84      	ldr	r4, [r0, #72]	; 0x48
 800a152:	b944      	cbnz	r4, 800a166 <vTaskPriorityDisinheritAfterTimeout+0x1a>
 800a154:	f04f 0350 	mov.w	r3, #80	; 0x50
 800a158:	f383 8811 	msr	BASEPRI, r3
 800a15c:	f3bf 8f6f 	isb	sy
 800a160:	f3bf 8f4f 	dsb	sy
 800a164:	e7fe      	b.n	800a164 <vTaskPriorityDisinheritAfterTimeout+0x18>
 800a166:	6c43      	ldr	r3, [r0, #68]	; 0x44
 800a168:	6ac2      	ldr	r2, [r0, #44]	; 0x2c
 800a16a:	428b      	cmp	r3, r1
 800a16c:	bf38      	it	cc
 800a16e:	460b      	movcc	r3, r1
 800a170:	429a      	cmp	r2, r3
 800a172:	d001      	beq.n	800a178 <vTaskPriorityDisinheritAfterTimeout+0x2c>
 800a174:	2c01      	cmp	r4, #1
 800a176:	d001      	beq.n	800a17c <vTaskPriorityDisinheritAfterTimeout+0x30>
 800a178:	bdf8      	pop	{r3, r4, r5, r6, r7, pc}
 800a17a:	4770      	bx	lr
 800a17c:	491f      	ldr	r1, [pc, #124]	; (800a1fc <vTaskPriorityDisinheritAfterTimeout+0xb0>)
 800a17e:	6809      	ldr	r1, [r1, #0]
 800a180:	4281      	cmp	r1, r0
 800a182:	d022      	beq.n	800a1ca <vTaskPriorityDisinheritAfterTimeout+0x7e>
 800a184:	2514      	movs	r5, #20
 800a186:	6981      	ldr	r1, [r0, #24]
 800a188:	4e1d      	ldr	r6, [pc, #116]	; (800a200 <vTaskPriorityDisinheritAfterTimeout+0xb4>)
 800a18a:	2900      	cmp	r1, #0
 800a18c:	fb05 6202 	mla	r2, r5, r2, r6
 800a190:	62c3      	str	r3, [r0, #44]	; 0x2c
 800a192:	bfa4      	itt	ge
 800a194:	f1c3 0307 	rsbge	r3, r3, #7
 800a198:	6183      	strge	r3, [r0, #24]
 800a19a:	6943      	ldr	r3, [r0, #20]
 800a19c:	4293      	cmp	r3, r2
 800a19e:	d1eb      	bne.n	800a178 <vTaskPriorityDisinheritAfterTimeout+0x2c>
 800a1a0:	1d07      	adds	r7, r0, #4
 800a1a2:	4604      	mov	r4, r0
 800a1a4:	4638      	mov	r0, r7
 800a1a6:	f7fe fa3d 	bl	8008624 <uxListRemove>
 800a1aa:	b1b8      	cbz	r0, 800a1dc <vTaskPriorityDisinheritAfterTimeout+0x90>
 800a1ac:	6ae0      	ldr	r0, [r4, #44]	; 0x2c
 800a1ae:	4b15      	ldr	r3, [pc, #84]	; (800a204 <vTaskPriorityDisinheritAfterTimeout+0xb8>)
 800a1b0:	2201      	movs	r2, #1
 800a1b2:	2414      	movs	r4, #20
 800a1b4:	681d      	ldr	r5, [r3, #0]
 800a1b6:	4082      	lsls	r2, r0
 800a1b8:	432a      	orrs	r2, r5
 800a1ba:	4639      	mov	r1, r7
 800a1bc:	fb04 6000 	mla	r0, r4, r0, r6
 800a1c0:	601a      	str	r2, [r3, #0]
 800a1c2:	e8bd 40f8 	ldmia.w	sp!, {r3, r4, r5, r6, r7, lr}
 800a1c6:	f7fe ba05 	b.w	80085d4 <vListInsertEnd>
 800a1ca:	f04f 0350 	mov.w	r3, #80	; 0x50
 800a1ce:	f383 8811 	msr	BASEPRI, r3
 800a1d2:	f3bf 8f6f 	isb	sy
 800a1d6:	f3bf 8f4f 	dsb	sy
 800a1da:	e7fe      	b.n	800a1da <vTaskPriorityDisinheritAfterTimeout+0x8e>
 800a1dc:	2201      	movs	r2, #1
 800a1de:	6ae0      	ldr	r0, [r4, #44]	; 0x2c
 800a1e0:	fb05 f500 	mul.w	r5, r5, r0
 800a1e4:	5973      	ldr	r3, [r6, r5]
 800a1e6:	fa02 f100 	lsl.w	r1, r2, r0
 800a1ea:	b10b      	cbz	r3, 800a1f0 <vTaskPriorityDisinheritAfterTimeout+0xa4>
 800a1ec:	4b05      	ldr	r3, [pc, #20]	; (800a204 <vTaskPriorityDisinheritAfterTimeout+0xb8>)
 800a1ee:	e7df      	b.n	800a1b0 <vTaskPriorityDisinheritAfterTimeout+0x64>
 800a1f0:	4b04      	ldr	r3, [pc, #16]	; (800a204 <vTaskPriorityDisinheritAfterTimeout+0xb8>)
 800a1f2:	681a      	ldr	r2, [r3, #0]
 800a1f4:	ea22 0201 	bic.w	r2, r2, r1
 800a1f8:	601a      	str	r2, [r3, #0]
 800a1fa:	e7d9      	b.n	800a1b0 <vTaskPriorityDisinheritAfterTimeout+0x64>
 800a1fc:	200002c0 	.word	0x200002c0
 800a200:	200002cc 	.word	0x200002cc
 800a204:	2000036c 	.word	0x2000036c

0800a208 <pvTaskIncrementMutexHeldCount>:
 800a208:	4b04      	ldr	r3, [pc, #16]	; (800a21c <pvTaskIncrementMutexHeldCount+0x14>)
 800a20a:	681a      	ldr	r2, [r3, #0]
 800a20c:	b11a      	cbz	r2, 800a216 <pvTaskIncrementMutexHeldCount+0xe>
 800a20e:	6819      	ldr	r1, [r3, #0]
 800a210:	6c8a      	ldr	r2, [r1, #72]	; 0x48
 800a212:	3201      	adds	r2, #1
 800a214:	648a      	str	r2, [r1, #72]	; 0x48
 800a216:	6818      	ldr	r0, [r3, #0]
 800a218:	4770      	bx	lr
 800a21a:	bf00      	nop
 800a21c:	200002c0 	.word	0x200002c0

0800a220 <prvTaskExitError>:
 800a220:	2200      	movs	r2, #0
 800a222:	4b0e      	ldr	r3, [pc, #56]	; (800a25c <prvTaskExitError+0x3c>)
 800a224:	b082      	sub	sp, #8
 800a226:	681b      	ldr	r3, [r3, #0]
 800a228:	9201      	str	r2, [sp, #4]
 800a22a:	3301      	adds	r3, #1
 800a22c:	d008      	beq.n	800a240 <prvTaskExitError+0x20>
 800a22e:	f04f 0350 	mov.w	r3, #80	; 0x50
 800a232:	f383 8811 	msr	BASEPRI, r3
 800a236:	f3bf 8f6f 	isb	sy
 800a23a:	f3bf 8f4f 	dsb	sy
 800a23e:	e7fe      	b.n	800a23e <prvTaskExitError+0x1e>
 800a240:	f04f 0350 	mov.w	r3, #80	; 0x50
 800a244:	f383 8811 	msr	BASEPRI, r3
 800a248:	f3bf 8f6f 	isb	sy
 800a24c:	f3bf 8f4f 	dsb	sy
 800a250:	9b01      	ldr	r3, [sp, #4]
 800a252:	2b00      	cmp	r3, #0
 800a254:	d0fc      	beq.n	800a250 <prvTaskExitError+0x30>
 800a256:	b002      	add	sp, #8
 800a258:	4770      	bx	lr
 800a25a:	bf00      	nop
 800a25c:	20000010 	.word	0x20000010

0800a260 <prvPortStartFirstTask>:
 800a260:	4806      	ldr	r0, [pc, #24]	; (800a27c <prvPortStartFirstTask+0x1c>)
 800a262:	6800      	ldr	r0, [r0, #0]
 800a264:	6800      	ldr	r0, [r0, #0]
 800a266:	f380 8808 	msr	MSP, r0
 800a26a:	b662      	cpsie	i
 800a26c:	b661      	cpsie	f
 800a26e:	f3bf 8f4f 	dsb	sy
 800a272:	f3bf 8f6f 	isb	sy
 800a276:	df00      	svc	0
 800a278:	bf00      	nop
 800a27a:	0000      	.short	0x0000
 800a27c:	e000ed08 	.word	0xe000ed08

0800a280 <pxPortInitialiseStack>:
 800a280:	b410      	push	{r4}
 800a282:	f04f 7480 	mov.w	r4, #16777216	; 0x1000000
 800a286:	4b06      	ldr	r3, [pc, #24]	; (800a2a0 <pxPortInitialiseStack+0x20>)
 800a288:	f021 0101 	bic.w	r1, r1, #1
 800a28c:	f840 2c20 	str.w	r2, [r0, #-32]
 800a290:	e940 1402 	strd	r1, r4, [r0, #-8]
 800a294:	f840 3c0c 	str.w	r3, [r0, #-12]
 800a298:	bc10      	pop	{r4}
 800a29a:	3840      	subs	r0, #64	; 0x40
 800a29c:	4770      	bx	lr
 800a29e:	bf00      	nop
 800a2a0:	0800a221 	.word	0x0800a221
	...

0800a2b0 <SVC_Handler>:
 800a2b0:	4b07      	ldr	r3, [pc, #28]	; (800a2d0 <pxCurrentTCBConst2>)
 800a2b2:	6819      	ldr	r1, [r3, #0]
 800a2b4:	6808      	ldr	r0, [r1, #0]
 800a2b6:	e8b0 0ff0 	ldmia.w	r0!, {r4, r5, r6, r7, r8, r9, sl, fp}
 800a2ba:	f380 8809 	msr	PSP, r0
 800a2be:	f3bf 8f6f 	isb	sy
 800a2c2:	f04f 0000 	mov.w	r0, #0
 800a2c6:	f380 8811 	msr	BASEPRI, r0
 800a2ca:	f04e 0e0d 	orr.w	lr, lr, #13
 800a2ce:	4770      	bx	lr

0800a2d0 <pxCurrentTCBConst2>:
 800a2d0:	200002c0 	.word	0x200002c0

0800a2d4 <vPortEnterCritical>:
 800a2d4:	f04f 0350 	mov.w	r3, #80	; 0x50
 800a2d8:	f383 8811 	msr	BASEPRI, r3
 800a2dc:	f3bf 8f6f 	isb	sy
 800a2e0:	f3bf 8f4f 	dsb	sy
 800a2e4:	4a0a      	ldr	r2, [pc, #40]	; (800a310 <vPortEnterCritical+0x3c>)
 800a2e6:	6813      	ldr	r3, [r2, #0]
 800a2e8:	3301      	adds	r3, #1
 800a2ea:	2b01      	cmp	r3, #1
 800a2ec:	6013      	str	r3, [r2, #0]
 800a2ee:	d000      	beq.n	800a2f2 <vPortEnterCritical+0x1e>
 800a2f0:	4770      	bx	lr
 800a2f2:	4b08      	ldr	r3, [pc, #32]	; (800a314 <vPortEnterCritical+0x40>)
 800a2f4:	681b      	ldr	r3, [r3, #0]
 800a2f6:	f013 0fff 	tst.w	r3, #255	; 0xff
 800a2fa:	d0f9      	beq.n	800a2f0 <vPortEnterCritical+0x1c>
 800a2fc:	f04f 0350 	mov.w	r3, #80	; 0x50
 800a300:	f383 8811 	msr	BASEPRI, r3
 800a304:	f3bf 8f6f 	isb	sy
 800a308:	f3bf 8f4f 	dsb	sy
 800a30c:	e7fe      	b.n	800a30c <vPortEnterCritical+0x38>
 800a30e:	bf00      	nop
 800a310:	20000010 	.word	0x20000010
 800a314:	e000ed04 	.word	0xe000ed04

0800a318 <vPortExitCritical>:
 800a318:	4a08      	ldr	r2, [pc, #32]	; (800a33c <vPortExitCritical+0x24>)
 800a31a:	6813      	ldr	r3, [r2, #0]
 800a31c:	b943      	cbnz	r3, 800a330 <vPortExitCritical+0x18>
 800a31e:	f04f 0350 	mov.w	r3, #80	; 0x50
 800a322:	f383 8811 	msr	BASEPRI, r3
 800a326:	f3bf 8f6f 	isb	sy
 800a32a:	f3bf 8f4f 	dsb	sy
 800a32e:	e7fe      	b.n	800a32e <vPortExitCritical+0x16>
 800a330:	3b01      	subs	r3, #1
 800a332:	6013      	str	r3, [r2, #0]
 800a334:	b90b      	cbnz	r3, 800a33a <vPortExitCritical+0x22>
 800a336:	f383 8811 	msr	BASEPRI, r3
 800a33a:	4770      	bx	lr
 800a33c:	20000010 	.word	0x20000010

0800a340 <PendSV_Handler>:
 800a340:	f3ef 8009 	mrs	r0, PSP
 800a344:	f3bf 8f6f 	isb	sy
 800a348:	4b0d      	ldr	r3, [pc, #52]	; (800a380 <pxCurrentTCBConst>)
 800a34a:	681a      	ldr	r2, [r3, #0]
 800a34c:	e920 0ff0 	stmdb	r0!, {r4, r5, r6, r7, r8, r9, sl, fp}
 800a350:	6010      	str	r0, [r2, #0]
 800a352:	e92d 4008 	stmdb	sp!, {r3, lr}
 800a356:	f04f 0050 	mov.w	r0, #80	; 0x50
 800a35a:	f380 8811 	msr	BASEPRI, r0
 800a35e:	f7ff fd07 	bl	8009d70 <vTaskSwitchContext>
 800a362:	f04f 0000 	mov.w	r0, #0
 800a366:	f380 8811 	msr	BASEPRI, r0
 800a36a:	e8bd 4008 	ldmia.w	sp!, {r3, lr}
 800a36e:	6819      	ldr	r1, [r3, #0]
 800a370:	6808      	ldr	r0, [r1, #0]
 800a372:	e8b0 0ff0 	ldmia.w	r0!, {r4, r5, r6, r7, r8, r9, sl, fp}
 800a376:	f380 8809 	msr	PSP, r0
 800a37a:	f3bf 8f6f 	isb	sy
 800a37e:	4770      	bx	lr

0800a380 <pxCurrentTCBConst>:
 800a380:	200002c0 	.word	0x200002c0

0800a384 <SysTick_Handler>:
 800a384:	b508      	push	{r3, lr}
 800a386:	f04f 0350 	mov.w	r3, #80	; 0x50
 800a38a:	f383 8811 	msr	BASEPRI, r3
 800a38e:	f3bf 8f6f 	isb	sy
 800a392:	f3bf 8f4f 	dsb	sy
 800a396:	f7ff fb91 	bl	8009abc <xTaskIncrementTick>
 800a39a:	b118      	cbz	r0, 800a3a4 <SysTick_Handler+0x20>
 800a39c:	f04f 5280 	mov.w	r2, #268435456	; 0x10000000
 800a3a0:	4b02      	ldr	r3, [pc, #8]	; (800a3ac <SysTick_Handler+0x28>)
 800a3a2:	601a      	str	r2, [r3, #0]
 800a3a4:	2300      	movs	r3, #0
 800a3a6:	f383 8811 	msr	BASEPRI, r3
 800a3aa:	bd08      	pop	{r3, pc}
 800a3ac:	e000ed04 	.word	0xe000ed04

0800a3b0 <vPortSetupTimerInterrupt>:
 800a3b0:	2300      	movs	r3, #0
 800a3b2:	2107      	movs	r1, #7
 800a3b4:	b410      	push	{r4}
 800a3b6:	4a08      	ldr	r2, [pc, #32]	; (800a3d8 <vPortSetupTimerInterrupt+0x28>)
 800a3b8:	4c08      	ldr	r4, [pc, #32]	; (800a3dc <vPortSetupTimerInterrupt+0x2c>)
 800a3ba:	4809      	ldr	r0, [pc, #36]	; (800a3e0 <vPortSetupTimerInterrupt+0x30>)
 800a3bc:	6013      	str	r3, [r2, #0]
 800a3be:	6023      	str	r3, [r4, #0]
 800a3c0:	6803      	ldr	r3, [r0, #0]
 800a3c2:	4c08      	ldr	r4, [pc, #32]	; (800a3e4 <vPortSetupTimerInterrupt+0x34>)
 800a3c4:	4808      	ldr	r0, [pc, #32]	; (800a3e8 <vPortSetupTimerInterrupt+0x38>)
 800a3c6:	fba4 4303 	umull	r4, r3, r4, r3
 800a3ca:	099b      	lsrs	r3, r3, #6
 800a3cc:	3b01      	subs	r3, #1
 800a3ce:	6003      	str	r3, [r0, #0]
 800a3d0:	bc10      	pop	{r4}
 800a3d2:	6011      	str	r1, [r2, #0]
 800a3d4:	4770      	bx	lr
 800a3d6:	bf00      	nop
 800a3d8:	e000e010 	.word	0xe000e010
 800a3dc:	e000e018 	.word	0xe000e018
 800a3e0:	20000000 	.word	0x20000000
 800a3e4:	10624dd3 	.word	0x10624dd3
 800a3e8:	e000e014 	.word	0xe000e014

0800a3ec <xPortStartScheduler>:
 800a3ec:	b530      	push	{r4, r5, lr}
 800a3ee:	25ff      	movs	r5, #255	; 0xff
 800a3f0:	2407      	movs	r4, #7
 800a3f2:	4b27      	ldr	r3, [pc, #156]	; (800a490 <xPortStartScheduler+0xa4>)
 800a3f4:	b083      	sub	sp, #12
 800a3f6:	781a      	ldrb	r2, [r3, #0]
 800a3f8:	4926      	ldr	r1, [pc, #152]	; (800a494 <xPortStartScheduler+0xa8>)
 800a3fa:	b2d2      	uxtb	r2, r2
 800a3fc:	9201      	str	r2, [sp, #4]
 800a3fe:	701d      	strb	r5, [r3, #0]
 800a400:	781b      	ldrb	r3, [r3, #0]
 800a402:	4825      	ldr	r0, [pc, #148]	; (800a498 <xPortStartScheduler+0xac>)
 800a404:	b2db      	uxtb	r3, r3
 800a406:	f88d 3003 	strb.w	r3, [sp, #3]
 800a40a:	f89d 3003 	ldrb.w	r3, [sp, #3]
 800a40e:	f89d 2003 	ldrb.w	r2, [sp, #3]
 800a412:	f003 0350 	and.w	r3, r3, #80	; 0x50
 800a416:	700b      	strb	r3, [r1, #0]
 800a418:	0611      	lsls	r1, r2, #24
 800a41a:	6004      	str	r4, [r0, #0]
 800a41c:	d510      	bpl.n	800a440 <xPortStartScheduler+0x54>
 800a41e:	2306      	movs	r3, #6
 800a420:	e000      	b.n	800a424 <xPortStartScheduler+0x38>
 800a422:	460b      	mov	r3, r1
 800a424:	f89d 2003 	ldrb.w	r2, [sp, #3]
 800a428:	1e59      	subs	r1, r3, #1
 800a42a:	0052      	lsls	r2, r2, #1
 800a42c:	b2d2      	uxtb	r2, r2
 800a42e:	f88d 2003 	strb.w	r2, [sp, #3]
 800a432:	f89d 2003 	ldrb.w	r2, [sp, #3]
 800a436:	0612      	lsls	r2, r2, #24
 800a438:	d4f3      	bmi.n	800a422 <xPortStartScheduler+0x36>
 800a43a:	2b03      	cmp	r3, #3
 800a43c:	6003      	str	r3, [r0, #0]
 800a43e:	d008      	beq.n	800a452 <xPortStartScheduler+0x66>
 800a440:	f04f 0350 	mov.w	r3, #80	; 0x50
 800a444:	f383 8811 	msr	BASEPRI, r3
 800a448:	f3bf 8f6f 	isb	sy
 800a44c:	f3bf 8f4f 	dsb	sy
 800a450:	e7fe      	b.n	800a450 <xPortStartScheduler+0x64>
 800a452:	2400      	movs	r4, #0
 800a454:	9901      	ldr	r1, [sp, #4]
 800a456:	4d0e      	ldr	r5, [pc, #56]	; (800a490 <xPortStartScheduler+0xa4>)
 800a458:	021b      	lsls	r3, r3, #8
 800a45a:	4a10      	ldr	r2, [pc, #64]	; (800a49c <xPortStartScheduler+0xb0>)
 800a45c:	b2c9      	uxtb	r1, r1
 800a45e:	f403 63e0 	and.w	r3, r3, #1792	; 0x700
 800a462:	6003      	str	r3, [r0, #0]
 800a464:	7029      	strb	r1, [r5, #0]
 800a466:	6813      	ldr	r3, [r2, #0]
 800a468:	f443 0370 	orr.w	r3, r3, #15728640	; 0xf00000
 800a46c:	6013      	str	r3, [r2, #0]
 800a46e:	6813      	ldr	r3, [r2, #0]
 800a470:	f043 4370 	orr.w	r3, r3, #4026531840	; 0xf0000000
 800a474:	6013      	str	r3, [r2, #0]
 800a476:	f7ff ff9b 	bl	800a3b0 <vPortSetupTimerInterrupt>
 800a47a:	4b09      	ldr	r3, [pc, #36]	; (800a4a0 <xPortStartScheduler+0xb4>)
 800a47c:	601c      	str	r4, [r3, #0]
 800a47e:	f7ff feef 	bl	800a260 <prvPortStartFirstTask>
 800a482:	f7ff fc75 	bl	8009d70 <vTaskSwitchContext>
 800a486:	f7ff fecb 	bl	800a220 <prvTaskExitError>
 800a48a:	4620      	mov	r0, r4
 800a48c:	b003      	add	sp, #12
 800a48e:	bd30      	pop	{r4, r5, pc}
 800a490:	e000e400 	.word	0xe000e400
 800a494:	200003e8 	.word	0x200003e8
 800a498:	200003ec 	.word	0x200003ec
 800a49c:	e000ed20 	.word	0xe000ed20
 800a4a0:	20000010 	.word	0x20000010

0800a4a4 <vPortValidateInterruptPriority>:
 800a4a4:	f3ef 8305 	mrs	r3, IPSR
 800a4a8:	2b0f      	cmp	r3, #15
 800a4aa:	d90e      	bls.n	800a4ca <vPortValidateInterruptPriority+0x26>
 800a4ac:	4910      	ldr	r1, [pc, #64]	; (800a4f0 <vPortValidateInterruptPriority+0x4c>)
 800a4ae:	4a11      	ldr	r2, [pc, #68]	; (800a4f4 <vPortValidateInterruptPriority+0x50>)
 800a4b0:	5c5b      	ldrb	r3, [r3, r1]
 800a4b2:	7812      	ldrb	r2, [r2, #0]
 800a4b4:	429a      	cmp	r2, r3
 800a4b6:	d908      	bls.n	800a4ca <vPortValidateInterruptPriority+0x26>
 800a4b8:	f04f 0350 	mov.w	r3, #80	; 0x50
 800a4bc:	f383 8811 	msr	BASEPRI, r3
 800a4c0:	f3bf 8f6f 	isb	sy
 800a4c4:	f3bf 8f4f 	dsb	sy
 800a4c8:	e7fe      	b.n	800a4c8 <vPortValidateInterruptPriority+0x24>
 800a4ca:	4b0b      	ldr	r3, [pc, #44]	; (800a4f8 <vPortValidateInterruptPriority+0x54>)
 800a4cc:	4a0b      	ldr	r2, [pc, #44]	; (800a4fc <vPortValidateInterruptPriority+0x58>)
 800a4ce:	681b      	ldr	r3, [r3, #0]
 800a4d0:	6812      	ldr	r2, [r2, #0]
 800a4d2:	f403 63e0 	and.w	r3, r3, #1792	; 0x700
 800a4d6:	4293      	cmp	r3, r2
 800a4d8:	d908      	bls.n	800a4ec <vPortValidateInterruptPriority+0x48>
 800a4da:	f04f 0350 	mov.w	r3, #80	; 0x50
 800a4de:	f383 8811 	msr	BASEPRI, r3
 800a4e2:	f3bf 8f6f 	isb	sy
 800a4e6:	f3bf 8f4f 	dsb	sy
 800a4ea:	e7fe      	b.n	800a4ea <vPortValidateInterruptPriority+0x46>
 800a4ec:	4770      	bx	lr
 800a4ee:	bf00      	nop
 800a4f0:	e000e3f0 	.word	0xe000e3f0
 800a4f4:	200003e8 	.word	0x200003e8
 800a4f8:	e000ed0c 	.word	0xe000ed0c
 800a4fc:	200003ec 	.word	0x200003ec

0800a500 <prvInsertBlockIntoFreeList>:
 800a500:	b430      	push	{r4, r5}
 800a502:	4b11      	ldr	r3, [pc, #68]	; (800a548 <prvInsertBlockIntoFreeList+0x48>)
 800a504:	681a      	ldr	r2, [r3, #0]
 800a506:	4282      	cmp	r2, r0
 800a508:	d201      	bcs.n	800a50e <prvInsertBlockIntoFreeList+0xe>
 800a50a:	4613      	mov	r3, r2
 800a50c:	e7fa      	b.n	800a504 <prvInsertBlockIntoFreeList+0x4>
 800a50e:	685c      	ldr	r4, [r3, #4]
 800a510:	1919      	adds	r1, r3, r4
 800a512:	4288      	cmp	r0, r1
 800a514:	d103      	bne.n	800a51e <prvInsertBlockIntoFreeList+0x1e>
 800a516:	6841      	ldr	r1, [r0, #4]
 800a518:	4618      	mov	r0, r3
 800a51a:	4421      	add	r1, r4
 800a51c:	6059      	str	r1, [r3, #4]
 800a51e:	6844      	ldr	r4, [r0, #4]
 800a520:	1901      	adds	r1, r0, r4
 800a522:	428a      	cmp	r2, r1
 800a524:	d109      	bne.n	800a53a <prvInsertBlockIntoFreeList+0x3a>
 800a526:	4909      	ldr	r1, [pc, #36]	; (800a54c <prvInsertBlockIntoFreeList+0x4c>)
 800a528:	6809      	ldr	r1, [r1, #0]
 800a52a:	428a      	cmp	r2, r1
 800a52c:	d005      	beq.n	800a53a <prvInsertBlockIntoFreeList+0x3a>
 800a52e:	e9d2 5100 	ldrd	r5, r1, [r2]
 800a532:	4421      	add	r1, r4
 800a534:	e9c0 5100 	strd	r5, r1, [r0]
 800a538:	e000      	b.n	800a53c <prvInsertBlockIntoFreeList+0x3c>
 800a53a:	6002      	str	r2, [r0, #0]
 800a53c:	4298      	cmp	r0, r3
 800a53e:	bf18      	it	ne
 800a540:	6018      	strne	r0, [r3, #0]
 800a542:	bc30      	pop	{r4, r5}
 800a544:	4770      	bx	lr
 800a546:	bf00      	nop
 800a548:	20004000 	.word	0x20004000
 800a54c:	200003f0 	.word	0x200003f0

0800a550 <pvPortMalloc>:
 800a550:	e92d 41f0 	stmdb	sp!, {r4, r5, r6, r7, r8, lr}
 800a554:	4f41      	ldr	r7, [pc, #260]	; (800a65c <pvPortMalloc+0x10c>)
 800a556:	4604      	mov	r4, r0
 800a558:	f7ff fa9a 	bl	8009a90 <vTaskSuspendAll>
 800a55c:	683a      	ldr	r2, [r7, #0]
 800a55e:	2a00      	cmp	r2, #0
 800a560:	d05a      	beq.n	800a618 <pvPortMalloc+0xc8>
 800a562:	4b3f      	ldr	r3, [pc, #252]	; (800a660 <pvPortMalloc+0x110>)
 800a564:	681e      	ldr	r6, [r3, #0]
 800a566:	4234      	tst	r4, r6
 800a568:	d150      	bne.n	800a60c <pvPortMalloc+0xbc>
 800a56a:	2c00      	cmp	r4, #0
 800a56c:	d04e      	beq.n	800a60c <pvPortMalloc+0xbc>
 800a56e:	f104 0308 	add.w	r3, r4, #8
 800a572:	0758      	lsls	r0, r3, #29
 800a574:	bf1c      	itt	ne
 800a576:	f023 0307 	bicne.w	r3, r3, #7
 800a57a:	3308      	addne	r3, #8
 800a57c:	2b00      	cmp	r3, #0
 800a57e:	d045      	beq.n	800a60c <pvPortMalloc+0xbc>
 800a580:	f8df 80f0 	ldr.w	r8, [pc, #240]	; 800a674 <pvPortMalloc+0x124>
 800a584:	f8d8 5000 	ldr.w	r5, [r8]
 800a588:	429d      	cmp	r5, r3
 800a58a:	d33f      	bcc.n	800a60c <pvPortMalloc+0xbc>
 800a58c:	4835      	ldr	r0, [pc, #212]	; (800a664 <pvPortMalloc+0x114>)
 800a58e:	6804      	ldr	r4, [r0, #0]
 800a590:	e006      	b.n	800a5a0 <pvPortMalloc+0x50>
 800a592:	f8d4 c000 	ldr.w	ip, [r4]
 800a596:	f1bc 0f00 	cmp.w	ip, #0
 800a59a:	d004      	beq.n	800a5a6 <pvPortMalloc+0x56>
 800a59c:	4620      	mov	r0, r4
 800a59e:	4664      	mov	r4, ip
 800a5a0:	6861      	ldr	r1, [r4, #4]
 800a5a2:	4299      	cmp	r1, r3
 800a5a4:	d3f5      	bcc.n	800a592 <pvPortMalloc+0x42>
 800a5a6:	4294      	cmp	r4, r2
 800a5a8:	d030      	beq.n	800a60c <pvPortMalloc+0xbc>
 800a5aa:	1aca      	subs	r2, r1, r3
 800a5ac:	6827      	ldr	r7, [r4, #0]
 800a5ae:	2a10      	cmp	r2, #16
 800a5b0:	6007      	str	r7, [r0, #0]
 800a5b2:	d910      	bls.n	800a5d6 <pvPortMalloc+0x86>
 800a5b4:	18e0      	adds	r0, r4, r3
 800a5b6:	0741      	lsls	r1, r0, #29
 800a5b8:	d008      	beq.n	800a5cc <pvPortMalloc+0x7c>
 800a5ba:	f04f 0350 	mov.w	r3, #80	; 0x50
 800a5be:	f383 8811 	msr	BASEPRI, r3
 800a5c2:	f3bf 8f6f 	isb	sy
 800a5c6:	f3bf 8f4f 	dsb	sy
 800a5ca:	e7fe      	b.n	800a5ca <pvPortMalloc+0x7a>
 800a5cc:	6042      	str	r2, [r0, #4]
 800a5ce:	6063      	str	r3, [r4, #4]
 800a5d0:	f7ff ff96 	bl	800a500 <prvInsertBlockIntoFreeList>
 800a5d4:	6861      	ldr	r1, [r4, #4]
 800a5d6:	2300      	movs	r3, #0
 800a5d8:	4a23      	ldr	r2, [pc, #140]	; (800a668 <pvPortMalloc+0x118>)
 800a5da:	1a6d      	subs	r5, r5, r1
 800a5dc:	6810      	ldr	r0, [r2, #0]
 800a5de:	4331      	orrs	r1, r6
 800a5e0:	4285      	cmp	r5, r0
 800a5e2:	e9c4 3100 	strd	r3, r1, [r4]
 800a5e6:	f104 0408 	add.w	r4, r4, #8
 800a5ea:	bf38      	it	cc
 800a5ec:	6015      	strcc	r5, [r2, #0]
 800a5ee:	f8c8 5000 	str.w	r5, [r8]
 800a5f2:	f7ff fb0f 	bl	8009c14 <xTaskResumeAll>
 800a5f6:	0763      	lsls	r3, r4, #29
 800a5f8:	d00b      	beq.n	800a612 <pvPortMalloc+0xc2>
 800a5fa:	f04f 0350 	mov.w	r3, #80	; 0x50
 800a5fe:	f383 8811 	msr	BASEPRI, r3
 800a602:	f3bf 8f6f 	isb	sy
 800a606:	f3bf 8f4f 	dsb	sy
 800a60a:	e7fe      	b.n	800a60a <pvPortMalloc+0xba>
 800a60c:	f7ff fb02 	bl	8009c14 <xTaskResumeAll>
 800a610:	2400      	movs	r4, #0
 800a612:	4620      	mov	r0, r4
 800a614:	e8bd 81f0 	ldmia.w	sp!, {r4, r5, r6, r7, r8, pc}
 800a618:	4b14      	ldr	r3, [pc, #80]	; (800a66c <pvPortMalloc+0x11c>)
 800a61a:	2000      	movs	r0, #0
 800a61c:	075d      	lsls	r5, r3, #29
 800a61e:	bf1c      	itt	ne
 800a620:	3307      	addne	r3, #7
 800a622:	f023 0307 	bicne.w	r3, r3, #7
 800a626:	4619      	mov	r1, r3
 800a628:	f04f 4500 	mov.w	r5, #2147483648	; 0x80000000
 800a62c:	4a10      	ldr	r2, [pc, #64]	; (800a670 <pvPortMalloc+0x120>)
 800a62e:	f8df c034 	ldr.w	ip, [pc, #52]	; 800a664 <pvPortMalloc+0x114>
 800a632:	f022 0207 	bic.w	r2, r2, #7
 800a636:	1ad3      	subs	r3, r2, r3
 800a638:	f8cc 0004 	str.w	r0, [ip, #4]
 800a63c:	f8cc 1000 	str.w	r1, [ip]
 800a640:	603a      	str	r2, [r7, #0]
 800a642:	e9c2 0000 	strd	r0, r0, [r2]
 800a646:	4f08      	ldr	r7, [pc, #32]	; (800a668 <pvPortMalloc+0x118>)
 800a648:	e9c1 2300 	strd	r2, r3, [r1]
 800a64c:	4809      	ldr	r0, [pc, #36]	; (800a674 <pvPortMalloc+0x124>)
 800a64e:	4904      	ldr	r1, [pc, #16]	; (800a660 <pvPortMalloc+0x110>)
 800a650:	462e      	mov	r6, r5
 800a652:	603b      	str	r3, [r7, #0]
 800a654:	6003      	str	r3, [r0, #0]
 800a656:	600d      	str	r5, [r1, #0]
 800a658:	e785      	b.n	800a566 <pvPortMalloc+0x16>
 800a65a:	bf00      	nop
 800a65c:	200003f0 	.word	0x200003f0
 800a660:	20003ff4 	.word	0x20003ff4
 800a664:	20004000 	.word	0x20004000
 800a668:	20003ffc 	.word	0x20003ffc
 800a66c:	200003f4 	.word	0x200003f4
 800a670:	20003fec 	.word	0x20003fec
 800a674:	20003ff8 	.word	0x20003ff8

0800a678 <vPortFree>:
 800a678:	b1d0      	cbz	r0, 800a6b0 <vPortFree+0x38>
 800a67a:	4a19      	ldr	r2, [pc, #100]	; (800a6e0 <vPortFree+0x68>)
 800a67c:	f850 3c04 	ldr.w	r3, [r0, #-4]
 800a680:	6812      	ldr	r2, [r2, #0]
 800a682:	4213      	tst	r3, r2
 800a684:	d108      	bne.n	800a698 <vPortFree+0x20>
 800a686:	f04f 0350 	mov.w	r3, #80	; 0x50
 800a68a:	f383 8811 	msr	BASEPRI, r3
 800a68e:	f3bf 8f6f 	isb	sy
 800a692:	f3bf 8f4f 	dsb	sy
 800a696:	e7fe      	b.n	800a696 <vPortFree+0x1e>
 800a698:	f850 1c08 	ldr.w	r1, [r0, #-8]
 800a69c:	b149      	cbz	r1, 800a6b2 <vPortFree+0x3a>
 800a69e:	f04f 0350 	mov.w	r3, #80	; 0x50
 800a6a2:	f383 8811 	msr	BASEPRI, r3
 800a6a6:	f3bf 8f6f 	isb	sy
 800a6aa:	f3bf 8f4f 	dsb	sy
 800a6ae:	e7fe      	b.n	800a6ae <vPortFree+0x36>
 800a6b0:	4770      	bx	lr
 800a6b2:	b510      	push	{r4, lr}
 800a6b4:	4604      	mov	r4, r0
 800a6b6:	ea23 0302 	bic.w	r3, r3, r2
 800a6ba:	f840 3c04 	str.w	r3, [r0, #-4]
 800a6be:	f7ff f9e7 	bl	8009a90 <vTaskSuspendAll>
 800a6c2:	4a08      	ldr	r2, [pc, #32]	; (800a6e4 <vPortFree+0x6c>)
 800a6c4:	f854 3c04 	ldr.w	r3, [r4, #-4]
 800a6c8:	6811      	ldr	r1, [r2, #0]
 800a6ca:	f1a4 0008 	sub.w	r0, r4, #8
 800a6ce:	440b      	add	r3, r1
 800a6d0:	6013      	str	r3, [r2, #0]
 800a6d2:	f7ff ff15 	bl	800a500 <prvInsertBlockIntoFreeList>
 800a6d6:	e8bd 4010 	ldmia.w	sp!, {r4, lr}
 800a6da:	f7ff ba9b 	b.w	8009c14 <xTaskResumeAll>
 800a6de:	bf00      	nop
 800a6e0:	20003ff4 	.word	0x20003ff4
 800a6e4:	20003ff8 	.word	0x20003ff8

0800a6e8 <__libc_init_array>:
 800a6e8:	b570      	push	{r4, r5, r6, lr}
 800a6ea:	2500      	movs	r5, #0
 800a6ec:	4e0c      	ldr	r6, [pc, #48]	; (800a720 <__libc_init_array+0x38>)
 800a6ee:	4c0d      	ldr	r4, [pc, #52]	; (800a724 <__libc_init_array+0x3c>)
 800a6f0:	1ba4      	subs	r4, r4, r6
 800a6f2:	10a4      	asrs	r4, r4, #2
 800a6f4:	42a5      	cmp	r5, r4
 800a6f6:	d109      	bne.n	800a70c <__libc_init_array+0x24>
 800a6f8:	f000 f82e 	bl	800a758 <_init>
 800a6fc:	2500      	movs	r5, #0
 800a6fe:	4e0a      	ldr	r6, [pc, #40]	; (800a728 <__libc_init_array+0x40>)
 800a700:	4c0a      	ldr	r4, [pc, #40]	; (800a72c <__libc_init_array+0x44>)
 800a702:	1ba4      	subs	r4, r4, r6
 800a704:	10a4      	asrs	r4, r4, #2
 800a706:	42a5      	cmp	r5, r4
 800a708:	d105      	bne.n	800a716 <__libc_init_array+0x2e>
 800a70a:	bd70      	pop	{r4, r5, r6, pc}
 800a70c:	f856 3025 	ldr.w	r3, [r6, r5, lsl #2]
 800a710:	4798      	blx	r3
 800a712:	3501      	adds	r5, #1
 800a714:	e7ee      	b.n	800a6f4 <__libc_init_array+0xc>
 800a716:	f856 3025 	ldr.w	r3, [r6, r5, lsl #2]
 800a71a:	4798      	blx	r3
 800a71c:	3501      	adds	r5, #1
 800a71e:	e7f2      	b.n	800a706 <__libc_init_array+0x1e>
 800a720:	0800acf8 	.word	0x0800acf8
 800a724:	0800acf8 	.word	0x0800acf8
 800a728:	0800acf8 	.word	0x0800acf8
 800a72c:	0800acfc 	.word	0x0800acfc

0800a730 <memcpy>:
 800a730:	b510      	push	{r4, lr}
 800a732:	1e43      	subs	r3, r0, #1
 800a734:	440a      	add	r2, r1
 800a736:	4291      	cmp	r1, r2
 800a738:	d100      	bne.n	800a73c <memcpy+0xc>
 800a73a:	bd10      	pop	{r4, pc}
 800a73c:	f811 4b01 	ldrb.w	r4, [r1], #1
 800a740:	f803 4f01 	strb.w	r4, [r3, #1]!
 800a744:	e7f7      	b.n	800a736 <memcpy+0x6>

0800a746 <memset>:
 800a746:	4603      	mov	r3, r0
 800a748:	4402      	add	r2, r0
 800a74a:	4293      	cmp	r3, r2
 800a74c:	d100      	bne.n	800a750 <memset+0xa>
 800a74e:	4770      	bx	lr
 800a750:	f803 1b01 	strb.w	r1, [r3], #1
 800a754:	e7f9      	b.n	800a74a <memset+0x4>
	...

0800a758 <_init>:
 800a758:	b5f8      	push	{r3, r4, r5, r6, r7, lr}
 800a75a:	bf00      	nop
 800a75c:	bcf8      	pop	{r3, r4, r5, r6, r7}
 800a75e:	bc08      	pop	{r3}
 800a760:	469e      	mov	lr, r3
 800a762:	4770      	bx	lr

0800a764 <_fini>:
 800a764:	b5f8      	push	{r3, r4, r5, r6, r7, lr}
 800a766:	bf00      	nop
 800a768:	bcf8      	pop	{r3, r4, r5, r6, r7}
 800a76a:	bc08      	pop	{r3}
 800a76c:	469e      	mov	lr, r3
 800a76e:	4770      	bx	lr
